GAS LISTING /tmp/ccr9UTLb.s 			page 1


   1              		.file	"main.cpp"
   2              		.option pic
   3              		.option norelax
   4              		.text
   5              	.Ltext0:
   6              		.align	2
   7              		.globl	_Z7createCm
   9              	_Z7createCm:
  10              	.LFB52:
  11              		.file 1 "src/main.cpp"
   1:src/main.cpp  **** 
   2:src/main.cpp  **** #include "../h/riscv.hpp"
   3:src/main.cpp  **** #include "../h/syscall_c.hpp"
   4:src/main.cpp  **** #include "../h/print.hpp"
   5:src/main.cpp  **** #include "../h/PCB.hpp"
   6:src/main.cpp  **** #include "../h/syscall_cpp.hpp"
   7:src/main.cpp  **** 
   8:src/main.cpp  **** 
   9:src/main.cpp  **** struct A {
  10:src/main.cpp  ****     int a;
  11:src/main.cpp  ****     int* b = nullptr;
  12:src/main.cpp  **** };
  13:src/main.cpp  **** 
  14:src/main.cpp  **** struct B {
  15:src/main.cpp  ****     int a;
  16:src/main.cpp  ****     int* b = nullptr;
  17:src/main.cpp  ****     long c;
  18:src/main.cpp  ****     char d[50];
  19:src/main.cpp  **** };
  20:src/main.cpp  **** 
  21:src/main.cpp  **** class C{
  22:src/main.cpp  **** private:
  23:src/main.cpp  ****     uint64 num;
  24:src/main.cpp  **** 
  25:src/main.cpp  **** public:
  26:src/main.cpp  **** 
  27:src/main.cpp  ****     C(uint64 n){
  28:src/main.cpp  ****         num = n;
  29:src/main.cpp  ****     }
  30:src/main.cpp  **** 
  31:src/main.cpp  **** 
  32:src/main.cpp  **** 
  33:src/main.cpp  **** 
  34:src/main.cpp  **** };
  35:src/main.cpp  **** 
  36:src/main.cpp  **** C* createC(uint64 n){
  12              		.loc 1 36 21
  13              		.cfi_startproc
  14              	.LVL0:
  15 0000 130101FE 		addi	sp,sp,-32
  16              		.cfi_def_cfa_offset 32
  17 0004 233C1100 		sd	ra,24(sp)
  18 0008 23388100 		sd	s0,16(sp)
  19 000c 23349100 		sd	s1,8(sp)
  20              		.cfi_offset 1, -8
  21              		.cfi_offset 8, -16
  22              		.cfi_offset 9, -24
GAS LISTING /tmp/ccr9UTLb.s 			page 2


  23 0010 13040102 		addi	s0,sp,32
  24              		.cfi_def_cfa 8, 0
  25 0014 93040500 		mv	s1,a0
  37:src/main.cpp  ****     return new C(n);
  26              		.loc 1 37 5
  27              		.loc 1 37 19 is_stmt 0
  28 0018 13058000 		li	a0,8
  29              	.LVL1:
  30 001c 97000000 		call	_Znwm@plt
  30      E7800000 
  31              	.LVL2:
  32              	.LBB22:
  33              	.LBB23:
  28:src/main.cpp  ****     }
  34              		.loc 1 28 9 is_stmt 1
  28:src/main.cpp  ****     }
  35              		.loc 1 28 13 is_stmt 0
  36 0024 23309500 		sd	s1,0(a0)
  37              	.LVL3:
  38              	.LBE23:
  39              	.LBE22:
  38:src/main.cpp  **** }
  40              		.loc 1 38 1
  41 0028 83308101 		ld	ra,24(sp)
  42              		.cfi_restore 1
  43 002c 03340101 		ld	s0,16(sp)
  44              		.cfi_restore 8
  45              		.cfi_def_cfa 2, 32
  46 0030 83348100 		ld	s1,8(sp)
  47              		.cfi_restore 9
  48              	.LVL4:
  49 0034 13010102 		addi	sp,sp,32
  50              		.cfi_def_cfa_offset 0
  51 0038 67800000 		jr	ra
  52              		.cfi_endproc
  53              	.LFE52:
  55              		.align	2
  56              		.globl	main
  58              	main:
  59              	.LFB53:
  39:src/main.cpp  **** 
  40:src/main.cpp  **** extern void userMain();
  41:src/main.cpp  **** 
  42:src/main.cpp  **** int main() {
  60              		.loc 1 42 12 is_stmt 1
  61              		.cfi_startproc
  62              		.cfi_personality 0x9b,DW.ref.__gxx_personality_v0
  63              		.cfi_lsda 0x1b,.LLSDA53
  64 003c 130101FE 		addi	sp,sp,-32
  65              		.cfi_def_cfa_offset 32
  66 0040 233C1100 		sd	ra,24(sp)
  67 0044 23388100 		sd	s0,16(sp)
  68 0048 23349100 		sd	s1,8(sp)
  69 004c 23302101 		sd	s2,0(sp)
  70              		.cfi_offset 1, -8
  71              		.cfi_offset 8, -16
  72              		.cfi_offset 9, -24
GAS LISTING /tmp/ccr9UTLb.s 			page 3


  73              		.cfi_offset 18, -32
  74 0050 13040102 		addi	s0,sp,32
  75              		.cfi_def_cfa 8, 0
  43:src/main.cpp  **** 
  44:src/main.cpp  **** 
  45:src/main.cpp  ****     MemoryAllocator::getInstance().init();
  76              		.loc 1 45 5
  77              	.LBB24:
  78              	.LBB25:
  79              		.file 2 "src/../h/../h/MemoryAllocator.hpp"
   1:src/../h/../h/MemoryAllocator.hpp **** #ifndef PROJECT_BASE_V1_1_MEMORYALLOCATOR_HPP
   2:src/../h/../h/MemoryAllocator.hpp **** #define PROJECT_BASE_V1_1_MEMORYALLOCATOR_HPP
   3:src/../h/../h/MemoryAllocator.hpp **** #include "print.hpp"
   4:src/../h/../h/MemoryAllocator.hpp **** 
   5:src/../h/../h/MemoryAllocator.hpp **** struct Block {
   6:src/../h/../h/MemoryAllocator.hpp ****     size_t size;
   7:src/../h/../h/MemoryAllocator.hpp ****     Block *next;
   8:src/../h/../h/MemoryAllocator.hpp **** };
   9:src/../h/../h/MemoryAllocator.hpp **** 
  10:src/../h/../h/MemoryAllocator.hpp **** class MemoryAllocator {
  11:src/../h/../h/MemoryAllocator.hpp **** 
  12:src/../h/../h/MemoryAllocator.hpp **** private:
  13:src/../h/../h/MemoryAllocator.hpp **** 
  14:src/../h/../h/MemoryAllocator.hpp **** 
  15:src/../h/../h/MemoryAllocator.hpp ****     MemoryAllocator() {}
  16:src/../h/../h/MemoryAllocator.hpp **** 
  17:src/../h/../h/MemoryAllocator.hpp ****     static Block *free_list;
  18:src/../h/../h/MemoryAllocator.hpp ****     static Block *allocated_list;
  19:src/../h/../h/MemoryAllocator.hpp **** 
  20:src/../h/../h/MemoryAllocator.hpp **** 
  21:src/../h/../h/MemoryAllocator.hpp **** public:
  22:src/../h/../h/MemoryAllocator.hpp **** 
  23:src/../h/../h/MemoryAllocator.hpp **** 
  24:src/../h/../h/MemoryAllocator.hpp ****     // Get the singleton instance
  25:src/../h/../h/MemoryAllocator.hpp ****     static MemoryAllocator &getInstance() {
  26:src/../h/../h/MemoryAllocator.hpp ****         static MemoryAllocator instance;
  80              		.loc 2 26 9
  81              		.loc 2 26 32 is_stmt 0
  82 0054 97070000 		lbu	a5,_ZGVZN15MemoryAllocator11getInstanceEvE8instance
  82      83C70700 
  83 005c 63980700 		bnez	a5,.L4
  84              	.LVL5:
  85 0060 93071000 		li	a5,1
  86 0064 17070000 		sb	a5,_ZGVZN15MemoryAllocator11getInstanceEvE8instance,a4
  86      2300F700 
  87              	.LVL6:
  88              	.L4:
  27:src/../h/../h/MemoryAllocator.hpp ****         return instance;
  89              		.loc 2 27 9 is_stmt 1
  90              	.LBE25:
  91              	.LBE24:
  92              	.LBB26:
  93              	.LBB27:
  28:src/../h/../h/MemoryAllocator.hpp ****     }
  29:src/../h/../h/MemoryAllocator.hpp **** 
  30:src/../h/../h/MemoryAllocator.hpp ****     static void init() {
  31:src/../h/../h/MemoryAllocator.hpp ****         // Initialize the free list
GAS LISTING /tmp/ccr9UTLb.s 			page 4


  32:src/../h/../h/MemoryAllocator.hpp **** 
  33:src/../h/../h/MemoryAllocator.hpp ****         // For testing purposes
  34:src/../h/../h/MemoryAllocator.hpp **** //        uint64 start = (uint64)((Block *) HEAP_START_ADDR);
  35:src/../h/../h/MemoryAllocator.hpp **** //        printInteger(start);
  36:src/../h/../h/MemoryAllocator.hpp **** //        printString("\n");
  37:src/../h/../h/MemoryAllocator.hpp **** //        uint64 end = (uint64)((Block *) HEAP_END_ADDR);
  38:src/../h/../h/MemoryAllocator.hpp **** //        printInteger(end);
  39:src/../h/../h/MemoryAllocator.hpp **** //        printString("\n");
  40:src/../h/../h/MemoryAllocator.hpp **** 
  41:src/../h/../h/MemoryAllocator.hpp ****         free_list = (Block *) HEAP_START_ADDR;
  94              		.loc 2 41 9
  95              		.loc 2 41 19 is_stmt 0
  96 006c 97070000 		la	a5,HEAP_START_ADDR
  96      83B70700 
  97 0074 03B70700 		ld	a4,0(a5)
  98 0078 97060000 		la	a3,_ZN15MemoryAllocator9free_listE
  98      83B60600 
  99 0080 23B0E600 		sd	a4,0(a3)
  42:src/../h/../h/MemoryAllocator.hpp ****         free_list->size = (uint64 *) HEAP_END_ADDR - (uint64 *) HEAP_START_ADDR;
 100              		.loc 2 42 9 is_stmt 1
 101              		.loc 2 42 27 is_stmt 0
 102 0084 97070000 		la	a5,HEAP_END_ADDR
 102      83B70700 
 103 008c 83B70700 		ld	a5,0(a5)
 104              		.loc 2 42 52
 105 0090 B387E740 		sub	a5,a5,a4
 106 0094 93D73740 		srai	a5,a5,3
 107              		.loc 2 42 25
 108 0098 2330F700 		sd	a5,0(a4)
  43:src/../h/../h/MemoryAllocator.hpp ****         free_list->next = nullptr;
 109              		.loc 2 43 9 is_stmt 1
 110              		.loc 2 43 20 is_stmt 0
 111 009c 83B70600 		ld	a5,0(a3)
 112              		.loc 2 43 25
 113 00a0 23B40700 		sd	zero,8(a5)
  44:src/../h/../h/MemoryAllocator.hpp ****         allocated_list = nullptr;
 114              		.loc 2 44 9 is_stmt 1
 115              		.loc 2 44 24 is_stmt 0
 116 00a4 97070000 		la	a5,_ZN15MemoryAllocator14allocated_listE
 116      83B70700 
 117 00ac 23B00700 		sd	zero,0(a5)
 118              	.LBE27:
 119              	.LBE26:
  46:src/main.cpp  ****     Riscv::w_stvec((uint64) &Riscv::supervisorTrap+1);
 120              		.loc 1 46 5 is_stmt 1
 121              		.loc 1 46 19 is_stmt 0
 122 00b0 97070000 		la	a5,_ZN5Riscv14supervisorTrapEv
 122      83B70700 
 123 00b8 93871700 		addi	a5,a5,1
 124              	.LVL7:
 125              	.LBB28:
 126              	.LBB29:
 127              		.file 3 "src/../h/riscv.hpp"
   1:src/../h/riscv.hpp **** #ifndef PROJECT_BASE_V1_1_RISCV_HPP
   2:src/../h/riscv.hpp **** #define PROJECT_BASE_V1_1_RISCV_HPP
   3:src/../h/riscv.hpp **** 
   4:src/../h/riscv.hpp **** 
GAS LISTING /tmp/ccr9UTLb.s 			page 5


   5:src/../h/riscv.hpp **** #include "../h/MemoryAllocator.hpp"
   6:src/../h/riscv.hpp **** #include "PCB.hpp"
   7:src/../h/riscv.hpp **** 
   8:src/../h/riscv.hpp **** 
   9:src/../h/riscv.hpp **** #define readUsrReg(reg, dst) __asm__ volatile("mv %0,"#reg : "=r" (dst));
  10:src/../h/riscv.hpp **** #define writeUsrReg(reg, src) __asm__ volatile("mv "#reg", %0" : : "r" (src));
  11:src/../h/riscv.hpp **** 
  12:src/../h/riscv.hpp **** 
  13:src/../h/riscv.hpp **** class Riscv
  14:src/../h/riscv.hpp **** {
  15:src/../h/riscv.hpp **** public:
  16:src/../h/riscv.hpp **** 
  17:src/../h/riscv.hpp **** 
  18:src/../h/riscv.hpp **** 
  19:src/../h/riscv.hpp ****     // pop sstatus.spp and sstatus.spie bits (has to be a non inline function)
  20:src/../h/riscv.hpp ****     static void popSppSpie();
  21:src/../h/riscv.hpp **** 
  22:src/../h/riscv.hpp ****     // push x3..x31 registers onto stack
  23:src/../h/riscv.hpp ****     static void pushRegisters();
  24:src/../h/riscv.hpp **** 
  25:src/../h/riscv.hpp ****     // pop x3..x31 registers onto stack
  26:src/../h/riscv.hpp ****     static void popRegisters();
  27:src/../h/riscv.hpp **** 
  28:src/../h/riscv.hpp ****     // read register scause
  29:src/../h/riscv.hpp ****     static uint64 r_scause();
  30:src/../h/riscv.hpp **** 
  31:src/../h/riscv.hpp ****     // write register scause
  32:src/../h/riscv.hpp ****     static void w_scause(uint64 scause);
  33:src/../h/riscv.hpp **** 
  34:src/../h/riscv.hpp ****     // read register sepc
  35:src/../h/riscv.hpp ****     static uint64 r_sepc();
  36:src/../h/riscv.hpp **** 
  37:src/../h/riscv.hpp ****     // write register sepc
  38:src/../h/riscv.hpp ****     static void w_sepc(uint64 sepc);
  39:src/../h/riscv.hpp **** 
  40:src/../h/riscv.hpp ****     // read register stvec
  41:src/../h/riscv.hpp ****     static uint64 r_stvec();
  42:src/../h/riscv.hpp **** 
  43:src/../h/riscv.hpp ****     // write register stvec
  44:src/../h/riscv.hpp ****     static void w_stvec(uint64 stvec);
  45:src/../h/riscv.hpp **** 
  46:src/../h/riscv.hpp ****     // read register stval
  47:src/../h/riscv.hpp ****     static uint64 r_stval();
  48:src/../h/riscv.hpp **** 
  49:src/../h/riscv.hpp ****     // write register stval
  50:src/../h/riscv.hpp ****     static void w_stval(uint64 stval);
  51:src/../h/riscv.hpp **** 
  52:src/../h/riscv.hpp ****     enum BitMaskSip
  53:src/../h/riscv.hpp ****     {
  54:src/../h/riscv.hpp **** //        SIP_SSIE = (1 << 1),
  55:src/../h/riscv.hpp **** //        SIP_STIE = (1 << 5),
  56:src/../h/riscv.hpp **** //        SIP_SEIE = (1 << 9),
  57:src/../h/riscv.hpp ****         SIP_SSIP = (1<<1),
  58:src/../h/riscv.hpp ****         SIP_SEIP = (1<<9)
  59:src/../h/riscv.hpp ****     };
  60:src/../h/riscv.hpp **** 
  61:src/../h/riscv.hpp ****     // mask set register sip
GAS LISTING /tmp/ccr9UTLb.s 			page 6


  62:src/../h/riscv.hpp ****     static void ms_sip(uint64 mask);
  63:src/../h/riscv.hpp **** 
  64:src/../h/riscv.hpp ****     // mask clear register sip
  65:src/../h/riscv.hpp ****     static void mc_sip(uint64 mask);
  66:src/../h/riscv.hpp **** 
  67:src/../h/riscv.hpp ****     // read register sip
  68:src/../h/riscv.hpp ****     static uint64 r_sip();
  69:src/../h/riscv.hpp **** 
  70:src/../h/riscv.hpp ****     // write register sip
  71:src/../h/riscv.hpp ****     static void w_sip(uint64 sip);
  72:src/../h/riscv.hpp **** 
  73:src/../h/riscv.hpp ****     enum BitMaskSstatus
  74:src/../h/riscv.hpp ****     {
  75:src/../h/riscv.hpp ****         SSTATUS_SIE = (1 << 1),
  76:src/../h/riscv.hpp ****         SSTATUS_SPIE = (1 << 5),
  77:src/../h/riscv.hpp ****         SSTATUS_SPP = (1 << 8),
  78:src/../h/riscv.hpp ****     };
  79:src/../h/riscv.hpp **** 
  80:src/../h/riscv.hpp ****     // mask set register sstatus
  81:src/../h/riscv.hpp ****     static void ms_sstatus(uint64 mask);
  82:src/../h/riscv.hpp **** 
  83:src/../h/riscv.hpp ****     // mask clear register sstatus
  84:src/../h/riscv.hpp ****     static void mc_sstatus(uint64 mask);
  85:src/../h/riscv.hpp **** 
  86:src/../h/riscv.hpp ****     // read register sstatus
  87:src/../h/riscv.hpp ****     static uint64 r_sstatus();
  88:src/../h/riscv.hpp **** 
  89:src/../h/riscv.hpp ****     // write register sstatus
  90:src/../h/riscv.hpp ****     static void w_sstatus(uint64 sstatus);
  91:src/../h/riscv.hpp **** 
  92:src/../h/riscv.hpp ****     // mask set register sie
  93:src/../h/riscv.hpp ****     static void ms_sie(uint64 mask);
  94:src/../h/riscv.hpp **** 
  95:src/../h/riscv.hpp ****     // mask clear register sie
  96:src/../h/riscv.hpp ****     static void mc_sie(uint64 mask);
  97:src/../h/riscv.hpp **** 
  98:src/../h/riscv.hpp ****     static void supervisorTrap();
  99:src/../h/riscv.hpp **** 
 100:src/../h/riscv.hpp ****     static long r_a0();
 101:src/../h/riscv.hpp **** 
 102:src/../h/riscv.hpp ****     static void w_a0(long a0);
 103:src/../h/riscv.hpp **** 
 104:src/../h/riscv.hpp ****     static uint64 r_a1();
 105:src/../h/riscv.hpp **** 
 106:src/../h/riscv.hpp ****     static void w_a1(uint64 a1);
 107:src/../h/riscv.hpp **** 
 108:src/../h/riscv.hpp ****     static uint64 r_a2();
 109:src/../h/riscv.hpp **** 
 110:src/../h/riscv.hpp ****     static void w_a2(uint64 a1);
 111:src/../h/riscv.hpp **** 
 112:src/../h/riscv.hpp ****     static uint64 r_a3();
 113:src/../h/riscv.hpp **** 
 114:src/../h/riscv.hpp ****     static void w_a3(uint64 a1);
 115:src/../h/riscv.hpp **** 
 116:src/../h/riscv.hpp ****     static void push_a0(long a0);
 117:src/../h/riscv.hpp **** 
 118:src/../h/riscv.hpp **** private:
GAS LISTING /tmp/ccr9UTLb.s 			page 7


 119:src/../h/riscv.hpp ****     static void trapHandler();
 120:src/../h/riscv.hpp **** 
 121:src/../h/riscv.hpp **** 
 122:src/../h/riscv.hpp **** };
 123:src/../h/riscv.hpp **** 
 124:src/../h/riscv.hpp **** inline uint64 Riscv::r_scause()
 125:src/../h/riscv.hpp **** {
 126:src/../h/riscv.hpp ****     uint64 volatile scause;
 127:src/../h/riscv.hpp ****     __asm__ volatile ("csrr %[scause], scause" : [scause] "=r"(scause));
 128:src/../h/riscv.hpp ****     return scause;
 129:src/../h/riscv.hpp **** }
 130:src/../h/riscv.hpp **** 
 131:src/../h/riscv.hpp **** inline void Riscv::w_scause(uint64 scause)
 132:src/../h/riscv.hpp **** {
 133:src/../h/riscv.hpp ****     __asm__ volatile ("csrw scause, %[scause]" : : [scause] "r"(scause));
 134:src/../h/riscv.hpp **** }
 135:src/../h/riscv.hpp **** 
 136:src/../h/riscv.hpp **** inline uint64 Riscv::r_sepc()
 137:src/../h/riscv.hpp **** {
 138:src/../h/riscv.hpp ****     uint64 volatile sepc;
 139:src/../h/riscv.hpp ****     __asm__ volatile ("csrr %[sepc], sepc" : [sepc] "=r"(sepc));
 140:src/../h/riscv.hpp ****     return sepc;
 141:src/../h/riscv.hpp **** }
 142:src/../h/riscv.hpp **** 
 143:src/../h/riscv.hpp **** inline void Riscv::w_sepc(uint64 sepc)
 144:src/../h/riscv.hpp **** {
 145:src/../h/riscv.hpp ****     __asm__ volatile ("csrw sepc, %[sepc]" : : [sepc] "r"(sepc));
 146:src/../h/riscv.hpp **** }
 147:src/../h/riscv.hpp **** 
 148:src/../h/riscv.hpp **** inline uint64 Riscv::r_stvec()
 149:src/../h/riscv.hpp **** {
 150:src/../h/riscv.hpp ****     uint64 volatile stvec;
 151:src/../h/riscv.hpp ****     __asm__ volatile ("csrr %[stvec], stvec" : [stvec] "=r"(stvec));
 152:src/../h/riscv.hpp ****     return stvec;
 153:src/../h/riscv.hpp **** }
 154:src/../h/riscv.hpp **** 
 155:src/../h/riscv.hpp **** inline void Riscv::w_stvec(uint64 stvec)
 156:src/../h/riscv.hpp **** {
 157:src/../h/riscv.hpp ****     __asm__ volatile ("csrw stvec, %[stvec]" : : [stvec] "r"(stvec));
 128              		.loc 3 157 5 is_stmt 1
 129              		.loc 3 157 69 is_stmt 0
 130              	#APP
 131              	# 157 "src/../h/riscv.hpp" 1
 158              	}
 132              		csrw stvec, a5
 133              	# 0 "" 2
 134              	.LVL8:
 135              	#NO_APP
 136              	.LBE29:
 137              	.LBE28:
  47:src/main.cpp  ****     PCB* pcb = new PCB(nullptr, nullptr, nullptr);
 138              		.loc 1 47 5 is_stmt 1
 139              		.loc 1 47 49 is_stmt 0
 140 00c0 13050003 		li	a0,48
 141              	.LEHB0:
 142 00c4 97000000 		call	_Znwm@plt
 142      E7800000 
GAS LISTING /tmp/ccr9UTLb.s 			page 8


 143              	.LVL9:
 144 00cc 93040500 		mv	s1,a0
 145              	.LVL10:
 146              	.LBB30:
 147              	.LBB31:
 148              		.file 4 "src/../h/PCB.hpp"
   1:src/../h/PCB.hpp **** #ifndef PROJECT_BASE_V1_1_PCB_HPP
   2:src/../h/PCB.hpp **** #define PROJECT_BASE_V1_1_PCB_HPP
   3:src/../h/PCB.hpp **** 
   4:src/../h/PCB.hpp **** 
   5:src/../h/PCB.hpp **** #include "Scheduler.hpp"
   6:src/../h/PCB.hpp **** #include "riscv.hpp"
   7:src/../h/PCB.hpp **** #include "../h/syscall_c.hpp"
   8:src/../h/PCB.hpp **** 
   9:src/../h/PCB.hpp **** 
  10:src/../h/PCB.hpp **** class PCB {
  11:src/../h/PCB.hpp **** public:
  12:src/../h/PCB.hpp ****     struct Context {
  13:src/../h/PCB.hpp ****         uint64 ra;
  14:src/../h/PCB.hpp ****         uint64 sp;
  15:src/../h/PCB.hpp ****     };
  16:src/../h/PCB.hpp **** 
  17:src/../h/PCB.hpp ****     enum State {
  18:src/../h/PCB.hpp ****         READY,
  19:src/../h/PCB.hpp ****         RUNNING,
  20:src/../h/PCB.hpp ****         SUSPENDED,
  21:src/../h/PCB.hpp ****         FINISHED
  22:src/../h/PCB.hpp ****     };
  23:src/../h/PCB.hpp **** 
  24:src/../h/PCB.hpp ****     ~PCB() { delete[] stack; }
  25:src/../h/PCB.hpp **** 
  26:src/../h/PCB.hpp ****     bool isFinished() const { return state == FINISHED; }
  27:src/../h/PCB.hpp **** 
  28:src/../h/PCB.hpp ****     void setState(State s) { state = s; }
  29:src/../h/PCB.hpp **** 
  30:src/../h/PCB.hpp ****     using Body = void (*)(void *);
  31:src/../h/PCB.hpp **** 
  32:src/../h/PCB.hpp **** 
  33:src/../h/PCB.hpp ****     static void dispatch();
  34:src/../h/PCB.hpp **** 
  35:src/../h/PCB.hpp ****     static int exit();
  36:src/../h/PCB.hpp **** 
  37:src/../h/PCB.hpp **** 
  38:src/../h/PCB.hpp ****     static PCB *running;
  39:src/../h/PCB.hpp **** 
  40:src/../h/PCB.hpp **** private:
  41:src/../h/PCB.hpp **** 
  42:src/../h/PCB.hpp ****     static void contextSwitch(Context *old, Context *running);
  43:src/../h/PCB.hpp **** 
  44:src/../h/PCB.hpp ****     static void wrapper();
  45:src/../h/PCB.hpp **** 
  46:src/../h/PCB.hpp **** public:
  47:src/../h/PCB.hpp ****     PCB(Body body, void *args, uint64 *stack) {
  48:src/../h/PCB.hpp ****         this->body = body;
 149              		.loc 4 48 9 is_stmt 1
 150              		.loc 4 48 20 is_stmt 0
 151 00d0 23300500 		sd	zero,0(a0)
GAS LISTING /tmp/ccr9UTLb.s 			page 9


  49:src/../h/PCB.hpp ****         this->stack = stack;
 152              		.loc 4 49 9 is_stmt 1
 153              		.loc 4 49 21 is_stmt 0
 154 00d4 23340500 		sd	zero,8(a0)
  50:src/../h/PCB.hpp ****         context = {(uint64) &wrapper,
 155              		.loc 4 50 9 is_stmt 1
 156              		.loc 4 50 17 is_stmt 0
 157 00d8 97070000 		la	a5,_ZN3PCB7wrapperEv
 157      83B70700 
 158 00e0 233CF500 		sd	a5,24(a0)
 159 00e4 23300502 		sd	zero,32(a0)
  51:src/../h/PCB.hpp ****                    stack != nullptr ? (uint64) &stack[DEFAULT_STACK_SIZE] : 0
  52:src/../h/PCB.hpp ****         };
  53:src/../h/PCB.hpp ****         this->args = args;
 160              		.loc 4 53 9 is_stmt 1
 161              		.loc 4 53 20 is_stmt 0
 162 00e8 23380500 		sd	zero,16(a0)
  54:src/../h/PCB.hpp ****         state = READY;
 163              		.loc 4 54 9 is_stmt 1
 164              		.loc 4 54 15 is_stmt 0
 165 00ec 23240502 		sw	zero,40(a0)
 166              	.LVL11:
 167              	.LBE31:
 168              	.LBE30:
  48:src/main.cpp  ****     PCB::running=pcb;
 169              		.loc 1 48 5 is_stmt 1
 170              		.loc 1 48 17 is_stmt 0
 171 00f0 97070000 		la	a5,_ZN3PCB7runningE
 171      83B70700 
 172 00f8 23B0A700 		sd	a0,0(a5)
  49:src/main.cpp  ****     Riscv::ms_sstatus(Riscv::SSTATUS_SIE);
 173              		.loc 1 49 5 is_stmt 1
 174              	.LVL12:
 175              	.LBB32:
 176              	.LBB33:
 159:src/../h/riscv.hpp **** 
 160:src/../h/riscv.hpp **** inline uint64 Riscv::r_stval()
 161:src/../h/riscv.hpp **** {
 162:src/../h/riscv.hpp ****     uint64 volatile stval;
 163:src/../h/riscv.hpp ****     __asm__ volatile ("csrr %[stval], stval" : [stval] "=r"(stval));
 164:src/../h/riscv.hpp ****     return stval;
 165:src/../h/riscv.hpp **** }
 166:src/../h/riscv.hpp **** 
 167:src/../h/riscv.hpp **** inline void Riscv::w_stval(uint64 stval)
 168:src/../h/riscv.hpp **** {
 169:src/../h/riscv.hpp ****     __asm__ volatile ("csrw stval, %[stval]" : : [stval] "r"(stval));
 170:src/../h/riscv.hpp **** }
 171:src/../h/riscv.hpp **** 
 172:src/../h/riscv.hpp **** inline void Riscv::ms_sip(uint64 mask)
 173:src/../h/riscv.hpp **** {
 174:src/../h/riscv.hpp ****     __asm__ volatile ("csrs sip, %[mask]" : : [mask] "r"(mask));
 175:src/../h/riscv.hpp **** }
 176:src/../h/riscv.hpp **** 
 177:src/../h/riscv.hpp **** inline void Riscv::mc_sip(uint64 mask)
 178:src/../h/riscv.hpp **** {
 179:src/../h/riscv.hpp ****     __asm__ volatile ("csrc sip, %[mask]" : : [mask] "r"(mask));
 180:src/../h/riscv.hpp **** }
GAS LISTING /tmp/ccr9UTLb.s 			page 10


 181:src/../h/riscv.hpp **** 
 182:src/../h/riscv.hpp **** inline uint64 Riscv::r_sip()
 183:src/../h/riscv.hpp **** {
 184:src/../h/riscv.hpp ****     uint64 volatile sip;
 185:src/../h/riscv.hpp ****     __asm__ volatile ("csrr %[sip], sip" : [sip] "=r"(sip));
 186:src/../h/riscv.hpp ****     return sip;
 187:src/../h/riscv.hpp **** }
 188:src/../h/riscv.hpp **** 
 189:src/../h/riscv.hpp **** inline void Riscv::w_sip(uint64 sip)
 190:src/../h/riscv.hpp **** {
 191:src/../h/riscv.hpp ****     __asm__ volatile ("csrw sip, %[sip]" : : [sip] "r"(sip));
 192:src/../h/riscv.hpp **** }
 193:src/../h/riscv.hpp **** 
 194:src/../h/riscv.hpp **** inline void Riscv::ms_sstatus(uint64 mask)
 195:src/../h/riscv.hpp **** {
 196:src/../h/riscv.hpp ****     __asm__ volatile ("csrs sstatus, %[mask]" : : [mask] "r"(mask));
 177              		.loc 3 196 5
 178              		.loc 3 196 68 is_stmt 0
 179 00fc 93072000 		li	a5,2
 180              	#APP
 181              	# 196 "src/../h/riscv.hpp" 1
 197              	}
 182              		csrs sstatus, a5
 183              	# 0 "" 2
 184              	.LVL13:
 185              	#NO_APP
 186              	.LBE33:
 187              	.LBE32:
  50:src/main.cpp  **** 
  51:src/main.cpp  ****     switchToUserMode();
 188              		.loc 1 51 5 is_stmt 1
 189              		.loc 1 51 21 is_stmt 0
 190 0104 97000000 		call	_Z16switchToUserModev@plt
 190      E7800000 
 191              	.LVL14:
  52:src/main.cpp  **** 
  53:src/main.cpp  ****     Thread* userThread = new Thread((void (*)(void *))(userMain), nullptr);
 192              		.loc 1 53 5 is_stmt 1
 193              		.loc 1 53 74 is_stmt 0
 194 010c 13050002 		li	a0,32
 195 0110 97000000 		call	_Znwm@plt
 195      E7800000 
 196              	.LVL15:
 197              	.LEHE0:
 198 0118 13090500 		mv	s2,a0
 199 011c 13060000 		li	a2,0
 200 0120 97050000 		la	a1,_Z8userMainv
 200      83B50500 
 201              	.LEHB1:
 202 0128 97000000 		call	_ZN6ThreadC1EPFvPvES0_@plt
 202      E7800000 
 203              	.LVL16:
 204              	.LEHE1:
  54:src/main.cpp  ****     userThread->start();
 205              		.loc 1 54 5 is_stmt 1 discriminator 2
 206              		.loc 1 54 22 is_stmt 0 discriminator 2
 207 0130 13050900 		mv	a0,s2
GAS LISTING /tmp/ccr9UTLb.s 			page 11


 208              	.LEHB2:
 209 0134 97000000 		call	_ZN6Thread5startEv@plt
 209      E7800000 
 210              	.LVL17:
  55:src/main.cpp  **** 
  56:src/main.cpp  ****     thread_dispatch();
 211              		.loc 1 56 5 is_stmt 1 discriminator 2
 212              		.loc 1 56 20 is_stmt 0 discriminator 2
 213 013c 97000000 		call	_Z15thread_dispatchv@plt
 213      E7800000 
 214              	.LVL18:
  57:src/main.cpp  **** 
  58:src/main.cpp  ****     delete userThread;
 215              		.loc 1 58 5 is_stmt 1 discriminator 2
 216              		.loc 1 58 22 is_stmt 0 discriminator 2
 217 0144 630A0900 		beqz	s2,.L5
 218              		.loc 1 58 12 discriminator 1
 219 0148 83370900 		ld	a5,0(s2)
 220 014c 83B78700 		ld	a5,8(a5)
 221 0150 13050900 		mv	a0,s2
 222 0154 E7800700 		jalr	a5
 223              	.LVL19:
 224              	.L5:
  59:src/main.cpp  ****     delete pcb;
 225              		.loc 1 59 5 is_stmt 1
 226              		.loc 1 59 15 is_stmt 0
 227 0158 63800402 		beqz	s1,.L10
 228              	.LVL20:
 229              	.LBB34:
 230              	.LBB35:
  24:src/../h/PCB.hpp **** 
 231              		.loc 4 24 14 is_stmt 1
  24:src/../h/PCB.hpp **** 
 232              		.loc 4 24 23 is_stmt 0
 233 015c 03B58400 		ld	a0,8(s1)
  24:src/../h/PCB.hpp **** 
 234              		.loc 4 24 28
 235 0160 63060500 		beqz	a0,.L7
  24:src/../h/PCB.hpp **** 
 236              		.loc 4 24 23
 237 0164 97000000 		call	_ZdaPv@plt
 237      E7800000 
 238              	.LVL21:
 239              	.L7:
 240              	.LBE35:
 241              	.LBE34:
 242              		.loc 1 59 12
 243 016c 13850400 		mv	a0,s1
 244 0170 97000000 		call	_ZdlPv@plt
 244      E7800000 
 245              	.LVL22:
 246              	.LEHE2:
  60:src/main.cpp  **** 
  61:src/main.cpp  ****     //printString("MAIN START\n");
  62:src/main.cpp  **** 
  63:src/main.cpp  **** 
  64:src/main.cpp  **** 
GAS LISTING /tmp/ccr9UTLb.s 			page 12


  65:src/main.cpp  **** 
  66:src/main.cpp  ****     //printString("Finished\n");
  67:src/main.cpp  **** 
  68:src/main.cpp  ****     return 0;
 247              		.loc 1 68 5 is_stmt 1
 248              	.L10:
  69:src/main.cpp  **** }...
 249              		.loc 1 69 1 is_stmt 0
 250 0178 13050000 		li	a0,0
 251 017c 83308101 		ld	ra,24(sp)
 252              		.cfi_remember_state
 253              		.cfi_restore 1
 254 0180 03340101 		ld	s0,16(sp)
 255              		.cfi_restore 8
 256              		.cfi_def_cfa 2, 32
 257 0184 83348100 		ld	s1,8(sp)
 258              		.cfi_restore 9
 259              	.LVL23:
 260 0188 03390100 		ld	s2,0(sp)
 261              		.cfi_restore 18
 262              	.LVL24:
 263 018c 13010102 		addi	sp,sp,32
 264              		.cfi_def_cfa_offset 0
 265 0190 67800000 		jr	ra
 266              	.LVL25:
 267              	.L9:
 268              		.cfi_restore_state
 269 0194 93040500 		mv	s1,a0
 270              	.LVL26:
  53:src/main.cpp  ****     Thread* userThread = new Thread((void (*)(void *))(userMain), nullptr);
 271              		.loc 1 53 74
 272 0198 13050900 		mv	a0,s2
 273 019c 97000000 		call	_ZdlPv@plt
 273      E7800000 
 274              	.LVL27:
 275 01a4 13850400 		mv	a0,s1
 276              	.LEHB3:
 277 01a8 97000000 		call	_Unwind_Resume@plt
 277      E7800000 
 278              	.LVL28:
 279              	.LEHE3:
 280              		.cfi_endproc
 281              	.LFE53:
 282              		.globl	__gxx_personality_v0
 283              		.section	.gcc_except_table,"a",@progbits
 284              	.LLSDA53:
 285 0000 FF       		.byte	0xff
 286 0001 FF       		.byte	0xff
 287 0002 03       		.byte	0x3
 288 0003 34       		.byte	0x34
 289 0004 00000000 		.4byte	.LEHB0-.LFB53
 290 0008 00000000 		.4byte	.LEHE0-.LEHB0
 291 000c 00000000 		.4byte	0
 292 0010 00       		.byte	0
 293 0011 00000000 		.4byte	.LEHB1-.LFB53
 294 0015 00000000 		.4byte	.LEHE1-.LEHB1
 295 0019 00000000 		.4byte	.L9-.LFB53
GAS LISTING /tmp/ccr9UTLb.s 			page 13


 296 001d 00       		.byte	0
 297 001e 00000000 		.4byte	.LEHB2-.LFB53
 298 0022 00000000 		.4byte	.LEHE2-.LEHB2
 299 0026 00000000 		.4byte	0
 300 002a 00       		.byte	0
 301 002b 00000000 		.4byte	.LEHB3-.LFB53
 302 002f 00000000 		.4byte	.LEHE3-.LEHB3
 303 0033 00000000 		.4byte	0
 304 0037 00       		.byte	0
 305              		.text
 307              		.weak	_ZGVZN15MemoryAllocator11getInstanceEvE8instance
 308              		.section	.bss._ZGVZN15MemoryAllocator11getInstanceEvE8instance,"awG",@nobits,_ZGVZN15MemoryAllocat
 309              		.align	3
 312              	_ZGVZN15MemoryAllocator11getInstanceEvE8instance:
 313 0000 00000000 		.zero	8
 313      00000000 
 314              		.text
 315              	.Letext0:
 316              		.file 5 "src/../h/../h/../lib/hw.h"
 317              		.file 6 "src/../h/syscall_cpp.hpp"
 318              		.file 7 "src/../h/../h/syscall_c.hpp"
 3160              		.align	3
 3163              	DW.ref.__gxx_personality_v0:
 3164 0000 00000000 		.dword	__gxx_personality_v0
 3164      00000000 
 3165              		.ident	"GCC: (Ubuntu 9.4.0-1ubuntu1~20.04) 9.4.0"
 3166              		.section	.note.GNU-stack,"",@progbits
GAS LISTING /tmp/ccr9UTLb.s 			page 14


DEFINED SYMBOLS
                            *ABS*:0000000000000000 main.cpp
     /tmp/ccr9UTLb.s:9      .text:0000000000000000 _Z7createCm
     /tmp/ccr9UTLb.s:13     .text:0000000000000000 .L0 
     /tmp/ccr9UTLb.s:15     .text:0000000000000000 .L0 
     /tmp/ccr9UTLb.s:16     .text:0000000000000004 .L0 
     /tmp/ccr9UTLb.s:20     .text:0000000000000010 .L0 
     /tmp/ccr9UTLb.s:21     .text:0000000000000010 .L0 
     /tmp/ccr9UTLb.s:22     .text:0000000000000010 .L0 
     /tmp/ccr9UTLb.s:24     .text:0000000000000014 .L0 
     /tmp/ccr9UTLb.s:27     .text:0000000000000018 .L0 
     /tmp/ccr9UTLb.s:28     .text:0000000000000018 .L0 
     /tmp/ccr9UTLb.s:35     .text:0000000000000024 .L0 
     /tmp/ccr9UTLb.s:36     .text:0000000000000024 .L0 
     /tmp/ccr9UTLb.s:41     .text:0000000000000028 .L0 
     /tmp/ccr9UTLb.s:42     .text:000000000000002c .L0 
     /tmp/ccr9UTLb.s:44     .text:0000000000000030 .L0 
     /tmp/ccr9UTLb.s:45     .text:0000000000000030 .L0 
     /tmp/ccr9UTLb.s:47     .text:0000000000000034 .L0 
     /tmp/ccr9UTLb.s:50     .text:0000000000000038 .L0 
     /tmp/ccr9UTLb.s:52     .text:000000000000003c .L0 
     /tmp/ccr9UTLb.s:58     .text:000000000000003c main
     /tmp/ccr9UTLb.s:61     .text:000000000000003c .L0 
     /tmp/ccr9UTLb.s:3163   .data.rel.local.DW.ref.__gxx_personality_v0:0000000000000000 DW.ref.__gxx_personality_v0
     /tmp/ccr9UTLb.s:64     .text:000000000000003c .L0 
     /tmp/ccr9UTLb.s:65     .text:0000000000000040 .L0 
     /tmp/ccr9UTLb.s:70     .text:0000000000000050 .L0 
     /tmp/ccr9UTLb.s:71     .text:0000000000000050 .L0 
     /tmp/ccr9UTLb.s:72     .text:0000000000000050 .L0 
     /tmp/ccr9UTLb.s:73     .text:0000000000000050 .L0 
     /tmp/ccr9UTLb.s:75     .text:0000000000000054 .L0 
     /tmp/ccr9UTLb.s:80     .text:0000000000000054 .L0 
     /tmp/ccr9UTLb.s:81     .text:0000000000000054 .L0 
     /tmp/ccr9UTLb.s:312    .bss._ZGVZN15MemoryAllocator11getInstanceEvE8instance:0000000000000000 _ZGVZN15MemoryAllocator11getInstanceEvE8instance
     /tmp/ccr9UTLb.s:82     .text:0000000000000054 .L0 
     /tmp/ccr9UTLb.s:94     .text:000000000000006c .L0 
     /tmp/ccr9UTLb.s:95     .text:000000000000006c .L0 
     /tmp/ccr9UTLb.s:96     .text:000000000000006c .L0 
     /tmp/ccr9UTLb.s:101    .text:0000000000000084 .L0 
     /tmp/ccr9UTLb.s:102    .text:0000000000000084 .L0 
     /tmp/ccr9UTLb.s:105    .text:0000000000000090 .L0 
     /tmp/ccr9UTLb.s:108    .text:0000000000000098 .L0 
     /tmp/ccr9UTLb.s:110    .text:000000000000009c .L0 
     /tmp/ccr9UTLb.s:111    .text:000000000000009c .L0 
     /tmp/ccr9UTLb.s:113    .text:00000000000000a0 .L0 
     /tmp/ccr9UTLb.s:115    .text:00000000000000a4 .L0 
     /tmp/ccr9UTLb.s:116    .text:00000000000000a4 .L0 
     /tmp/ccr9UTLb.s:121    .text:00000000000000b0 .L0 
     /tmp/ccr9UTLb.s:122    .text:00000000000000b0 .L0 
     /tmp/ccr9UTLb.s:129    .text:00000000000000bc .L0 
  src/../h/riscv.hpp:157    .text:00000000000000bc .L0 
     /tmp/ccr9UTLb.s:139    .text:00000000000000c0 .L0 
     /tmp/ccr9UTLb.s:140    .text:00000000000000c0 .L0 
     /tmp/ccr9UTLb.s:150    .text:00000000000000d0 .L0 
     /tmp/ccr9UTLb.s:151    .text:00000000000000d0 .L0 
     /tmp/ccr9UTLb.s:153    .text:00000000000000d4 .L0 
     /tmp/ccr9UTLb.s:154    .text:00000000000000d4 .L0 
GAS LISTING /tmp/ccr9UTLb.s 			page 15


     /tmp/ccr9UTLb.s:156    .text:00000000000000d8 .L0 
     /tmp/ccr9UTLb.s:157    .text:00000000000000d8 .L0 
     /tmp/ccr9UTLb.s:161    .text:00000000000000e8 .L0 
     /tmp/ccr9UTLb.s:162    .text:00000000000000e8 .L0 
     /tmp/ccr9UTLb.s:164    .text:00000000000000ec .L0 
     /tmp/ccr9UTLb.s:165    .text:00000000000000ec .L0 
     /tmp/ccr9UTLb.s:170    .text:00000000000000f0 .L0 
     /tmp/ccr9UTLb.s:171    .text:00000000000000f0 .L0 
     /tmp/ccr9UTLb.s:177    .text:00000000000000fc .L0 
     /tmp/ccr9UTLb.s:178    .text:00000000000000fc .L0 
     /tmp/ccr9UTLb.s:179    .text:00000000000000fc .L0 
     /tmp/ccr9UTLb.s:189    .text:0000000000000104 .L0 
     /tmp/ccr9UTLb.s:190    .text:0000000000000104 .L0 
     /tmp/ccr9UTLb.s:193    .text:000000000000010c .L0 
     /tmp/ccr9UTLb.s:194    .text:000000000000010c .L0 
     /tmp/ccr9UTLb.s:206    .text:0000000000000130 .L0 
     /tmp/ccr9UTLb.s:207    .text:0000000000000130 .L0 
     /tmp/ccr9UTLb.s:212    .text:000000000000013c .L0 
     /tmp/ccr9UTLb.s:213    .text:000000000000013c .L0 
     /tmp/ccr9UTLb.s:216    .text:0000000000000144 .L0 
     /tmp/ccr9UTLb.s:217    .text:0000000000000144 .L0 
     /tmp/ccr9UTLb.s:219    .text:0000000000000148 .L0 
     /tmp/ccr9UTLb.s:226    .text:0000000000000158 .L0 
     /tmp/ccr9UTLb.s:227    .text:0000000000000158 .L0 
     /tmp/ccr9UTLb.s:232    .text:000000000000015c .L0 
     /tmp/ccr9UTLb.s:233    .text:000000000000015c .L0 
     /tmp/ccr9UTLb.s:235    .text:0000000000000160 .L0 
     /tmp/ccr9UTLb.s:237    .text:0000000000000164 .L0 
     /tmp/ccr9UTLb.s:243    .text:000000000000016c .L0 
     /tmp/ccr9UTLb.s:249    .text:0000000000000178 .L0 
     /tmp/ccr9UTLb.s:250    .text:0000000000000178 .L0 
     /tmp/ccr9UTLb.s:252    .text:0000000000000180 .L0 
     /tmp/ccr9UTLb.s:253    .text:0000000000000180 .L0 
     /tmp/ccr9UTLb.s:255    .text:0000000000000184 .L0 
     /tmp/ccr9UTLb.s:256    .text:0000000000000184 .L0 
     /tmp/ccr9UTLb.s:258    .text:0000000000000188 .L0 
     /tmp/ccr9UTLb.s:261    .text:000000000000018c .L0 
     /tmp/ccr9UTLb.s:264    .text:0000000000000190 .L0 
     /tmp/ccr9UTLb.s:268    .text:0000000000000194 .L0 
     /tmp/ccr9UTLb.s:272    .text:0000000000000198 .L0 
     /tmp/ccr9UTLb.s:280    .text:00000000000001b0 .L0 
     /tmp/ccr9UTLb.s:319    .text:00000000000001b0 .L0 
     /tmp/ccr9UTLb.s:82     .text:0000000000000054 .L0 
     /tmp/ccr9UTLb.s:86     .text:0000000000000064 .L0 
     /tmp/ccr9UTLb.s:96     .text:000000000000006c .L0 
     /tmp/ccr9UTLb.s:98     .text:0000000000000078 .L0 
     /tmp/ccr9UTLb.s:102    .text:0000000000000084 .L0 
     /tmp/ccr9UTLb.s:116    .text:00000000000000a4 .L0 
     /tmp/ccr9UTLb.s:122    .text:00000000000000b0 .L0 
     /tmp/ccr9UTLb.s:157    .text:00000000000000d8 .L0 
     /tmp/ccr9UTLb.s:171    .text:00000000000000f0 .L0 
     /tmp/ccr9UTLb.s:200    .text:0000000000000120 .L0 
     /tmp/ccr9UTLb.s:88     .text:000000000000006c .L4
     /tmp/ccr9UTLb.s:224    .text:0000000000000158 .L5
     /tmp/ccr9UTLb.s:248    .text:0000000000000178 .L10
     /tmp/ccr9UTLb.s:239    .text:000000000000016c .L7
     /tmp/ccr9UTLb.s:141    .text:00000000000000c4 .LEHB0
GAS LISTING /tmp/ccr9UTLb.s 			page 16


     /tmp/ccr9UTLb.s:59     .text:000000000000003c .LFB53
     /tmp/ccr9UTLb.s:197    .text:0000000000000118 .LEHE0
     /tmp/ccr9UTLb.s:201    .text:0000000000000128 .LEHB1
     /tmp/ccr9UTLb.s:204    .text:0000000000000130 .LEHE1
     /tmp/ccr9UTLb.s:267    .text:0000000000000194 .L9
     /tmp/ccr9UTLb.s:208    .text:0000000000000134 .LEHB2
     /tmp/ccr9UTLb.s:246    .text:0000000000000178 .LEHE2
     /tmp/ccr9UTLb.s:276    .text:00000000000001a8 .LEHB3
     /tmp/ccr9UTLb.s:279    .text:00000000000001b0 .LEHE3
     /tmp/ccr9UTLb.s:1625   .debug_abbrev:0000000000000000 .Ldebug_abbrev0
     /tmp/ccr9UTLb.s:3085   .debug_str:000000000000076f .LASF152
     /tmp/ccr9UTLb.s:2905   .debug_str:0000000000000298 .LASF153
     /tmp/ccr9UTLb.s:3091   .debug_str:0000000000000857 .LASF154
     /tmp/ccr9UTLb.s:5      .text:0000000000000000 .Ltext0
     /tmp/ccr9UTLb.s:315    .text:00000000000001b0 .Letext0
     /tmp/ccr9UTLb.s:2817   .debug_line:0000000000000000 .Ldebug_line0
     /tmp/ccr9UTLb.s:2929   .debug_str:0000000000000341 .LASF0
     /tmp/ccr9UTLb.s:2961   .debug_str:0000000000000421 .LASF1
     /tmp/ccr9UTLb.s:3029   .debug_str:0000000000000610 .LASF2
     /tmp/ccr9UTLb.s:3039   .debug_str:0000000000000658 .LASF4
     /tmp/ccr9UTLb.s:2939   .debug_str:0000000000000391 .LASF3
     /tmp/ccr9UTLb.s:2827   .debug_str:0000000000000032 .LASF5
     /tmp/ccr9UTLb.s:3007   .debug_str:000000000000056b .LASF6
     /tmp/ccr9UTLb.s:2955   .debug_str:00000000000003f6 .LASF7
     /tmp/ccr9UTLb.s:2913   .debug_str:00000000000002b6 .LASF8
     /tmp/ccr9UTLb.s:2917   .debug_str:00000000000002e6 .LASF9
     /tmp/ccr9UTLb.s:2855   .debug_str:0000000000000127 .LASF10
     /tmp/ccr9UTLb.s:2903   .debug_str:0000000000000289 .LASF11
     /tmp/ccr9UTLb.s:2865   .debug_str:0000000000000161 .LASF12
     /tmp/ccr9UTLb.s:2853   .debug_str:0000000000000117 .LASF13
     /tmp/ccr9UTLb.s:3069   .debug_str:000000000000071e .LASF14
     /tmp/ccr9UTLb.s:2889   .debug_str:000000000000021a .LASF15
     /tmp/ccr9UTLb.s:3061   .debug_str:00000000000006e1 .LASF16
     /tmp/ccr9UTLb.s:2947   .debug_str:00000000000003d5 .LASF155
     /tmp/ccr9UTLb.s:2959   .debug_str:000000000000041c .LASF17
     /tmp/ccr9UTLb.s:2857   .debug_str:0000000000000136 .LASF18
     /tmp/ccr9UTLb.s:3003   .debug_str:000000000000054a .LASF27
     /tmp/ccr9UTLb.s:2837   .debug_str:0000000000000088 .LASF53
     /tmp/ccr9UTLb.s:3101   .debug_str:00000000000008af .LASF19
     /tmp/ccr9UTLb.s:3063   .debug_str:00000000000006f7 .LASF20
     /tmp/ccr9UTLb.s:3137   .debug_str:0000000000000979 .LASF43
     /tmp/ccr9UTLb.s:2977   .debug_str:0000000000000494 .LASF45
     /tmp/ccr9UTLb.s:2843   .debug_str:00000000000000df .LASF39
     /tmp/ccr9UTLb.s:3149   .debug_str:00000000000009cd .LASF41
     /tmp/ccr9UTLb.s:3155   .debug_str:00000000000009fe .LASF21
     /tmp/ccr9UTLb.s:2915   .debug_str:00000000000002c6 .LASF23
     /tmp/ccr9UTLb.s:2973   .debug_str:0000000000000473 .LASF22
     /tmp/ccr9UTLb.s:2999   .debug_str:000000000000051e .LASF24
     /tmp/ccr9UTLb.s:2943   .debug_str:00000000000003b4 .LASF35
     /tmp/ccr9UTLb.s:3031   .debug_str:000000000000061e .LASF25
     /tmp/ccr9UTLb.s:3105   .debug_str:00000000000008be .LASF26
     /tmp/ccr9UTLb.s:3073   .debug_str:000000000000073c .LASF156
     /tmp/ccr9UTLb.s:3079   .debug_str:0000000000000754 .LASF57
     /tmp/ccr9UTLb.s:2849   .debug_str:00000000000000fe .LASF28
     /tmp/ccr9UTLb.s:3051   .debug_str:00000000000006ae .LASF29
     /tmp/ccr9UTLb.s:2861   .debug_str:000000000000014e .LASF30
     /tmp/ccr9UTLb.s:2845   .debug_str:00000000000000e4 .LASF31
GAS LISTING /tmp/ccr9UTLb.s 			page 17


     /tmp/ccr9UTLb.s:3123   .debug_str:000000000000092c .LASF32
     /tmp/ccr9UTLb.s:3147   .debug_str:00000000000009c1 .LASF33
     /tmp/ccr9UTLb.s:3075   .debug_str:0000000000000744 .LASF34
     /tmp/ccr9UTLb.s:3129   .debug_str:000000000000093b .LASF36
     /tmp/ccr9UTLb.s:3037   .debug_str:000000000000064f .LASF37
     /tmp/ccr9UTLb.s:2937   .debug_str:0000000000000375 .LASF38
     /tmp/ccr9UTLb.s:2881   .debug_str:00000000000001fc .LASF40
     /tmp/ccr9UTLb.s:2835   .debug_str:0000000000000075 .LASF42
     /tmp/ccr9UTLb.s:3055   .debug_str:00000000000006bc .LASF44
     /tmp/ccr9UTLb.s:3035   .debug_str:0000000000000640 .LASF46
     /tmp/ccr9UTLb.s:3081   .debug_str:000000000000075a .LASF157
     /tmp/ccr9UTLb.s:2867   .debug_str:0000000000000171 .LASF158
     /tmp/ccr9UTLb.s:2841   .debug_str:00000000000000b7 .LASF159
     /tmp/ccr9UTLb.s:3109   .debug_str:00000000000008e9 .LASF124
     /tmp/ccr9UTLb.s:3071   .debug_str:000000000000072a .LASF126
     /tmp/ccr9UTLb.s:3045   .debug_str:0000000000000679 .LASF160
     /tmp/ccr9UTLb.s:2995   .debug_str:0000000000000508 .LASF161
     /tmp/ccr9UTLb.s:2819   .debug_str:0000000000000000 .LASF47
     /tmp/ccr9UTLb.s:3053   .debug_str:00000000000006b6 .LASF48
     /tmp/ccr9UTLb.s:3103   .debug_str:00000000000008b9 .LASF49
     /tmp/ccr9UTLb.s:3093   .debug_str:000000000000087a .LASF50
     /tmp/ccr9UTLb.s:2883   .debug_str:0000000000000205 .LASF51
     /tmp/ccr9UTLb.s:3143   .debug_str:00000000000009af .LASF52
     /tmp/ccr9UTLb.s:3087   .debug_str:0000000000000833 .LASF54
     /tmp/ccr9UTLb.s:2971   .debug_str:000000000000046e .LASF55
     /tmp/ccr9UTLb.s:3119   .debug_str:000000000000091c .LASF56
     /tmp/ccr9UTLb.s:2893   .debug_str:000000000000024b .LASF58
     /tmp/ccr9UTLb.s:2897   .debug_str:0000000000000264 .LASF59
     /tmp/ccr9UTLb.s:3083   .debug_str:0000000000000762 .LASF60
     /tmp/ccr9UTLb.s:2875   .debug_str:00000000000001c6 .LASF61
     /tmp/ccr9UTLb.s:2921   .debug_str:00000000000002fb .LASF62
     /tmp/ccr9UTLb.s:2925   .debug_str:0000000000000318 .LASF63
     /tmp/ccr9UTLb.s:3047   .debug_str:000000000000068f .LASF64
     /tmp/ccr9UTLb.s:2891   .debug_str:0000000000000230 .LASF65
     /tmp/ccr9UTLb.s:2931   .debug_str:000000000000034e .LASF66
     /tmp/ccr9UTLb.s:3133   .debug_str:0000000000000957 .LASF67
     /tmp/ccr9UTLb.s:3099   .debug_str:00000000000008a6 .LASF68
     /tmp/ccr9UTLb.s:3095   .debug_str:0000000000000882 .LASF69
     /tmp/ccr9UTLb.s:3025   .debug_str:00000000000005fc .LASF70
     /tmp/ccr9UTLb.s:2991   .debug_str:00000000000004ec .LASF71
     /tmp/ccr9UTLb.s:3011   .debug_str:0000000000000588 .LASF72
     /tmp/ccr9UTLb.s:3017   .debug_str:00000000000005bd .LASF73
     /tmp/ccr9UTLb.s:2983   .debug_str:00000000000004c5 .LASF74
     /tmp/ccr9UTLb.s:2957   .debug_str:0000000000000409 .LASF75
     /tmp/ccr9UTLb.s:3135   .debug_str:0000000000000971 .LASF76
     /tmp/ccr9UTLb.s:3089   .debug_str:0000000000000843 .LASF77
     /tmp/ccr9UTLb.s:2981   .debug_str:00000000000004bd .LASF78
     /tmp/ccr9UTLb.s:2989   .debug_str:00000000000004d8 .LASF79
     /tmp/ccr9UTLb.s:2965   .debug_str:000000000000044d .LASF80
     /tmp/ccr9UTLb.s:3019   .debug_str:00000000000005d0 .LASF81
     /tmp/ccr9UTLb.s:3153   .debug_str:00000000000009f6 .LASF82
     /tmp/ccr9UTLb.s:2935   .debug_str:0000000000000361 .LASF83
     /tmp/ccr9UTLb.s:3065   .debug_str:0000000000000706 .LASF84
     /tmp/ccr9UTLb.s:3041   .debug_str:000000000000065f .LASF85
     /tmp/ccr9UTLb.s:3043   .debug_str:0000000000000672 .LASF86
     /tmp/ccr9UTLb.s:2859   .debug_str:000000000000013b .LASF87
     /tmp/ccr9UTLb.s:2885   .debug_str:000000000000020b .LASF88
GAS LISTING /tmp/ccr9UTLb.s 			page 18


     /tmp/ccr9UTLb.s:2923   .debug_str:0000000000000306 .LASF89
     /tmp/ccr9UTLb.s:2933   .debug_str:000000000000035b .LASF90
     /tmp/ccr9UTLb.s:2879   .debug_str:00000000000001ea .LASF91
     /tmp/ccr9UTLb.s:2829   .debug_str:0000000000000039 .LASF92
     /tmp/ccr9UTLb.s:3033   .debug_str:0000000000000628 .LASF93
     /tmp/ccr9UTLb.s:3027   .debug_str:0000000000000605 .LASF94
     /tmp/ccr9UTLb.s:3013   .debug_str:000000000000058f .LASF95
     /tmp/ccr9UTLb.s:3121   .debug_str:0000000000000922 .LASF96
     /tmp/ccr9UTLb.s:3139   .debug_str:0000000000000985 .LASF97
     /tmp/ccr9UTLb.s:3115   .debug_str:0000000000000901 .LASF98
     /tmp/ccr9UTLb.s:2975   .debug_str:000000000000047e .LASF99
     /tmp/ccr9UTLb.s:3057   .debug_str:00000000000006c1 .LASF100
     /tmp/ccr9UTLb.s:2969   .debug_str:000000000000045b .LASF101
     /tmp/ccr9UTLb.s:2911   .debug_str:00000000000002af .LASF102
     /tmp/ccr9UTLb.s:2851   .debug_str:0000000000000104 .LASF103
     /tmp/ccr9UTLb.s:3097   .debug_str:0000000000000897 .LASF104
     /tmp/ccr9UTLb.s:2833   .debug_str:0000000000000059 .LASF105
     /tmp/ccr9UTLb.s:3125   .debug_str:0000000000000931 .LASF106
     /tmp/ccr9UTLb.s:2997   .debug_str:000000000000050d .LASF107
     /tmp/ccr9UTLb.s:2945   .debug_str:00000000000003d0 .LASF108
     /tmp/ccr9UTLb.s:3067   .debug_str:000000000000070d .LASF109
     /tmp/ccr9UTLb.s:3127   .debug_str:0000000000000936 .LASF110
     /tmp/ccr9UTLb.s:2941   .debug_str:00000000000003a3 .LASF111
     /tmp/ccr9UTLb.s:2979   .debug_str:00000000000004b8 .LASF112
     /tmp/ccr9UTLb.s:3005   .debug_str:000000000000055a .LASF113
     /tmp/ccr9UTLb.s:2987   .debug_str:00000000000004d3 .LASF114
     /tmp/ccr9UTLb.s:2847   .debug_str:00000000000000ed .LASF115
     /tmp/ccr9UTLb.s:2949   .debug_str:00000000000003db .LASF116
     /tmp/ccr9UTLb.s:2953   .debug_str:00000000000003e5 .LASF117
     /tmp/ccr9UTLb.s:3131   .debug_str:0000000000000952 .LASF118
     /tmp/ccr9UTLb.s:2927   .debug_str:0000000000000330 .LASF119
     /tmp/ccr9UTLb.s:2951   .debug_str:00000000000003e0 .LASF120
     /tmp/ccr9UTLb.s:3049   .debug_str:000000000000069d .LASF121
     /tmp/ccr9UTLb.s:3001   .debug_str:0000000000000542 .LASF122
     /tmp/ccr9UTLb.s:3141   .debug_str:000000000000099b .LASF123
     /tmp/ccr9UTLb.s:3145   .debug_str:00000000000009b5 .LASF125
     /tmp/ccr9UTLb.s:2963   .debug_str:0000000000000434 .LASF127
     /tmp/ccr9UTLb.s:2887   .debug_str:0000000000000211 .LASF128
     /tmp/ccr9UTLb.s:3077   .debug_str:000000000000074f .LASF129
     /tmp/ccr9UTLb.s:3009   .debug_str:000000000000057e .LASF162
     /tmp/ccr9UTLb.s:2909   .debug_str:00000000000002aa .LASF130
     /tmp/ccr9UTLb.s:281    .text:00000000000001b0 .LFE53
     /tmp/ccr9UTLb.s:2719   .debug_loc:0000000000000000 .LLST3
     /tmp/ccr9UTLb.s:3111   .debug_str:00000000000008f1 .LASF131
     /tmp/ccr9UTLb.s:2730   .debug_loc:0000000000000036 .LLST4
     /tmp/ccr9UTLb.s:77     .text:0000000000000054 .LBB24
     /tmp/ccr9UTLb.s:91     .text:000000000000006c .LBE24
     /tmp/ccr9UTLb.s:92     .text:000000000000006c .LBB26
     /tmp/ccr9UTLb.s:119    .text:00000000000000b0 .LBE26
     /tmp/ccr9UTLb.s:125    .text:00000000000000bc .LBB28
     /tmp/ccr9UTLb.s:137    .text:00000000000000c0 .LBE28
     /tmp/ccr9UTLb.s:2737   .debug_loc:0000000000000059 .LLST5
     /tmp/ccr9UTLb.s:146    .text:00000000000000d0 .LBB30
     /tmp/ccr9UTLb.s:168    .text:00000000000000f0 .LBE30
     /tmp/ccr9UTLb.s:2744   .debug_loc:000000000000007c .LLST6
     /tmp/ccr9UTLb.s:2752   .debug_loc:00000000000000a0 .LLST9
     /tmp/ccr9UTLb.s:175    .text:00000000000000fc .LBB32
GAS LISTING /tmp/ccr9UTLb.s 			page 19


     /tmp/ccr9UTLb.s:187    .text:0000000000000104 .LBE32
     /tmp/ccr9UTLb.s:2759   .debug_loc:00000000000000c3 .LLST10
     /tmp/ccr9UTLb.s:229    .text:000000000000015c .LBB34
     /tmp/ccr9UTLb.s:241    .text:000000000000016c .LBE34
     /tmp/ccr9UTLb.s:2767   .debug_loc:00000000000000e7 .LLST11
     /tmp/ccr9UTLb.s:238    .text:000000000000016c .LVL21
     /tmp/ccr9UTLb.s:143    .text:00000000000000cc .LVL9
     /tmp/ccr9UTLb.s:191    .text:000000000000010c .LVL14
     /tmp/ccr9UTLb.s:196    .text:0000000000000118 .LVL15
     /tmp/ccr9UTLb.s:203    .text:0000000000000130 .LVL16
     /tmp/ccr9UTLb.s:210    .text:000000000000013c .LVL17
     /tmp/ccr9UTLb.s:214    .text:0000000000000144 .LVL18
     /tmp/ccr9UTLb.s:223    .text:0000000000000158 .LVL19
     /tmp/ccr9UTLb.s:245    .text:0000000000000178 .LVL22
     /tmp/ccr9UTLb.s:274    .text:00000000000001a4 .LVL27
     /tmp/ccr9UTLb.s:278    .text:00000000000001b0 .LVL28
     /tmp/ccr9UTLb.s:2919   .debug_str:00000000000002f4 .LASF163
     /tmp/ccr9UTLb.s:2823   .debug_str:0000000000000015 .LASF141
     /tmp/ccr9UTLb.s:3023   .debug_str:00000000000005f4 .LASF164
     /tmp/ccr9UTLb.s:2871   .debug_str:000000000000018b .LASF165
     /tmp/ccr9UTLb.s:10     .text:0000000000000000 .LFB52
     /tmp/ccr9UTLb.s:53     .text:000000000000003c .LFE52
     /tmp/ccr9UTLb.s:2774   .debug_loc:000000000000010a .LLST0
     /tmp/ccr9UTLb.s:32     .text:0000000000000024 .LBB22
     /tmp/ccr9UTLb.s:39     .text:0000000000000028 .LBE22
     /tmp/ccr9UTLb.s:2790   .debug_loc:0000000000000154 .LLST1
     /tmp/ccr9UTLb.s:2797   .debug_loc:0000000000000177 .LLST2
     /tmp/ccr9UTLb.s:31     .text:0000000000000024 .LVL2
     /tmp/ccr9UTLb.s:2907   .debug_str:00000000000002a5 .LASF134
     /tmp/ccr9UTLb.s:2895   .debug_str:000000000000025a .LASF135
     /tmp/ccr9UTLb.s:3113   .debug_str:00000000000008fc .LASF132
     /tmp/ccr9UTLb.s:2967   .debug_str:0000000000000455 .LASF133
     /tmp/ccr9UTLb.s:2839   .debug_str:00000000000000a1 .LASF136
     /tmp/ccr9UTLb.s:2825   .debug_str:0000000000000028 .LASF137
     /tmp/ccr9UTLb.s:2869   .debug_str:000000000000017f .LASF138
     /tmp/ccr9UTLb.s:2863   .debug_str:0000000000000158 .LASF139
     /tmp/ccr9UTLb.s:2873   .debug_str:0000000000000197 .LASF166
     /tmp/ccr9UTLb.s:3059   .debug_str:00000000000006c8 .LASF140
     /tmp/ccr9UTLb.s:2985   .debug_str:00000000000004cc .LASF142
     /tmp/ccr9UTLb.s:2899   .debug_str:0000000000000270 .LASF143
     /tmp/ccr9UTLb.s:2901   .debug_str:0000000000000283 .LASF144
     /tmp/ccr9UTLb.s:3151   .debug_str:00000000000009e9 .LASF145
     /tmp/ccr9UTLb.s:3015   .debug_str:00000000000005a7 .LASF146
     /tmp/ccr9UTLb.s:3117   .debug_str:000000000000090b .LASF147
     /tmp/ccr9UTLb.s:2831   .debug_str:0000000000000044 .LASF148
     /tmp/ccr9UTLb.s:3021   .debug_str:00000000000005e4 .LASF149
     /tmp/ccr9UTLb.s:2993   .debug_str:0000000000000501 .LASF150
     /tmp/ccr9UTLb.s:2821   .debug_str:0000000000000005 .LASF151
     /tmp/ccr9UTLb.s:3107   .debug_str:00000000000008da .LASF167
     /tmp/ccr9UTLb.s:2877   .debug_str:00000000000001d2 .LASF168
     /tmp/ccr9UTLb.s:166    .text:00000000000000f0 .LVL11
     /tmp/ccr9UTLb.s:259    .text:0000000000000188 .LVL23
     /tmp/ccr9UTLb.s:266    .text:0000000000000194 .LVL25
     /tmp/ccr9UTLb.s:270    .text:0000000000000198 .LVL26
     /tmp/ccr9UTLb.s:262    .text:000000000000018c .LVL24
     /tmp/ccr9UTLb.s:124    .text:00000000000000bc .LVL7
     /tmp/ccr9UTLb.s:134    .text:00000000000000c0 .LVL8
GAS LISTING /tmp/ccr9UTLb.s 			page 20


     /tmp/ccr9UTLb.s:145    .text:00000000000000d0 .LVL10
     /tmp/ccr9UTLb.s:174    .text:00000000000000fc .LVL12
     /tmp/ccr9UTLb.s:184    .text:0000000000000104 .LVL13
     /tmp/ccr9UTLb.s:228    .text:000000000000015c .LVL20
     /tmp/ccr9UTLb.s:14     .text:0000000000000000 .LVL0
     /tmp/ccr9UTLb.s:29     .text:000000000000001c .LVL1
     /tmp/ccr9UTLb.s:48     .text:0000000000000034 .LVL4
     /tmp/ccr9UTLb.s:37     .text:0000000000000028 .LVL3
     /tmp/ccr9UTLb.s:320    .debug_info:0000000000000000 .Ldebug_info0
     /tmp/ccr9UTLb.s:284    .gcc_except_table:0000000000000000 .LLSDA53

UNDEFINED SYMBOLS
_Znwm
HEAP_START_ADDR
_ZN15MemoryAllocator9free_listE
HEAP_END_ADDR
_ZN15MemoryAllocator14allocated_listE
_ZN5Riscv14supervisorTrapEv
_ZN3PCB7wrapperEv
_ZN3PCB7runningE
_Z16switchToUserModev
_Z8userMainv
_ZN6ThreadC1EPFvPvES0_
_ZN6Thread5startEv
_Z15thread_dispatchv
_ZdaPv
_ZdlPv
_Unwind_Resume
__gxx_personality_v0
