GAS LISTING /tmp/ccYYMODl.s 			page 1


   1              		.file	"main.cpp"
   2              		.option pic
   3              		.option norelax
   4              		.text
   5              	.Ltext0:
   6              		.align	2
   7              		.globl	_Z7createCm
   9              	_Z7createCm:
  10              	.LFB52:
  11              		.file 1 "src/main.cpp"
   1:src/main.cpp  **** 
   2:src/main.cpp  **** #include "../h/riscv.hpp"
   3:src/main.cpp  **** #include "../h/syscall_c.hpp"
   4:src/main.cpp  **** #include "../h/print.hpp"
   5:src/main.cpp  **** #include "../h/PCB.hpp"
   6:src/main.cpp  **** #include "../h/syscall_cpp.hpp"
   7:src/main.cpp  **** 
   8:src/main.cpp  **** 
   9:src/main.cpp  **** struct A {
  10:src/main.cpp  ****     int a;
  11:src/main.cpp  ****     int* b = nullptr;
  12:src/main.cpp  **** };
  13:src/main.cpp  **** 
  14:src/main.cpp  **** struct B {
  15:src/main.cpp  ****     int a;
  16:src/main.cpp  ****     int* b = nullptr;
  17:src/main.cpp  ****     long c;
  18:src/main.cpp  ****     char d[50];
  19:src/main.cpp  **** };
  20:src/main.cpp  **** 
  21:src/main.cpp  **** class C{
  22:src/main.cpp  **** private:
  23:src/main.cpp  ****     uint64 num;
  24:src/main.cpp  **** 
  25:src/main.cpp  **** public:
  26:src/main.cpp  **** 
  27:src/main.cpp  ****     C(uint64 n){
  28:src/main.cpp  ****         num = n;
  29:src/main.cpp  ****     }
  30:src/main.cpp  **** 
  31:src/main.cpp  **** 
  32:src/main.cpp  **** 
  33:src/main.cpp  **** 
  34:src/main.cpp  **** };
  35:src/main.cpp  **** 
  36:src/main.cpp  **** C* createC(uint64 n){
  12              		.loc 1 36 21
  13              		.cfi_startproc
  14              	.LVL0:
  15 0000 130101FE 		addi	sp,sp,-32
  16              		.cfi_def_cfa_offset 32
  17 0004 233C1100 		sd	ra,24(sp)
  18 0008 23388100 		sd	s0,16(sp)
  19 000c 23349100 		sd	s1,8(sp)
  20              		.cfi_offset 1, -8
  21              		.cfi_offset 8, -16
  22              		.cfi_offset 9, -24
GAS LISTING /tmp/ccYYMODl.s 			page 2


  23 0010 13040102 		addi	s0,sp,32
  24              		.cfi_def_cfa 8, 0
  25 0014 93040500 		mv	s1,a0
  37:src/main.cpp  ****     return new C(n);
  26              		.loc 1 37 5
  27              		.loc 1 37 19 is_stmt 0
  28 0018 13058000 		li	a0,8
  29              	.LVL1:
  30 001c 97000000 		call	_Znwm@plt
  30      E7800000 
  31              	.LVL2:
  32              	.LBB23:
  33              	.LBB24:
  28:src/main.cpp  ****     }
  34              		.loc 1 28 9 is_stmt 1
  28:src/main.cpp  ****     }
  35              		.loc 1 28 13 is_stmt 0
  36 0024 23309500 		sd	s1,0(a0)
  37              	.LVL3:
  38              	.LBE24:
  39              	.LBE23:
  38:src/main.cpp  **** }
  40              		.loc 1 38 1
  41 0028 83308101 		ld	ra,24(sp)
  42              		.cfi_restore 1
  43 002c 03340101 		ld	s0,16(sp)
  44              		.cfi_restore 8
  45              		.cfi_def_cfa 2, 32
  46 0030 83348100 		ld	s1,8(sp)
  47              		.cfi_restore 9
  48              	.LVL4:
  49 0034 13010102 		addi	sp,sp,32
  50              		.cfi_def_cfa_offset 0
  51 0038 67800000 		jr	ra
  52              		.cfi_endproc
  53              	.LFE52:
  55              		.align	2
  56              		.globl	main
  58              	main:
  59              	.LFB53:
  39:src/main.cpp  **** 
  40:src/main.cpp  **** extern void userMain();
  41:src/main.cpp  **** 
  42:src/main.cpp  **** int main() {
  60              		.loc 1 42 12 is_stmt 1
  61              		.cfi_startproc
  62              		.cfi_personality 0x9b,DW.ref.__gxx_personality_v0
  63              		.cfi_lsda 0x1b,.LLSDA53
  64 003c 130101FD 		addi	sp,sp,-48
  65              		.cfi_def_cfa_offset 48
  66 0040 23341102 		sd	ra,40(sp)
  67 0044 23308102 		sd	s0,32(sp)
  68 0048 233C9100 		sd	s1,24(sp)
  69 004c 23382101 		sd	s2,16(sp)
  70 0050 23343101 		sd	s3,8(sp)
  71              		.cfi_offset 1, -8
  72              		.cfi_offset 8, -16
GAS LISTING /tmp/ccYYMODl.s 			page 3


  73              		.cfi_offset 9, -24
  74              		.cfi_offset 18, -32
  75              		.cfi_offset 19, -40
  76 0054 13040103 		addi	s0,sp,48
  77              		.cfi_def_cfa 8, 0
  43:src/main.cpp  **** 
  44:src/main.cpp  **** 
  45:src/main.cpp  ****     MemoryAllocator::getInstance().init();
  78              		.loc 1 45 5
  79              	.LBB25:
  80              	.LBB26:
  81              		.file 2 "src/../h/../h/MemoryAllocator.hpp"
   1:src/../h/../h/MemoryAllocator.hpp **** #ifndef PROJECT_BASE_V1_1_MEMORYALLOCATOR_HPP
   2:src/../h/../h/MemoryAllocator.hpp **** #define PROJECT_BASE_V1_1_MEMORYALLOCATOR_HPP
   3:src/../h/../h/MemoryAllocator.hpp **** #include "print.hpp"
   4:src/../h/../h/MemoryAllocator.hpp **** 
   5:src/../h/../h/MemoryAllocator.hpp **** struct Block {
   6:src/../h/../h/MemoryAllocator.hpp ****     size_t size;
   7:src/../h/../h/MemoryAllocator.hpp ****     Block *next;
   8:src/../h/../h/MemoryAllocator.hpp **** };
   9:src/../h/../h/MemoryAllocator.hpp **** 
  10:src/../h/../h/MemoryAllocator.hpp **** class MemoryAllocator {
  11:src/../h/../h/MemoryAllocator.hpp **** 
  12:src/../h/../h/MemoryAllocator.hpp **** private:
  13:src/../h/../h/MemoryAllocator.hpp **** 
  14:src/../h/../h/MemoryAllocator.hpp **** 
  15:src/../h/../h/MemoryAllocator.hpp ****     MemoryAllocator() {}
  16:src/../h/../h/MemoryAllocator.hpp **** 
  17:src/../h/../h/MemoryAllocator.hpp ****     static Block *free_list;
  18:src/../h/../h/MemoryAllocator.hpp ****     static Block *allocated_list;
  19:src/../h/../h/MemoryAllocator.hpp **** 
  20:src/../h/../h/MemoryAllocator.hpp **** 
  21:src/../h/../h/MemoryAllocator.hpp **** public:
  22:src/../h/../h/MemoryAllocator.hpp **** 
  23:src/../h/../h/MemoryAllocator.hpp **** 
  24:src/../h/../h/MemoryAllocator.hpp ****     // Get the singleton instance
  25:src/../h/../h/MemoryAllocator.hpp ****     static MemoryAllocator &getInstance() {
  26:src/../h/../h/MemoryAllocator.hpp ****         static MemoryAllocator instance;
  82              		.loc 2 26 9
  83              		.loc 2 26 32 is_stmt 0
  84 0058 97070000 		lbu	a5,_ZGVZN15MemoryAllocator11getInstanceEvE8instance
  84      83C70700 
  85 0060 63980700 		bnez	a5,.L4
  86              	.LVL5:
  87 0064 93071000 		li	a5,1
  88 0068 17070000 		sb	a5,_ZGVZN15MemoryAllocator11getInstanceEvE8instance,a4
  88      2300F700 
  89              	.LVL6:
  90              	.L4:
  27:src/../h/../h/MemoryAllocator.hpp ****         return instance;
  91              		.loc 2 27 9 is_stmt 1
  92              	.LBE26:
  93              	.LBE25:
  94              	.LBB27:
  95              	.LBB28:
  28:src/../h/../h/MemoryAllocator.hpp ****     }
  29:src/../h/../h/MemoryAllocator.hpp **** 
GAS LISTING /tmp/ccYYMODl.s 			page 4


  30:src/../h/../h/MemoryAllocator.hpp ****     static void init() {
  31:src/../h/../h/MemoryAllocator.hpp ****         // Initialize the free list
  32:src/../h/../h/MemoryAllocator.hpp **** 
  33:src/../h/../h/MemoryAllocator.hpp ****         // For testing purposes
  34:src/../h/../h/MemoryAllocator.hpp **** //        uint64 start = (uint64)((Block *) HEAP_START_ADDR);
  35:src/../h/../h/MemoryAllocator.hpp **** //        printInteger(start);
  36:src/../h/../h/MemoryAllocator.hpp **** //        printString("\n");
  37:src/../h/../h/MemoryAllocator.hpp **** //        uint64 end = (uint64)((Block *) HEAP_END_ADDR);
  38:src/../h/../h/MemoryAllocator.hpp **** //        printInteger(end);
  39:src/../h/../h/MemoryAllocator.hpp **** //        printString("\n");
  40:src/../h/../h/MemoryAllocator.hpp **** 
  41:src/../h/../h/MemoryAllocator.hpp ****         free_list = (Block *) HEAP_START_ADDR;
  96              		.loc 2 41 9
  97              		.loc 2 41 19 is_stmt 0
  98 0070 97070000 		la	a5,HEAP_START_ADDR
  98      83B70700 
  99 0078 03B70700 		ld	a4,0(a5)
 100 007c 97060000 		la	a3,_ZN15MemoryAllocator9free_listE
 100      83B60600 
 101 0084 23B0E600 		sd	a4,0(a3)
  42:src/../h/../h/MemoryAllocator.hpp ****         free_list->size = (uint64 *) HEAP_END_ADDR - (uint64 *) HEAP_START_ADDR;
 102              		.loc 2 42 9 is_stmt 1
 103              		.loc 2 42 27 is_stmt 0
 104 0088 97070000 		la	a5,HEAP_END_ADDR
 104      83B70700 
 105 0090 83B70700 		ld	a5,0(a5)
 106              		.loc 2 42 52
 107 0094 B387E740 		sub	a5,a5,a4
 108 0098 93D73740 		srai	a5,a5,3
 109              		.loc 2 42 25
 110 009c 2330F700 		sd	a5,0(a4)
  43:src/../h/../h/MemoryAllocator.hpp ****         free_list->next = nullptr;
 111              		.loc 2 43 9 is_stmt 1
 112              		.loc 2 43 20 is_stmt 0
 113 00a0 83B70600 		ld	a5,0(a3)
 114              		.loc 2 43 25
 115 00a4 23B40700 		sd	zero,8(a5)
  44:src/../h/../h/MemoryAllocator.hpp ****         allocated_list = nullptr;
 116              		.loc 2 44 9 is_stmt 1
 117              		.loc 2 44 24 is_stmt 0
 118 00a8 97070000 		la	a5,_ZN15MemoryAllocator14allocated_listE
 118      83B70700 
 119 00b0 23B00700 		sd	zero,0(a5)
 120              	.LBE28:
 121              	.LBE27:
  46:src/main.cpp  ****     Riscv::w_stvec((uint64) &Riscv::supervisorTrap+1);
 122              		.loc 1 46 5 is_stmt 1
 123              		.loc 1 46 19 is_stmt 0
 124 00b4 97070000 		la	a5,_ZN5Riscv14supervisorTrapEv
 124      83B70700 
 125 00bc 93871700 		addi	a5,a5,1
 126              	.LVL7:
 127              	.LBB29:
 128              	.LBB30:
 129              		.file 3 "src/../h/riscv.hpp"
   1:src/../h/riscv.hpp **** #ifndef PROJECT_BASE_V1_1_RISCV_HPP
   2:src/../h/riscv.hpp **** #define PROJECT_BASE_V1_1_RISCV_HPP
GAS LISTING /tmp/ccYYMODl.s 			page 5


   3:src/../h/riscv.hpp **** 
   4:src/../h/riscv.hpp **** 
   5:src/../h/riscv.hpp **** #include "../h/MemoryAllocator.hpp"
   6:src/../h/riscv.hpp **** #include "PCB.hpp"
   7:src/../h/riscv.hpp **** 
   8:src/../h/riscv.hpp **** 
   9:src/../h/riscv.hpp **** #define readUsrReg(reg, dst) __asm__ volatile("mv %0,"#reg : "=r" (dst));
  10:src/../h/riscv.hpp **** #define writeUsrReg(reg, src) __asm__ volatile("mv "#reg", %0" : : "r" (src));
  11:src/../h/riscv.hpp **** 
  12:src/../h/riscv.hpp **** 
  13:src/../h/riscv.hpp **** class Riscv
  14:src/../h/riscv.hpp **** {
  15:src/../h/riscv.hpp **** public:
  16:src/../h/riscv.hpp **** 
  17:src/../h/riscv.hpp **** 
  18:src/../h/riscv.hpp **** 
  19:src/../h/riscv.hpp ****     // pop sstatus.spp and sstatus.spie bits (has to be a non inline function)
  20:src/../h/riscv.hpp ****     static void popSppSpie();
  21:src/../h/riscv.hpp **** 
  22:src/../h/riscv.hpp ****     // push x3..x31 registers onto stack
  23:src/../h/riscv.hpp ****     static void pushRegisters();
  24:src/../h/riscv.hpp **** 
  25:src/../h/riscv.hpp ****     // pop x3..x31 registers onto stack
  26:src/../h/riscv.hpp ****     static void popRegisters();
  27:src/../h/riscv.hpp **** 
  28:src/../h/riscv.hpp ****     // read register scause
  29:src/../h/riscv.hpp ****     static uint64 r_scause();
  30:src/../h/riscv.hpp **** 
  31:src/../h/riscv.hpp ****     // write register scause
  32:src/../h/riscv.hpp ****     static void w_scause(uint64 scause);
  33:src/../h/riscv.hpp **** 
  34:src/../h/riscv.hpp ****     // read register sepc
  35:src/../h/riscv.hpp ****     static uint64 r_sepc();
  36:src/../h/riscv.hpp **** 
  37:src/../h/riscv.hpp ****     // write register sepc
  38:src/../h/riscv.hpp ****     static void w_sepc(uint64 sepc);
  39:src/../h/riscv.hpp **** 
  40:src/../h/riscv.hpp ****     // read register stvec
  41:src/../h/riscv.hpp ****     static uint64 r_stvec();
  42:src/../h/riscv.hpp **** 
  43:src/../h/riscv.hpp ****     // write register stvec
  44:src/../h/riscv.hpp ****     static void w_stvec(uint64 stvec);
  45:src/../h/riscv.hpp **** 
  46:src/../h/riscv.hpp ****     // read register stval
  47:src/../h/riscv.hpp ****     static uint64 r_stval();
  48:src/../h/riscv.hpp **** 
  49:src/../h/riscv.hpp ****     // write register stval
  50:src/../h/riscv.hpp ****     static void w_stval(uint64 stval);
  51:src/../h/riscv.hpp **** 
  52:src/../h/riscv.hpp ****     enum BitMaskSip
  53:src/../h/riscv.hpp ****     {
  54:src/../h/riscv.hpp **** //        SIP_SSIE = (1 << 1),
  55:src/../h/riscv.hpp **** //        SIP_STIE = (1 << 5),
  56:src/../h/riscv.hpp **** //        SIP_SEIE = (1 << 9),
  57:src/../h/riscv.hpp ****         SIP_SSIP = (1<<1),
  58:src/../h/riscv.hpp ****         SIP_SEIP = (1<<9)
  59:src/../h/riscv.hpp ****     };
GAS LISTING /tmp/ccYYMODl.s 			page 6


  60:src/../h/riscv.hpp **** 
  61:src/../h/riscv.hpp ****     // mask set register sip
  62:src/../h/riscv.hpp ****     static void ms_sip(uint64 mask);
  63:src/../h/riscv.hpp **** 
  64:src/../h/riscv.hpp ****     // mask clear register sip
  65:src/../h/riscv.hpp ****     static void mc_sip(uint64 mask);
  66:src/../h/riscv.hpp **** 
  67:src/../h/riscv.hpp ****     // read register sip
  68:src/../h/riscv.hpp ****     static uint64 r_sip();
  69:src/../h/riscv.hpp **** 
  70:src/../h/riscv.hpp ****     // write register sip
  71:src/../h/riscv.hpp ****     static void w_sip(uint64 sip);
  72:src/../h/riscv.hpp **** 
  73:src/../h/riscv.hpp ****     enum BitMaskSstatus
  74:src/../h/riscv.hpp ****     {
  75:src/../h/riscv.hpp ****         SSTATUS_SIE = (1 << 1),
  76:src/../h/riscv.hpp ****         SSTATUS_SPIE = (1 << 5),
  77:src/../h/riscv.hpp ****         SSTATUS_SPP = (1 << 8),
  78:src/../h/riscv.hpp ****     };
  79:src/../h/riscv.hpp **** 
  80:src/../h/riscv.hpp ****     // mask set register sstatus
  81:src/../h/riscv.hpp ****     static void ms_sstatus(uint64 mask);
  82:src/../h/riscv.hpp **** 
  83:src/../h/riscv.hpp ****     // mask clear register sstatus
  84:src/../h/riscv.hpp ****     static void mc_sstatus(uint64 mask);
  85:src/../h/riscv.hpp **** 
  86:src/../h/riscv.hpp ****     // read register sstatus
  87:src/../h/riscv.hpp ****     static uint64 r_sstatus();
  88:src/../h/riscv.hpp **** 
  89:src/../h/riscv.hpp ****     // write register sstatus
  90:src/../h/riscv.hpp ****     static void w_sstatus(uint64 sstatus);
  91:src/../h/riscv.hpp **** 
  92:src/../h/riscv.hpp ****     // mask set register sie
  93:src/../h/riscv.hpp ****     static void ms_sie(uint64 mask);
  94:src/../h/riscv.hpp **** 
  95:src/../h/riscv.hpp ****     // mask clear register sie
  96:src/../h/riscv.hpp ****     static void mc_sie(uint64 mask);
  97:src/../h/riscv.hpp **** 
  98:src/../h/riscv.hpp ****     static void supervisorTrap();
  99:src/../h/riscv.hpp **** 
 100:src/../h/riscv.hpp ****     static long r_a0();
 101:src/../h/riscv.hpp **** 
 102:src/../h/riscv.hpp ****     static void w_a0(long a0);
 103:src/../h/riscv.hpp **** 
 104:src/../h/riscv.hpp ****     static uint64 r_a1();
 105:src/../h/riscv.hpp **** 
 106:src/../h/riscv.hpp ****     static void w_a1(uint64 a1);
 107:src/../h/riscv.hpp **** 
 108:src/../h/riscv.hpp ****     static uint64 r_a2();
 109:src/../h/riscv.hpp **** 
 110:src/../h/riscv.hpp ****     static void w_a2(uint64 a1);
 111:src/../h/riscv.hpp **** 
 112:src/../h/riscv.hpp ****     static uint64 r_a7();
 113:src/../h/riscv.hpp **** 
 114:src/../h/riscv.hpp ****     static void w_a7(uint64 a7);
 115:src/../h/riscv.hpp **** 
 116:src/../h/riscv.hpp ****     static void push_a0(long a0);
GAS LISTING /tmp/ccYYMODl.s 			page 7


 117:src/../h/riscv.hpp **** 
 118:src/../h/riscv.hpp **** private:
 119:src/../h/riscv.hpp ****     static void trapHandler();
 120:src/../h/riscv.hpp **** 
 121:src/../h/riscv.hpp **** 
 122:src/../h/riscv.hpp **** };
 123:src/../h/riscv.hpp **** 
 124:src/../h/riscv.hpp **** inline uint64 Riscv::r_scause()
 125:src/../h/riscv.hpp **** {
 126:src/../h/riscv.hpp ****     uint64 volatile scause;
 127:src/../h/riscv.hpp ****     __asm__ volatile ("csrr %[scause], scause" : [scause] "=r"(scause));
 128:src/../h/riscv.hpp ****     return scause;
 129:src/../h/riscv.hpp **** }
 130:src/../h/riscv.hpp **** 
 131:src/../h/riscv.hpp **** inline void Riscv::w_scause(uint64 scause)
 132:src/../h/riscv.hpp **** {
 133:src/../h/riscv.hpp ****     __asm__ volatile ("csrw scause, %[scause]" : : [scause] "r"(scause));
 134:src/../h/riscv.hpp **** }
 135:src/../h/riscv.hpp **** 
 136:src/../h/riscv.hpp **** inline uint64 Riscv::r_sepc()
 137:src/../h/riscv.hpp **** {
 138:src/../h/riscv.hpp ****     uint64 volatile sepc;
 139:src/../h/riscv.hpp ****     __asm__ volatile ("csrr %[sepc], sepc" : [sepc] "=r"(sepc));
 140:src/../h/riscv.hpp ****     return sepc;
 141:src/../h/riscv.hpp **** }
 142:src/../h/riscv.hpp **** 
 143:src/../h/riscv.hpp **** inline void Riscv::w_sepc(uint64 sepc)
 144:src/../h/riscv.hpp **** {
 145:src/../h/riscv.hpp ****     __asm__ volatile ("csrw sepc, %[sepc]" : : [sepc] "r"(sepc));
 146:src/../h/riscv.hpp **** }
 147:src/../h/riscv.hpp **** 
 148:src/../h/riscv.hpp **** inline uint64 Riscv::r_stvec()
 149:src/../h/riscv.hpp **** {
 150:src/../h/riscv.hpp ****     uint64 volatile stvec;
 151:src/../h/riscv.hpp ****     __asm__ volatile ("csrr %[stvec], stvec" : [stvec] "=r"(stvec));
 152:src/../h/riscv.hpp ****     return stvec;
 153:src/../h/riscv.hpp **** }
 154:src/../h/riscv.hpp **** 
 155:src/../h/riscv.hpp **** inline void Riscv::w_stvec(uint64 stvec)
 156:src/../h/riscv.hpp **** {
 157:src/../h/riscv.hpp ****     __asm__ volatile ("csrw stvec, %[stvec]" : : [stvec] "r"(stvec));
 130              		.loc 3 157 5 is_stmt 1
 131              		.loc 3 157 69 is_stmt 0
 132              	#APP
 133              	# 157 "src/../h/riscv.hpp" 1
 158              	}
 134              		csrw stvec, a5
 135              	# 0 "" 2
 136              	.LVL8:
 137              	#NO_APP
 138              	.LBE30:
 139              	.LBE29:
  47:src/main.cpp  ****     PCB* pcb = new PCB(nullptr, nullptr, nullptr);
 140              		.loc 1 47 5 is_stmt 1
 141              		.loc 1 47 49 is_stmt 0
 142 00c4 13050003 		li	a0,48
 143              	.LEHB0:
GAS LISTING /tmp/ccYYMODl.s 			page 8


 144 00c8 97000000 		call	_Znwm@plt
 144      E7800000 
 145              	.LVL9:
 146              	.LEHE0:
 147 00d0 13090500 		mv	s2,a0
 148 00d4 93060000 		li	a3,0
 149 00d8 13060000 		li	a2,0
 150 00dc 93050000 		li	a1,0
 151              	.LEHB1:
 152 00e0 97000000 		call	_ZN3PCBC1EPFvPvES0_Pm@plt
 152      E7800000 
 153              	.LVL10:
 154              	.LEHE1:
  48:src/main.cpp  ****     PCB::running=pcb;
 155              		.loc 1 48 5 is_stmt 1 discriminator 2
 156              		.loc 1 48 17 is_stmt 0 discriminator 2
 157 00e8 97070000 		la	a5,_ZN3PCB7runningE
 157      83B70700 
 158 00f0 23B02701 		sd	s2,0(a5)
  49:src/main.cpp  ****     pcb->setState(PCB::RUNNING);
 159              		.loc 1 49 5 is_stmt 1 discriminator 2
 160              	.LVL11:
 161              	.LBB31:
 162              	.LBB32:
 163              		.file 4 "src/../h/PCB.hpp"
   1:src/../h/PCB.hpp **** #ifndef PROJECT_BASE_V1_1_PCB_HPP
   2:src/../h/PCB.hpp **** #define PROJECT_BASE_V1_1_PCB_HPP
   3:src/../h/PCB.hpp **** 
   4:src/../h/PCB.hpp **** 
   5:src/../h/PCB.hpp **** #include "Scheduler.hpp"
   6:src/../h/PCB.hpp **** #include "riscv.hpp"
   7:src/../h/PCB.hpp **** #include "../h/syscall_c.hpp"
   8:src/../h/PCB.hpp **** 
   9:src/../h/PCB.hpp **** class Sem;
  10:src/../h/PCB.hpp **** 
  11:src/../h/PCB.hpp **** class PCB {
  12:src/../h/PCB.hpp **** public:
  13:src/../h/PCB.hpp ****     struct Context {
  14:src/../h/PCB.hpp ****         uint64 ra;
  15:src/../h/PCB.hpp ****         uint64 sp;
  16:src/../h/PCB.hpp ****     };
  17:src/../h/PCB.hpp **** 
  18:src/../h/PCB.hpp ****     enum State {
  19:src/../h/PCB.hpp ****         READY,
  20:src/../h/PCB.hpp ****         RUNNING,
  21:src/../h/PCB.hpp ****         SUSPENDED,
  22:src/../h/PCB.hpp ****         FINISHED
  23:src/../h/PCB.hpp ****     };
  24:src/../h/PCB.hpp **** 
  25:src/../h/PCB.hpp ****     ~PCB();
  26:src/../h/PCB.hpp **** 
  27:src/../h/PCB.hpp ****     bool isFinished() const { return state == FINISHED; }
  28:src/../h/PCB.hpp **** 
  29:src/../h/PCB.hpp ****     void setState(State s) { state = s; }
 164              		.loc 4 29 30 discriminator 2
 165              		.loc 4 29 36 is_stmt 0 discriminator 2
 166 00f4 93071000 		li	a5,1
GAS LISTING /tmp/ccYYMODl.s 			page 9


 167 00f8 2324F902 		sw	a5,40(s2)
 168              	.LVL12:
 169              	.LBE32:
 170              	.LBE31:
  50:src/main.cpp  ****     Riscv::ms_sstatus(Riscv::SSTATUS_SIE);
 171              		.loc 1 50 5 is_stmt 1 discriminator 2
 172              	.LBB33:
 173              	.LBB34:
 159:src/../h/riscv.hpp **** 
 160:src/../h/riscv.hpp **** inline uint64 Riscv::r_stval()
 161:src/../h/riscv.hpp **** {
 162:src/../h/riscv.hpp ****     uint64 volatile stval;
 163:src/../h/riscv.hpp ****     __asm__ volatile ("csrr %[stval], stval" : [stval] "=r"(stval));
 164:src/../h/riscv.hpp ****     return stval;
 165:src/../h/riscv.hpp **** }
 166:src/../h/riscv.hpp **** 
 167:src/../h/riscv.hpp **** inline void Riscv::w_stval(uint64 stval)
 168:src/../h/riscv.hpp **** {
 169:src/../h/riscv.hpp ****     __asm__ volatile ("csrw stval, %[stval]" : : [stval] "r"(stval));
 170:src/../h/riscv.hpp **** }
 171:src/../h/riscv.hpp **** 
 172:src/../h/riscv.hpp **** inline void Riscv::ms_sip(uint64 mask)
 173:src/../h/riscv.hpp **** {
 174:src/../h/riscv.hpp ****     __asm__ volatile ("csrs sip, %[mask]" : : [mask] "r"(mask));
 175:src/../h/riscv.hpp **** }
 176:src/../h/riscv.hpp **** 
 177:src/../h/riscv.hpp **** inline void Riscv::mc_sip(uint64 mask)
 178:src/../h/riscv.hpp **** {
 179:src/../h/riscv.hpp ****     __asm__ volatile ("csrc sip, %[mask]" : : [mask] "r"(mask));
 180:src/../h/riscv.hpp **** }
 181:src/../h/riscv.hpp **** 
 182:src/../h/riscv.hpp **** inline uint64 Riscv::r_sip()
 183:src/../h/riscv.hpp **** {
 184:src/../h/riscv.hpp ****     uint64 volatile sip;
 185:src/../h/riscv.hpp ****     __asm__ volatile ("csrr %[sip], sip" : [sip] "=r"(sip));
 186:src/../h/riscv.hpp ****     return sip;
 187:src/../h/riscv.hpp **** }
 188:src/../h/riscv.hpp **** 
 189:src/../h/riscv.hpp **** inline void Riscv::w_sip(uint64 sip)
 190:src/../h/riscv.hpp **** {
 191:src/../h/riscv.hpp ****     __asm__ volatile ("csrw sip, %[sip]" : : [sip] "r"(sip));
 192:src/../h/riscv.hpp **** }
 193:src/../h/riscv.hpp **** 
 194:src/../h/riscv.hpp **** inline void Riscv::ms_sstatus(uint64 mask)
 195:src/../h/riscv.hpp **** {
 196:src/../h/riscv.hpp ****     __asm__ volatile ("csrs sstatus, %[mask]" : : [mask] "r"(mask));
 174              		.loc 3 196 5 discriminator 2
 175              		.loc 3 196 68 is_stmt 0 discriminator 2
 176 00fc 93072000 		li	a5,2
 177              	#APP
 178              	# 196 "src/../h/riscv.hpp" 1
 197              	}
 179              		csrs sstatus, a5
 180              	# 0 "" 2
 181              	.LVL13:
 182              	#NO_APP
 183              	.LBE34:
GAS LISTING /tmp/ccYYMODl.s 			page 10


 184              	.LBE33:
  51:src/main.cpp  **** 
  52:src/main.cpp  **** 
  53:src/main.cpp  **** 
  54:src/main.cpp  ****     uint64* stack = (uint64*)MemoryAllocator::getInstance().allocate(((DEFAULT_STACK_SIZE + 16+ MEM
 185              		.loc 1 54 5 is_stmt 1 discriminator 2
 186              	.LBB35:
 187              	.LBB36:
  26:src/../h/../h/MemoryAllocator.hpp ****         return instance;
 188              		.loc 2 26 9 discriminator 2
  26:src/../h/../h/MemoryAllocator.hpp ****         return instance;
 189              		.loc 2 26 32 is_stmt 0 discriminator 2
 190 0104 97070000 		lbu	a5,_ZGVZN15MemoryAllocator11getInstanceEvE8instance
 190      83C70700 
 191 010c 63980700 		bnez	a5,.L5
 192              	.LVL14:
  26:src/../h/../h/MemoryAllocator.hpp ****         return instance;
 193              		.loc 2 26 32
 194 0110 93071000 		li	a5,1
 195 0114 17070000 		sb	a5,_ZGVZN15MemoryAllocator11getInstanceEvE8instance,a4
 195      2300F700 
 196              	.LVL15:
 197              	.L5:
  27:src/../h/../h/MemoryAllocator.hpp ****     }
 198              		.loc 2 27 9 is_stmt 1
 199              	.LBE36:
 200              	.LBE35:
 201              		.loc 1 54 134 is_stmt 0
 202 011c 13051004 		li	a0,65
 203              	.LEHB2:
 204 0120 97000000 		call	_ZN15MemoryAllocator8allocateEm@plt
 204      E7800000 
 205              	.LVL16:
 206 0128 93090500 		mv	s3,a0
 207              	.LVL17:
  55:src/main.cpp  ****     PCB* usrT = new PCB((void (*)(void *))(userMain), nullptr, stack);
 208              		.loc 1 55 5 is_stmt 1
 209              		.loc 1 55 69 is_stmt 0
 210 012c 13050003 		li	a0,48
 211              	.LVL18:
 212 0130 97000000 		call	_Znwm@plt
 212      E7800000 
 213              	.LVL19:
 214              	.LEHE2:
 215 0138 93040500 		mv	s1,a0
 216 013c 93860900 		mv	a3,s3
 217 0140 13060000 		li	a2,0
 218 0144 97050000 		la	a1,_Z8userMainv
 218      83B50500 
 219              	.LEHB3:
 220 014c 97000000 		call	_ZN3PCBC1EPFvPvES0_Pm@plt
 220      E7800000 
 221              	.LVL20:
 222              	.LEHE3:
  56:src/main.cpp  ****     Scheduler::put(usrT);
 223              		.loc 1 56 5 is_stmt 1 discriminator 2
 224              		.loc 1 56 19 is_stmt 0 discriminator 2
GAS LISTING /tmp/ccYYMODl.s 			page 11


 225 0154 13850400 		mv	a0,s1
 226              	.LEHB4:
 227 0158 97000000 		call	_ZN9Scheduler3putEP3PCB@plt
 227      E7800000 
 228              	.LVL21:
  57:src/main.cpp  **** 
  58:src/main.cpp  ****     switchToUserMode();
 229              		.loc 1 58 5 is_stmt 1 discriminator 2
 230              		.loc 1 58 21 is_stmt 0 discriminator 2
 231 0160 97000000 		call	_Z16switchToUserModev@plt
 231      E7800000 
 232              	.LVL22:
 233              	.L7:
  59:src/main.cpp  **** 
  60:src/main.cpp  **** 
  61:src/main.cpp  ****     while (!usrT->isFinished()){
 234              		.loc 1 61 5 is_stmt 1
 235              		.loc 1 61 12
 236              	.LBB37:
 237              	.LBB38:
  27:src/../h/PCB.hpp **** 
 238              		.loc 4 27 31
  27:src/../h/PCB.hpp **** 
 239              		.loc 4 27 38 is_stmt 0
 240 0168 03A78402 		lw	a4,40(s1)
 241              	.LVL23:
 242              	.LBE38:
 243              	.LBE37:
 244              		.loc 1 61 12
 245 016c 93073000 		li	a5,3
 246 0170 6308F700 		beq	a4,a5,.L6
  62:src/main.cpp  ****         thread_dispatch();
 247              		.loc 1 62 9 is_stmt 1
 248              		.loc 1 62 24 is_stmt 0
 249 0174 97000000 		call	_Z15thread_dispatchv@plt
 249      E7800000 
 250              	.LVL24:
  61:src/main.cpp  ****         thread_dispatch();
 251              		.loc 1 61 5
 252 017c 6FF0DFFE 		j	.L7
 253              	.L6:
  63:src/main.cpp  ****     }
  64:src/main.cpp  **** 
  65:src/main.cpp  **** 
  66:src/main.cpp  ****     delete usrT;
 254              		.loc 1 66 5 is_stmt 1
 255              		.loc 1 66 16 is_stmt 0
 256 0180 638E0400 		beqz	s1,.L8
 257              		.loc 1 66 12 discriminator 1
 258 0184 13850400 		mv	a0,s1
 259 0188 97000000 		call	_ZN3PCBD1Ev@plt
 259      E7800000 
 260              	.LVL25:
 261 0190 13850400 		mv	a0,s1
 262 0194 97000000 		call	_ZdlPv@plt
 262      E7800000 
 263              	.LVL26:
GAS LISTING /tmp/ccYYMODl.s 			page 12


 264              	.L8:
  67:src/main.cpp  ****     delete pcb;
 265              		.loc 1 67 5 is_stmt 1
 266              		.loc 1 67 15 is_stmt 0
 267 019c 630E0900 		beqz	s2,.L14
 268              		.loc 1 67 12 discriminator 1
 269 01a0 13050900 		mv	a0,s2
 270 01a4 97000000 		call	_ZN3PCBD1Ev@plt
 270      E7800000 
 271              	.LVL27:
 272 01ac 13050900 		mv	a0,s2
 273 01b0 97000000 		call	_ZdlPv@plt
 273      E7800000 
 274              	.LVL28:
 275              	.LEHE4:
  68:src/main.cpp  **** 
  69:src/main.cpp  ****     //printString("MAIN START\n");
  70:src/main.cpp  **** 
  71:src/main.cpp  **** 
  72:src/main.cpp  **** 
  73:src/main.cpp  **** 
  74:src/main.cpp  ****     //printString("Finished\n");
  75:src/main.cpp  **** 
  76:src/main.cpp  ****     return 0;
 276              		.loc 1 76 5 is_stmt 1 discriminator 1
 277              	.L14:
  77:src/main.cpp  **** }...
 278              		.loc 1 77 1 is_stmt 0
 279 01b8 13050000 		li	a0,0
 280 01bc 83308102 		ld	ra,40(sp)
 281              		.cfi_remember_state
 282              		.cfi_restore 1
 283 01c0 03340102 		ld	s0,32(sp)
 284              		.cfi_restore 8
 285              		.cfi_def_cfa 2, 48
 286 01c4 83348101 		ld	s1,24(sp)
 287              		.cfi_restore 9
 288              	.LVL29:
 289 01c8 03390101 		ld	s2,16(sp)
 290              		.cfi_restore 18
 291              	.LVL30:
 292 01cc 83398100 		ld	s3,8(sp)
 293              		.cfi_restore 19
 294              	.LVL31:
 295 01d0 13010103 		addi	sp,sp,48
 296              		.cfi_def_cfa_offset 0
 297 01d4 67800000 		jr	ra
 298              	.L12:
 299              		.cfi_restore_state
 300 01d8 93040500 		mv	s1,a0
  47:src/main.cpp  ****     PCB* pcb = new PCB(nullptr, nullptr, nullptr);
 301              		.loc 1 47 49
 302 01dc 13050900 		mv	a0,s2
 303 01e0 97000000 		call	_ZdlPv@plt
 303      E7800000 
 304              	.LVL32:
 305 01e8 13850400 		mv	a0,s1
GAS LISTING /tmp/ccYYMODl.s 			page 13


 306              	.LEHB5:
 307 01ec 97000000 		call	_Unwind_Resume@plt
 307      E7800000 
 308              	.LVL33:
 309              	.LEHE5:
 310              	.L13:
 311 01f4 13090500 		mv	s2,a0
 312              	.LVL34:
  55:src/main.cpp  ****     PCB* usrT = new PCB((void (*)(void *))(userMain), nullptr, stack);
 313              		.loc 1 55 69
 314 01f8 13850400 		mv	a0,s1
 315 01fc 97000000 		call	_ZdlPv@plt
 315      E7800000 
 316              	.LVL35:
 317 0204 13050900 		mv	a0,s2
 318              	.LEHB6:
 319 0208 97000000 		call	_Unwind_Resume@plt
 319      E7800000 
 320              	.LVL36:
 321              	.LEHE6:
 322              		.cfi_endproc
 323              	.LFE53:
 324              		.globl	__gxx_personality_v0
 325              		.section	.gcc_except_table,"a",@progbits
 326              	.LLSDA53:
 327 0000 FF       		.byte	0xff
 328 0001 FF       		.byte	0xff
 329 0002 03       		.byte	0x3
 330 0003 5B       		.byte	0x5b
 331 0004 00000000 		.4byte	.LEHB0-.LFB53
 332 0008 00000000 		.4byte	.LEHE0-.LEHB0
 333 000c 00000000 		.4byte	0
 334 0010 00       		.byte	0
 335 0011 00000000 		.4byte	.LEHB1-.LFB53
 336 0015 00000000 		.4byte	.LEHE1-.LEHB1
 337 0019 00000000 		.4byte	.L12-.LFB53
 338 001d 00       		.byte	0
 339 001e 00000000 		.4byte	.LEHB2-.LFB53
 340 0022 00000000 		.4byte	.LEHE2-.LEHB2
 341 0026 00000000 		.4byte	0
 342 002a 00       		.byte	0
 343 002b 00000000 		.4byte	.LEHB3-.LFB53
 344 002f 00000000 		.4byte	.LEHE3-.LEHB3
 345 0033 00000000 		.4byte	.L13-.LFB53
 346 0037 00       		.byte	0
 347 0038 00000000 		.4byte	.LEHB4-.LFB53
 348 003c 00000000 		.4byte	.LEHE4-.LEHB4
 349 0040 00000000 		.4byte	0
 350 0044 00       		.byte	0
 351 0045 00000000 		.4byte	.LEHB5-.LFB53
 352 0049 00000000 		.4byte	.LEHE5-.LEHB5
 353 004d 00000000 		.4byte	0
 354 0051 00       		.byte	0
 355 0052 00000000 		.4byte	.LEHB6-.LFB53
 356 0056 00000000 		.4byte	.LEHE6-.LEHB6
 357 005a 00000000 		.4byte	0
 358 005e 00       		.byte	0
GAS LISTING /tmp/ccYYMODl.s 			page 14


 359              		.text
 361              		.weak	_ZGVZN15MemoryAllocator11getInstanceEvE8instance
 362              		.section	.bss._ZGVZN15MemoryAllocator11getInstanceEvE8instance,"awG",@nobits,_ZGVZN15MemoryAllocat
 363              		.align	3
 366              	_ZGVZN15MemoryAllocator11getInstanceEvE8instance:
 367 0000 00000000 		.zero	8
 367      00000000 
 368              		.text
 369              	.Letext0:
 370              		.file 5 "src/../h/../h/../lib/hw.h"
 371              		.file 6 "src/../h/Scheduler.hpp"
 372              		.file 7 "src/../h/list.hpp"
 373              		.file 8 "src/../h/../h/syscall_c.hpp"
 374              		.file 9 "src/../h/syscall_cpp.hpp"
 3584              		.align	3
 3587              	DW.ref.__gxx_personality_v0:
 3588 0000 00000000 		.dword	__gxx_personality_v0
 3588      00000000 
 3589              		.ident	"GCC: (Ubuntu 9.4.0-1ubuntu1~20.04) 9.4.0"
 3590              		.section	.note.GNU-stack,"",@progbits
GAS LISTING /tmp/ccYYMODl.s 			page 15


DEFINED SYMBOLS
                            *ABS*:0000000000000000 main.cpp
     /tmp/ccYYMODl.s:9      .text:0000000000000000 _Z7createCm
     /tmp/ccYYMODl.s:13     .text:0000000000000000 .L0 
     /tmp/ccYYMODl.s:15     .text:0000000000000000 .L0 
     /tmp/ccYYMODl.s:16     .text:0000000000000004 .L0 
     /tmp/ccYYMODl.s:20     .text:0000000000000010 .L0 
     /tmp/ccYYMODl.s:21     .text:0000000000000010 .L0 
     /tmp/ccYYMODl.s:22     .text:0000000000000010 .L0 
     /tmp/ccYYMODl.s:24     .text:0000000000000014 .L0 
     /tmp/ccYYMODl.s:27     .text:0000000000000018 .L0 
     /tmp/ccYYMODl.s:28     .text:0000000000000018 .L0 
     /tmp/ccYYMODl.s:35     .text:0000000000000024 .L0 
     /tmp/ccYYMODl.s:36     .text:0000000000000024 .L0 
     /tmp/ccYYMODl.s:41     .text:0000000000000028 .L0 
     /tmp/ccYYMODl.s:42     .text:000000000000002c .L0 
     /tmp/ccYYMODl.s:44     .text:0000000000000030 .L0 
     /tmp/ccYYMODl.s:45     .text:0000000000000030 .L0 
     /tmp/ccYYMODl.s:47     .text:0000000000000034 .L0 
     /tmp/ccYYMODl.s:50     .text:0000000000000038 .L0 
     /tmp/ccYYMODl.s:52     .text:000000000000003c .L0 
     /tmp/ccYYMODl.s:58     .text:000000000000003c main
     /tmp/ccYYMODl.s:61     .text:000000000000003c .L0 
     /tmp/ccYYMODl.s:3587   .data.rel.local.DW.ref.__gxx_personality_v0:0000000000000000 DW.ref.__gxx_personality_v0
     /tmp/ccYYMODl.s:64     .text:000000000000003c .L0 
     /tmp/ccYYMODl.s:65     .text:0000000000000040 .L0 
     /tmp/ccYYMODl.s:71     .text:0000000000000054 .L0 
     /tmp/ccYYMODl.s:72     .text:0000000000000054 .L0 
     /tmp/ccYYMODl.s:73     .text:0000000000000054 .L0 
     /tmp/ccYYMODl.s:74     .text:0000000000000054 .L0 
     /tmp/ccYYMODl.s:75     .text:0000000000000054 .L0 
     /tmp/ccYYMODl.s:77     .text:0000000000000058 .L0 
     /tmp/ccYYMODl.s:82     .text:0000000000000058 .L0 
     /tmp/ccYYMODl.s:83     .text:0000000000000058 .L0 
     /tmp/ccYYMODl.s:366    .bss._ZGVZN15MemoryAllocator11getInstanceEvE8instance:0000000000000000 _ZGVZN15MemoryAllocator11getInstanceEvE8instance
     /tmp/ccYYMODl.s:84     .text:0000000000000058 .L0 
     /tmp/ccYYMODl.s:96     .text:0000000000000070 .L0 
     /tmp/ccYYMODl.s:97     .text:0000000000000070 .L0 
     /tmp/ccYYMODl.s:98     .text:0000000000000070 .L0 
     /tmp/ccYYMODl.s:103    .text:0000000000000088 .L0 
     /tmp/ccYYMODl.s:104    .text:0000000000000088 .L0 
     /tmp/ccYYMODl.s:107    .text:0000000000000094 .L0 
     /tmp/ccYYMODl.s:110    .text:000000000000009c .L0 
     /tmp/ccYYMODl.s:112    .text:00000000000000a0 .L0 
     /tmp/ccYYMODl.s:113    .text:00000000000000a0 .L0 
     /tmp/ccYYMODl.s:115    .text:00000000000000a4 .L0 
     /tmp/ccYYMODl.s:117    .text:00000000000000a8 .L0 
     /tmp/ccYYMODl.s:118    .text:00000000000000a8 .L0 
     /tmp/ccYYMODl.s:123    .text:00000000000000b4 .L0 
     /tmp/ccYYMODl.s:124    .text:00000000000000b4 .L0 
     /tmp/ccYYMODl.s:131    .text:00000000000000c0 .L0 
  src/../h/riscv.hpp:157    .text:00000000000000c0 .L0 
     /tmp/ccYYMODl.s:141    .text:00000000000000c4 .L0 
     /tmp/ccYYMODl.s:142    .text:00000000000000c4 .L0 
     /tmp/ccYYMODl.s:156    .text:00000000000000e8 .L0 
     /tmp/ccYYMODl.s:157    .text:00000000000000e8 .L0 
     /tmp/ccYYMODl.s:164    .text:00000000000000f4 .L0 
GAS LISTING /tmp/ccYYMODl.s 			page 16


     /tmp/ccYYMODl.s:165    .text:00000000000000f4 .L0 
     /tmp/ccYYMODl.s:166    .text:00000000000000f4 .L0 
     /tmp/ccYYMODl.s:174    .text:00000000000000fc .L0 
     /tmp/ccYYMODl.s:175    .text:00000000000000fc .L0 
     /tmp/ccYYMODl.s:176    .text:00000000000000fc .L0 
     /tmp/ccYYMODl.s:188    .text:0000000000000104 .L0 
     /tmp/ccYYMODl.s:189    .text:0000000000000104 .L0 
     /tmp/ccYYMODl.s:190    .text:0000000000000104 .L0 
     /tmp/ccYYMODl.s:194    .text:0000000000000110 .L0 
     /tmp/ccYYMODl.s:201    .text:000000000000011c .L0 
     /tmp/ccYYMODl.s:202    .text:000000000000011c .L0 
     /tmp/ccYYMODl.s:209    .text:000000000000012c .L0 
     /tmp/ccYYMODl.s:210    .text:000000000000012c .L0 
     /tmp/ccYYMODl.s:224    .text:0000000000000154 .L0 
     /tmp/ccYYMODl.s:225    .text:0000000000000154 .L0 
     /tmp/ccYYMODl.s:230    .text:0000000000000160 .L0 
     /tmp/ccYYMODl.s:231    .text:0000000000000160 .L0 
     /tmp/ccYYMODl.s:235    .text:0000000000000168 .L0 
     /tmp/ccYYMODl.s:238    .text:0000000000000168 .L0 
     /tmp/ccYYMODl.s:239    .text:0000000000000168 .L0 
     /tmp/ccYYMODl.s:240    .text:0000000000000168 .L0 
     /tmp/ccYYMODl.s:245    .text:000000000000016c .L0 
     /tmp/ccYYMODl.s:248    .text:0000000000000174 .L0 
     /tmp/ccYYMODl.s:249    .text:0000000000000174 .L0 
     /tmp/ccYYMODl.s:252    .text:000000000000017c .L0 
     /tmp/ccYYMODl.s:255    .text:0000000000000180 .L0 
     /tmp/ccYYMODl.s:256    .text:0000000000000180 .L0 
     /tmp/ccYYMODl.s:258    .text:0000000000000184 .L0 
     /tmp/ccYYMODl.s:266    .text:000000000000019c .L0 
     /tmp/ccYYMODl.s:267    .text:000000000000019c .L0 
     /tmp/ccYYMODl.s:269    .text:00000000000001a0 .L0 
     /tmp/ccYYMODl.s:278    .text:00000000000001b8 .L0 
     /tmp/ccYYMODl.s:279    .text:00000000000001b8 .L0 
     /tmp/ccYYMODl.s:281    .text:00000000000001c0 .L0 
     /tmp/ccYYMODl.s:282    .text:00000000000001c0 .L0 
     /tmp/ccYYMODl.s:284    .text:00000000000001c4 .L0 
     /tmp/ccYYMODl.s:285    .text:00000000000001c4 .L0 
     /tmp/ccYYMODl.s:287    .text:00000000000001c8 .L0 
     /tmp/ccYYMODl.s:290    .text:00000000000001cc .L0 
     /tmp/ccYYMODl.s:293    .text:00000000000001d0 .L0 
     /tmp/ccYYMODl.s:296    .text:00000000000001d4 .L0 
     /tmp/ccYYMODl.s:299    .text:00000000000001d8 .L0 
     /tmp/ccYYMODl.s:302    .text:00000000000001dc .L0 
     /tmp/ccYYMODl.s:314    .text:00000000000001f8 .L0 
     /tmp/ccYYMODl.s:322    .text:0000000000000210 .L0 
     /tmp/ccYYMODl.s:375    .text:0000000000000210 .L0 
     /tmp/ccYYMODl.s:84     .text:0000000000000058 .L0 
     /tmp/ccYYMODl.s:88     .text:0000000000000068 .L0 
     /tmp/ccYYMODl.s:98     .text:0000000000000070 .L0 
     /tmp/ccYYMODl.s:100    .text:000000000000007c .L0 
     /tmp/ccYYMODl.s:104    .text:0000000000000088 .L0 
     /tmp/ccYYMODl.s:118    .text:00000000000000a8 .L0 
     /tmp/ccYYMODl.s:124    .text:00000000000000b4 .L0 
     /tmp/ccYYMODl.s:157    .text:00000000000000e8 .L0 
     /tmp/ccYYMODl.s:190    .text:0000000000000104 .L0 
     /tmp/ccYYMODl.s:195    .text:0000000000000114 .L0 
     /tmp/ccYYMODl.s:218    .text:0000000000000144 .L0 
GAS LISTING /tmp/ccYYMODl.s 			page 17


     /tmp/ccYYMODl.s:90     .text:0000000000000070 .L4
     /tmp/ccYYMODl.s:197    .text:000000000000011c .L5
     /tmp/ccYYMODl.s:253    .text:0000000000000180 .L6
     /tmp/ccYYMODl.s:233    .text:0000000000000168 .L7
     /tmp/ccYYMODl.s:264    .text:000000000000019c .L8
     /tmp/ccYYMODl.s:277    .text:00000000000001b8 .L14
     /tmp/ccYYMODl.s:143    .text:00000000000000c8 .LEHB0
     /tmp/ccYYMODl.s:59     .text:000000000000003c .LFB53
     /tmp/ccYYMODl.s:146    .text:00000000000000d0 .LEHE0
     /tmp/ccYYMODl.s:151    .text:00000000000000e0 .LEHB1
     /tmp/ccYYMODl.s:154    .text:00000000000000e8 .LEHE1
     /tmp/ccYYMODl.s:298    .text:00000000000001d8 .L12
     /tmp/ccYYMODl.s:203    .text:0000000000000120 .LEHB2
     /tmp/ccYYMODl.s:214    .text:0000000000000138 .LEHE2
     /tmp/ccYYMODl.s:219    .text:000000000000014c .LEHB3
     /tmp/ccYYMODl.s:222    .text:0000000000000154 .LEHE3
     /tmp/ccYYMODl.s:310    .text:00000000000001f4 .L13
     /tmp/ccYYMODl.s:226    .text:0000000000000158 .LEHB4
     /tmp/ccYYMODl.s:275    .text:00000000000001b8 .LEHE4
     /tmp/ccYYMODl.s:306    .text:00000000000001ec .LEHB5
     /tmp/ccYYMODl.s:309    .text:00000000000001f4 .LEHE5
     /tmp/ccYYMODl.s:318    .text:0000000000000208 .LEHB6
     /tmp/ccYYMODl.s:321    .text:0000000000000210 .LEHE6
     /tmp/ccYYMODl.s:1935   .debug_abbrev:0000000000000000 .Ldebug_abbrev0
     /tmp/ccYYMODl.s:3497   .debug_str:000000000000083c .LASF175
     /tmp/ccYYMODl.s:3289   .debug_str:00000000000002b9 .LASF176
     /tmp/ccYYMODl.s:3507   .debug_str:0000000000000954 .LASF177
     /tmp/ccYYMODl.s:5      .text:0000000000000000 .Ltext0
     /tmp/ccYYMODl.s:369    .text:0000000000000210 .Letext0
     /tmp/ccYYMODl.s:3199   .debug_line:0000000000000000 .Ldebug_line0
     /tmp/ccYYMODl.s:3317   .debug_str:0000000000000374 .LASF0
     /tmp/ccYYMODl.s:3351   .debug_str:000000000000045d .LASF1
     /tmp/ccYYMODl.s:3435   .debug_str:00000000000006af .LASF2
     /tmp/ccYYMODl.s:3445   .debug_str:00000000000006f7 .LASF4
     /tmp/ccYYMODl.s:3329   .debug_str:00000000000003c9 .LASF3
     /tmp/ccYYMODl.s:3205   .debug_str:0000000000000017 .LASF5
     /tmp/ccYYMODl.s:3407   .debug_str:00000000000005de .LASF6
     /tmp/ccYYMODl.s:3343   .debug_str:0000000000000429 .LASF7
     /tmp/ccYYMODl.s:3299   .debug_str:00000000000002e1 .LASF8
     /tmp/ccYYMODl.s:3307   .debug_str:0000000000000327 .LASF9
     /tmp/ccYYMODl.s:3235   .debug_str:000000000000011c .LASF10
     /tmp/ccYYMODl.s:3287   .debug_str:00000000000002aa .LASF11
     /tmp/ccYYMODl.s:3249   .debug_str:000000000000017c .LASF12
     /tmp/ccYYMODl.s:3233   .debug_str:000000000000010c .LASF13
     /tmp/ccYYMODl.s:3479   .debug_str:00000000000007e6 .LASF14
     /tmp/ccYYMODl.s:3277   .debug_str:0000000000000258 .LASF15
     /tmp/ccYYMODl.s:3469   .debug_str:0000000000000791 .LASF16
     /tmp/ccYYMODl.s:3337   .debug_str:000000000000040d .LASF178
     /tmp/ccYYMODl.s:3349   .debug_str:0000000000000458 .LASF17
     /tmp/ccYYMODl.s:3237   .debug_str:000000000000012b .LASF18
     /tmp/ccYYMODl.s:3401   .debug_str:00000000000005b1 .LASF27
     /tmp/ccYYMODl.s:3217   .debug_str:0000000000000085 .LASF94
     /tmp/ccYYMODl.s:3519   .debug_str:00000000000009b1 .LASF19
     /tmp/ccYYMODl.s:3471   .debug_str:00000000000007a7 .LASF20
     /tmp/ccYYMODl.s:3555   .debug_str:0000000000000a9c .LASF30
     /tmp/ccYYMODl.s:3369   .debug_str:00000000000004d8 .LASF32
     /tmp/ccYYMODl.s:3221   .debug_str:00000000000000c6 .LASF63
GAS LISTING /tmp/ccYYMODl.s 			page 18


     /tmp/ccYYMODl.s:3569   .debug_str:0000000000000b04 .LASF65
     /tmp/ccYYMODl.s:3577   .debug_str:0000000000000b44 .LASF21
     /tmp/ccYYMODl.s:3305   .debug_str:0000000000000307 .LASF23
     /tmp/ccYYMODl.s:3365   .debug_str:00000000000004b7 .LASF22
     /tmp/ccYYMODl.s:3397   .debug_str:0000000000000588 .LASF24
     /tmp/ccYYMODl.s:3333   .debug_str:00000000000003ec .LASF39
     /tmp/ccYYMODl.s:3437   .debug_str:00000000000006bd .LASF25
     /tmp/ccYYMODl.s:3525   .debug_str:00000000000009c8 .LASF26
     /tmp/ccYYMODl.s:3297   .debug_str:00000000000002d7 .LASF28
     /tmp/ccYYMODl.s:3247   .debug_str:0000000000000171 .LASF29
     /tmp/ccYYMODl.s:3563   .debug_str:0000000000000ad8 .LASF179
     /tmp/ccYYMODl.s:3209   .debug_str:0000000000000029 .LASF154
     /tmp/ccYYMODl.s:3201   .debug_str:0000000000000000 .LASF31
     /tmp/ccYYMODl.s:3455   .debug_str:000000000000073c .LASF33
     /tmp/ccYYMODl.s:3231   .debug_str:0000000000000102 .LASF34
     /tmp/ccYYMODl.s:3521   .debug_str:00000000000009bb .LASF180
     /tmp/ccYYMODl.s:3473   .debug_str:00000000000007b6 .LASF35
     /tmp/ccYYMODl.s:3381   .debug_str:0000000000000531 .LASF36
     /tmp/ccYYMODl.s:3373   .debug_str:0000000000000517 .LASF37
     /tmp/ccYYMODl.s:3553   .debug_str:0000000000000a89 .LASF38
     /tmp/ccYYMODl.s:3223   .debug_str:00000000000000cb .LASF40
     /tmp/ccYYMODl.s:3251   .debug_str:000000000000018c .LASF159
     /tmp/ccYYMODl.s:3347   .debug_str:000000000000044f .LASF41
     /tmp/ccYYMODl.s:3505   .debug_str:0000000000000937 .LASF42
     /tmp/ccYYMODl.s:3361   .debug_str:00000000000004aa .LASF43
     /tmp/ccYYMODl.s:3429   .debug_str:000000000000067f .LASF44
     /tmp/ccYYMODl.s:3403   .debug_str:00000000000005c1 .LASF45
     /tmp/ccYYMODl.s:3533   .debug_str:0000000000000a00 .LASF46
     /tmp/ccYYMODl.s:3579   .debug_str:0000000000000b4d .LASF47
     /tmp/ccYYMODl.s:3371   .debug_str:00000000000004fc .LASF48
     /tmp/ccYYMODl.s:3457   .debug_str:0000000000000753 .LASF49
     /tmp/ccYYMODl.s:3241   .debug_str:0000000000000141 .LASF50
     /tmp/ccYYMODl.s:3421   .debug_str:0000000000000657 .LASF51
     /tmp/ccYYMODl.s:3475   .debug_str:00000000000007bb .LASF52
     /tmp/ccYYMODl.s:3485   .debug_str:0000000000000809 .LASF181
     /tmp/ccYYMODl.s:3491   .debug_str:0000000000000821 .LASF80
     /tmp/ccYYMODl.s:3229   .debug_str:00000000000000fc .LASF53
     /tmp/ccYYMODl.s:3459   .debug_str:000000000000075e .LASF54
     /tmp/ccYYMODl.s:3243   .debug_str:000000000000015e .LASF55
     /tmp/ccYYMODl.s:3225   .debug_str:00000000000000e2 .LASF56
     /tmp/ccYYMODl.s:3543   .debug_str:0000000000000a49 .LASF57
     /tmp/ccYYMODl.s:3567   .debug_str:0000000000000af8 .LASF58
     /tmp/ccYYMODl.s:3487   .debug_str:0000000000000811 .LASF59
     /tmp/ccYYMODl.s:3549   .debug_str:0000000000000a58 .LASF60
     /tmp/ccYYMODl.s:3443   .debug_str:00000000000006ee .LASF61
     /tmp/ccYYMODl.s:3327   .debug_str:00000000000003ad .LASF62
     /tmp/ccYYMODl.s:3267   .debug_str:0000000000000227 .LASF64
     /tmp/ccYYMODl.s:3215   .debug_str:0000000000000072 .LASF66
     /tmp/ccYYMODl.s:3463   .debug_str:000000000000076c .LASF67
     /tmp/ccYYMODl.s:3441   .debug_str:00000000000006df .LASF68
     /tmp/ccYYMODl.s:3451   .debug_str:0000000000000718 .LASF182
     /tmp/ccYYMODl.s:3393   .debug_str:0000000000000572 .LASF183
     /tmp/ccYYMODl.s:3561   .debug_str:0000000000000ad2 .LASF69
     /tmp/ccYYMODl.s:3501   .debug_str:0000000000000913 .LASF70
     /tmp/ccYYMODl.s:3493   .debug_str:0000000000000827 .LASF184
     /tmp/ccYYMODl.s:3325   .debug_str:00000000000003a8 .LASF71
     /tmp/ccYYMODl.s:3575   .debug_str:0000000000000b35 .LASF72
GAS LISTING /tmp/ccYYMODl.s 			page 19


     /tmp/ccYYMODl.s:3253   .debug_str:00000000000001a3 .LASF185
     /tmp/ccYYMODl.s:3219   .debug_str:000000000000009e .LASF186
     /tmp/ccYYMODl.s:3529   .debug_str:00000000000009f3 .LASF148
     /tmp/ccYYMODl.s:3483   .debug_str:00000000000007f7 .LASF150
     /tmp/ccYYMODl.s:3265   .debug_str:0000000000000222 .LASF73
     /tmp/ccYYMODl.s:3461   .debug_str:0000000000000766 .LASF74
     /tmp/ccYYMODl.s:3481   .debug_str:00000000000007f2 .LASF75
     /tmp/ccYYMODl.s:3511   .debug_str:000000000000097c .LASF76
     /tmp/ccYYMODl.s:3269   .debug_str:0000000000000230 .LASF77
     /tmp/ccYYMODl.s:3363   .debug_str:00000000000004b2 .LASF78
     /tmp/ccYYMODl.s:3539   .debug_str:0000000000000a39 .LASF79
     /tmp/ccYYMODl.s:3281   .debug_str:0000000000000289 .LASF81
     /tmp/ccYYMODl.s:3283   .debug_str:0000000000000298 .LASF82
     /tmp/ccYYMODl.s:3495   .debug_str:000000000000082f .LASF83
     /tmp/ccYYMODl.s:3259   .debug_str:00000000000001ec .LASF84
     /tmp/ccYYMODl.s:3309   .debug_str:0000000000000335 .LASF85
     /tmp/ccYYMODl.s:3313   .debug_str:0000000000000352 .LASF86
     /tmp/ccYYMODl.s:3453   .debug_str:000000000000072e .LASF87
     /tmp/ccYYMODl.s:3279   .debug_str:000000000000026e .LASF88
     /tmp/ccYYMODl.s:3319   .debug_str:0000000000000381 .LASF89
     /tmp/ccYYMODl.s:3551   .debug_str:0000000000000a6f .LASF90
     /tmp/ccYYMODl.s:3517   .debug_str:00000000000009a8 .LASF91
     /tmp/ccYYMODl.s:3513   .debug_str:0000000000000984 .LASF92
     /tmp/ccYYMODl.s:3431   .debug_str:000000000000069b .LASF93
     /tmp/ccYYMODl.s:3389   .debug_str:0000000000000556 .LASF95
     /tmp/ccYYMODl.s:3411   .debug_str:00000000000005fb .LASF96
     /tmp/ccYYMODl.s:3417   .debug_str:0000000000000630 .LASF97
     /tmp/ccYYMODl.s:3383   .debug_str:0000000000000536 .LASF98
     /tmp/ccYYMODl.s:3345   .debug_str:000000000000043c .LASF99
     /tmp/ccYYMODl.s:3375   .debug_str:000000000000051c .LASF100
     /tmp/ccYYMODl.s:3503   .debug_str:0000000000000923 .LASF101
     /tmp/ccYYMODl.s:3379   .debug_str:0000000000000529 .LASF102
     /tmp/ccYYMODl.s:3387   .debug_str:0000000000000542 .LASF103
     /tmp/ccYYMODl.s:3355   .debug_str:0000000000000489 .LASF104
     /tmp/ccYYMODl.s:3419   .debug_str:0000000000000643 .LASF105
     /tmp/ccYYMODl.s:3573   .debug_str:0000000000000b2d .LASF106
     /tmp/ccYYMODl.s:3323   .debug_str:0000000000000394 .LASF107
     /tmp/ccYYMODl.s:3423   .debug_str:0000000000000660 .LASF108
     /tmp/ccYYMODl.s:3447   .debug_str:00000000000006fe .LASF109
     /tmp/ccYYMODl.s:3449   .debug_str:0000000000000711 .LASF110
     /tmp/ccYYMODl.s:3275   .debug_str:0000000000000245 .LASF111
     /tmp/ccYYMODl.s:3271   .debug_str:0000000000000236 .LASF112
     /tmp/ccYYMODl.s:3311   .debug_str:0000000000000340 .LASF113
     /tmp/ccYYMODl.s:3321   .debug_str:000000000000038e .LASF114
     /tmp/ccYYMODl.s:3263   .debug_str:0000000000000210 .LASF115
     /tmp/ccYYMODl.s:3207   .debug_str:000000000000001e .LASF116
     /tmp/ccYYMODl.s:3439   .debug_str:00000000000006c7 .LASF117
     /tmp/ccYYMODl.s:3433   .debug_str:00000000000006a4 .LASF118
     /tmp/ccYYMODl.s:3413   .debug_str:0000000000000602 .LASF119
     /tmp/ccYYMODl.s:3541   .debug_str:0000000000000a3f .LASF120
     /tmp/ccYYMODl.s:3557   .debug_str:0000000000000aa8 .LASF121
     /tmp/ccYYMODl.s:3535   .debug_str:0000000000000a1e .LASF122
     /tmp/ccYYMODl.s:3367   .debug_str:00000000000004c2 .LASF123
     /tmp/ccYYMODl.s:3465   .debug_str:0000000000000771 .LASF124
     /tmp/ccYYMODl.s:3359   .debug_str:0000000000000497 .LASF125
     /tmp/ccYYMODl.s:3295   .debug_str:00000000000002d0 .LASF126
     /tmp/ccYYMODl.s:3499   .debug_str:0000000000000900 .LASF127
GAS LISTING /tmp/ccYYMODl.s 			page 20


     /tmp/ccYYMODl.s:3515   .debug_str:0000000000000999 .LASF128
     /tmp/ccYYMODl.s:3213   .debug_str:0000000000000056 .LASF129
     /tmp/ccYYMODl.s:3545   .debug_str:0000000000000a4e .LASF130
     /tmp/ccYYMODl.s:3395   .debug_str:0000000000000577 .LASF131
     /tmp/ccYYMODl.s:3335   .debug_str:0000000000000408 .LASF132
     /tmp/ccYYMODl.s:3477   .debug_str:00000000000007d5 .LASF133
     /tmp/ccYYMODl.s:3547   .debug_str:0000000000000a53 .LASF134
     /tmp/ccYYMODl.s:3331   .debug_str:00000000000003db .LASF135
     /tmp/ccYYMODl.s:3377   .debug_str:0000000000000524 .LASF136
     /tmp/ccYYMODl.s:3405   .debug_str:00000000000005cd .LASF137
     /tmp/ccYYMODl.s:3385   .debug_str:000000000000053d .LASF138
     /tmp/ccYYMODl.s:3227   .debug_str:00000000000000eb .LASF139
     /tmp/ccYYMODl.s:3339   .debug_str:0000000000000413 .LASF140
     /tmp/ccYYMODl.s:3341   .debug_str:0000000000000418 .LASF141
     /tmp/ccYYMODl.s:3399   .debug_str:00000000000005ac .LASF142
     /tmp/ccYYMODl.s:3301   .debug_str:00000000000002f1 .LASF143
     /tmp/ccYYMODl.s:3509   .debug_str:0000000000000977 .LASF144
     /tmp/ccYYMODl.s:3239   .debug_str:0000000000000130 .LASF145
     /tmp/ccYYMODl.s:3523   .debug_str:00000000000009c0 .LASF146
     /tmp/ccYYMODl.s:3559   .debug_str:0000000000000abe .LASF147
     /tmp/ccYYMODl.s:3565   .debug_str:0000000000000aec .LASF149
     /tmp/ccYYMODl.s:3353   .debug_str:0000000000000470 .LASF151
     /tmp/ccYYMODl.s:3273   .debug_str:000000000000023c .LASF152
     /tmp/ccYYMODl.s:3489   .debug_str:000000000000081c .LASF153
     /tmp/ccYYMODl.s:3409   .debug_str:00000000000005f1 .LASF155
     /tmp/ccYYMODl.s:3293   .debug_str:00000000000002cb .LASF156
     /tmp/ccYYMODl.s:323    .text:0000000000000210 .LFE53
     /tmp/ccYYMODl.s:3086   .debug_loc:0000000000000000 .LLST3
     /tmp/ccYYMODl.s:3097   .debug_loc:0000000000000036 .LLST4
     /tmp/ccYYMODl.s:3303   .debug_str:0000000000000302 .LASF157
     /tmp/ccYYMODl.s:3112   .debug_loc:000000000000007f .LLST5
     /tmp/ccYYMODl.s:79     .text:0000000000000058 .LBB25
     /tmp/ccYYMODl.s:93     .text:0000000000000070 .LBE25
     /tmp/ccYYMODl.s:94     .text:0000000000000070 .LBB27
     /tmp/ccYYMODl.s:121    .text:00000000000000b4 .LBE27
     /tmp/ccYYMODl.s:127    .text:00000000000000c0 .LBB29
     /tmp/ccYYMODl.s:139    .text:00000000000000c4 .LBE29
     /tmp/ccYYMODl.s:3119   .debug_loc:00000000000000a2 .LLST6
     /tmp/ccYYMODl.s:161    .text:00000000000000f4 .LBB31
     /tmp/ccYYMODl.s:170    .text:00000000000000fc .LBE31
     /tmp/ccYYMODl.s:3126   .debug_loc:00000000000000c5 .LLST7
     /tmp/ccYYMODl.s:3134   .debug_loc:00000000000000e9 .LLST8
     /tmp/ccYYMODl.s:172    .text:00000000000000fc .LBB33
     /tmp/ccYYMODl.s:184    .text:0000000000000104 .LBE33
     /tmp/ccYYMODl.s:3141   .debug_loc:000000000000010c .LLST9
     /tmp/ccYYMODl.s:186    .text:0000000000000104 .LBB35
     /tmp/ccYYMODl.s:200    .text:000000000000011c .LBE35
     /tmp/ccYYMODl.s:236    .text:0000000000000168 .LBB37
     /tmp/ccYYMODl.s:243    .text:000000000000016c .LBE37
     /tmp/ccYYMODl.s:3149   .debug_loc:0000000000000130 .LLST10
     /tmp/ccYYMODl.s:145    .text:00000000000000d0 .LVL9
     /tmp/ccYYMODl.s:153    .text:00000000000000e8 .LVL10
     /tmp/ccYYMODl.s:205    .text:0000000000000128 .LVL16
     /tmp/ccYYMODl.s:213    .text:0000000000000138 .LVL19
     /tmp/ccYYMODl.s:221    .text:0000000000000154 .LVL20
     /tmp/ccYYMODl.s:228    .text:0000000000000160 .LVL21
     /tmp/ccYYMODl.s:232    .text:0000000000000168 .LVL22
GAS LISTING /tmp/ccYYMODl.s 			page 21


     /tmp/ccYYMODl.s:250    .text:000000000000017c .LVL24
     /tmp/ccYYMODl.s:260    .text:0000000000000190 .LVL25
     /tmp/ccYYMODl.s:263    .text:000000000000019c .LVL26
     /tmp/ccYYMODl.s:271    .text:00000000000001ac .LVL27
     /tmp/ccYYMODl.s:274    .text:00000000000001b8 .LVL28
     /tmp/ccYYMODl.s:304    .text:00000000000001e8 .LVL32
     /tmp/ccYYMODl.s:308    .text:00000000000001f4 .LVL33
     /tmp/ccYYMODl.s:316    .text:0000000000000204 .LVL35
     /tmp/ccYYMODl.s:320    .text:0000000000000210 .LVL36
     /tmp/ccYYMODl.s:3427   .debug_str:0000000000000677 .LASF158
     /tmp/ccYYMODl.s:3255   .debug_str:00000000000001b1 .LASF160
     /tmp/ccYYMODl.s:10     .text:0000000000000000 .LFB52
     /tmp/ccYYMODl.s:53     .text:000000000000003c .LFE52
     /tmp/ccYYMODl.s:3156   .debug_loc:0000000000000153 .LLST0
     /tmp/ccYYMODl.s:32     .text:0000000000000024 .LBB23
     /tmp/ccYYMODl.s:39     .text:0000000000000028 .LBE23
     /tmp/ccYYMODl.s:3172   .debug_loc:000000000000019d .LLST1
     /tmp/ccYYMODl.s:3179   .debug_loc:00000000000001c0 .LLST2
     /tmp/ccYYMODl.s:31     .text:0000000000000024 .LVL2
     /tmp/ccYYMODl.s:3291   .debug_str:00000000000002c6 .LASF163
     /tmp/ccYYMODl.s:3315   .debug_str:000000000000036a .LASF165
     /tmp/ccYYMODl.s:3531   .debug_str:00000000000009fb .LASF161
     /tmp/ccYYMODl.s:3357   .debug_str:0000000000000491 .LASF162
     /tmp/ccYYMODl.s:3245   .debug_str:0000000000000168 .LASF164
     /tmp/ccYYMODl.s:3257   .debug_str:00000000000001bd .LASF187
     /tmp/ccYYMODl.s:3467   .debug_str:0000000000000778 .LASF166
     /tmp/ccYYMODl.s:3285   .debug_str:00000000000002a4 .LASF167
     /tmp/ccYYMODl.s:3571   .debug_str:0000000000000b20 .LASF169
     /tmp/ccYYMODl.s:3415   .debug_str:000000000000061a .LASF168
     /tmp/ccYYMODl.s:3537   .debug_str:0000000000000a28 .LASF170
     /tmp/ccYYMODl.s:3211   .debug_str:0000000000000041 .LASF171
     /tmp/ccYYMODl.s:3425   .debug_str:0000000000000667 .LASF172
     /tmp/ccYYMODl.s:3391   .debug_str:000000000000056b .LASF173
     /tmp/ccYYMODl.s:3203   .debug_str:0000000000000007 .LASF174
     /tmp/ccYYMODl.s:3527   .debug_str:00000000000009e4 .LASF188
     /tmp/ccYYMODl.s:3261   .debug_str:00000000000001f8 .LASF189
     /tmp/ccYYMODl.s:291    .text:00000000000001cc .LVL30
     /tmp/ccYYMODl.s:312    .text:00000000000001f8 .LVL34
     /tmp/ccYYMODl.s:207    .text:000000000000012c .LVL17
     /tmp/ccYYMODl.s:211    .text:0000000000000130 .LVL18
     /tmp/ccYYMODl.s:294    .text:00000000000001d0 .LVL31
     /tmp/ccYYMODl.s:288    .text:00000000000001c8 .LVL29
     /tmp/ccYYMODl.s:126    .text:00000000000000c0 .LVL7
     /tmp/ccYYMODl.s:136    .text:00000000000000c4 .LVL8
     /tmp/ccYYMODl.s:160    .text:00000000000000f4 .LVL11
     /tmp/ccYYMODl.s:168    .text:00000000000000fc .LVL12
     /tmp/ccYYMODl.s:181    .text:0000000000000104 .LVL13
     /tmp/ccYYMODl.s:241    .text:000000000000016c .LVL23
     /tmp/ccYYMODl.s:14     .text:0000000000000000 .LVL0
     /tmp/ccYYMODl.s:29     .text:000000000000001c .LVL1
     /tmp/ccYYMODl.s:48     .text:0000000000000034 .LVL4
     /tmp/ccYYMODl.s:37     .text:0000000000000028 .LVL3
     /tmp/ccYYMODl.s:376    .debug_info:0000000000000000 .Ldebug_info0
     /tmp/ccYYMODl.s:326    .gcc_except_table:0000000000000000 .LLSDA53

UNDEFINED SYMBOLS
_Znwm
GAS LISTING /tmp/ccYYMODl.s 			page 22


HEAP_START_ADDR
_ZN15MemoryAllocator9free_listE
HEAP_END_ADDR
_ZN15MemoryAllocator14allocated_listE
_ZN5Riscv14supervisorTrapEv
_ZN3PCBC1EPFvPvES0_Pm
_ZN3PCB7runningE
_ZN15MemoryAllocator8allocateEm
_Z8userMainv
_ZN9Scheduler3putEP3PCB
_Z16switchToUserModev
_Z15thread_dispatchv
_ZN3PCBD1Ev
_ZdlPv
_Unwind_Resume
__gxx_personality_v0
