GAS LISTING /tmp/cc5yODYL.s 			page 1


   1              		.file	"main.cpp"
   2              		.option pic
   3              		.option norelax
   4              		.text
   5              	.Ltext0:
   6              		.align	2
   7              		.globl	_Z7createCm
   9              	_Z7createCm:
  10              	.LFB52:
  11              		.file 1 "src/main.cpp"
   1:src/main.cpp  **** 
   2:src/main.cpp  **** #include "../h/riscv.hpp"
   3:src/main.cpp  **** #include "../h/syscall_c.hpp"
   4:src/main.cpp  **** #include "../h/print.hpp"
   5:src/main.cpp  **** #include "../h/_thread.hpp"
   6:src/main.cpp  **** #include "../h/syscall_cpp.hpp"
   7:src/main.cpp  **** 
   8:src/main.cpp  **** 
   9:src/main.cpp  **** struct A {
  10:src/main.cpp  ****     int a;
  11:src/main.cpp  ****     int* b = nullptr;
  12:src/main.cpp  **** };
  13:src/main.cpp  **** 
  14:src/main.cpp  **** struct B {
  15:src/main.cpp  ****     int a;
  16:src/main.cpp  ****     int* b = nullptr;
  17:src/main.cpp  ****     long c;
  18:src/main.cpp  ****     char d[50];
  19:src/main.cpp  **** };
  20:src/main.cpp  **** 
  21:src/main.cpp  **** class C{
  22:src/main.cpp  **** private:
  23:src/main.cpp  ****     uint64 num;
  24:src/main.cpp  **** 
  25:src/main.cpp  **** public:
  26:src/main.cpp  **** 
  27:src/main.cpp  ****     C(uint64 n){
  28:src/main.cpp  ****         num = n;
  29:src/main.cpp  ****     }
  30:src/main.cpp  **** 
  31:src/main.cpp  **** 
  32:src/main.cpp  **** 
  33:src/main.cpp  **** 
  34:src/main.cpp  **** };
  35:src/main.cpp  **** 
  36:src/main.cpp  **** C* createC(uint64 n){
  12              		.loc 1 36 21
  13              		.cfi_startproc
  14              	.LVL0:
  15 0000 130101FE 		addi	sp,sp,-32
  16              		.cfi_def_cfa_offset 32
  17 0004 233C1100 		sd	ra,24(sp)
  18 0008 23388100 		sd	s0,16(sp)
  19 000c 23349100 		sd	s1,8(sp)
  20              		.cfi_offset 1, -8
  21              		.cfi_offset 8, -16
  22              		.cfi_offset 9, -24
GAS LISTING /tmp/cc5yODYL.s 			page 2


  23 0010 13040102 		addi	s0,sp,32
  24              		.cfi_def_cfa 8, 0
  25 0014 93040500 		mv	s1,a0
  37:src/main.cpp  ****     return new C(n);
  26              		.loc 1 37 5
  27              		.loc 1 37 19 is_stmt 0
  28 0018 13058000 		li	a0,8
  29              	.LVL1:
  30 001c 97000000 		call	_Znwm@plt
  30      E7800000 
  31              	.LVL2:
  32              	.LBB20:
  33              	.LBB21:
  28:src/main.cpp  ****     }
  34              		.loc 1 28 9 is_stmt 1
  28:src/main.cpp  ****     }
  35              		.loc 1 28 13 is_stmt 0
  36 0024 23309500 		sd	s1,0(a0)
  37              	.LVL3:
  38              	.LBE21:
  39              	.LBE20:
  38:src/main.cpp  **** }
  40              		.loc 1 38 1
  41 0028 83308101 		ld	ra,24(sp)
  42              		.cfi_restore 1
  43 002c 03340101 		ld	s0,16(sp)
  44              		.cfi_restore 8
  45              		.cfi_def_cfa 2, 32
  46 0030 83348100 		ld	s1,8(sp)
  47              		.cfi_restore 9
  48              	.LVL4:
  49 0034 13010102 		addi	sp,sp,32
  50              		.cfi_def_cfa_offset 0
  51 0038 67800000 		jr	ra
  52              		.cfi_endproc
  53              	.LFE52:
  55              		.align	2
  56              		.globl	main
  58              	main:
  59              	.LFB53:
  39:src/main.cpp  **** 
  40:src/main.cpp  **** extern void userMain();
  41:src/main.cpp  **** 
  42:src/main.cpp  **** int main() {
  60              		.loc 1 42 12 is_stmt 1
  61              		.cfi_startproc
  62              		.cfi_personality 0x9b,DW.ref.__gxx_personality_v0
  63              		.cfi_lsda 0x1b,.LLSDA53
  64 003c 130101FD 		addi	sp,sp,-48
  65              		.cfi_def_cfa_offset 48
  66 0040 23341102 		sd	ra,40(sp)
  67 0044 23308102 		sd	s0,32(sp)
  68 0048 233C9100 		sd	s1,24(sp)
  69 004c 23382101 		sd	s2,16(sp)
  70              		.cfi_offset 1, -8
  71              		.cfi_offset 8, -16
  72              		.cfi_offset 9, -24
GAS LISTING /tmp/cc5yODYL.s 			page 3


  73              		.cfi_offset 18, -32
  74 0050 13040103 		addi	s0,sp,48
  75              		.cfi_def_cfa 8, 0
  43:src/main.cpp  **** 
  44:src/main.cpp  **** 
  45:src/main.cpp  ****     MemoryAllocator::getInstance().init();
  76              		.loc 1 45 5
  77              	.LBB22:
  78              	.LBB23:
  79              		.file 2 "src/../h/../h/MemoryAllocator.hpp"
   1:src/../h/../h/MemoryAllocator.hpp **** #ifndef PROJECT_BASE_V1_1_MEMORYALLOCATOR_HPP
   2:src/../h/../h/MemoryAllocator.hpp **** #define PROJECT_BASE_V1_1_MEMORYALLOCATOR_HPP
   3:src/../h/../h/MemoryAllocator.hpp **** #include "print.hpp"
   4:src/../h/../h/MemoryAllocator.hpp **** 
   5:src/../h/../h/MemoryAllocator.hpp **** struct Block {
   6:src/../h/../h/MemoryAllocator.hpp ****     size_t size;
   7:src/../h/../h/MemoryAllocator.hpp ****     Block *next;
   8:src/../h/../h/MemoryAllocator.hpp **** };
   9:src/../h/../h/MemoryAllocator.hpp **** 
  10:src/../h/../h/MemoryAllocator.hpp **** class MemoryAllocator {
  11:src/../h/../h/MemoryAllocator.hpp **** 
  12:src/../h/../h/MemoryAllocator.hpp **** private:
  13:src/../h/../h/MemoryAllocator.hpp **** 
  14:src/../h/../h/MemoryAllocator.hpp **** 
  15:src/../h/../h/MemoryAllocator.hpp ****     MemoryAllocator() {}
  16:src/../h/../h/MemoryAllocator.hpp **** 
  17:src/../h/../h/MemoryAllocator.hpp ****     static Block *free_list;
  18:src/../h/../h/MemoryAllocator.hpp ****     static Block *allocated_list;
  19:src/../h/../h/MemoryAllocator.hpp **** 
  20:src/../h/../h/MemoryAllocator.hpp **** 
  21:src/../h/../h/MemoryAllocator.hpp **** public:
  22:src/../h/../h/MemoryAllocator.hpp **** 
  23:src/../h/../h/MemoryAllocator.hpp **** 
  24:src/../h/../h/MemoryAllocator.hpp ****     // Get the singleton instance
  25:src/../h/../h/MemoryAllocator.hpp ****     static MemoryAllocator &getInstance() {
  26:src/../h/../h/MemoryAllocator.hpp ****         static MemoryAllocator instance;
  80              		.loc 2 26 9
  81              		.loc 2 26 32 is_stmt 0
  82 0054 97070000 		lbu	a5,_ZGVZN15MemoryAllocator11getInstanceEvE8instance
  82      83C70700 
  83 005c 63980700 		bnez	a5,.L4
  84              	.LVL5:
  85 0060 93071000 		li	a5,1
  86 0064 17070000 		sb	a5,_ZGVZN15MemoryAllocator11getInstanceEvE8instance,a4
  86      2300F700 
  87              	.LVL6:
  88              	.L4:
  27:src/../h/../h/MemoryAllocator.hpp ****         return instance;
  89              		.loc 2 27 9 is_stmt 1
  90              	.LBE23:
  91              	.LBE22:
  92              	.LBB24:
  93              	.LBB25:
  28:src/../h/../h/MemoryAllocator.hpp ****     }
  29:src/../h/../h/MemoryAllocator.hpp **** 
  30:src/../h/../h/MemoryAllocator.hpp ****     static void init() {
  31:src/../h/../h/MemoryAllocator.hpp ****         // Initialize the free list
GAS LISTING /tmp/cc5yODYL.s 			page 4


  32:src/../h/../h/MemoryAllocator.hpp **** 
  33:src/../h/../h/MemoryAllocator.hpp ****         // For testing purposes
  34:src/../h/../h/MemoryAllocator.hpp **** //        uint64 start = (uint64)((Block *) HEAP_START_ADDR);
  35:src/../h/../h/MemoryAllocator.hpp **** //        printInteger(start);
  36:src/../h/../h/MemoryAllocator.hpp **** //        printString("\n");
  37:src/../h/../h/MemoryAllocator.hpp **** //        uint64 end = (uint64)((Block *) HEAP_END_ADDR);
  38:src/../h/../h/MemoryAllocator.hpp **** //        printInteger(end);
  39:src/../h/../h/MemoryAllocator.hpp **** //        printString("\n");
  40:src/../h/../h/MemoryAllocator.hpp **** 
  41:src/../h/../h/MemoryAllocator.hpp ****         free_list = (Block *) HEAP_START_ADDR;
  94              		.loc 2 41 9
  95              		.loc 2 41 19 is_stmt 0
  96 006c 97070000 		la	a5,HEAP_START_ADDR
  96      83B70700 
  97 0074 03B70700 		ld	a4,0(a5)
  98 0078 97060000 		la	a3,_ZN15MemoryAllocator9free_listE
  98      83B60600 
  99 0080 23B0E600 		sd	a4,0(a3)
  42:src/../h/../h/MemoryAllocator.hpp ****         free_list->size = (uint64 *) HEAP_END_ADDR - (uint64 *) HEAP_START_ADDR;
 100              		.loc 2 42 9 is_stmt 1
 101              		.loc 2 42 27 is_stmt 0
 102 0084 97070000 		la	a5,HEAP_END_ADDR
 102      83B70700 
 103 008c 83B70700 		ld	a5,0(a5)
 104              		.loc 2 42 52
 105 0090 B387E740 		sub	a5,a5,a4
 106 0094 93D73740 		srai	a5,a5,3
 107              		.loc 2 42 25
 108 0098 2330F700 		sd	a5,0(a4)
  43:src/../h/../h/MemoryAllocator.hpp ****         free_list->next = nullptr;
 109              		.loc 2 43 9 is_stmt 1
 110              		.loc 2 43 20 is_stmt 0
 111 009c 83B70600 		ld	a5,0(a3)
 112              		.loc 2 43 25
 113 00a0 23B40700 		sd	zero,8(a5)
  44:src/../h/../h/MemoryAllocator.hpp ****         allocated_list = nullptr;
 114              		.loc 2 44 9 is_stmt 1
 115              		.loc 2 44 24 is_stmt 0
 116 00a4 97070000 		la	a5,_ZN15MemoryAllocator14allocated_listE
 116      83B70700 
 117 00ac 23B00700 		sd	zero,0(a5)
 118              	.LBE25:
 119              	.LBE24:
  46:src/main.cpp  ****     Riscv::w_stvec((uint64) &Riscv::supervisorTrap+1);
 120              		.loc 1 46 5 is_stmt 1
 121              		.loc 1 46 19 is_stmt 0
 122 00b0 97070000 		la	a5,_ZN5Riscv14supervisorTrapEv
 122      83B70700 
 123 00b8 93871700 		addi	a5,a5,1
 124              	.LVL7:
 125              	.LBB26:
 126              	.LBB27:
 127              		.file 3 "src/../h/riscv.hpp"
   1:src/../h/riscv.hpp **** #ifndef PROJECT_BASE_V1_1_RISCV_HPP
   2:src/../h/riscv.hpp **** #define PROJECT_BASE_V1_1_RISCV_HPP
   3:src/../h/riscv.hpp **** 
   4:src/../h/riscv.hpp **** 
GAS LISTING /tmp/cc5yODYL.s 			page 5


   5:src/../h/riscv.hpp **** #include "../h/MemoryAllocator.hpp"
   6:src/../h/riscv.hpp **** #include "_thread.hpp"
   7:src/../h/riscv.hpp **** 
   8:src/../h/riscv.hpp **** 
   9:src/../h/riscv.hpp **** #define readUsrReg(reg, dst) __asm__ volatile("mv %0,"#reg : "=r" (dst));
  10:src/../h/riscv.hpp **** #define writeUsrReg(reg, src) __asm__ volatile("mv "#reg", %0" : : "r" (src));
  11:src/../h/riscv.hpp **** 
  12:src/../h/riscv.hpp **** 
  13:src/../h/riscv.hpp **** class Riscv
  14:src/../h/riscv.hpp **** {
  15:src/../h/riscv.hpp **** public:
  16:src/../h/riscv.hpp **** 
  17:src/../h/riscv.hpp **** 
  18:src/../h/riscv.hpp **** 
  19:src/../h/riscv.hpp ****     // pop sstatus.spp and sstatus.spie bits (has to be a non inline function)
  20:src/../h/riscv.hpp ****     static void popSppSpie();
  21:src/../h/riscv.hpp **** 
  22:src/../h/riscv.hpp ****     // push x3..x31 registers onto stack
  23:src/../h/riscv.hpp ****     static void pushRegisters();
  24:src/../h/riscv.hpp **** 
  25:src/../h/riscv.hpp ****     // pop x3..x31 registers onto stack
  26:src/../h/riscv.hpp ****     static void popRegisters();
  27:src/../h/riscv.hpp **** 
  28:src/../h/riscv.hpp ****     // read register scause
  29:src/../h/riscv.hpp ****     static uint64 r_scause();
  30:src/../h/riscv.hpp **** 
  31:src/../h/riscv.hpp ****     // write register scause
  32:src/../h/riscv.hpp ****     static void w_scause(uint64 scause);
  33:src/../h/riscv.hpp **** 
  34:src/../h/riscv.hpp ****     // read register sepc
  35:src/../h/riscv.hpp ****     static uint64 r_sepc();
  36:src/../h/riscv.hpp **** 
  37:src/../h/riscv.hpp ****     // write register sepc
  38:src/../h/riscv.hpp ****     static void w_sepc(uint64 sepc);
  39:src/../h/riscv.hpp **** 
  40:src/../h/riscv.hpp ****     // read register stvec
  41:src/../h/riscv.hpp ****     static uint64 r_stvec();
  42:src/../h/riscv.hpp **** 
  43:src/../h/riscv.hpp ****     // write register stvec
  44:src/../h/riscv.hpp ****     static void w_stvec(uint64 stvec);
  45:src/../h/riscv.hpp **** 
  46:src/../h/riscv.hpp ****     // read register stval
  47:src/../h/riscv.hpp ****     static uint64 r_stval();
  48:src/../h/riscv.hpp **** 
  49:src/../h/riscv.hpp ****     // write register stval
  50:src/../h/riscv.hpp ****     static void w_stval(uint64 stval);
  51:src/../h/riscv.hpp **** 
  52:src/../h/riscv.hpp ****     enum BitMaskSip
  53:src/../h/riscv.hpp ****     {
  54:src/../h/riscv.hpp **** //        SIP_SSIE = (1 << 1),
  55:src/../h/riscv.hpp **** //        SIP_STIE = (1 << 5),
  56:src/../h/riscv.hpp **** //        SIP_SEIE = (1 << 9),
  57:src/../h/riscv.hpp ****         SIP_SSIP = (1<<1),
  58:src/../h/riscv.hpp ****         SIP_SEIP = (1<<9)
  59:src/../h/riscv.hpp ****     };
  60:src/../h/riscv.hpp **** 
  61:src/../h/riscv.hpp ****     // mask set register sip
GAS LISTING /tmp/cc5yODYL.s 			page 6


  62:src/../h/riscv.hpp ****     static void ms_sip(uint64 mask);
  63:src/../h/riscv.hpp **** 
  64:src/../h/riscv.hpp ****     // mask clear register sip
  65:src/../h/riscv.hpp ****     static void mc_sip(uint64 mask);
  66:src/../h/riscv.hpp **** 
  67:src/../h/riscv.hpp ****     // read register sip
  68:src/../h/riscv.hpp ****     static uint64 r_sip();
  69:src/../h/riscv.hpp **** 
  70:src/../h/riscv.hpp ****     // write register sip
  71:src/../h/riscv.hpp ****     static void w_sip(uint64 sip);
  72:src/../h/riscv.hpp **** 
  73:src/../h/riscv.hpp ****     enum BitMaskSstatus
  74:src/../h/riscv.hpp ****     {
  75:src/../h/riscv.hpp ****         SSTATUS_SIE = (1 << 1),
  76:src/../h/riscv.hpp ****         SSTATUS_SPIE = (1 << 5),
  77:src/../h/riscv.hpp ****         SSTATUS_SPP = (1 << 8),
  78:src/../h/riscv.hpp ****     };
  79:src/../h/riscv.hpp **** 
  80:src/../h/riscv.hpp ****     // mask set register sstatus
  81:src/../h/riscv.hpp ****     static void ms_sstatus(uint64 mask);
  82:src/../h/riscv.hpp **** 
  83:src/../h/riscv.hpp ****     // mask clear register sstatus
  84:src/../h/riscv.hpp ****     static void mc_sstatus(uint64 mask);
  85:src/../h/riscv.hpp **** 
  86:src/../h/riscv.hpp ****     // read register sstatus
  87:src/../h/riscv.hpp ****     static uint64 r_sstatus();
  88:src/../h/riscv.hpp **** 
  89:src/../h/riscv.hpp ****     // write register sstatus
  90:src/../h/riscv.hpp ****     static void w_sstatus(uint64 sstatus);
  91:src/../h/riscv.hpp **** 
  92:src/../h/riscv.hpp ****     // mask set register sie
  93:src/../h/riscv.hpp ****     static void ms_sie(uint64 mask);
  94:src/../h/riscv.hpp **** 
  95:src/../h/riscv.hpp ****     // mask clear register sie
  96:src/../h/riscv.hpp ****     static void mc_sie(uint64 mask);
  97:src/../h/riscv.hpp **** 
  98:src/../h/riscv.hpp ****     static void supervisorTrap();
  99:src/../h/riscv.hpp **** 
 100:src/../h/riscv.hpp ****     static long r_a0();
 101:src/../h/riscv.hpp **** 
 102:src/../h/riscv.hpp ****     static void w_a0(long a0);
 103:src/../h/riscv.hpp **** 
 104:src/../h/riscv.hpp ****     static uint64 r_a1();
 105:src/../h/riscv.hpp **** 
 106:src/../h/riscv.hpp ****     static void w_a1(uint64 a1);
 107:src/../h/riscv.hpp **** 
 108:src/../h/riscv.hpp ****     static uint64 r_a2();
 109:src/../h/riscv.hpp **** 
 110:src/../h/riscv.hpp ****     static void w_a2(uint64 a1);
 111:src/../h/riscv.hpp **** 
 112:src/../h/riscv.hpp ****     static uint64 r_a7();
 113:src/../h/riscv.hpp **** 
 114:src/../h/riscv.hpp ****     static void w_a7(uint64 a7);
 115:src/../h/riscv.hpp **** 
 116:src/../h/riscv.hpp ****     static void push_a0(long a0);
 117:src/../h/riscv.hpp **** 
 118:src/../h/riscv.hpp **** private:
GAS LISTING /tmp/cc5yODYL.s 			page 7


 119:src/../h/riscv.hpp ****     static void trapHandler();
 120:src/../h/riscv.hpp **** 
 121:src/../h/riscv.hpp **** 
 122:src/../h/riscv.hpp **** };
 123:src/../h/riscv.hpp **** 
 124:src/../h/riscv.hpp **** inline uint64 Riscv::r_scause()
 125:src/../h/riscv.hpp **** {
 126:src/../h/riscv.hpp ****     uint64 volatile scause;
 127:src/../h/riscv.hpp ****     __asm__ volatile ("csrr %[scause], scause" : [scause] "=r"(scause));
 128:src/../h/riscv.hpp ****     return scause;
 129:src/../h/riscv.hpp **** }
 130:src/../h/riscv.hpp **** 
 131:src/../h/riscv.hpp **** inline void Riscv::w_scause(uint64 scause)
 132:src/../h/riscv.hpp **** {
 133:src/../h/riscv.hpp ****     __asm__ volatile ("csrw scause, %[scause]" : : [scause] "r"(scause));
 134:src/../h/riscv.hpp **** }
 135:src/../h/riscv.hpp **** 
 136:src/../h/riscv.hpp **** inline uint64 Riscv::r_sepc()
 137:src/../h/riscv.hpp **** {
 138:src/../h/riscv.hpp ****     uint64 volatile sepc;
 139:src/../h/riscv.hpp ****     __asm__ volatile ("csrr %[sepc], sepc" : [sepc] "=r"(sepc));
 140:src/../h/riscv.hpp ****     return sepc;
 141:src/../h/riscv.hpp **** }
 142:src/../h/riscv.hpp **** 
 143:src/../h/riscv.hpp **** inline void Riscv::w_sepc(uint64 sepc)
 144:src/../h/riscv.hpp **** {
 145:src/../h/riscv.hpp ****     __asm__ volatile ("csrw sepc, %[sepc]" : : [sepc] "r"(sepc));
 146:src/../h/riscv.hpp **** }
 147:src/../h/riscv.hpp **** 
 148:src/../h/riscv.hpp **** inline uint64 Riscv::r_stvec()
 149:src/../h/riscv.hpp **** {
 150:src/../h/riscv.hpp ****     uint64 volatile stvec;
 151:src/../h/riscv.hpp ****     __asm__ volatile ("csrr %[stvec], stvec" : [stvec] "=r"(stvec));
 152:src/../h/riscv.hpp ****     return stvec;
 153:src/../h/riscv.hpp **** }
 154:src/../h/riscv.hpp **** 
 155:src/../h/riscv.hpp **** inline void Riscv::w_stvec(uint64 stvec)
 156:src/../h/riscv.hpp **** {
 157:src/../h/riscv.hpp ****     __asm__ volatile ("csrw stvec, %[stvec]" : : [stvec] "r"(stvec));
 128              		.loc 3 157 5 is_stmt 1
 129              		.loc 3 157 69 is_stmt 0
 130              	#APP
 131              	# 157 "src/../h/riscv.hpp" 1
 158              	}
 132              		csrw stvec, a5
 133              	# 0 "" 2
 134              	.LVL8:
 135              	#NO_APP
 136              	.LBE27:
 137              	.LBE26:
  47:src/main.cpp  ****     _thread* pcb = new _thread(nullptr, nullptr, nullptr);
 138              		.loc 1 47 5 is_stmt 1
 139              		.loc 1 47 57 is_stmt 0
 140 00c0 13050003 		li	a0,48
 141              	.LEHB0:
 142 00c4 97000000 		call	_Znwm@plt
 142      E7800000 
GAS LISTING /tmp/cc5yODYL.s 			page 8


 143              	.LVL9:
 144              	.LEHE0:
 145 00cc 13090500 		mv	s2,a0
 146 00d0 93060000 		li	a3,0
 147 00d4 13060000 		li	a2,0
 148 00d8 93050000 		li	a1,0
 149              	.LEHB1:
 150 00dc 97000000 		call	_ZN7_threadC1EPFvPvES0_Pm@plt
 150      E7800000 
 151              	.LVL10:
 152              	.LEHE1:
  48:src/main.cpp  ****     _thread::running=pcb;
 153              		.loc 1 48 5 is_stmt 1 discriminator 3
 154              		.loc 1 48 21 is_stmt 0 discriminator 3
 155 00e4 97070000 		la	a5,_ZN7_thread7runningE
 155      83B70700 
 156 00ec 23B02701 		sd	s2,0(a5)
  49:src/main.cpp  ****     pcb->setState(_thread::RUNNING);
 157              		.loc 1 49 5 is_stmt 1 discriminator 3
 158              	.LVL11:
 159              	.LBB28:
 160              	.LBB29:
 161              		.file 4 "src/../h/_thread.hpp"
   1:src/../h/_thread.hpp **** #ifndef PROJECT_BASE_V1_1__THREAD_HPP
   2:src/../h/_thread.hpp **** #define PROJECT_BASE_V1_1__THREAD_HPP
   3:src/../h/_thread.hpp **** 
   4:src/../h/_thread.hpp **** 
   5:src/../h/_thread.hpp **** #include "Scheduler.hpp"
   6:src/../h/_thread.hpp **** #include "riscv.hpp"
   7:src/../h/_thread.hpp **** #include "../h/syscall_c.hpp"
   8:src/../h/_thread.hpp **** 
   9:src/../h/_thread.hpp **** class _sem;
  10:src/../h/_thread.hpp **** 
  11:src/../h/_thread.hpp **** class _thread {
  12:src/../h/_thread.hpp **** public:
  13:src/../h/_thread.hpp ****     struct Context {
  14:src/../h/_thread.hpp ****         uint64 ra;
  15:src/../h/_thread.hpp ****         uint64 sp;
  16:src/../h/_thread.hpp ****     };
  17:src/../h/_thread.hpp **** 
  18:src/../h/_thread.hpp ****     enum State {
  19:src/../h/_thread.hpp ****         READY,
  20:src/../h/_thread.hpp ****         RUNNING,
  21:src/../h/_thread.hpp ****         SUSPENDED,
  22:src/../h/_thread.hpp ****         FINISHED
  23:src/../h/_thread.hpp ****     };
  24:src/../h/_thread.hpp **** 
  25:src/../h/_thread.hpp ****     ~_thread();
  26:src/../h/_thread.hpp **** 
  27:src/../h/_thread.hpp ****     bool isFinished() const { return state == FINISHED; }
  28:src/../h/_thread.hpp **** 
  29:src/../h/_thread.hpp ****     void setState(State s) { state = s; }
 162              		.loc 4 29 30 discriminator 3
 163              		.loc 4 29 36 is_stmt 0 discriminator 3
 164 00f0 93071000 		li	a5,1
 165 00f4 2324F902 		sw	a5,40(s2)
 166              	.LVL12:
GAS LISTING /tmp/cc5yODYL.s 			page 9


 167              	.LBE29:
 168              	.LBE28:
  50:src/main.cpp  ****     Riscv::ms_sstatus(Riscv::SSTATUS_SIE);
 169              		.loc 1 50 5 is_stmt 1 discriminator 3
 170              	.LBB30:
 171              	.LBB31:
 159:src/../h/riscv.hpp **** 
 160:src/../h/riscv.hpp **** inline uint64 Riscv::r_stval()
 161:src/../h/riscv.hpp **** {
 162:src/../h/riscv.hpp ****     uint64 volatile stval;
 163:src/../h/riscv.hpp ****     __asm__ volatile ("csrr %[stval], stval" : [stval] "=r"(stval));
 164:src/../h/riscv.hpp ****     return stval;
 165:src/../h/riscv.hpp **** }
 166:src/../h/riscv.hpp **** 
 167:src/../h/riscv.hpp **** inline void Riscv::w_stval(uint64 stval)
 168:src/../h/riscv.hpp **** {
 169:src/../h/riscv.hpp ****     __asm__ volatile ("csrw stval, %[stval]" : : [stval] "r"(stval));
 170:src/../h/riscv.hpp **** }
 171:src/../h/riscv.hpp **** 
 172:src/../h/riscv.hpp **** inline void Riscv::ms_sip(uint64 mask)
 173:src/../h/riscv.hpp **** {
 174:src/../h/riscv.hpp ****     __asm__ volatile ("csrs sip, %[mask]" : : [mask] "r"(mask));
 175:src/../h/riscv.hpp **** }
 176:src/../h/riscv.hpp **** 
 177:src/../h/riscv.hpp **** inline void Riscv::mc_sip(uint64 mask)
 178:src/../h/riscv.hpp **** {
 179:src/../h/riscv.hpp ****     __asm__ volatile ("csrc sip, %[mask]" : : [mask] "r"(mask));
 180:src/../h/riscv.hpp **** }
 181:src/../h/riscv.hpp **** 
 182:src/../h/riscv.hpp **** inline uint64 Riscv::r_sip()
 183:src/../h/riscv.hpp **** {
 184:src/../h/riscv.hpp ****     uint64 volatile sip;
 185:src/../h/riscv.hpp ****     __asm__ volatile ("csrr %[sip], sip" : [sip] "=r"(sip));
 186:src/../h/riscv.hpp ****     return sip;
 187:src/../h/riscv.hpp **** }
 188:src/../h/riscv.hpp **** 
 189:src/../h/riscv.hpp **** inline void Riscv::w_sip(uint64 sip)
 190:src/../h/riscv.hpp **** {
 191:src/../h/riscv.hpp ****     __asm__ volatile ("csrw sip, %[sip]" : : [sip] "r"(sip));
 192:src/../h/riscv.hpp **** }
 193:src/../h/riscv.hpp **** 
 194:src/../h/riscv.hpp **** inline void Riscv::ms_sstatus(uint64 mask)
 195:src/../h/riscv.hpp **** {
 196:src/../h/riscv.hpp ****     __asm__ volatile ("csrs sstatus, %[mask]" : : [mask] "r"(mask));
 172              		.loc 3 196 5 discriminator 3
 173              		.loc 3 196 68 is_stmt 0 discriminator 3
 174 00f8 93072000 		li	a5,2
 175              	#APP
 176              	# 196 "src/../h/riscv.hpp" 1
 197              	}
 177              		csrs sstatus, a5
 178              	# 0 "" 2
 179              	.LVL13:
 180              	#NO_APP
 181              	.LBE31:
 182              	.LBE30:
  51:src/main.cpp  **** 
GAS LISTING /tmp/cc5yODYL.s 			page 10


  52:src/main.cpp  **** 
  53:src/main.cpp  **** 
  54:src/main.cpp  ****     //uint64* stack = (uint64*)MemoryAllocator::getInstance().allocate(((DEFAULT_STACK_SIZE + 16+ M
  55:src/main.cpp  ****     _thread* usrT;// = new _thread((void (*)(void *))(userMain), nullptr, stack);
 183              		.loc 1 55 5 is_stmt 1 discriminator 3
  56:src/main.cpp  ****     thread_create(&usrT, (void (*)(void *))(userMain), nullptr);
 184              		.loc 1 56 5 discriminator 3
 185              		.loc 1 56 18 is_stmt 0 discriminator 3
 186 0100 13060000 		li	a2,0
 187 0104 97050000 		la	a1,_Z8userMainv
 187      83B50500 
 188 010c 130584FD 		addi	a0,s0,-40
 189              	.LEHB2:
 190 0110 97000000 		call	_Z13thread_createPP7_threadPFvPvES2_@plt
 190      E7800000 
 191              	.LVL14:
  57:src/main.cpp  **** 
  58:src/main.cpp  **** 
  59:src/main.cpp  ****     switchToUserMode();
 192              		.loc 1 59 5 is_stmt 1 discriminator 3
 193              		.loc 1 59 21 is_stmt 0 discriminator 3
 194 0118 97000000 		call	_Z16switchToUserModev@plt
 194      E7800000 
 195              	.LVL15:
 196              	.L6:
  60:src/main.cpp  **** 
  61:src/main.cpp  **** 
  62:src/main.cpp  ****     while (!usrT->isFinished()){
 197              		.loc 1 62 5 is_stmt 1
 198              		.loc 1 62 12
 199              		.loc 1 62 29 is_stmt 0
 200 0120 833484FD 		ld	s1,-40(s0)
 201              	.LVL16:
 202              	.LBB32:
 203              	.LBB33:
  27:src/../h/_thread.hpp **** 
 204              		.loc 4 27 31 is_stmt 1
  27:src/../h/_thread.hpp **** 
 205              		.loc 4 27 38 is_stmt 0
 206 0124 03A78402 		lw	a4,40(s1)
 207              	.LVL17:
 208              	.LBE33:
 209              	.LBE32:
 210              		.loc 1 62 12
 211 0128 93073000 		li	a5,3
 212 012c 6308F700 		beq	a4,a5,.L5
  63:src/main.cpp  ****         thread_dispatch();
 213              		.loc 1 63 9 is_stmt 1
 214              		.loc 1 63 24 is_stmt 0
 215 0130 97000000 		call	_Z15thread_dispatchv@plt
 215      E7800000 
 216              	.LVL18:
 217 0138 6FF09FFE 		j	.L6
 218              	.L5:
  64:src/main.cpp  ****     }
  65:src/main.cpp  **** 
  66:src/main.cpp  **** 
GAS LISTING /tmp/cc5yODYL.s 			page 11


  67:src/main.cpp  **** 
  68:src/main.cpp  **** 
  69:src/main.cpp  ****     delete usrT;
 219              		.loc 1 69 5 is_stmt 1
 220              		.loc 1 69 16 is_stmt 0
 221 013c 638E0400 		beqz	s1,.L7
 222              		.loc 1 69 12 discriminator 1
 223 0140 13850400 		mv	a0,s1
 224 0144 97000000 		call	_ZN7_threadD1Ev@plt
 224      E7800000 
 225              	.LVL19:
 226 014c 13850400 		mv	a0,s1
 227 0150 97000000 		call	_ZdlPv@plt
 227      E7800000 
 228              	.LVL20:
 229              	.L7:
  70:src/main.cpp  ****     delete pcb;
 230              		.loc 1 70 5 is_stmt 1
 231              		.loc 1 70 15 is_stmt 0
 232 0158 630E0900 		beqz	s2,.L11
 233              		.loc 1 70 12 discriminator 1
 234 015c 13050900 		mv	a0,s2
 235 0160 97000000 		call	_ZN7_threadD1Ev@plt
 235      E7800000 
 236              	.LVL21:
 237 0168 13050900 		mv	a0,s2
 238 016c 97000000 		call	_ZdlPv@plt
 238      E7800000 
 239              	.LVL22:
 240              	.LEHE2:
  71:src/main.cpp  **** 
  72:src/main.cpp  ****     //printString("MAIN START\n");
  73:src/main.cpp  **** 
  74:src/main.cpp  **** 
  75:src/main.cpp  **** 
  76:src/main.cpp  **** 
  77:src/main.cpp  ****     //printString("Finished\n");
  78:src/main.cpp  **** 
  79:src/main.cpp  ****     return 0;
 241              		.loc 1 79 5 is_stmt 1 discriminator 1
 242              	.L11:
  80:src/main.cpp  **** }...
 243              		.loc 1 80 1 is_stmt 0
 244 0174 13050000 		li	a0,0
 245 0178 83308102 		ld	ra,40(sp)
 246              		.cfi_remember_state
 247              		.cfi_restore 1
 248 017c 03340102 		ld	s0,32(sp)
 249              		.cfi_restore 8
 250              		.cfi_def_cfa 2, 48
 251 0180 83348101 		ld	s1,24(sp)
 252              		.cfi_restore 9
 253 0184 03390101 		ld	s2,16(sp)
 254              		.cfi_restore 18
 255              	.LVL23:
 256 0188 13010103 		addi	sp,sp,48
 257              		.cfi_def_cfa_offset 0
GAS LISTING /tmp/cc5yODYL.s 			page 12


 258 018c 67800000 		jr	ra
 259              	.L10:
 260              		.cfi_restore_state
 261 0190 93040500 		mv	s1,a0
  47:src/main.cpp  ****     _thread* pcb = new _thread(nullptr, nullptr, nullptr);
 262              		.loc 1 47 57
 263 0194 13050900 		mv	a0,s2
 264 0198 97000000 		call	_ZdlPv@plt
 264      E7800000 
 265              	.LVL24:
 266 01a0 13850400 		mv	a0,s1
 267              	.LEHB3:
 268 01a4 97000000 		call	_Unwind_Resume@plt
 268      E7800000 
 269              	.LVL25:
 270              	.LEHE3:
 271              		.cfi_endproc
 272              	.LFE53:
 273              		.globl	__gxx_personality_v0
 274              		.section	.gcc_except_table,"a",@progbits
 275              	.LLSDA53:
 276 0000 FF       		.byte	0xff
 277 0001 FF       		.byte	0xff
 278 0002 03       		.byte	0x3
 279 0003 34       		.byte	0x34
 280 0004 00000000 		.4byte	.LEHB0-.LFB53
 281 0008 00000000 		.4byte	.LEHE0-.LEHB0
 282 000c 00000000 		.4byte	0
 283 0010 00       		.byte	0
 284 0011 00000000 		.4byte	.LEHB1-.LFB53
 285 0015 00000000 		.4byte	.LEHE1-.LEHB1
 286 0019 00000000 		.4byte	.L10-.LFB53
 287 001d 00       		.byte	0
 288 001e 00000000 		.4byte	.LEHB2-.LFB53
 289 0022 00000000 		.4byte	.LEHE2-.LEHB2
 290 0026 00000000 		.4byte	0
 291 002a 00       		.byte	0
 292 002b 00000000 		.4byte	.LEHB3-.LFB53
 293 002f 00000000 		.4byte	.LEHE3-.LEHB3
 294 0033 00000000 		.4byte	0
 295 0037 00       		.byte	0
 296              		.text
 298              		.weak	_ZGVZN15MemoryAllocator11getInstanceEvE8instance
 299              		.section	.bss._ZGVZN15MemoryAllocator11getInstanceEvE8instance,"awG",@nobits,_ZGVZN15MemoryAllocat
 300              		.align	3
 303              	_ZGVZN15MemoryAllocator11getInstanceEvE8instance:
 304 0000 00000000 		.zero	8
 304      00000000 
 305              		.text
 306              	.Letext0:
 307              		.file 5 "src/../h/../h/../lib/hw.h"
 308              		.file 6 "src/../h/../h/syscall_c.hpp"
 309              		.file 7 "src/../h/syscall_cpp.hpp"
 3060              		.align	3
 3063              	DW.ref.__gxx_personality_v0:
 3064 0000 00000000 		.dword	__gxx_personality_v0
 3064      00000000 
GAS LISTING /tmp/cc5yODYL.s 			page 13


 3065              		.ident	"GCC: (Ubuntu 9.4.0-1ubuntu1~20.04) 9.4.0"
 3066              		.section	.note.GNU-stack,"",@progbits
GAS LISTING /tmp/cc5yODYL.s 			page 14


DEFINED SYMBOLS
                            *ABS*:0000000000000000 main.cpp
     /tmp/cc5yODYL.s:9      .text:0000000000000000 _Z7createCm
     /tmp/cc5yODYL.s:13     .text:0000000000000000 .L0 
     /tmp/cc5yODYL.s:15     .text:0000000000000000 .L0 
     /tmp/cc5yODYL.s:16     .text:0000000000000004 .L0 
     /tmp/cc5yODYL.s:20     .text:0000000000000010 .L0 
     /tmp/cc5yODYL.s:21     .text:0000000000000010 .L0 
     /tmp/cc5yODYL.s:22     .text:0000000000000010 .L0 
     /tmp/cc5yODYL.s:24     .text:0000000000000014 .L0 
     /tmp/cc5yODYL.s:27     .text:0000000000000018 .L0 
     /tmp/cc5yODYL.s:28     .text:0000000000000018 .L0 
     /tmp/cc5yODYL.s:35     .text:0000000000000024 .L0 
     /tmp/cc5yODYL.s:36     .text:0000000000000024 .L0 
     /tmp/cc5yODYL.s:41     .text:0000000000000028 .L0 
     /tmp/cc5yODYL.s:42     .text:000000000000002c .L0 
     /tmp/cc5yODYL.s:44     .text:0000000000000030 .L0 
     /tmp/cc5yODYL.s:45     .text:0000000000000030 .L0 
     /tmp/cc5yODYL.s:47     .text:0000000000000034 .L0 
     /tmp/cc5yODYL.s:50     .text:0000000000000038 .L0 
     /tmp/cc5yODYL.s:52     .text:000000000000003c .L0 
     /tmp/cc5yODYL.s:58     .text:000000000000003c main
     /tmp/cc5yODYL.s:61     .text:000000000000003c .L0 
     /tmp/cc5yODYL.s:3063   .data.rel.local.DW.ref.__gxx_personality_v0:0000000000000000 DW.ref.__gxx_personality_v0
     /tmp/cc5yODYL.s:64     .text:000000000000003c .L0 
     /tmp/cc5yODYL.s:65     .text:0000000000000040 .L0 
     /tmp/cc5yODYL.s:70     .text:0000000000000050 .L0 
     /tmp/cc5yODYL.s:71     .text:0000000000000050 .L0 
     /tmp/cc5yODYL.s:72     .text:0000000000000050 .L0 
     /tmp/cc5yODYL.s:73     .text:0000000000000050 .L0 
     /tmp/cc5yODYL.s:75     .text:0000000000000054 .L0 
     /tmp/cc5yODYL.s:80     .text:0000000000000054 .L0 
     /tmp/cc5yODYL.s:81     .text:0000000000000054 .L0 
     /tmp/cc5yODYL.s:303    .bss._ZGVZN15MemoryAllocator11getInstanceEvE8instance:0000000000000000 _ZGVZN15MemoryAllocator11getInstanceEvE8instance
     /tmp/cc5yODYL.s:82     .text:0000000000000054 .L0 
     /tmp/cc5yODYL.s:94     .text:000000000000006c .L0 
     /tmp/cc5yODYL.s:95     .text:000000000000006c .L0 
     /tmp/cc5yODYL.s:96     .text:000000000000006c .L0 
     /tmp/cc5yODYL.s:101    .text:0000000000000084 .L0 
     /tmp/cc5yODYL.s:102    .text:0000000000000084 .L0 
     /tmp/cc5yODYL.s:105    .text:0000000000000090 .L0 
     /tmp/cc5yODYL.s:108    .text:0000000000000098 .L0 
     /tmp/cc5yODYL.s:110    .text:000000000000009c .L0 
     /tmp/cc5yODYL.s:111    .text:000000000000009c .L0 
     /tmp/cc5yODYL.s:113    .text:00000000000000a0 .L0 
     /tmp/cc5yODYL.s:115    .text:00000000000000a4 .L0 
     /tmp/cc5yODYL.s:116    .text:00000000000000a4 .L0 
     /tmp/cc5yODYL.s:121    .text:00000000000000b0 .L0 
     /tmp/cc5yODYL.s:122    .text:00000000000000b0 .L0 
     /tmp/cc5yODYL.s:129    .text:00000000000000bc .L0 
  src/../h/riscv.hpp:157    .text:00000000000000bc .L0 
     /tmp/cc5yODYL.s:139    .text:00000000000000c0 .L0 
     /tmp/cc5yODYL.s:140    .text:00000000000000c0 .L0 
     /tmp/cc5yODYL.s:154    .text:00000000000000e4 .L0 
     /tmp/cc5yODYL.s:155    .text:00000000000000e4 .L0 
     /tmp/cc5yODYL.s:162    .text:00000000000000f0 .L0 
     /tmp/cc5yODYL.s:163    .text:00000000000000f0 .L0 
GAS LISTING /tmp/cc5yODYL.s 			page 15


     /tmp/cc5yODYL.s:164    .text:00000000000000f0 .L0 
     /tmp/cc5yODYL.s:172    .text:00000000000000f8 .L0 
     /tmp/cc5yODYL.s:173    .text:00000000000000f8 .L0 
     /tmp/cc5yODYL.s:174    .text:00000000000000f8 .L0 
     /tmp/cc5yODYL.s:184    .text:0000000000000100 .L0 
     /tmp/cc5yODYL.s:185    .text:0000000000000100 .L0 
     /tmp/cc5yODYL.s:186    .text:0000000000000100 .L0 
     /tmp/cc5yODYL.s:193    .text:0000000000000118 .L0 
     /tmp/cc5yODYL.s:194    .text:0000000000000118 .L0 
     /tmp/cc5yODYL.s:198    .text:0000000000000120 .L0 
     /tmp/cc5yODYL.s:199    .text:0000000000000120 .L0 
     /tmp/cc5yODYL.s:200    .text:0000000000000120 .L0 
     /tmp/cc5yODYL.s:205    .text:0000000000000124 .L0 
     /tmp/cc5yODYL.s:206    .text:0000000000000124 .L0 
     /tmp/cc5yODYL.s:211    .text:0000000000000128 .L0 
     /tmp/cc5yODYL.s:214    .text:0000000000000130 .L0 
     /tmp/cc5yODYL.s:215    .text:0000000000000130 .L0 
     /tmp/cc5yODYL.s:220    .text:000000000000013c .L0 
     /tmp/cc5yODYL.s:221    .text:000000000000013c .L0 
     /tmp/cc5yODYL.s:223    .text:0000000000000140 .L0 
     /tmp/cc5yODYL.s:231    .text:0000000000000158 .L0 
     /tmp/cc5yODYL.s:232    .text:0000000000000158 .L0 
     /tmp/cc5yODYL.s:234    .text:000000000000015c .L0 
     /tmp/cc5yODYL.s:243    .text:0000000000000174 .L0 
     /tmp/cc5yODYL.s:244    .text:0000000000000174 .L0 
     /tmp/cc5yODYL.s:246    .text:000000000000017c .L0 
     /tmp/cc5yODYL.s:247    .text:000000000000017c .L0 
     /tmp/cc5yODYL.s:249    .text:0000000000000180 .L0 
     /tmp/cc5yODYL.s:250    .text:0000000000000180 .L0 
     /tmp/cc5yODYL.s:252    .text:0000000000000184 .L0 
     /tmp/cc5yODYL.s:254    .text:0000000000000188 .L0 
     /tmp/cc5yODYL.s:257    .text:000000000000018c .L0 
     /tmp/cc5yODYL.s:260    .text:0000000000000190 .L0 
     /tmp/cc5yODYL.s:263    .text:0000000000000194 .L0 
     /tmp/cc5yODYL.s:271    .text:00000000000001ac .L0 
     /tmp/cc5yODYL.s:310    .text:00000000000001ac .L0 
     /tmp/cc5yODYL.s:82     .text:0000000000000054 .L0 
     /tmp/cc5yODYL.s:86     .text:0000000000000064 .L0 
     /tmp/cc5yODYL.s:96     .text:000000000000006c .L0 
     /tmp/cc5yODYL.s:98     .text:0000000000000078 .L0 
     /tmp/cc5yODYL.s:102    .text:0000000000000084 .L0 
     /tmp/cc5yODYL.s:116    .text:00000000000000a4 .L0 
     /tmp/cc5yODYL.s:122    .text:00000000000000b0 .L0 
     /tmp/cc5yODYL.s:155    .text:00000000000000e4 .L0 
     /tmp/cc5yODYL.s:187    .text:0000000000000104 .L0 
     /tmp/cc5yODYL.s:88     .text:000000000000006c .L4
     /tmp/cc5yODYL.s:218    .text:000000000000013c .L5
     /tmp/cc5yODYL.s:196    .text:0000000000000120 .L6
     /tmp/cc5yODYL.s:229    .text:0000000000000158 .L7
     /tmp/cc5yODYL.s:242    .text:0000000000000174 .L11
     /tmp/cc5yODYL.s:141    .text:00000000000000c4 .LEHB0
     /tmp/cc5yODYL.s:59     .text:000000000000003c .LFB53
     /tmp/cc5yODYL.s:144    .text:00000000000000cc .LEHE0
     /tmp/cc5yODYL.s:149    .text:00000000000000dc .LEHB1
     /tmp/cc5yODYL.s:152    .text:00000000000000e4 .LEHE1
     /tmp/cc5yODYL.s:259    .text:0000000000000190 .L10
     /tmp/cc5yODYL.s:189    .text:0000000000000110 .LEHB2
GAS LISTING /tmp/cc5yODYL.s 			page 16


     /tmp/cc5yODYL.s:240    .text:0000000000000174 .LEHE2
     /tmp/cc5yODYL.s:267    .text:00000000000001a4 .LEHB3
     /tmp/cc5yODYL.s:270    .text:00000000000001ac .LEHE3
     /tmp/cc5yODYL.s:1601   .debug_abbrev:0000000000000000 .Ldebug_abbrev0
     /tmp/cc5yODYL.s:2989   .debug_str:000000000000078b .LASF152
     /tmp/cc5yODYL.s:2801   .debug_str:000000000000021d .LASF153
     /tmp/cc5yODYL.s:2993   .debug_str:0000000000000863 .LASF154
     /tmp/cc5yODYL.s:5      .text:0000000000000000 .Ltext0
     /tmp/cc5yODYL.s:306    .text:00000000000001ac .Letext0
     /tmp/cc5yODYL.s:2721   .debug_line:0000000000000000 .Ldebug_line0
     /tmp/cc5yODYL.s:2827   .debug_str:00000000000002ce .LASF0
     /tmp/cc5yODYL.s:2863   .debug_str:00000000000003ea .LASF1
     /tmp/cc5yODYL.s:2937   .debug_str:0000000000000645 .LASF2
     /tmp/cc5yODYL.s:2945   .debug_str:000000000000067e .LASF4
     /tmp/cc5yODYL.s:2837   .debug_str:0000000000000307 .LASF3
     /tmp/cc5yODYL.s:2729   .debug_str:0000000000000028 .LASF5
     /tmp/cc5yODYL.s:2911   .debug_str:0000000000000585 .LASF6
     /tmp/cc5yODYL.s:2855   .debug_str:00000000000003af .LASF7
     /tmp/cc5yODYL.s:2809   .debug_str:000000000000023b .LASF8
     /tmp/cc5yODYL.s:2817   .debug_str:0000000000000281 .LASF9
     /tmp/cc5yODYL.s:2753   .debug_str:00000000000000d4 .LASF10
     /tmp/cc5yODYL.s:2799   .debug_str:000000000000020e .LASF11
     /tmp/cc5yODYL.s:2765   .debug_str:000000000000011f .LASF12
     /tmp/cc5yODYL.s:2751   .debug_str:00000000000000c4 .LASF13
     /tmp/cc5yODYL.s:2971   .debug_str:0000000000000739 .LASF14
     /tmp/cc5yODYL.s:2789   .debug_str:00000000000001bc .LASF15
     /tmp/cc5yODYL.s:2961   .debug_str:00000000000006da .LASF16
     /tmp/cc5yODYL.s:2845   .debug_str:0000000000000366 .LASF155
     /tmp/cc5yODYL.s:2861   .debug_str:00000000000003e5 .LASF17
     /tmp/cc5yODYL.s:2755   .debug_str:00000000000000e3 .LASF18
     /tmp/cc5yODYL.s:2907   .debug_str:0000000000000564 .LASF27
     /tmp/cc5yODYL.s:2737   .debug_str:000000000000006b .LASF74
     /tmp/cc5yODYL.s:3005   .debug_str:00000000000008c0 .LASF19
     /tmp/cc5yODYL.s:2963   .debug_str:00000000000006f0 .LASF20
     /tmp/cc5yODYL.s:3037   .debug_str:0000000000000994 .LASF44
     /tmp/cc5yODYL.s:2881   .debug_str:000000000000046e .LASF46
     /tmp/cc5yODYL.s:2741   .debug_str:000000000000008c .LASF40
     /tmp/cc5yODYL.s:3049   .debug_str:00000000000009e2 .LASF42
     /tmp/cc5yODYL.s:3055   .debug_str:0000000000000a13 .LASF21
     /tmp/cc5yODYL.s:2815   .debug_str:0000000000000261 .LASF23
     /tmp/cc5yODYL.s:2877   .debug_str:000000000000044d .LASF22
     /tmp/cc5yODYL.s:2903   .debug_str:000000000000053b .LASF24
     /tmp/cc5yODYL.s:2841   .debug_str:0000000000000345 .LASF36
     /tmp/cc5yODYL.s:2939   .debug_str:0000000000000653 .LASF25
     /tmp/cc5yODYL.s:3009   .debug_str:00000000000008cf .LASF26
     /tmp/cc5yODYL.s:2739   .debug_str:0000000000000084 .LASF28
     /tmp/cc5yODYL.s:2975   .debug_str:000000000000074e .LASF156
     /tmp/cc5yODYL.s:2981   .debug_str:0000000000000766 .LASF60
     /tmp/cc5yODYL.s:2747   .debug_str:00000000000000ab .LASF29
     /tmp/cc5yODYL.s:2953   .debug_str:00000000000006ad .LASF30
     /tmp/cc5yODYL.s:2761   .debug_str:000000000000010c .LASF31
     /tmp/cc5yODYL.s:2743   .debug_str:0000000000000091 .LASF32
     /tmp/cc5yODYL.s:2973   .debug_str:0000000000000745 .LASF33
     /tmp/cc5yODYL.s:2859   .debug_str:00000000000003d5 .LASF34
     /tmp/cc5yODYL.s:2977   .debug_str:0000000000000756 .LASF35
     /tmp/cc5yODYL.s:2965   .debug_str:00000000000006ff .LASF37
     /tmp/cc5yODYL.s:2943   .debug_str:0000000000000675 .LASF38
GAS LISTING /tmp/cc5yODYL.s 			page 17


     /tmp/cc5yODYL.s:2895   .debug_str:00000000000004fe .LASF39
     /tmp/cc5yODYL.s:2779   .debug_str:0000000000000196 .LASF41
     /tmp/cc5yODYL.s:2771   .debug_str:0000000000000149 .LASF43
     /tmp/cc5yODYL.s:2955   .debug_str:00000000000006b5 .LASF45
     /tmp/cc5yODYL.s:2727   .debug_str:0000000000000015 .LASF47
     /tmp/cc5yODYL.s:2851   .debug_str:0000000000000384 .LASF48
     /tmp/cc5yODYL.s:2899   .debug_str:0000000000000525 .LASF157
     /tmp/cc5yODYL.s:3043   .debug_str:00000000000009ca .LASF49
     /tmp/cc5yODYL.s:2915   .debug_str:00000000000005a2 .LASF50
     /tmp/cc5yODYL.s:2985   .debug_str:0000000000000776 .LASF158
     /tmp/cc5yODYL.s:2835   .debug_str:0000000000000302 .LASF51
     /tmp/cc5yODYL.s:2849   .debug_str:0000000000000371 .LASF52
     /tmp/cc5yODYL.s:2767   .debug_str:000000000000012f .LASF159
     /tmp/cc5yODYL.s:2839   .debug_str:0000000000000319 .LASF160
     /tmp/cc5yODYL.s:3013   .debug_str:00000000000008fa .LASF128
     /tmp/cc5yODYL.s:3023   .debug_str:0000000000000928 .LASF130
     /tmp/cc5yODYL.s:2723   .debug_str:0000000000000000 .LASF53
     /tmp/cc5yODYL.s:3047   .debug_str:00000000000009dc .LASF54
     /tmp/cc5yODYL.s:3007   .debug_str:00000000000008ca .LASF55
     /tmp/cc5yODYL.s:2997   .debug_str:000000000000088b .LASF56
     /tmp/cc5yODYL.s:2781   .debug_str:000000000000019f .LASF57
     /tmp/cc5yODYL.s:2875   .debug_str:0000000000000448 .LASF58
     /tmp/cc5yODYL.s:3021   .debug_str:0000000000000922 .LASF59
     /tmp/cc5yODYL.s:2793   .debug_str:00000000000001ed .LASF61
     /tmp/cc5yODYL.s:2795   .debug_str:00000000000001fc .LASF62
     /tmp/cc5yODYL.s:2987   .debug_str:000000000000077e .LASF63
     /tmp/cc5yODYL.s:2773   .debug_str:0000000000000160 .LASF64
     /tmp/cc5yODYL.s:2819   .debug_str:000000000000028f .LASF65
     /tmp/cc5yODYL.s:2823   .debug_str:00000000000002ac .LASF66
     /tmp/cc5yODYL.s:2951   .debug_str:000000000000069f .LASF67
     /tmp/cc5yODYL.s:2791   .debug_str:00000000000001d2 .LASF68
     /tmp/cc5yODYL.s:2829   .debug_str:00000000000002db .LASF69
     /tmp/cc5yODYL.s:3033   .debug_str:0000000000000972 .LASF70
     /tmp/cc5yODYL.s:3003   .debug_str:00000000000008b7 .LASF71
     /tmp/cc5yODYL.s:2999   .debug_str:0000000000000893 .LASF72
     /tmp/cc5yODYL.s:2933   .debug_str:0000000000000631 .LASF73
     /tmp/cc5yODYL.s:2893   .debug_str:00000000000004e9 .LASF75
     /tmp/cc5yODYL.s:2917   .debug_str:00000000000005b6 .LASF76
     /tmp/cc5yODYL.s:2923   .debug_str:00000000000005eb .LASF77
     /tmp/cc5yODYL.s:2887   .debug_str:000000000000049f .LASF78
     /tmp/cc5yODYL.s:2857   .debug_str:00000000000003c2 .LASF79
     /tmp/cc5yODYL.s:3035   .debug_str:000000000000098c .LASF80
     /tmp/cc5yODYL.s:2991   .debug_str:000000000000084f .LASF81
     /tmp/cc5yODYL.s:2885   .debug_str:0000000000000497 .LASF82
     /tmp/cc5yODYL.s:2891   .debug_str:00000000000004d5 .LASF83
     /tmp/cc5yODYL.s:2867   .debug_str:0000000000000416 .LASF84
     /tmp/cc5yODYL.s:2925   .debug_str:00000000000005fe .LASF85
     /tmp/cc5yODYL.s:3053   .debug_str:0000000000000a0b .LASF86
     /tmp/cc5yODYL.s:2833   .debug_str:00000000000002ee .LASF87
     /tmp/cc5yODYL.s:2927   .debug_str:0000000000000612 .LASF88
     /tmp/cc5yODYL.s:2947   .debug_str:0000000000000685 .LASF89
     /tmp/cc5yODYL.s:2949   .debug_str:0000000000000698 .LASF90
     /tmp/cc5yODYL.s:2759   .debug_str:00000000000000f9 .LASF91
     /tmp/cc5yODYL.s:2783   .debug_str:00000000000001a5 .LASF92
     /tmp/cc5yODYL.s:2821   .debug_str:000000000000029a .LASF93
     /tmp/cc5yODYL.s:2831   .debug_str:00000000000002e8 .LASF94
     /tmp/cc5yODYL.s:2777   .debug_str:0000000000000184 .LASF95
GAS LISTING /tmp/cc5yODYL.s 			page 18


     /tmp/cc5yODYL.s:2731   .debug_str:000000000000002f .LASF96
     /tmp/cc5yODYL.s:2941   .debug_str:000000000000065d .LASF97
     /tmp/cc5yODYL.s:2935   .debug_str:000000000000063a .LASF98
     /tmp/cc5yODYL.s:2919   .debug_str:00000000000005bd .LASF99
     /tmp/cc5yODYL.s:2983   .debug_str:000000000000076c .LASF100
     /tmp/cc5yODYL.s:3039   .debug_str:00000000000009a0 .LASF101
     /tmp/cc5yODYL.s:3017   .debug_str:0000000000000907 .LASF102
     /tmp/cc5yODYL.s:2879   .debug_str:0000000000000458 .LASF103
     /tmp/cc5yODYL.s:2957   .debug_str:00000000000006ba .LASF104
     /tmp/cc5yODYL.s:2871   .debug_str:0000000000000424 .LASF105
     /tmp/cc5yODYL.s:2807   .debug_str:0000000000000234 .LASF106
     /tmp/cc5yODYL.s:2749   .debug_str:00000000000000b1 .LASF107
     /tmp/cc5yODYL.s:3001   .debug_str:00000000000008a8 .LASF108
     /tmp/cc5yODYL.s:2735   .debug_str:000000000000004f .LASF109
     /tmp/cc5yODYL.s:3025   .debug_str:000000000000093e .LASF110
     /tmp/cc5yODYL.s:2901   .debug_str:000000000000052a .LASF111
     /tmp/cc5yODYL.s:2843   .debug_str:0000000000000361 .LASF112
     /tmp/cc5yODYL.s:2967   .debug_str:000000000000071a .LASF113
     /tmp/cc5yODYL.s:3027   .debug_str:0000000000000943 .LASF114
     /tmp/cc5yODYL.s:2873   .debug_str:0000000000000437 .LASF115
     /tmp/cc5yODYL.s:2883   .debug_str:0000000000000492 .LASF116
     /tmp/cc5yODYL.s:2909   .debug_str:0000000000000574 .LASF117
     /tmp/cc5yODYL.s:3029   .debug_str:0000000000000948 .LASF118
     /tmp/cc5yODYL.s:2745   .debug_str:000000000000009a .LASF119
     /tmp/cc5yODYL.s:2847   .debug_str:000000000000036c .LASF120
     /tmp/cc5yODYL.s:2853   .debug_str:000000000000039e .LASF121
     /tmp/cc5yODYL.s:2905   .debug_str:000000000000055f .LASF122
     /tmp/cc5yODYL.s:2811   .debug_str:000000000000024b .LASF123
     /tmp/cc5yODYL.s:2995   .debug_str:0000000000000886 .LASF124
     /tmp/cc5yODYL.s:2757   .debug_str:00000000000000e8 .LASF125
     /tmp/cc5yODYL.s:2787   .debug_str:00000000000001b4 .LASF126
     /tmp/cc5yODYL.s:3041   .debug_str:00000000000009b6 .LASF127
     /tmp/cc5yODYL.s:3045   .debug_str:00000000000009d0 .LASF129
     /tmp/cc5yODYL.s:2865   .debug_str:00000000000003fd .LASF131
     /tmp/cc5yODYL.s:2785   .debug_str:00000000000001ab .LASF132
     /tmp/cc5yODYL.s:2979   .debug_str:0000000000000761 .LASF133
     /tmp/cc5yODYL.s:2913   .debug_str:0000000000000598 .LASF161
     /tmp/cc5yODYL.s:2805   .debug_str:000000000000022f .LASF134
     /tmp/cc5yODYL.s:272    .text:00000000000001ac .LFE53
     /tmp/cc5yODYL.s:2634   .debug_loc:0000000000000000 .LLST3
     /tmp/cc5yODYL.s:2813   .debug_str:000000000000025c .LASF135
     /tmp/cc5yODYL.s:77     .text:0000000000000054 .LBB22
     /tmp/cc5yODYL.s:91     .text:000000000000006c .LBE22
     /tmp/cc5yODYL.s:92     .text:000000000000006c .LBB24
     /tmp/cc5yODYL.s:119    .text:00000000000000b0 .LBE24
     /tmp/cc5yODYL.s:125    .text:00000000000000bc .LBB26
     /tmp/cc5yODYL.s:137    .text:00000000000000c0 .LBE26
     /tmp/cc5yODYL.s:2641   .debug_loc:0000000000000023 .LLST4
     /tmp/cc5yODYL.s:159    .text:00000000000000f0 .LBB28
     /tmp/cc5yODYL.s:168    .text:00000000000000f8 .LBE28
     /tmp/cc5yODYL.s:2648   .debug_loc:0000000000000046 .LLST5
     /tmp/cc5yODYL.s:2656   .debug_loc:000000000000006a .LLST6
     /tmp/cc5yODYL.s:170    .text:00000000000000f8 .LBB30
     /tmp/cc5yODYL.s:182    .text:0000000000000100 .LBE30
     /tmp/cc5yODYL.s:2663   .debug_loc:000000000000008d .LLST7
     /tmp/cc5yODYL.s:202    .text:0000000000000124 .LBB32
     /tmp/cc5yODYL.s:209    .text:0000000000000128 .LBE32
GAS LISTING /tmp/cc5yODYL.s 			page 19


     /tmp/cc5yODYL.s:2671   .debug_loc:00000000000000b1 .LLST8
     /tmp/cc5yODYL.s:143    .text:00000000000000cc .LVL9
     /tmp/cc5yODYL.s:151    .text:00000000000000e4 .LVL10
     /tmp/cc5yODYL.s:191    .text:0000000000000118 .LVL14
     /tmp/cc5yODYL.s:195    .text:0000000000000120 .LVL15
     /tmp/cc5yODYL.s:216    .text:0000000000000138 .LVL18
     /tmp/cc5yODYL.s:225    .text:000000000000014c .LVL19
     /tmp/cc5yODYL.s:228    .text:0000000000000158 .LVL20
     /tmp/cc5yODYL.s:236    .text:0000000000000168 .LVL21
     /tmp/cc5yODYL.s:239    .text:0000000000000174 .LVL22
     /tmp/cc5yODYL.s:265    .text:00000000000001a0 .LVL24
     /tmp/cc5yODYL.s:269    .text:00000000000001ac .LVL25
     /tmp/cc5yODYL.s:2931   .debug_str:0000000000000629 .LASF162
     /tmp/cc5yODYL.s:2769   .debug_str:000000000000013d .LASF163
     /tmp/cc5yODYL.s:10     .text:0000000000000000 .LFB52
     /tmp/cc5yODYL.s:53     .text:000000000000003c .LFE52
     /tmp/cc5yODYL.s:2678   .debug_loc:00000000000000d4 .LLST0
     /tmp/cc5yODYL.s:32     .text:0000000000000024 .LBB20
     /tmp/cc5yODYL.s:39     .text:0000000000000028 .LBE20
     /tmp/cc5yODYL.s:2694   .debug_loc:000000000000011e .LLST1
     /tmp/cc5yODYL.s:2701   .debug_loc:0000000000000141 .LLST2
     /tmp/cc5yODYL.s:31     .text:0000000000000024 .LVL2
     /tmp/cc5yODYL.s:2803   .debug_str:000000000000022a .LASF138
     /tmp/cc5yODYL.s:2825   .debug_str:00000000000002c4 .LASF140
     /tmp/cc5yODYL.s:3015   .debug_str:0000000000000902 .LASF136
     /tmp/cc5yODYL.s:2869   .debug_str:000000000000041e .LASF137
     /tmp/cc5yODYL.s:2763   .debug_str:0000000000000116 .LASF139
     /tmp/cc5yODYL.s:2889   .debug_str:00000000000004a6 .LASF164
     /tmp/cc5yODYL.s:2959   .debug_str:00000000000006c1 .LASF141
     /tmp/cc5yODYL.s:2797   .debug_str:0000000000000208 .LASF142
     /tmp/cc5yODYL.s:3051   .debug_str:00000000000009fe .LASF144
     /tmp/cc5yODYL.s:3031   .debug_str:000000000000094d .LASF143
     /tmp/cc5yODYL.s:2969   .debug_str:000000000000072b .LASF145
     /tmp/cc5yODYL.s:2921   .debug_str:00000000000005d5 .LASF146
     /tmp/cc5yODYL.s:3019   .debug_str:0000000000000911 .LASF147
     /tmp/cc5yODYL.s:2733   .debug_str:000000000000003a .LASF148
     /tmp/cc5yODYL.s:2929   .debug_str:0000000000000619 .LASF149
     /tmp/cc5yODYL.s:2897   .debug_str:000000000000051e .LASF150
     /tmp/cc5yODYL.s:2725   .debug_str:0000000000000005 .LASF151
     /tmp/cc5yODYL.s:3011   .debug_str:00000000000008eb .LASF165
     /tmp/cc5yODYL.s:2775   .debug_str:000000000000016c .LASF166
     /tmp/cc5yODYL.s:255    .text:0000000000000188 .LVL23
     /tmp/cc5yODYL.s:124    .text:00000000000000bc .LVL7
     /tmp/cc5yODYL.s:134    .text:00000000000000c0 .LVL8
     /tmp/cc5yODYL.s:158    .text:00000000000000f0 .LVL11
     /tmp/cc5yODYL.s:166    .text:00000000000000f8 .LVL12
     /tmp/cc5yODYL.s:179    .text:0000000000000100 .LVL13
     /tmp/cc5yODYL.s:201    .text:0000000000000124 .LVL16
     /tmp/cc5yODYL.s:207    .text:0000000000000128 .LVL17
     /tmp/cc5yODYL.s:14     .text:0000000000000000 .LVL0
     /tmp/cc5yODYL.s:29     .text:000000000000001c .LVL1
     /tmp/cc5yODYL.s:48     .text:0000000000000034 .LVL4
     /tmp/cc5yODYL.s:37     .text:0000000000000028 .LVL3
     /tmp/cc5yODYL.s:311    .debug_info:0000000000000000 .Ldebug_info0
     /tmp/cc5yODYL.s:275    .gcc_except_table:0000000000000000 .LLSDA53

UNDEFINED SYMBOLS
GAS LISTING /tmp/cc5yODYL.s 			page 20


_Znwm
HEAP_START_ADDR
_ZN15MemoryAllocator9free_listE
HEAP_END_ADDR
_ZN15MemoryAllocator14allocated_listE
_ZN5Riscv14supervisorTrapEv
_ZN7_threadC1EPFvPvES0_Pm
_ZN7_thread7runningE
_Z8userMainv
_Z13thread_createPP7_threadPFvPvES2_
_Z16switchToUserModev
_Z15thread_dispatchv
_ZN7_threadD1Ev
_ZdlPv
_Unwind_Resume
__gxx_personality_v0
