GAS LISTING /tmp/cc5gWeJL.s 			page 1


   1              		.file	"main.cpp"
   2              		.option pic
   3              		.option norelax
   4              		.text
   5              	.Ltext0:
   6              		.align	2
   7              		.globl	_Z7createCm
   9              	_Z7createCm:
  10              	.LFB52:
  11              		.file 1 "src/main.cpp"
   1:src/main.cpp  **** 
   2:src/main.cpp  **** #include "../h/riscv.hpp"
   3:src/main.cpp  **** #include "../h/syscall_c.hpp"
   4:src/main.cpp  **** #include "../h/print.hpp"
   5:src/main.cpp  **** #include "../h/_thread.hpp"
   6:src/main.cpp  **** #include "../h/syscall_cpp.hpp"
   7:src/main.cpp  **** 
   8:src/main.cpp  **** 
   9:src/main.cpp  **** struct A {
  10:src/main.cpp  ****     int a;
  11:src/main.cpp  ****     int *b = nullptr;
  12:src/main.cpp  **** };
  13:src/main.cpp  **** 
  14:src/main.cpp  **** struct B {
  15:src/main.cpp  ****     int a;
  16:src/main.cpp  ****     int *b = nullptr;
  17:src/main.cpp  ****     long c;
  18:src/main.cpp  ****     char d[50];
  19:src/main.cpp  **** };
  20:src/main.cpp  **** 
  21:src/main.cpp  **** class C {
  22:src/main.cpp  **** private:
  23:src/main.cpp  ****     uint64 num;
  24:src/main.cpp  **** 
  25:src/main.cpp  **** public:
  26:src/main.cpp  **** 
  27:src/main.cpp  ****     C(uint64 n) {
  28:src/main.cpp  ****         num = n;
  29:src/main.cpp  ****     }
  30:src/main.cpp  **** 
  31:src/main.cpp  **** 
  32:src/main.cpp  **** };
  33:src/main.cpp  **** 
  34:src/main.cpp  **** C *createC(uint64 n) {
  12              		.loc 1 34 22
  13              		.cfi_startproc
  14              	.LVL0:
  15 0000 130101FE 		addi	sp,sp,-32
  16              		.cfi_def_cfa_offset 32
  17 0004 233C1100 		sd	ra,24(sp)
  18 0008 23388100 		sd	s0,16(sp)
  19 000c 23349100 		sd	s1,8(sp)
  20              		.cfi_offset 1, -8
  21              		.cfi_offset 8, -16
  22              		.cfi_offset 9, -24
  23 0010 13040102 		addi	s0,sp,32
  24              		.cfi_def_cfa 8, 0
GAS LISTING /tmp/cc5gWeJL.s 			page 2


  25 0014 93040500 		mv	s1,a0
  35:src/main.cpp  ****     return new C(n);
  26              		.loc 1 35 5
  27              		.loc 1 35 19 is_stmt 0
  28 0018 13058000 		li	a0,8
  29              	.LVL1:
  30 001c 97000000 		call	_Znwm@plt
  30      E7800000 
  31              	.LVL2:
  32              	.LBB20:
  33              	.LBB21:
  28:src/main.cpp  ****     }
  34              		.loc 1 28 9 is_stmt 1
  28:src/main.cpp  ****     }
  35              		.loc 1 28 13 is_stmt 0
  36 0024 23309500 		sd	s1,0(a0)
  37              	.LVL3:
  38              	.LBE21:
  39              	.LBE20:
  36:src/main.cpp  **** }
  40              		.loc 1 36 1
  41 0028 83308101 		ld	ra,24(sp)
  42              		.cfi_restore 1
  43 002c 03340101 		ld	s0,16(sp)
  44              		.cfi_restore 8
  45              		.cfi_def_cfa 2, 32
  46 0030 83348100 		ld	s1,8(sp)
  47              		.cfi_restore 9
  48              	.LVL4:
  49 0034 13010102 		addi	sp,sp,32
  50              		.cfi_def_cfa_offset 0
  51 0038 67800000 		jr	ra
  52              		.cfi_endproc
  53              	.LFE52:
  55              		.section	.rodata.str1.8,"aMS",@progbits,1
  56              		.align	3
  57              	.LC0:
  58 0000 4D41494E 		.string	"MAIN START\n"
  58      20535441 
  58      52540A00 
  59 000c 00000000 		.align	3
  60              	.LC1:
  61 0010 4D41494E 		.string	"MAIN FINISHED\n"
  61      2046494E 
  61      49534845 
  61      440A00
  62              		.text
  63              		.align	2
  64              		.globl	main
  66              	main:
  67              	.LFB53:
  37:src/main.cpp  **** 
  38:src/main.cpp  **** extern void userMain();
  39:src/main.cpp  **** 
  40:src/main.cpp  **** int main() {
  68              		.loc 1 40 12 is_stmt 1
  69              		.cfi_startproc
GAS LISTING /tmp/cc5gWeJL.s 			page 3


  70              		.cfi_personality 0x9b,DW.ref.__gxx_personality_v0
  71              		.cfi_lsda 0x1b,.LLSDA53
  72 003c 130101FD 		addi	sp,sp,-48
  73              		.cfi_def_cfa_offset 48
  74 0040 23341102 		sd	ra,40(sp)
  75 0044 23308102 		sd	s0,32(sp)
  76 0048 233C9100 		sd	s1,24(sp)
  77 004c 23382101 		sd	s2,16(sp)
  78              		.cfi_offset 1, -8
  79              		.cfi_offset 8, -16
  80              		.cfi_offset 9, -24
  81              		.cfi_offset 18, -32
  82 0050 13040103 		addi	s0,sp,48
  83              		.cfi_def_cfa 8, 0
  41:src/main.cpp  **** 
  42:src/main.cpp  **** 
  43:src/main.cpp  ****     MemoryAllocator::getInstance().init();
  84              		.loc 1 43 5
  85              	.LBB22:
  86              	.LBB23:
  87              		.file 2 "src/../h/../h/MemoryAllocator.hpp"
   1:src/../h/../h/MemoryAllocator.hpp **** #ifndef PROJECT_BASE_V1_1_MEMORYALLOCATOR_HPP
   2:src/../h/../h/MemoryAllocator.hpp **** #define PROJECT_BASE_V1_1_MEMORYALLOCATOR_HPP
   3:src/../h/../h/MemoryAllocator.hpp **** 
   4:src/../h/../h/MemoryAllocator.hpp **** #include "print.hpp"
   5:src/../h/../h/MemoryAllocator.hpp **** 
   6:src/../h/../h/MemoryAllocator.hpp **** struct Block {
   7:src/../h/../h/MemoryAllocator.hpp ****     size_t size;
   8:src/../h/../h/MemoryAllocator.hpp ****     Block *next;
   9:src/../h/../h/MemoryAllocator.hpp **** };
  10:src/../h/../h/MemoryAllocator.hpp **** 
  11:src/../h/../h/MemoryAllocator.hpp **** class MemoryAllocator {
  12:src/../h/../h/MemoryAllocator.hpp **** 
  13:src/../h/../h/MemoryAllocator.hpp **** private:
  14:src/../h/../h/MemoryAllocator.hpp **** 
  15:src/../h/../h/MemoryAllocator.hpp **** 
  16:src/../h/../h/MemoryAllocator.hpp ****     MemoryAllocator() {}
  17:src/../h/../h/MemoryAllocator.hpp **** 
  18:src/../h/../h/MemoryAllocator.hpp ****     static Block *free_list;
  19:src/../h/../h/MemoryAllocator.hpp ****     static Block *allocated_list;
  20:src/../h/../h/MemoryAllocator.hpp **** 
  21:src/../h/../h/MemoryAllocator.hpp **** 
  22:src/../h/../h/MemoryAllocator.hpp **** public:
  23:src/../h/../h/MemoryAllocator.hpp **** 
  24:src/../h/../h/MemoryAllocator.hpp **** 
  25:src/../h/../h/MemoryAllocator.hpp ****     // Get the singleton instance
  26:src/../h/../h/MemoryAllocator.hpp ****     static MemoryAllocator &getInstance() {
  27:src/../h/../h/MemoryAllocator.hpp ****         static MemoryAllocator instance;
  88              		.loc 2 27 9
  89              		.loc 2 27 32 is_stmt 0
  90 0054 97070000 		lbu	a5,_ZGVZN15MemoryAllocator11getInstanceEvE8instance
  90      83C70700 
  91 005c 63980700 		bnez	a5,.L4
  92              	.LVL5:
  93 0060 93071000 		li	a5,1
  94 0064 17070000 		sb	a5,_ZGVZN15MemoryAllocator11getInstanceEvE8instance,a4
  94      2300F700 
GAS LISTING /tmp/cc5gWeJL.s 			page 4


  95              	.LVL6:
  96              	.L4:
  28:src/../h/../h/MemoryAllocator.hpp ****         return instance;
  97              		.loc 2 28 9 is_stmt 1
  98              	.LBE23:
  99              	.LBE22:
 100              	.LBB24:
 101              	.LBB25:
  29:src/../h/../h/MemoryAllocator.hpp ****     }
  30:src/../h/../h/MemoryAllocator.hpp **** 
  31:src/../h/../h/MemoryAllocator.hpp ****     static void init() {
  32:src/../h/../h/MemoryAllocator.hpp ****         // Initialize the free list
  33:src/../h/../h/MemoryAllocator.hpp **** 
  34:src/../h/../h/MemoryAllocator.hpp ****         free_list = (Block *) HEAP_START_ADDR;
 102              		.loc 2 34 9
 103              		.loc 2 34 19 is_stmt 0
 104 006c 97070000 		la	a5,HEAP_START_ADDR
 104      83B70700 
 105 0074 03B70700 		ld	a4,0(a5)
 106 0078 97060000 		la	a3,_ZN15MemoryAllocator9free_listE
 106      83B60600 
 107 0080 23B0E600 		sd	a4,0(a3)
  35:src/../h/../h/MemoryAllocator.hpp ****         free_list->size = (uint64 *) HEAP_END_ADDR - (uint64 *) HEAP_START_ADDR;
 108              		.loc 2 35 9 is_stmt 1
 109              		.loc 2 35 27 is_stmt 0
 110 0084 97070000 		la	a5,HEAP_END_ADDR
 110      83B70700 
 111 008c 83B70700 		ld	a5,0(a5)
 112              		.loc 2 35 52
 113 0090 B387E740 		sub	a5,a5,a4
 114 0094 93D73740 		srai	a5,a5,3
 115              		.loc 2 35 25
 116 0098 2330F700 		sd	a5,0(a4)
  36:src/../h/../h/MemoryAllocator.hpp ****         free_list->next = nullptr;
 117              		.loc 2 36 9 is_stmt 1
 118              		.loc 2 36 20 is_stmt 0
 119 009c 83B70600 		ld	a5,0(a3)
 120              		.loc 2 36 25
 121 00a0 23B40700 		sd	zero,8(a5)
  37:src/../h/../h/MemoryAllocator.hpp ****         allocated_list = nullptr;
 122              		.loc 2 37 9 is_stmt 1
 123              		.loc 2 37 24 is_stmt 0
 124 00a4 97070000 		la	a5,_ZN15MemoryAllocator14allocated_listE
 124      83B70700 
 125 00ac 23B00700 		sd	zero,0(a5)
 126              	.LBE25:
 127              	.LBE24:
  44:src/main.cpp  ****     Riscv::w_stvec((uint64) &Riscv::supervisorTrap + 1);
 128              		.loc 1 44 5 is_stmt 1
 129              		.loc 1 44 19 is_stmt 0
 130 00b0 97070000 		la	a5,_ZN5Riscv14supervisorTrapEv
 130      83B70700 
 131 00b8 93871700 		addi	a5,a5,1
 132              	.LVL7:
 133              	.LBB26:
 134              	.LBB27:
 135              		.file 3 "src/../h/riscv.hpp"
GAS LISTING /tmp/cc5gWeJL.s 			page 5


   1:src/../h/riscv.hpp **** #ifndef PROJECT_BASE_V1_1_RISCV_HPP
   2:src/../h/riscv.hpp **** #define PROJECT_BASE_V1_1_RISCV_HPP
   3:src/../h/riscv.hpp **** 
   4:src/../h/riscv.hpp **** 
   5:src/../h/riscv.hpp **** #include "../h/MemoryAllocator.hpp"
   6:src/../h/riscv.hpp **** #include "_thread.hpp"
   7:src/../h/riscv.hpp **** 
   8:src/../h/riscv.hpp **** 
   9:src/../h/riscv.hpp **** #define readUsrReg(reg, dst) __asm__ volatile("mv %0,"#reg : "=r" (dst));
  10:src/../h/riscv.hpp **** #define writeUsrReg(reg, src) __asm__ volatile("mv "#reg", %0" : : "r" (src));
  11:src/../h/riscv.hpp **** 
  12:src/../h/riscv.hpp **** 
  13:src/../h/riscv.hpp **** class Riscv {
  14:src/../h/riscv.hpp **** public:
  15:src/../h/riscv.hpp **** 
  16:src/../h/riscv.hpp **** 
  17:src/../h/riscv.hpp ****     // pop sstatus.spp and sstatus.spie bits (has to be a non inline function)
  18:src/../h/riscv.hpp ****     static void popSppSpie();
  19:src/../h/riscv.hpp **** 
  20:src/../h/riscv.hpp ****     // push x3..x31 registers onto stack
  21:src/../h/riscv.hpp ****     static void pushRegisters();
  22:src/../h/riscv.hpp **** 
  23:src/../h/riscv.hpp ****     // pop x3..x31 registers onto stack
  24:src/../h/riscv.hpp ****     static void popRegisters();
  25:src/../h/riscv.hpp **** 
  26:src/../h/riscv.hpp ****     // read register scause
  27:src/../h/riscv.hpp ****     static uint64 r_scause();
  28:src/../h/riscv.hpp **** 
  29:src/../h/riscv.hpp ****     // write register scause
  30:src/../h/riscv.hpp ****     static void w_scause(uint64 scause);
  31:src/../h/riscv.hpp **** 
  32:src/../h/riscv.hpp ****     // read register sepc
  33:src/../h/riscv.hpp ****     static uint64 r_sepc();
  34:src/../h/riscv.hpp **** 
  35:src/../h/riscv.hpp ****     // write register sepc
  36:src/../h/riscv.hpp ****     static void w_sepc(uint64 sepc);
  37:src/../h/riscv.hpp **** 
  38:src/../h/riscv.hpp ****     // read register stvec
  39:src/../h/riscv.hpp ****     static uint64 r_stvec();
  40:src/../h/riscv.hpp **** 
  41:src/../h/riscv.hpp ****     // write register stvec
  42:src/../h/riscv.hpp ****     static void w_stvec(uint64 stvec);
  43:src/../h/riscv.hpp **** 
  44:src/../h/riscv.hpp ****     // read register stval
  45:src/../h/riscv.hpp ****     static uint64 r_stval();
  46:src/../h/riscv.hpp **** 
  47:src/../h/riscv.hpp ****     // write register stval
  48:src/../h/riscv.hpp ****     static void w_stval(uint64 stval);
  49:src/../h/riscv.hpp **** 
  50:src/../h/riscv.hpp ****     enum BitMaskSip {
  51:src/../h/riscv.hpp **** 
  52:src/../h/riscv.hpp ****         SIP_SSIP = (1 << 1),
  53:src/../h/riscv.hpp ****         SIP_SEIP = (1 << 9)
  54:src/../h/riscv.hpp ****     };
  55:src/../h/riscv.hpp **** 
  56:src/../h/riscv.hpp ****     // mask set register sip
  57:src/../h/riscv.hpp ****     static void ms_sip(uint64 mask);
GAS LISTING /tmp/cc5gWeJL.s 			page 6


  58:src/../h/riscv.hpp **** 
  59:src/../h/riscv.hpp ****     // mask clear register sip
  60:src/../h/riscv.hpp ****     static void mc_sip(uint64 mask);
  61:src/../h/riscv.hpp **** 
  62:src/../h/riscv.hpp ****     // read register sip
  63:src/../h/riscv.hpp ****     static uint64 r_sip();
  64:src/../h/riscv.hpp **** 
  65:src/../h/riscv.hpp ****     // write register sip
  66:src/../h/riscv.hpp ****     static void w_sip(uint64 sip);
  67:src/../h/riscv.hpp **** 
  68:src/../h/riscv.hpp ****     enum BitMaskSstatus {
  69:src/../h/riscv.hpp ****         SSTATUS_SIE = (1 << 1),
  70:src/../h/riscv.hpp ****         SSTATUS_SPIE = (1 << 5),
  71:src/../h/riscv.hpp ****         SSTATUS_SPP = (1 << 8),
  72:src/../h/riscv.hpp ****     };
  73:src/../h/riscv.hpp **** 
  74:src/../h/riscv.hpp ****     // mask set register sstatus
  75:src/../h/riscv.hpp ****     static void ms_sstatus(uint64 mask);
  76:src/../h/riscv.hpp **** 
  77:src/../h/riscv.hpp ****     // mask clear register sstatus
  78:src/../h/riscv.hpp ****     static void mc_sstatus(uint64 mask);
  79:src/../h/riscv.hpp **** 
  80:src/../h/riscv.hpp ****     // read register sstatus
  81:src/../h/riscv.hpp ****     static uint64 r_sstatus();
  82:src/../h/riscv.hpp **** 
  83:src/../h/riscv.hpp ****     // write register sstatus
  84:src/../h/riscv.hpp ****     static void w_sstatus(uint64 sstatus);
  85:src/../h/riscv.hpp **** 
  86:src/../h/riscv.hpp ****     // mask set register sie
  87:src/../h/riscv.hpp ****     static void ms_sie(uint64 mask);
  88:src/../h/riscv.hpp **** 
  89:src/../h/riscv.hpp ****     // mask clear register sie
  90:src/../h/riscv.hpp ****     static void mc_sie(uint64 mask);
  91:src/../h/riscv.hpp **** 
  92:src/../h/riscv.hpp ****     static void supervisorTrap();
  93:src/../h/riscv.hpp **** 
  94:src/../h/riscv.hpp ****     static long r_a0();
  95:src/../h/riscv.hpp **** 
  96:src/../h/riscv.hpp ****     static void w_a0(long a0);
  97:src/../h/riscv.hpp **** 
  98:src/../h/riscv.hpp ****     static uint64 r_a1();
  99:src/../h/riscv.hpp **** 
 100:src/../h/riscv.hpp ****     static void w_a1(uint64 a1);
 101:src/../h/riscv.hpp **** 
 102:src/../h/riscv.hpp ****     static uint64 r_a2();
 103:src/../h/riscv.hpp **** 
 104:src/../h/riscv.hpp ****     static void w_a2(uint64 a1);
 105:src/../h/riscv.hpp **** 
 106:src/../h/riscv.hpp ****     static uint64 r_a7();
 107:src/../h/riscv.hpp **** 
 108:src/../h/riscv.hpp ****     static void w_a7(uint64 a7);
 109:src/../h/riscv.hpp **** 
 110:src/../h/riscv.hpp ****     static void push_a0(long a0);
 111:src/../h/riscv.hpp **** 
 112:src/../h/riscv.hpp **** private:
 113:src/../h/riscv.hpp ****     static void trapHandler();
 114:src/../h/riscv.hpp **** 
GAS LISTING /tmp/cc5gWeJL.s 			page 7


 115:src/../h/riscv.hpp **** 
 116:src/../h/riscv.hpp **** };
 117:src/../h/riscv.hpp **** 
 118:src/../h/riscv.hpp **** inline uint64 Riscv::r_scause() {
 119:src/../h/riscv.hpp ****     uint64 volatile scause;
 120:src/../h/riscv.hpp ****     __asm__ volatile ("csrr %[scause], scause" : [scause] "=r"(scause));
 121:src/../h/riscv.hpp ****     return scause;
 122:src/../h/riscv.hpp **** }
 123:src/../h/riscv.hpp **** 
 124:src/../h/riscv.hpp **** inline void Riscv::w_scause(uint64 scause) {
 125:src/../h/riscv.hpp ****     __asm__ volatile ("csrw scause, %[scause]" : : [scause] "r"(scause));
 126:src/../h/riscv.hpp **** }
 127:src/../h/riscv.hpp **** 
 128:src/../h/riscv.hpp **** inline uint64 Riscv::r_sepc() {
 129:src/../h/riscv.hpp ****     uint64 volatile sepc;
 130:src/../h/riscv.hpp ****     __asm__ volatile ("csrr %[sepc], sepc" : [sepc] "=r"(sepc));
 131:src/../h/riscv.hpp ****     return sepc;
 132:src/../h/riscv.hpp **** }
 133:src/../h/riscv.hpp **** 
 134:src/../h/riscv.hpp **** inline void Riscv::w_sepc(uint64 sepc) {
 135:src/../h/riscv.hpp ****     __asm__ volatile ("csrw sepc, %[sepc]" : : [sepc] "r"(sepc));
 136:src/../h/riscv.hpp **** }
 137:src/../h/riscv.hpp **** 
 138:src/../h/riscv.hpp **** inline uint64 Riscv::r_stvec() {
 139:src/../h/riscv.hpp ****     uint64 volatile stvec;
 140:src/../h/riscv.hpp ****     __asm__ volatile ("csrr %[stvec], stvec" : [stvec] "=r"(stvec));
 141:src/../h/riscv.hpp ****     return stvec;
 142:src/../h/riscv.hpp **** }
 143:src/../h/riscv.hpp **** 
 144:src/../h/riscv.hpp **** inline void Riscv::w_stvec(uint64 stvec) {
 145:src/../h/riscv.hpp ****     __asm__ volatile ("csrw stvec, %[stvec]" : : [stvec] "r"(stvec));
 136              		.loc 3 145 5 is_stmt 1
 137              		.loc 3 145 69 is_stmt 0
 138              	#APP
 139              	# 145 "src/../h/riscv.hpp" 1
 146              	}
 140              		csrw stvec, a5
 141              	# 0 "" 2
 142              	.LVL8:
 143              	#NO_APP
 144              	.LBE27:
 145              	.LBE26:
  45:src/main.cpp  ****     _thread *pcb = new _thread(nullptr, nullptr, nullptr);
 146              		.loc 1 45 5 is_stmt 1
 147              		.loc 1 45 57 is_stmt 0
 148 00c0 13058003 		li	a0,56
 149              	.LEHB0:
 150 00c4 97000000 		call	_Znwm@plt
 150      E7800000 
 151              	.LVL9:
 152              	.LEHE0:
 153 00cc 13090500 		mv	s2,a0
 154 00d0 93060000 		li	a3,0
 155 00d4 13060000 		li	a2,0
 156 00d8 93050000 		li	a1,0
 157              	.LEHB1:
 158 00dc 97000000 		call	_ZN7_threadC1EPFvPvES0_Pm@plt
GAS LISTING /tmp/cc5gWeJL.s 			page 8


 158      E7800000 
 159              	.LVL10:
 160              	.LEHE1:
  46:src/main.cpp  ****     _thread::running = pcb;
 161              		.loc 1 46 5 is_stmt 1 discriminator 3
 162              		.loc 1 46 22 is_stmt 0 discriminator 3
 163 00e4 97070000 		la	a5,_ZN7_thread7runningE
 163      83B70700 
 164 00ec 23B02701 		sd	s2,0(a5)
  47:src/main.cpp  ****     pcb->setState(_thread::RUNNING);
 165              		.loc 1 47 5 is_stmt 1 discriminator 3
 166              	.LVL11:
 167              	.LBB28:
 168              	.LBB29:
 169              		.file 4 "src/../h/_thread.hpp"
   1:src/../h/_thread.hpp **** #ifndef PROJECT_BASE_V1_1__THREAD_HPP
   2:src/../h/_thread.hpp **** #define PROJECT_BASE_V1_1__THREAD_HPP
   3:src/../h/_thread.hpp **** 
   4:src/../h/_thread.hpp **** 
   5:src/../h/_thread.hpp **** #include "Scheduler.hpp"
   6:src/../h/_thread.hpp **** #include "riscv.hpp"
   7:src/../h/_thread.hpp **** #include "../h/syscall_c.hpp"
   8:src/../h/_thread.hpp **** 
   9:src/../h/_thread.hpp **** class _sem;
  10:src/../h/_thread.hpp **** 
  11:src/../h/_thread.hpp **** class _thread {
  12:src/../h/_thread.hpp **** public:
  13:src/../h/_thread.hpp ****     struct Context {
  14:src/../h/_thread.hpp ****         uint64 ra;
  15:src/../h/_thread.hpp ****         uint64 sp;
  16:src/../h/_thread.hpp ****     };
  17:src/../h/_thread.hpp **** 
  18:src/../h/_thread.hpp ****     enum State {
  19:src/../h/_thread.hpp ****         READY,
  20:src/../h/_thread.hpp ****         RUNNING,
  21:src/../h/_thread.hpp ****         SUSPENDED,
  22:src/../h/_thread.hpp ****         FINISHED
  23:src/../h/_thread.hpp ****     };
  24:src/../h/_thread.hpp **** 
  25:src/../h/_thread.hpp ****     ~_thread();
  26:src/../h/_thread.hpp **** 
  27:src/../h/_thread.hpp ****     bool isFinished() const { return state == FINISHED; }
  28:src/../h/_thread.hpp **** 
  29:src/../h/_thread.hpp ****     void setState(State s) { state = s; }
 170              		.loc 4 29 30 discriminator 3
 171              		.loc 4 29 36 is_stmt 0 discriminator 3
 172 00f0 93071000 		li	a5,1
 173 00f4 2328F902 		sw	a5,48(s2)
 174              	.LVL12:
 175              	.LBE29:
 176              	.LBE28:
  48:src/main.cpp  ****     Riscv::ms_sstatus(Riscv::SSTATUS_SIE);
 177              		.loc 1 48 5 is_stmt 1 discriminator 3
 178              	.LBB30:
 179              	.LBB31:
 147:src/../h/riscv.hpp **** 
 148:src/../h/riscv.hpp **** inline uint64 Riscv::r_stval() {
GAS LISTING /tmp/cc5gWeJL.s 			page 9


 149:src/../h/riscv.hpp ****     uint64 volatile stval;
 150:src/../h/riscv.hpp ****     __asm__ volatile ("csrr %[stval], stval" : [stval] "=r"(stval));
 151:src/../h/riscv.hpp ****     return stval;
 152:src/../h/riscv.hpp **** }
 153:src/../h/riscv.hpp **** 
 154:src/../h/riscv.hpp **** inline void Riscv::w_stval(uint64 stval) {
 155:src/../h/riscv.hpp ****     __asm__ volatile ("csrw stval, %[stval]" : : [stval] "r"(stval));
 156:src/../h/riscv.hpp **** }
 157:src/../h/riscv.hpp **** 
 158:src/../h/riscv.hpp **** inline void Riscv::ms_sip(uint64 mask) {
 159:src/../h/riscv.hpp ****     __asm__ volatile ("csrs sip, %[mask]" : : [mask] "r"(mask));
 160:src/../h/riscv.hpp **** }
 161:src/../h/riscv.hpp **** 
 162:src/../h/riscv.hpp **** inline void Riscv::mc_sip(uint64 mask) {
 163:src/../h/riscv.hpp ****     __asm__ volatile ("csrc sip, %[mask]" : : [mask] "r"(mask));
 164:src/../h/riscv.hpp **** }
 165:src/../h/riscv.hpp **** 
 166:src/../h/riscv.hpp **** inline uint64 Riscv::r_sip() {
 167:src/../h/riscv.hpp ****     uint64 volatile sip;
 168:src/../h/riscv.hpp ****     __asm__ volatile ("csrr %[sip], sip" : [sip] "=r"(sip));
 169:src/../h/riscv.hpp ****     return sip;
 170:src/../h/riscv.hpp **** }
 171:src/../h/riscv.hpp **** 
 172:src/../h/riscv.hpp **** inline void Riscv::w_sip(uint64 sip) {
 173:src/../h/riscv.hpp ****     __asm__ volatile ("csrw sip, %[sip]" : : [sip] "r"(sip));
 174:src/../h/riscv.hpp **** }
 175:src/../h/riscv.hpp **** 
 176:src/../h/riscv.hpp **** inline void Riscv::ms_sstatus(uint64 mask) {
 177:src/../h/riscv.hpp ****     __asm__ volatile ("csrs sstatus, %[mask]" : : [mask] "r"(mask));
 180              		.loc 3 177 5 discriminator 3
 181              		.loc 3 177 68 is_stmt 0 discriminator 3
 182 00f8 93072000 		li	a5,2
 183              	#APP
 184              	# 177 "src/../h/riscv.hpp" 1
 178              	}
 185              		csrs sstatus, a5
 186              	# 0 "" 2
 187              	.LVL13:
 188              	#NO_APP
 189              	.LBE31:
 190              	.LBE30:
  49:src/main.cpp  **** 
  50:src/main.cpp  **** 
  51:src/main.cpp  **** 
  52:src/main.cpp  ****     _thread *usrT;
 191              		.loc 1 52 5 is_stmt 1 discriminator 3
  53:src/main.cpp  ****     thread_create(&usrT, (void (*)(void *)) (userMain), nullptr);
 192              		.loc 1 53 5 discriminator 3
 193              		.loc 1 53 18 is_stmt 0 discriminator 3
 194 0100 13060000 		li	a2,0
 195 0104 97050000 		la	a1,_Z8userMainv
 195      83B50500 
 196 010c 130584FD 		addi	a0,s0,-40
 197              	.LEHB2:
 198 0110 97000000 		call	_Z13thread_createPP7_threadPFvPvES2_@plt
 198      E7800000 
 199              	.LVL14:
GAS LISTING /tmp/cc5gWeJL.s 			page 10


  54:src/main.cpp  **** 
  55:src/main.cpp  **** 
  56:src/main.cpp  ****     switchToUserMode();
 200              		.loc 1 56 5 is_stmt 1 discriminator 3
 201              		.loc 1 56 21 is_stmt 0 discriminator 3
 202 0118 97000000 		call	_Z16switchToUserModev@plt
 202      E7800000 
 203              	.LVL15:
  57:src/main.cpp  **** 
  58:src/main.cpp  ****     printStr("MAIN START\n");
 204              		.loc 1 58 5 is_stmt 1 discriminator 3
 205              		.loc 1 58 13 is_stmt 0 discriminator 3
 206 0120 17050000 		lla	a0,.LC0
 206      13050500 
 207 0128 97000000 		call	_Z8printStrPKc@plt
 207      E7800000 
 208              	.LVL16:
 209              	.L6:
  59:src/main.cpp  **** 
  60:src/main.cpp  ****     while (!usrT->isFinished()) {
 210              		.loc 1 60 5 is_stmt 1
 211              		.loc 1 60 12
 212              		.loc 1 60 29 is_stmt 0
 213 0130 833484FD 		ld	s1,-40(s0)
 214              	.LVL17:
 215              	.LBB32:
 216              	.LBB33:
  27:src/../h/_thread.hpp **** 
 217              		.loc 4 27 31 is_stmt 1
  27:src/../h/_thread.hpp **** 
 218              		.loc 4 27 38 is_stmt 0
 219 0134 03A70403 		lw	a4,48(s1)
 220              	.LVL18:
 221              	.LBE33:
 222              	.LBE32:
 223              		.loc 1 60 12
 224 0138 93073000 		li	a5,3
 225 013c 6308F700 		beq	a4,a5,.L5
  61:src/main.cpp  ****         thread_dispatch();
 226              		.loc 1 61 9 is_stmt 1
 227              		.loc 1 61 24 is_stmt 0
 228 0140 97000000 		call	_Z15thread_dispatchv@plt
 228      E7800000 
 229              	.LVL19:
 230 0148 6FF09FFE 		j	.L6
 231              	.L5:
  62:src/main.cpp  ****     }
  63:src/main.cpp  **** 
  64:src/main.cpp  **** 
  65:src/main.cpp  ****     delete usrT;
 232              		.loc 1 65 5 is_stmt 1
 233              		.loc 1 65 16 is_stmt 0
 234 014c 638E0400 		beqz	s1,.L7
 235              		.loc 1 65 12 discriminator 1
 236 0150 13850400 		mv	a0,s1
 237 0154 97000000 		call	_ZN7_threadD1Ev@plt
 237      E7800000 
GAS LISTING /tmp/cc5gWeJL.s 			page 11


 238              	.LVL20:
 239 015c 13850400 		mv	a0,s1
 240 0160 97000000 		call	_ZdlPv@plt
 240      E7800000 
 241              	.LVL21:
 242              	.L7:
  66:src/main.cpp  ****     delete pcb;
 243              		.loc 1 66 5 is_stmt 1
 244              		.loc 1 66 15 is_stmt 0
 245 0168 630E0900 		beqz	s2,.L8
 246              		.loc 1 66 12 discriminator 1
 247 016c 13050900 		mv	a0,s2
 248 0170 97000000 		call	_ZN7_threadD1Ev@plt
 248      E7800000 
 249              	.LVL22:
 250 0178 13050900 		mv	a0,s2
 251 017c 97000000 		call	_ZdlPv@plt
 251      E7800000 
 252              	.LVL23:
 253              	.L8:
  67:src/main.cpp  **** 
  68:src/main.cpp  **** 
  69:src/main.cpp  ****     printStr("MAIN FINISHED\n");
 254              		.loc 1 69 5 is_stmt 1
 255              		.loc 1 69 13 is_stmt 0
 256 0184 17050000 		lla	a0,.LC1
 256      13050500 
 257 018c 97000000 		call	_Z8printStrPKc@plt
 257      E7800000 
 258              	.LVL24:
 259              	.LEHE2:
  70:src/main.cpp  **** 
  71:src/main.cpp  ****     return 0;
 260              		.loc 1 71 5 is_stmt 1
  72:src/main.cpp  **** }...
 261              		.loc 1 72 1 is_stmt 0
 262 0194 13050000 		li	a0,0
 263 0198 83308102 		ld	ra,40(sp)
 264              		.cfi_remember_state
 265              		.cfi_restore 1
 266 019c 03340102 		ld	s0,32(sp)
 267              		.cfi_restore 8
 268              		.cfi_def_cfa 2, 48
 269 01a0 83348101 		ld	s1,24(sp)
 270              		.cfi_restore 9
 271 01a4 03390101 		ld	s2,16(sp)
 272              		.cfi_restore 18
 273              	.LVL25:
 274 01a8 13010103 		addi	sp,sp,48
 275              		.cfi_def_cfa_offset 0
 276 01ac 67800000 		jr	ra
 277              	.L10:
 278              		.cfi_restore_state
 279 01b0 93040500 		mv	s1,a0
  45:src/main.cpp  ****     _thread *pcb = new _thread(nullptr, nullptr, nullptr);
 280              		.loc 1 45 57
 281 01b4 13050900 		mv	a0,s2
GAS LISTING /tmp/cc5gWeJL.s 			page 12


 282 01b8 97000000 		call	_ZdlPv@plt
 282      E7800000 
 283              	.LVL26:
 284 01c0 13850400 		mv	a0,s1
 285              	.LEHB3:
 286 01c4 97000000 		call	_Unwind_Resume@plt
 286      E7800000 
 287              	.LVL27:
 288              	.LEHE3:
 289              		.cfi_endproc
 290              	.LFE53:
 291              		.globl	__gxx_personality_v0
 292              		.section	.gcc_except_table,"a",@progbits
 293              	.LLSDA53:
 294 0000 FF       		.byte	0xff
 295 0001 FF       		.byte	0xff
 296 0002 03       		.byte	0x3
 297 0003 34       		.byte	0x34
 298 0004 00000000 		.4byte	.LEHB0-.LFB53
 299 0008 00000000 		.4byte	.LEHE0-.LEHB0
 300 000c 00000000 		.4byte	0
 301 0010 00       		.byte	0
 302 0011 00000000 		.4byte	.LEHB1-.LFB53
 303 0015 00000000 		.4byte	.LEHE1-.LEHB1
 304 0019 00000000 		.4byte	.L10-.LFB53
 305 001d 00       		.byte	0
 306 001e 00000000 		.4byte	.LEHB2-.LFB53
 307 0022 00000000 		.4byte	.LEHE2-.LEHB2
 308 0026 00000000 		.4byte	0
 309 002a 00       		.byte	0
 310 002b 00000000 		.4byte	.LEHB3-.LFB53
 311 002f 00000000 		.4byte	.LEHE3-.LEHB3
 312 0033 00000000 		.4byte	0
 313 0037 00       		.byte	0
 314              		.text
 316              		.weak	_ZGVZN15MemoryAllocator11getInstanceEvE8instance
 317              		.section	.bss._ZGVZN15MemoryAllocator11getInstanceEvE8instance,"awG",@nobits,_ZGVZN15MemoryAllocat
 318              		.align	3
 321              	_ZGVZN15MemoryAllocator11getInstanceEvE8instance:
 322 0000 00000000 		.zero	8
 322      00000000 
 323              		.text
 324              	.Letext0:
 325              		.file 5 "src/../h/../h/../lib/hw.h"
 326              		.file 6 "src/../h/list.hpp"
 327              		.file 7 "src/../h/../h/_sem.hpp"
 328              		.file 8 "src/../h/../h/syscall_c.hpp"
 329              		.file 9 "src/../h/syscall_cpp.hpp"
 330              		.file 10 "src/../h/../h/print.hpp"
 3551              		.align	3
 3554              	DW.ref.__gxx_personality_v0:
 3555 0000 00000000 		.dword	__gxx_personality_v0
 3555      00000000 
 3556              		.ident	"GCC: (Ubuntu 9.4.0-1ubuntu1~20.04) 9.4.0"
 3557              		.section	.note.GNU-stack,"",@progbits
GAS LISTING /tmp/cc5gWeJL.s 			page 13


DEFINED SYMBOLS
                            *ABS*:0000000000000000 main.cpp
     /tmp/cc5gWeJL.s:9      .text:0000000000000000 _Z7createCm
     /tmp/cc5gWeJL.s:13     .text:0000000000000000 .L0 
     /tmp/cc5gWeJL.s:15     .text:0000000000000000 .L0 
     /tmp/cc5gWeJL.s:16     .text:0000000000000004 .L0 
     /tmp/cc5gWeJL.s:20     .text:0000000000000010 .L0 
     /tmp/cc5gWeJL.s:21     .text:0000000000000010 .L0 
     /tmp/cc5gWeJL.s:22     .text:0000000000000010 .L0 
     /tmp/cc5gWeJL.s:24     .text:0000000000000014 .L0 
     /tmp/cc5gWeJL.s:27     .text:0000000000000018 .L0 
     /tmp/cc5gWeJL.s:28     .text:0000000000000018 .L0 
     /tmp/cc5gWeJL.s:35     .text:0000000000000024 .L0 
     /tmp/cc5gWeJL.s:36     .text:0000000000000024 .L0 
     /tmp/cc5gWeJL.s:41     .text:0000000000000028 .L0 
     /tmp/cc5gWeJL.s:42     .text:000000000000002c .L0 
     /tmp/cc5gWeJL.s:44     .text:0000000000000030 .L0 
     /tmp/cc5gWeJL.s:45     .text:0000000000000030 .L0 
     /tmp/cc5gWeJL.s:47     .text:0000000000000034 .L0 
     /tmp/cc5gWeJL.s:50     .text:0000000000000038 .L0 
     /tmp/cc5gWeJL.s:52     .text:000000000000003c .L0 
     /tmp/cc5gWeJL.s:66     .text:000000000000003c main
     /tmp/cc5gWeJL.s:69     .text:000000000000003c .L0 
     /tmp/cc5gWeJL.s:3554   .data.rel.local.DW.ref.__gxx_personality_v0:0000000000000000 DW.ref.__gxx_personality_v0
     /tmp/cc5gWeJL.s:72     .text:000000000000003c .L0 
     /tmp/cc5gWeJL.s:73     .text:0000000000000040 .L0 
     /tmp/cc5gWeJL.s:78     .text:0000000000000050 .L0 
     /tmp/cc5gWeJL.s:79     .text:0000000000000050 .L0 
     /tmp/cc5gWeJL.s:80     .text:0000000000000050 .L0 
     /tmp/cc5gWeJL.s:81     .text:0000000000000050 .L0 
     /tmp/cc5gWeJL.s:83     .text:0000000000000054 .L0 
     /tmp/cc5gWeJL.s:88     .text:0000000000000054 .L0 
     /tmp/cc5gWeJL.s:89     .text:0000000000000054 .L0 
     /tmp/cc5gWeJL.s:321    .bss._ZGVZN15MemoryAllocator11getInstanceEvE8instance:0000000000000000 _ZGVZN15MemoryAllocator11getInstanceEvE8instance
     /tmp/cc5gWeJL.s:90     .text:0000000000000054 .L0 
     /tmp/cc5gWeJL.s:102    .text:000000000000006c .L0 
     /tmp/cc5gWeJL.s:103    .text:000000000000006c .L0 
     /tmp/cc5gWeJL.s:104    .text:000000000000006c .L0 
     /tmp/cc5gWeJL.s:109    .text:0000000000000084 .L0 
     /tmp/cc5gWeJL.s:110    .text:0000000000000084 .L0 
     /tmp/cc5gWeJL.s:113    .text:0000000000000090 .L0 
     /tmp/cc5gWeJL.s:116    .text:0000000000000098 .L0 
     /tmp/cc5gWeJL.s:118    .text:000000000000009c .L0 
     /tmp/cc5gWeJL.s:119    .text:000000000000009c .L0 
     /tmp/cc5gWeJL.s:121    .text:00000000000000a0 .L0 
     /tmp/cc5gWeJL.s:123    .text:00000000000000a4 .L0 
     /tmp/cc5gWeJL.s:124    .text:00000000000000a4 .L0 
     /tmp/cc5gWeJL.s:129    .text:00000000000000b0 .L0 
     /tmp/cc5gWeJL.s:130    .text:00000000000000b0 .L0 
     /tmp/cc5gWeJL.s:137    .text:00000000000000bc .L0 
  src/../h/riscv.hpp:145    .text:00000000000000bc .L0 
     /tmp/cc5gWeJL.s:147    .text:00000000000000c0 .L0 
     /tmp/cc5gWeJL.s:148    .text:00000000000000c0 .L0 
     /tmp/cc5gWeJL.s:162    .text:00000000000000e4 .L0 
     /tmp/cc5gWeJL.s:163    .text:00000000000000e4 .L0 
     /tmp/cc5gWeJL.s:170    .text:00000000000000f0 .L0 
     /tmp/cc5gWeJL.s:171    .text:00000000000000f0 .L0 
GAS LISTING /tmp/cc5gWeJL.s 			page 14


     /tmp/cc5gWeJL.s:172    .text:00000000000000f0 .L0 
     /tmp/cc5gWeJL.s:180    .text:00000000000000f8 .L0 
     /tmp/cc5gWeJL.s:181    .text:00000000000000f8 .L0 
     /tmp/cc5gWeJL.s:182    .text:00000000000000f8 .L0 
     /tmp/cc5gWeJL.s:192    .text:0000000000000100 .L0 
     /tmp/cc5gWeJL.s:193    .text:0000000000000100 .L0 
     /tmp/cc5gWeJL.s:194    .text:0000000000000100 .L0 
     /tmp/cc5gWeJL.s:201    .text:0000000000000118 .L0 
     /tmp/cc5gWeJL.s:202    .text:0000000000000118 .L0 
     /tmp/cc5gWeJL.s:205    .text:0000000000000120 .L0 
     /tmp/cc5gWeJL.s:206    .text:0000000000000120 .L0 
     /tmp/cc5gWeJL.s:211    .text:0000000000000130 .L0 
     /tmp/cc5gWeJL.s:212    .text:0000000000000130 .L0 
     /tmp/cc5gWeJL.s:213    .text:0000000000000130 .L0 
     /tmp/cc5gWeJL.s:218    .text:0000000000000134 .L0 
     /tmp/cc5gWeJL.s:219    .text:0000000000000134 .L0 
     /tmp/cc5gWeJL.s:224    .text:0000000000000138 .L0 
     /tmp/cc5gWeJL.s:227    .text:0000000000000140 .L0 
     /tmp/cc5gWeJL.s:228    .text:0000000000000140 .L0 
     /tmp/cc5gWeJL.s:233    .text:000000000000014c .L0 
     /tmp/cc5gWeJL.s:234    .text:000000000000014c .L0 
     /tmp/cc5gWeJL.s:236    .text:0000000000000150 .L0 
     /tmp/cc5gWeJL.s:244    .text:0000000000000168 .L0 
     /tmp/cc5gWeJL.s:245    .text:0000000000000168 .L0 
     /tmp/cc5gWeJL.s:247    .text:000000000000016c .L0 
     /tmp/cc5gWeJL.s:255    .text:0000000000000184 .L0 
     /tmp/cc5gWeJL.s:256    .text:0000000000000184 .L0 
     /tmp/cc5gWeJL.s:261    .text:0000000000000194 .L0 
     /tmp/cc5gWeJL.s:262    .text:0000000000000194 .L0 
     /tmp/cc5gWeJL.s:264    .text:000000000000019c .L0 
     /tmp/cc5gWeJL.s:265    .text:000000000000019c .L0 
     /tmp/cc5gWeJL.s:267    .text:00000000000001a0 .L0 
     /tmp/cc5gWeJL.s:268    .text:00000000000001a0 .L0 
     /tmp/cc5gWeJL.s:270    .text:00000000000001a4 .L0 
     /tmp/cc5gWeJL.s:272    .text:00000000000001a8 .L0 
     /tmp/cc5gWeJL.s:275    .text:00000000000001ac .L0 
     /tmp/cc5gWeJL.s:278    .text:00000000000001b0 .L0 
     /tmp/cc5gWeJL.s:281    .text:00000000000001b4 .L0 
     /tmp/cc5gWeJL.s:289    .text:00000000000001cc .L0 
     /tmp/cc5gWeJL.s:331    .text:00000000000001cc .L0 
     /tmp/cc5gWeJL.s:90     .text:0000000000000054 .L0 
     /tmp/cc5gWeJL.s:94     .text:0000000000000064 .L0 
     /tmp/cc5gWeJL.s:104    .text:000000000000006c .L0 
     /tmp/cc5gWeJL.s:106    .text:0000000000000078 .L0 
     /tmp/cc5gWeJL.s:110    .text:0000000000000084 .L0 
     /tmp/cc5gWeJL.s:124    .text:00000000000000a4 .L0 
     /tmp/cc5gWeJL.s:130    .text:00000000000000b0 .L0 
     /tmp/cc5gWeJL.s:163    .text:00000000000000e4 .L0 
     /tmp/cc5gWeJL.s:195    .text:0000000000000104 .L0 
     /tmp/cc5gWeJL.s:57     .rodata.str1.8:0000000000000000 .LC0
     /tmp/cc5gWeJL.s:206    .text:0000000000000120 .L0 
     /tmp/cc5gWeJL.s:60     .rodata.str1.8:0000000000000010 .LC1
     /tmp/cc5gWeJL.s:256    .text:0000000000000184 .L0 
     /tmp/cc5gWeJL.s:96     .text:000000000000006c .L4
     /tmp/cc5gWeJL.s:231    .text:000000000000014c .L5
     /tmp/cc5gWeJL.s:209    .text:0000000000000130 .L6
     /tmp/cc5gWeJL.s:242    .text:0000000000000168 .L7
GAS LISTING /tmp/cc5gWeJL.s 			page 15


     /tmp/cc5gWeJL.s:253    .text:0000000000000184 .L8
     /tmp/cc5gWeJL.s:149    .text:00000000000000c4 .LEHB0
     /tmp/cc5gWeJL.s:67     .text:000000000000003c .LFB53
     /tmp/cc5gWeJL.s:152    .text:00000000000000cc .LEHE0
     /tmp/cc5gWeJL.s:157    .text:00000000000000dc .LEHB1
     /tmp/cc5gWeJL.s:160    .text:00000000000000e4 .LEHE1
     /tmp/cc5gWeJL.s:277    .text:00000000000001b0 .L10
     /tmp/cc5gWeJL.s:197    .text:0000000000000110 .LEHB2
     /tmp/cc5gWeJL.s:259    .text:0000000000000194 .LEHE2
     /tmp/cc5gWeJL.s:285    .text:00000000000001c4 .LEHB3
     /tmp/cc5gWeJL.s:288    .text:00000000000001cc .LEHE3
     /tmp/cc5gWeJL.s:1942   .debug_abbrev:0000000000000000 .Ldebug_abbrev0
     /tmp/cc5gWeJL.s:3462   .debug_str:0000000000000914 .LASF192
     /tmp/cc5gWeJL.s:3228   .debug_str:00000000000002a1 .LASF193
     /tmp/cc5gWeJL.s:3470   .debug_str:0000000000000a00 .LASF194
     /tmp/cc5gWeJL.s:5      .text:0000000000000000 .Ltext0
     /tmp/cc5gWeJL.s:324    .text:00000000000001cc .Letext0
     /tmp/cc5gWeJL.s:3134   .debug_line:0000000000000000 .Ldebug_line0
     /tmp/cc5gWeJL.s:3258   .debug_str:0000000000000373 .LASF0
     /tmp/cc5gWeJL.s:3298   .debug_str:00000000000004ba .LASF1
     /tmp/cc5gWeJL.s:3398   .debug_str:00000000000007a6 .LASF2
     /tmp/cc5gWeJL.s:3406   .debug_str:00000000000007df .LASF4
     /tmp/cc5gWeJL.s:3268   .debug_str:00000000000003ac .LASF3
     /tmp/cc5gWeJL.s:3146   .debug_str:0000000000000052 .LASF5
     /tmp/cc5gWeJL.s:3364   .debug_str:00000000000006ab .LASF6
     /tmp/cc5gWeJL.s:3286   .debug_str:0000000000000454 .LASF7
     /tmp/cc5gWeJL.s:3236   .debug_str:00000000000002bf .LASF8
     /tmp/cc5gWeJL.s:3244   .debug_str:0000000000000305 .LASF9
     /tmp/cc5gWeJL.s:3174   .debug_str:000000000000012a .LASF10
     /tmp/cc5gWeJL.s:3226   .debug_str:0000000000000292 .LASF11
     /tmp/cc5gWeJL.s:3186   .debug_str:0000000000000189 .LASF12
     /tmp/cc5gWeJL.s:3172   .debug_str:000000000000011a .LASF13
     /tmp/cc5gWeJL.s:3438   .debug_str:00000000000008b1 .LASF14
     /tmp/cc5gWeJL.s:3216   .debug_str:0000000000000240 .LASF15
     /tmp/cc5gWeJL.s:3424   .debug_str:000000000000083b .LASF16
     /tmp/cc5gWeJL.s:3276   .debug_str:000000000000040b .LASF195
     /tmp/cc5gWeJL.s:3296   .debug_str:00000000000004b5 .LASF17
     /tmp/cc5gWeJL.s:3176   .debug_str:0000000000000139 .LASF18
     /tmp/cc5gWeJL.s:3358   .debug_str:000000000000067e .LASF27
     /tmp/cc5gWeJL.s:3156   .debug_str:000000000000009b .LASF109
     /tmp/cc5gWeJL.s:3484   .debug_str:0000000000000a63 .LASF19
     /tmp/cc5gWeJL.s:3428   .debug_str:0000000000000863 .LASF20
     /tmp/cc5gWeJL.s:3520   .debug_str:0000000000000b6e .LASF62
     /tmp/cc5gWeJL.s:3322   .debug_str:000000000000055b .LASF64
     /tmp/cc5gWeJL.s:3162   .debug_str:00000000000000e6 .LASF58
     /tmp/cc5gWeJL.s:3538   .debug_str:0000000000000c11 .LASF60
     /tmp/cc5gWeJL.s:3544   .debug_str:0000000000000c42 .LASF21
     /tmp/cc5gWeJL.s:3242   .debug_str:00000000000002e5 .LASF23
     /tmp/cc5gWeJL.s:3318   .debug_str:000000000000053a .LASF22
     /tmp/cc5gWeJL.s:3354   .debug_str:0000000000000655 .LASF24
     /tmp/cc5gWeJL.s:3272   .debug_str:00000000000003ea .LASF33
     /tmp/cc5gWeJL.s:3400   .debug_str:00000000000007b4 .LASF25
     /tmp/cc5gWeJL.s:3488   .debug_str:0000000000000a72 .LASF26
     /tmp/cc5gWeJL.s:3422   .debug_str:000000000000082d .LASF28
     /tmp/cc5gWeJL.s:3486   .debug_str:0000000000000a6d .LASF196
     /tmp/cc5gWeJL.s:3430   .debug_str:0000000000000872 .LASF29
     /tmp/cc5gWeJL.s:3334   .debug_str:00000000000005ab .LASF30
GAS LISTING /tmp/cc5gWeJL.s 			page 16


     /tmp/cc5gWeJL.s:3324   .debug_str:000000000000057f .LASF31
     /tmp/cc5gWeJL.s:3494   .debug_str:0000000000000aa5 .LASF32
     /tmp/cc5gWeJL.s:3380   .debug_str:0000000000000731 .LASF34
     /tmp/cc5gWeJL.s:3246   .debug_str:0000000000000313 .LASF172
     /tmp/cc5gWeJL.s:3294   .debug_str:00000000000004ac .LASF35
     /tmp/cc5gWeJL.s:3536   .debug_str:0000000000000bf0 .LASF36
     /tmp/cc5gWeJL.s:3308   .debug_str:0000000000000507 .LASF37
     /tmp/cc5gWeJL.s:3498   .debug_str:0000000000000ac1 .LASF38
     /tmp/cc5gWeJL.s:3360   .debug_str:000000000000068e .LASF39
     /tmp/cc5gWeJL.s:3288   .debug_str:0000000000000467 .LASF40
     /tmp/cc5gWeJL.s:3546   .debug_str:0000000000000c4b .LASF41
     /tmp/cc5gWeJL.s:3526   .debug_str:0000000000000ba5 .LASF42
     /tmp/cc5gWeJL.s:3414   .debug_str:000000000000080e .LASF43
     /tmp/cc5gWeJL.s:3158   .debug_str:00000000000000b4 .LASF44
     /tmp/cc5gWeJL.s:3384   .debug_str:0000000000000760 .LASF45
     /tmp/cc5gWeJL.s:3182   .debug_str:0000000000000162 .LASF46
     /tmp/cc5gWeJL.s:3314   .debug_str:0000000000000525 .LASF47
     /tmp/cc5gWeJL.s:3446   .debug_str:00000000000008d2 .LASF197
     /tmp/cc5gWeJL.s:3454   .debug_str:00000000000008ef .LASF95
     /tmp/cc5gWeJL.s:3168   .debug_str:0000000000000101 .LASF48
     /tmp/cc5gWeJL.s:3416   .debug_str:0000000000000819 .LASF49
     /tmp/cc5gWeJL.s:3464   .debug_str:00000000000009d8 .LASF50
     /tmp/cc5gWeJL.s:3164   .debug_str:00000000000000eb .LASF51
     /tmp/cc5gWeJL.s:3440   .debug_str:00000000000008bd .LASF52
     /tmp/cc5gWeJL.s:3292   .debug_str:000000000000049c .LASF53
     /tmp/cc5gWeJL.s:3448   .debug_str:00000000000008da .LASF54
     /tmp/cc5gWeJL.s:3432   .debug_str:0000000000000877 .LASF55
     /tmp/cc5gWeJL.s:3404   .debug_str:00000000000007d6 .LASF56
     /tmp/cc5gWeJL.s:3344   .debug_str:000000000000060f .LASF57
     /tmp/cc5gWeJL.s:3200   .debug_str:0000000000000200 .LASF59
     /tmp/cc5gWeJL.s:3192   .debug_str:00000000000001b3 .LASF61
     /tmp/cc5gWeJL.s:3418   .debug_str:0000000000000821 .LASF63
     /tmp/cc5gWeJL.s:3144   .debug_str:000000000000003f .LASF65
     /tmp/cc5gWeJL.s:3282   .debug_str:0000000000000429 .LASF66
     /tmp/cc5gWeJL.s:3348   .debug_str:0000000000000636 .LASF198
     /tmp/cc5gWeJL.s:3530   .debug_str:0000000000000bd8 .LASF67
     /tmp/cc5gWeJL.s:3370   .debug_str:00000000000006d5 .LASF68
     /tmp/cc5gWeJL.s:3458   .debug_str:00000000000008ff .LASF199
     /tmp/cc5gWeJL.s:3266   .debug_str:00000000000003a7 .LASF69
     /tmp/cc5gWeJL.s:3280   .debug_str:0000000000000416 .LASF70
     /tmp/cc5gWeJL.s:3188   .debug_str:0000000000000199 .LASF200
     /tmp/cc5gWeJL.s:3270   .debug_str:00000000000003be .LASF201
     /tmp/cc5gWeJL.s:3492   .debug_str:0000000000000a9d .LASF163
     /tmp/cc5gWeJL.s:3506   .debug_str:0000000000000b02 .LASF165
     /tmp/cc5gWeJL.s:3392   .debug_str:0000000000000788 .LASF71
     /tmp/cc5gWeJL.s:3138   .debug_str:0000000000000019 .LASF72
     /tmp/cc5gWeJL.s:3534   .debug_str:0000000000000bea .LASF73
     /tmp/cc5gWeJL.s:3444   .debug_str:00000000000008cd .LASF74
     /tmp/cc5gWeJL.s:3474   .debug_str:0000000000000a28 .LASF75
     /tmp/cc5gWeJL.s:3204   .debug_str:000000000000020e .LASF76
     /tmp/cc5gWeJL.s:3450   .debug_str:00000000000008e5 .LASF77
     /tmp/cc5gWeJL.s:3250   .debug_str:0000000000000339 .LASF78
     /tmp/cc5gWeJL.s:3328   .debug_str:0000000000000594 .LASF79
     /tmp/cc5gWeJL.s:3480   .debug_str:0000000000000a54 .LASF80
     /tmp/cc5gWeJL.s:3166   .debug_str:00000000000000f4 .LASF81
     /tmp/cc5gWeJL.s:3366   .debug_str:00000000000006be .LASF82
     /tmp/cc5gWeJL.s:3214   .debug_str:000000000000023a .LASF83
GAS LISTING /tmp/cc5gWeJL.s 			page 17


     /tmp/cc5gWeJL.s:3316   .debug_str:000000000000052d .LASF84
     /tmp/cc5gWeJL.s:3202   .debug_str:0000000000000209 .LASF85
     /tmp/cc5gWeJL.s:3326   .debug_str:0000000000000584 .LASF86
     /tmp/cc5gWeJL.s:3442   .debug_str:00000000000008c6 .LASF87
     /tmp/cc5gWeJL.s:3426   .debug_str:0000000000000851 .LASF88
     /tmp/cc5gWeJL.s:3154   .debug_str:0000000000000095 .LASF89
     /tmp/cc5gWeJL.s:3160   .debug_str:00000000000000d5 .LASF90
     /tmp/cc5gWeJL.s:3468   .debug_str:00000000000009f6 .LASF91
     /tmp/cc5gWeJL.s:3524   .debug_str:0000000000000b90 .LASF92
     /tmp/cc5gWeJL.s:3312   .debug_str:0000000000000520 .LASF93
     /tmp/cc5gWeJL.s:3504   .debug_str:0000000000000afc .LASF94
     /tmp/cc5gWeJL.s:3220   .debug_str:0000000000000271 .LASF96
     /tmp/cc5gWeJL.s:3222   .debug_str:0000000000000280 .LASF97
     /tmp/cc5gWeJL.s:3460   .debug_str:0000000000000907 .LASF98
     /tmp/cc5gWeJL.s:3194   .debug_str:00000000000001ca .LASF99
     /tmp/cc5gWeJL.s:3248   .debug_str:000000000000032e .LASF100
     /tmp/cc5gWeJL.s:3254   .debug_str:0000000000000351 .LASF101
     /tmp/cc5gWeJL.s:3412   .debug_str:0000000000000800 .LASF102
     /tmp/cc5gWeJL.s:3218   .debug_str:0000000000000256 .LASF103
     /tmp/cc5gWeJL.s:3260   .debug_str:0000000000000380 .LASF104
     /tmp/cc5gWeJL.s:3516   .debug_str:0000000000000b4c .LASF105
     /tmp/cc5gWeJL.s:3482   .debug_str:0000000000000a5a .LASF106
     /tmp/cc5gWeJL.s:3476   .debug_str:0000000000000a30 .LASF107
     /tmp/cc5gWeJL.s:3394   .debug_str:0000000000000792 .LASF108
     /tmp/cc5gWeJL.s:3342   .debug_str:00000000000005fa .LASF110
     /tmp/cc5gWeJL.s:3372   .debug_str:00000000000006e9 .LASF111
     /tmp/cc5gWeJL.s:3378   .debug_str:000000000000071e .LASF112
     /tmp/cc5gWeJL.s:3336   .debug_str:00000000000005b0 .LASF113
     /tmp/cc5gWeJL.s:3290   .debug_str:0000000000000489 .LASF114
     /tmp/cc5gWeJL.s:3518   .debug_str:0000000000000b66 .LASF115
     /tmp/cc5gWeJL.s:3466   .debug_str:00000000000009e2 .LASF116
     /tmp/cc5gWeJL.s:3332   .debug_str:00000000000005a3 .LASF117
     /tmp/cc5gWeJL.s:3340   .debug_str:00000000000005e6 .LASF118
     /tmp/cc5gWeJL.s:3302   .debug_str:00000000000004e6 .LASF119
     /tmp/cc5gWeJL.s:3382   .debug_str:000000000000074c .LASF120
     /tmp/cc5gWeJL.s:3542   .debug_str:0000000000000c3a .LASF121
     /tmp/cc5gWeJL.s:3264   .debug_str:0000000000000393 .LASF122
     /tmp/cc5gWeJL.s:3386   .debug_str:0000000000000769 .LASF123
     /tmp/cc5gWeJL.s:3408   .debug_str:00000000000007e6 .LASF124
     /tmp/cc5gWeJL.s:3410   .debug_str:00000000000007f9 .LASF125
     /tmp/cc5gWeJL.s:3180   .debug_str:000000000000014f .LASF126
     /tmp/cc5gWeJL.s:3206   .debug_str:0000000000000214 .LASF127
     /tmp/cc5gWeJL.s:3252   .debug_str:000000000000033f .LASF128
     /tmp/cc5gWeJL.s:3262   .debug_str:000000000000038d .LASF129
     /tmp/cc5gWeJL.s:3198   .debug_str:00000000000001ee .LASF130
     /tmp/cc5gWeJL.s:3148   .debug_str:0000000000000059 .LASF131
     /tmp/cc5gWeJL.s:3402   .debug_str:00000000000007be .LASF132
     /tmp/cc5gWeJL.s:3396   .debug_str:000000000000079b .LASF133
     /tmp/cc5gWeJL.s:3374   .debug_str:00000000000006f0 .LASF134
     /tmp/cc5gWeJL.s:3456   .debug_str:00000000000008f5 .LASF135
     /tmp/cc5gWeJL.s:3522   .debug_str:0000000000000b7a .LASF136
     /tmp/cc5gWeJL.s:3500   .debug_str:0000000000000ae1 .LASF137
     /tmp/cc5gWeJL.s:3320   .debug_str:0000000000000545 .LASF138
     /tmp/cc5gWeJL.s:3420   .debug_str:0000000000000826 .LASF139
     /tmp/cc5gWeJL.s:3306   .debug_str:00000000000004f4 .LASF140
     /tmp/cc5gWeJL.s:3234   .debug_str:00000000000002b8 .LASF141
     /tmp/cc5gWeJL.s:3170   .debug_str:0000000000000107 .LASF142
GAS LISTING /tmp/cc5gWeJL.s 			page 18


     /tmp/cc5gWeJL.s:3478   .debug_str:0000000000000a45 .LASF143
     /tmp/cc5gWeJL.s:3152   .debug_str:0000000000000079 .LASF144
     /tmp/cc5gWeJL.s:3508   .debug_str:0000000000000b18 .LASF145
     /tmp/cc5gWeJL.s:3350   .debug_str:000000000000063b .LASF146
     /tmp/cc5gWeJL.s:3274   .debug_str:0000000000000406 .LASF147
     /tmp/cc5gWeJL.s:3434   .debug_str:0000000000000892 .LASF148
     /tmp/cc5gWeJL.s:3510   .debug_str:0000000000000b1d .LASF149
     /tmp/cc5gWeJL.s:3310   .debug_str:000000000000050f .LASF150
     /tmp/cc5gWeJL.s:3330   .debug_str:000000000000059e .LASF151
     /tmp/cc5gWeJL.s:3362   .debug_str:000000000000069a .LASF152
     /tmp/cc5gWeJL.s:3512   .debug_str:0000000000000b22 .LASF153
     /tmp/cc5gWeJL.s:3142   .debug_str:000000000000002e .LASF154
     /tmp/cc5gWeJL.s:3278   .debug_str:0000000000000411 .LASF155
     /tmp/cc5gWeJL.s:3284   .debug_str:0000000000000443 .LASF156
     /tmp/cc5gWeJL.s:3356   .debug_str:0000000000000679 .LASF157
     /tmp/cc5gWeJL.s:3238   .debug_str:00000000000002cf .LASF158
     /tmp/cc5gWeJL.s:3472   .debug_str:0000000000000a23 .LASF159
     /tmp/cc5gWeJL.s:3178   .debug_str:000000000000013e .LASF160
     /tmp/cc5gWeJL.s:3212   .debug_str:0000000000000232 .LASF161
     /tmp/cc5gWeJL.s:3528   .debug_str:0000000000000bc4 .LASF162
     /tmp/cc5gWeJL.s:3532   .debug_str:0000000000000bde .LASF164
     /tmp/cc5gWeJL.s:3300   .debug_str:00000000000004cd .LASF166
     /tmp/cc5gWeJL.s:3208   .debug_str:000000000000021a .LASF167
     /tmp/cc5gWeJL.s:3452   .debug_str:00000000000008ea .LASF168
     /tmp/cc5gWeJL.s:3368   .debug_str:00000000000006cb .LASF202
     /tmp/cc5gWeJL.s:3232   .debug_str:00000000000002b3 .LASF169
     /tmp/cc5gWeJL.s:290    .text:00000000000001cc .LFE53
     /tmp/cc5gWeJL.s:3047   .debug_loc:0000000000000000 .LLST3
     /tmp/cc5gWeJL.s:3240   .debug_str:00000000000002e0 .LASF170
     /tmp/cc5gWeJL.s:85     .text:0000000000000054 .LBB22
     /tmp/cc5gWeJL.s:99     .text:000000000000006c .LBE22
     /tmp/cc5gWeJL.s:100    .text:000000000000006c .LBB24
     /tmp/cc5gWeJL.s:127    .text:00000000000000b0 .LBE24
     /tmp/cc5gWeJL.s:133    .text:00000000000000bc .LBB26
     /tmp/cc5gWeJL.s:145    .text:00000000000000c0 .LBE26
     /tmp/cc5gWeJL.s:3054   .debug_loc:0000000000000023 .LLST4
     /tmp/cc5gWeJL.s:167    .text:00000000000000f0 .LBB28
     /tmp/cc5gWeJL.s:176    .text:00000000000000f8 .LBE28
     /tmp/cc5gWeJL.s:3061   .debug_loc:0000000000000046 .LLST5
     /tmp/cc5gWeJL.s:3069   .debug_loc:000000000000006a .LLST6
     /tmp/cc5gWeJL.s:178    .text:00000000000000f8 .LBB30
     /tmp/cc5gWeJL.s:190    .text:0000000000000100 .LBE30
     /tmp/cc5gWeJL.s:3076   .debug_loc:000000000000008d .LLST7
     /tmp/cc5gWeJL.s:215    .text:0000000000000134 .LBB32
     /tmp/cc5gWeJL.s:222    .text:0000000000000138 .LBE32
     /tmp/cc5gWeJL.s:3084   .debug_loc:00000000000000b1 .LLST8
     /tmp/cc5gWeJL.s:151    .text:00000000000000cc .LVL9
     /tmp/cc5gWeJL.s:159    .text:00000000000000e4 .LVL10
     /tmp/cc5gWeJL.s:199    .text:0000000000000118 .LVL14
     /tmp/cc5gWeJL.s:203    .text:0000000000000120 .LVL15
     /tmp/cc5gWeJL.s:208    .text:0000000000000130 .LVL16
     /tmp/cc5gWeJL.s:229    .text:0000000000000148 .LVL19
     /tmp/cc5gWeJL.s:238    .text:000000000000015c .LVL20
     /tmp/cc5gWeJL.s:241    .text:0000000000000168 .LVL21
     /tmp/cc5gWeJL.s:249    .text:0000000000000178 .LVL22
     /tmp/cc5gWeJL.s:252    .text:0000000000000184 .LVL23
     /tmp/cc5gWeJL.s:258    .text:0000000000000194 .LVL24
GAS LISTING /tmp/cc5gWeJL.s 			page 19


     /tmp/cc5gWeJL.s:283    .text:00000000000001c0 .LVL26
     /tmp/cc5gWeJL.s:287    .text:00000000000001cc .LVL27
     /tmp/cc5gWeJL.s:3390   .debug_str:0000000000000780 .LASF171
     /tmp/cc5gWeJL.s:3190   .debug_str:00000000000001a7 .LASF173
     /tmp/cc5gWeJL.s:10     .text:0000000000000000 .LFB52
     /tmp/cc5gWeJL.s:53     .text:000000000000003c .LFE52
     /tmp/cc5gWeJL.s:3091   .debug_loc:00000000000000d4 .LLST0
     /tmp/cc5gWeJL.s:32     .text:0000000000000024 .LBB20
     /tmp/cc5gWeJL.s:39     .text:0000000000000028 .LBE20
     /tmp/cc5gWeJL.s:3107   .debug_loc:000000000000011e .LLST1
     /tmp/cc5gWeJL.s:3114   .debug_loc:0000000000000141 .LLST2
     /tmp/cc5gWeJL.s:31     .text:0000000000000024 .LVL2
     /tmp/cc5gWeJL.s:3230   .debug_str:00000000000002ae .LASF176
     /tmp/cc5gWeJL.s:3256   .debug_str:0000000000000369 .LASF178
     /tmp/cc5gWeJL.s:3496   .debug_str:0000000000000abc .LASF174
     /tmp/cc5gWeJL.s:3304   .debug_str:00000000000004ee .LASF175
     /tmp/cc5gWeJL.s:3184   .debug_str:0000000000000180 .LASF177
     /tmp/cc5gWeJL.s:3338   .debug_str:00000000000005b7 .LASF203
     /tmp/cc5gWeJL.s:3136   .debug_str:0000000000000000 .LASF179
     /tmp/cc5gWeJL.s:3224   .debug_str:000000000000028c .LASF180
     /tmp/cc5gWeJL.s:3540   .debug_str:0000000000000c2d .LASF182
     /tmp/cc5gWeJL.s:3514   .debug_str:0000000000000b27 .LASF181
     /tmp/cc5gWeJL.s:3436   .debug_str:00000000000008a3 .LASF183
     /tmp/cc5gWeJL.s:3376   .debug_str:0000000000000708 .LASF184
     /tmp/cc5gWeJL.s:3502   .debug_str:0000000000000aeb .LASF185
     /tmp/cc5gWeJL.s:3210   .debug_str:0000000000000223 .LASF186
     /tmp/cc5gWeJL.s:3352   .debug_str:000000000000064c .LASF187
     /tmp/cc5gWeJL.s:3150   .debug_str:0000000000000064 .LASF188
     /tmp/cc5gWeJL.s:3388   .debug_str:0000000000000770 .LASF189
     /tmp/cc5gWeJL.s:3346   .debug_str:000000000000062f .LASF190
     /tmp/cc5gWeJL.s:3140   .debug_str:000000000000001e .LASF191
     /tmp/cc5gWeJL.s:3490   .debug_str:0000000000000a8e .LASF204
     /tmp/cc5gWeJL.s:3196   .debug_str:00000000000001d6 .LASF205
     /tmp/cc5gWeJL.s:273    .text:00000000000001a8 .LVL25
     /tmp/cc5gWeJL.s:132    .text:00000000000000bc .LVL7
     /tmp/cc5gWeJL.s:142    .text:00000000000000c0 .LVL8
     /tmp/cc5gWeJL.s:166    .text:00000000000000f0 .LVL11
     /tmp/cc5gWeJL.s:174    .text:00000000000000f8 .LVL12
     /tmp/cc5gWeJL.s:187    .text:0000000000000100 .LVL13
     /tmp/cc5gWeJL.s:214    .text:0000000000000134 .LVL17
     /tmp/cc5gWeJL.s:220    .text:0000000000000138 .LVL18
     /tmp/cc5gWeJL.s:14     .text:0000000000000000 .LVL0
     /tmp/cc5gWeJL.s:29     .text:000000000000001c .LVL1
     /tmp/cc5gWeJL.s:48     .text:0000000000000034 .LVL4
     /tmp/cc5gWeJL.s:37     .text:0000000000000028 .LVL3
     /tmp/cc5gWeJL.s:332    .debug_info:0000000000000000 .Ldebug_info0
     /tmp/cc5gWeJL.s:293    .gcc_except_table:0000000000000000 .LLSDA53

UNDEFINED SYMBOLS
_Znwm
HEAP_START_ADDR
_ZN15MemoryAllocator9free_listE
HEAP_END_ADDR
_ZN15MemoryAllocator14allocated_listE
_ZN5Riscv14supervisorTrapEv
_ZN7_threadC1EPFvPvES0_Pm
_ZN7_thread7runningE
GAS LISTING /tmp/cc5gWeJL.s 			page 20


_Z8userMainv
_Z13thread_createPP7_threadPFvPvES2_
_Z16switchToUserModev
_Z8printStrPKc
_Z15thread_dispatchv
_ZN7_threadD1Ev
_ZdlPv
_Unwind_Resume
__gxx_personality_v0
