GAS LISTING /tmp/ccE6cq47.s 			page 1


   1              		.file	"main.cpp"
   2              		.option pic
   3              		.option norelax
   4              		.text
   5              	.Ltext0:
   6              		.align	2
   7              		.globl	main
   9              	main:
  10              	.LFB51:
  11              		.file 1 "src/main.cpp"
   1:src/main.cpp  **** 
   2:src/main.cpp  **** 
   3:src/main.cpp  **** 
   4:src/main.cpp  **** #include "../h/riscv.hpp"
   5:src/main.cpp  **** 
   6:src/main.cpp  **** struct A {
   7:src/main.cpp  ****     int a;
   8:src/main.cpp  ****     int* b = nullptr;
   9:src/main.cpp  **** };
  10:src/main.cpp  **** 
  11:src/main.cpp  **** struct B {
  12:src/main.cpp  ****     int a;
  13:src/main.cpp  ****     int* b = nullptr;
  14:src/main.cpp  ****     long c;
  15:src/main.cpp  ****     char d[50];
  16:src/main.cpp  **** };
  17:src/main.cpp  **** 
  18:src/main.cpp  **** class C{
  19:src/main.cpp  **** private:
  20:src/main.cpp  ****     uint64 num;
  21:src/main.cpp  **** public:
  22:src/main.cpp  ****     C(uint64 n)
  23:src/main.cpp  ****     {
  24:src/main.cpp  ****         num=n;
  25:src/main.cpp  ****     }
  26:src/main.cpp  **** };
  27:src/main.cpp  **** 
  28:src/main.cpp  **** extern void userMain();
  29:src/main.cpp  **** 
  30:src/main.cpp  **** int main() {
  12              		.loc 1 30 12
  13              		.cfi_startproc
  14 0000 130101FD 		addi	sp,sp,-48
  15              		.cfi_def_cfa_offset 48
  16 0004 23341102 		sd	ra,40(sp)
  17 0008 23308102 		sd	s0,32(sp)
  18 000c 233C9100 		sd	s1,24(sp)
  19 0010 23382101 		sd	s2,16(sp)
  20 0014 23343101 		sd	s3,8(sp)
  21              		.cfi_offset 1, -8
  22              		.cfi_offset 8, -16
  23              		.cfi_offset 9, -24
  24              		.cfi_offset 18, -32
  25              		.cfi_offset 19, -40
  26 0018 13040103 		addi	s0,sp,48
  27              		.cfi_def_cfa 8, 0
  31:src/main.cpp  **** 
GAS LISTING /tmp/ccE6cq47.s 			page 2


  32:src/main.cpp  **** 
  33:src/main.cpp  ****     MemoryAllocator::getInstance().init();
  28              		.loc 1 33 5
  29              	.LBB30:
  30              	.LBB31:
  31              		.file 2 "src/../h/../h/MemoryAllocator.hpp"
   1:src/../h/../h/MemoryAllocator.hpp **** #ifndef PROJECT_BASE_V1_1_MEMORYALLOCATOR_HPP
   2:src/../h/../h/MemoryAllocator.hpp **** #define PROJECT_BASE_V1_1_MEMORYALLOCATOR_HPP
   3:src/../h/../h/MemoryAllocator.hpp **** #include "print.hpp"
   4:src/../h/../h/MemoryAllocator.hpp **** 
   5:src/../h/../h/MemoryAllocator.hpp **** struct Block {
   6:src/../h/../h/MemoryAllocator.hpp ****     size_t size;
   7:src/../h/../h/MemoryAllocator.hpp ****     Block *next;
   8:src/../h/../h/MemoryAllocator.hpp **** };
   9:src/../h/../h/MemoryAllocator.hpp **** 
  10:src/../h/../h/MemoryAllocator.hpp **** class MemoryAllocator {
  11:src/../h/../h/MemoryAllocator.hpp **** 
  12:src/../h/../h/MemoryAllocator.hpp **** private:
  13:src/../h/../h/MemoryAllocator.hpp **** 
  14:src/../h/../h/MemoryAllocator.hpp **** 
  15:src/../h/../h/MemoryAllocator.hpp ****     MemoryAllocator() {}
  16:src/../h/../h/MemoryAllocator.hpp **** 
  17:src/../h/../h/MemoryAllocator.hpp ****     static Block *free_list;
  18:src/../h/../h/MemoryAllocator.hpp ****     static Block *allocated_list;
  19:src/../h/../h/MemoryAllocator.hpp **** 
  20:src/../h/../h/MemoryAllocator.hpp **** 
  21:src/../h/../h/MemoryAllocator.hpp **** public:
  22:src/../h/../h/MemoryAllocator.hpp **** 
  23:src/../h/../h/MemoryAllocator.hpp **** 
  24:src/../h/../h/MemoryAllocator.hpp ****     // Get the singleton instance
  25:src/../h/../h/MemoryAllocator.hpp ****     static MemoryAllocator &getInstance() {
  26:src/../h/../h/MemoryAllocator.hpp ****         static MemoryAllocator instance;
  32              		.loc 2 26 9
  33              		.loc 2 26 32 is_stmt 0
  34 001c 97070000 		lbu	a5,_ZGVZN15MemoryAllocator11getInstanceEvE8instance
  34      83C70700 
  35 0024 63980700 		bnez	a5,.L2
  36              	.LVL0:
  37 0028 93071000 		li	a5,1
  38 002c 17070000 		sb	a5,_ZGVZN15MemoryAllocator11getInstanceEvE8instance,a4
  38      2300F700 
  39              	.LVL1:
  40              	.L2:
  27:src/../h/../h/MemoryAllocator.hpp ****         return instance;
  41              		.loc 2 27 9 is_stmt 1
  42              	.LBE31:
  43              	.LBE30:
  44              	.LBB32:
  45              	.LBB33:
  28:src/../h/../h/MemoryAllocator.hpp ****     }
  29:src/../h/../h/MemoryAllocator.hpp **** 
  30:src/../h/../h/MemoryAllocator.hpp ****     static void init() {
  31:src/../h/../h/MemoryAllocator.hpp ****         // Initialize the free list
  32:src/../h/../h/MemoryAllocator.hpp **** 
  33:src/../h/../h/MemoryAllocator.hpp ****         // For testing purposes
  34:src/../h/../h/MemoryAllocator.hpp **** //        uint64 start = (uint64)((Block *) HEAP_START_ADDR);
  35:src/../h/../h/MemoryAllocator.hpp **** //        printInteger(start);
GAS LISTING /tmp/ccE6cq47.s 			page 3


  36:src/../h/../h/MemoryAllocator.hpp **** //        printString("\n");
  37:src/../h/../h/MemoryAllocator.hpp **** //        uint64 end = (uint64)((Block *) HEAP_END_ADDR);
  38:src/../h/../h/MemoryAllocator.hpp **** //        printInteger(end);
  39:src/../h/../h/MemoryAllocator.hpp **** //        printString("\n");
  40:src/../h/../h/MemoryAllocator.hpp **** 
  41:src/../h/../h/MemoryAllocator.hpp ****         free_list = (Block *) HEAP_START_ADDR;
  46              		.loc 2 41 9
  47              		.loc 2 41 19 is_stmt 0
  48 0034 97070000 		la	a5,HEAP_START_ADDR
  48      83B70700 
  49 003c 03B70700 		ld	a4,0(a5)
  50 0040 97060000 		la	a3,_ZN15MemoryAllocator9free_listE
  50      83B60600 
  51 0048 23B0E600 		sd	a4,0(a3)
  42:src/../h/../h/MemoryAllocator.hpp ****         free_list->size = (uint64 *) HEAP_END_ADDR - (uint64 *) HEAP_START_ADDR;
  52              		.loc 2 42 9 is_stmt 1
  53              		.loc 2 42 27 is_stmt 0
  54 004c 97070000 		la	a5,HEAP_END_ADDR
  54      83B70700 
  55 0054 83B70700 		ld	a5,0(a5)
  56              		.loc 2 42 52
  57 0058 B387E740 		sub	a5,a5,a4
  58 005c 93D73740 		srai	a5,a5,3
  59              		.loc 2 42 25
  60 0060 2330F700 		sd	a5,0(a4)
  43:src/../h/../h/MemoryAllocator.hpp ****         free_list->next = nullptr;
  61              		.loc 2 43 9 is_stmt 1
  62              		.loc 2 43 20 is_stmt 0
  63 0064 83B70600 		ld	a5,0(a3)
  64              		.loc 2 43 25
  65 0068 23B40700 		sd	zero,8(a5)
  44:src/../h/../h/MemoryAllocator.hpp ****         allocated_list = nullptr;
  66              		.loc 2 44 9 is_stmt 1
  67              		.loc 2 44 24 is_stmt 0
  68 006c 97070000 		la	a5,_ZN15MemoryAllocator14allocated_listE
  68      83B70700 
  69 0074 23B00700 		sd	zero,0(a5)
  70              	.LBE33:
  71              	.LBE32:
  34:src/main.cpp  **** 
  35:src/main.cpp  ****     Riscv::w_stvec((uint64) &Riscv::supervisorTrap+1);
  72              		.loc 1 35 5 is_stmt 1
  73              		.loc 1 35 19 is_stmt 0
  74 0078 97070000 		la	a5,_ZN5Riscv14supervisorTrapEv
  74      83B70700 
  75 0080 93871700 		addi	a5,a5,1
  76              	.LVL2:
  77              	.LBB34:
  78              	.LBB35:
  79              		.file 3 "src/../h/riscv.hpp"
   1:src/../h/riscv.hpp **** #ifndef PROJECT_BASE_V1_1_RISCV_HPP
   2:src/../h/riscv.hpp **** #define PROJECT_BASE_V1_1_RISCV_HPP
   3:src/../h/riscv.hpp **** 
   4:src/../h/riscv.hpp **** 
   5:src/../h/riscv.hpp **** #include "../h/MemoryAllocator.hpp"
   6:src/../h/riscv.hpp **** #include "PCB.hpp"
   7:src/../h/riscv.hpp **** 
GAS LISTING /tmp/ccE6cq47.s 			page 4


   8:src/../h/riscv.hpp **** 
   9:src/../h/riscv.hpp **** #define readUsrReg(reg, dst) __asm__ volatile("mv %0,"#reg : "=r" (dst));
  10:src/../h/riscv.hpp **** #define writeUsrReg(reg, src) __asm__ volatile("mv "#reg", %0" : : "r" (src));
  11:src/../h/riscv.hpp **** 
  12:src/../h/riscv.hpp **** 
  13:src/../h/riscv.hpp **** class Riscv
  14:src/../h/riscv.hpp **** {
  15:src/../h/riscv.hpp **** public:
  16:src/../h/riscv.hpp **** 
  17:src/../h/riscv.hpp **** 
  18:src/../h/riscv.hpp **** 
  19:src/../h/riscv.hpp ****     // pop sstatus.spp and sstatus.spie bits (has to be a non inline function)
  20:src/../h/riscv.hpp ****     static void popSppSpie();
  21:src/../h/riscv.hpp **** 
  22:src/../h/riscv.hpp ****     // push x3..x31 registers onto stack
  23:src/../h/riscv.hpp ****     static void pushRegisters();
  24:src/../h/riscv.hpp **** 
  25:src/../h/riscv.hpp ****     // pop x3..x31 registers onto stack
  26:src/../h/riscv.hpp ****     static void popRegisters();
  27:src/../h/riscv.hpp **** 
  28:src/../h/riscv.hpp ****     // read register scause
  29:src/../h/riscv.hpp ****     static uint64 r_scause();
  30:src/../h/riscv.hpp **** 
  31:src/../h/riscv.hpp ****     // write register scause
  32:src/../h/riscv.hpp ****     static void w_scause(uint64 scause);
  33:src/../h/riscv.hpp **** 
  34:src/../h/riscv.hpp ****     // read register sepc
  35:src/../h/riscv.hpp ****     static uint64 r_sepc();
  36:src/../h/riscv.hpp **** 
  37:src/../h/riscv.hpp ****     // write register sepc
  38:src/../h/riscv.hpp ****     static void w_sepc(uint64 sepc);
  39:src/../h/riscv.hpp **** 
  40:src/../h/riscv.hpp ****     // read register stvec
  41:src/../h/riscv.hpp ****     static uint64 r_stvec();
  42:src/../h/riscv.hpp **** 
  43:src/../h/riscv.hpp ****     // write register stvec
  44:src/../h/riscv.hpp ****     static void w_stvec(uint64 stvec);
  45:src/../h/riscv.hpp **** 
  46:src/../h/riscv.hpp ****     // read register stval
  47:src/../h/riscv.hpp ****     static uint64 r_stval();
  48:src/../h/riscv.hpp **** 
  49:src/../h/riscv.hpp ****     // write register stval
  50:src/../h/riscv.hpp ****     static void w_stval(uint64 stval);
  51:src/../h/riscv.hpp **** 
  52:src/../h/riscv.hpp ****     enum BitMaskSip
  53:src/../h/riscv.hpp ****     {
  54:src/../h/riscv.hpp **** //        SIP_SSIE = (1 << 1),
  55:src/../h/riscv.hpp **** //        SIP_STIE = (1 << 5),
  56:src/../h/riscv.hpp **** //        SIP_SEIE = (1 << 9),
  57:src/../h/riscv.hpp ****         SIP_SSIP = (1<<1),
  58:src/../h/riscv.hpp ****         SIP_SEIP = (1<<9)
  59:src/../h/riscv.hpp ****     };
  60:src/../h/riscv.hpp **** 
  61:src/../h/riscv.hpp ****     // mask set register sip
  62:src/../h/riscv.hpp ****     static void ms_sip(uint64 mask);
  63:src/../h/riscv.hpp **** 
  64:src/../h/riscv.hpp ****     // mask clear register sip
GAS LISTING /tmp/ccE6cq47.s 			page 5


  65:src/../h/riscv.hpp ****     static void mc_sip(uint64 mask);
  66:src/../h/riscv.hpp **** 
  67:src/../h/riscv.hpp ****     // read register sip
  68:src/../h/riscv.hpp ****     static uint64 r_sip();
  69:src/../h/riscv.hpp **** 
  70:src/../h/riscv.hpp ****     // write register sip
  71:src/../h/riscv.hpp ****     static void w_sip(uint64 sip);
  72:src/../h/riscv.hpp **** 
  73:src/../h/riscv.hpp ****     enum BitMaskSstatus
  74:src/../h/riscv.hpp ****     {
  75:src/../h/riscv.hpp ****         SSTATUS_SIE = (1 << 1),
  76:src/../h/riscv.hpp ****         SSTATUS_SPIE = (1 << 5),
  77:src/../h/riscv.hpp ****         SSTATUS_SPP = (1 << 8),
  78:src/../h/riscv.hpp ****     };
  79:src/../h/riscv.hpp **** 
  80:src/../h/riscv.hpp ****     // mask set register sstatus
  81:src/../h/riscv.hpp ****     static void ms_sstatus(uint64 mask);
  82:src/../h/riscv.hpp **** 
  83:src/../h/riscv.hpp ****     // mask clear register sstatus
  84:src/../h/riscv.hpp ****     static void mc_sstatus(uint64 mask);
  85:src/../h/riscv.hpp **** 
  86:src/../h/riscv.hpp ****     // read register sstatus
  87:src/../h/riscv.hpp ****     static uint64 r_sstatus();
  88:src/../h/riscv.hpp **** 
  89:src/../h/riscv.hpp ****     // write register sstatus
  90:src/../h/riscv.hpp ****     static void w_sstatus(uint64 sstatus);
  91:src/../h/riscv.hpp **** 
  92:src/../h/riscv.hpp ****     // mask set register sie
  93:src/../h/riscv.hpp ****     static void ms_sie(uint64 mask);
  94:src/../h/riscv.hpp **** 
  95:src/../h/riscv.hpp ****     // mask clear register sie
  96:src/../h/riscv.hpp ****     static void mc_sie(uint64 mask);
  97:src/../h/riscv.hpp **** 
  98:src/../h/riscv.hpp ****     static void supervisorTrap();
  99:src/../h/riscv.hpp **** 
 100:src/../h/riscv.hpp ****     static long r_a0();
 101:src/../h/riscv.hpp **** 
 102:src/../h/riscv.hpp ****     static void w_a0(long a0);
 103:src/../h/riscv.hpp **** 
 104:src/../h/riscv.hpp ****     static uint64 r_a1();
 105:src/../h/riscv.hpp **** 
 106:src/../h/riscv.hpp ****     static void w_a1(uint64 a1);
 107:src/../h/riscv.hpp **** 
 108:src/../h/riscv.hpp ****     static uint64 r_a2();
 109:src/../h/riscv.hpp **** 
 110:src/../h/riscv.hpp ****     static void w_a2(uint64 a1);
 111:src/../h/riscv.hpp **** 
 112:src/../h/riscv.hpp ****     static uint64 r_a3();
 113:src/../h/riscv.hpp **** 
 114:src/../h/riscv.hpp ****     static void w_a3(uint64 a1);
 115:src/../h/riscv.hpp **** 
 116:src/../h/riscv.hpp ****     static void push_a0(long a0);
 117:src/../h/riscv.hpp **** 
 118:src/../h/riscv.hpp **** private:
 119:src/../h/riscv.hpp ****     static void trapHandler();
 120:src/../h/riscv.hpp **** 
 121:src/../h/riscv.hpp **** 
GAS LISTING /tmp/ccE6cq47.s 			page 6


 122:src/../h/riscv.hpp **** };
 123:src/../h/riscv.hpp **** 
 124:src/../h/riscv.hpp **** inline uint64 Riscv::r_scause()
 125:src/../h/riscv.hpp **** {
 126:src/../h/riscv.hpp ****     uint64 volatile scause;
 127:src/../h/riscv.hpp ****     __asm__ volatile ("csrr %[scause], scause" : [scause] "=r"(scause));
 128:src/../h/riscv.hpp ****     return scause;
 129:src/../h/riscv.hpp **** }
 130:src/../h/riscv.hpp **** 
 131:src/../h/riscv.hpp **** inline void Riscv::w_scause(uint64 scause)
 132:src/../h/riscv.hpp **** {
 133:src/../h/riscv.hpp ****     __asm__ volatile ("csrw scause, %[scause]" : : [scause] "r"(scause));
 134:src/../h/riscv.hpp **** }
 135:src/../h/riscv.hpp **** 
 136:src/../h/riscv.hpp **** inline uint64 Riscv::r_sepc()
 137:src/../h/riscv.hpp **** {
 138:src/../h/riscv.hpp ****     uint64 volatile sepc;
 139:src/../h/riscv.hpp ****     __asm__ volatile ("csrr %[sepc], sepc" : [sepc] "=r"(sepc));
 140:src/../h/riscv.hpp ****     return sepc;
 141:src/../h/riscv.hpp **** }
 142:src/../h/riscv.hpp **** 
 143:src/../h/riscv.hpp **** inline void Riscv::w_sepc(uint64 sepc)
 144:src/../h/riscv.hpp **** {
 145:src/../h/riscv.hpp ****     __asm__ volatile ("csrw sepc, %[sepc]" : : [sepc] "r"(sepc));
 146:src/../h/riscv.hpp **** }
 147:src/../h/riscv.hpp **** 
 148:src/../h/riscv.hpp **** inline uint64 Riscv::r_stvec()
 149:src/../h/riscv.hpp **** {
 150:src/../h/riscv.hpp ****     uint64 volatile stvec;
 151:src/../h/riscv.hpp ****     __asm__ volatile ("csrr %[stvec], stvec" : [stvec] "=r"(stvec));
 152:src/../h/riscv.hpp ****     return stvec;
 153:src/../h/riscv.hpp **** }
 154:src/../h/riscv.hpp **** 
 155:src/../h/riscv.hpp **** inline void Riscv::w_stvec(uint64 stvec)
 156:src/../h/riscv.hpp **** {
 157:src/../h/riscv.hpp ****     __asm__ volatile ("csrw stvec, %[stvec]" : : [stvec] "r"(stvec));
  80              		.loc 3 157 5 is_stmt 1
  81              		.loc 3 157 69 is_stmt 0
  82              	#APP
  83              	# 157 "src/../h/riscv.hpp" 1
 158              	}
  84              		csrw stvec, a5
  85              	# 0 "" 2
  86              	.LVL3:
  87              	#NO_APP
  88              	.LBE35:
  89              	.LBE34:
  36:src/main.cpp  ****     Riscv::ms_sstatus(Riscv::SSTATUS_SIE);
  90              		.loc 1 36 5 is_stmt 1
  91              	.LBB36:
  92              	.LBB37:
 159:src/../h/riscv.hpp **** 
 160:src/../h/riscv.hpp **** inline uint64 Riscv::r_stval()
 161:src/../h/riscv.hpp **** {
 162:src/../h/riscv.hpp ****     uint64 volatile stval;
 163:src/../h/riscv.hpp ****     __asm__ volatile ("csrr %[stval], stval" : [stval] "=r"(stval));
 164:src/../h/riscv.hpp ****     return stval;
GAS LISTING /tmp/ccE6cq47.s 			page 7


 165:src/../h/riscv.hpp **** }
 166:src/../h/riscv.hpp **** 
 167:src/../h/riscv.hpp **** inline void Riscv::w_stval(uint64 stval)
 168:src/../h/riscv.hpp **** {
 169:src/../h/riscv.hpp ****     __asm__ volatile ("csrw stval, %[stval]" : : [stval] "r"(stval));
 170:src/../h/riscv.hpp **** }
 171:src/../h/riscv.hpp **** 
 172:src/../h/riscv.hpp **** inline void Riscv::ms_sip(uint64 mask)
 173:src/../h/riscv.hpp **** {
 174:src/../h/riscv.hpp ****     __asm__ volatile ("csrs sip, %[mask]" : : [mask] "r"(mask));
 175:src/../h/riscv.hpp **** }
 176:src/../h/riscv.hpp **** 
 177:src/../h/riscv.hpp **** inline void Riscv::mc_sip(uint64 mask)
 178:src/../h/riscv.hpp **** {
 179:src/../h/riscv.hpp ****     __asm__ volatile ("csrc sip, %[mask]" : : [mask] "r"(mask));
 180:src/../h/riscv.hpp **** }
 181:src/../h/riscv.hpp **** 
 182:src/../h/riscv.hpp **** inline uint64 Riscv::r_sip()
 183:src/../h/riscv.hpp **** {
 184:src/../h/riscv.hpp ****     uint64 volatile sip;
 185:src/../h/riscv.hpp ****     __asm__ volatile ("csrr %[sip], sip" : [sip] "=r"(sip));
 186:src/../h/riscv.hpp ****     return sip;
 187:src/../h/riscv.hpp **** }
 188:src/../h/riscv.hpp **** 
 189:src/../h/riscv.hpp **** inline void Riscv::w_sip(uint64 sip)
 190:src/../h/riscv.hpp **** {
 191:src/../h/riscv.hpp ****     __asm__ volatile ("csrw sip, %[sip]" : : [sip] "r"(sip));
 192:src/../h/riscv.hpp **** }
 193:src/../h/riscv.hpp **** 
 194:src/../h/riscv.hpp **** inline void Riscv::ms_sstatus(uint64 mask)
 195:src/../h/riscv.hpp **** {
 196:src/../h/riscv.hpp ****     __asm__ volatile ("csrs sstatus, %[mask]" : : [mask] "r"(mask));
  93              		.loc 3 196 5
  94              		.loc 3 196 68 is_stmt 0
  95 0088 93072000 		li	a5,2
  96              	#APP
  97              	# 196 "src/../h/riscv.hpp" 1
 197              	}
  98              		csrs sstatus, a5
  99              	# 0 "" 2
 100              	.LVL4:
 101              	#NO_APP
 102              	.LBE37:
 103              	.LBE36:
  37:src/main.cpp  **** 
  38:src/main.cpp  ****     A* a0 = new A();
 104              		.loc 1 38 5 is_stmt 1
 105              		.loc 1 38 19 is_stmt 0
 106 0090 13050001 		li	a0,16
 107 0094 97000000 		call	_Znwm@plt
 107      E7800000 
 108              	.LVL5:
 109 009c 93040500 		mv	s1,a0
 110 00a0 23200500 		sw	zero,0(a0)
 111 00a4 23340500 		sd	zero,8(a0)
 112              	.LVL6:
  39:src/main.cpp  ****     B* b0 = new B();
GAS LISTING /tmp/ccE6cq47.s 			page 8


 113              		.loc 1 39 5 is_stmt 1
 114              		.loc 1 39 19 is_stmt 0
 115 00a8 13050005 		li	a0,80
 116 00ac 97000000 		call	_Znwm@plt
 116      E7800000 
 117              	.LVL7:
 118 00b4 13090500 		mv	s2,a0
 119 00b8 23300500 		sd	zero,0(a0)
 120 00bc 23340500 		sd	zero,8(a0)
 121 00c0 23380500 		sd	zero,16(a0)
 122 00c4 233C0500 		sd	zero,24(a0)
 123 00c8 23300502 		sd	zero,32(a0)
 124 00cc 23340502 		sd	zero,40(a0)
 125 00d0 23380502 		sd	zero,48(a0)
 126 00d4 233C0502 		sd	zero,56(a0)
 127 00d8 23300504 		sd	zero,64(a0)
 128 00dc 23340504 		sd	zero,72(a0)
 129              	.LVL8:
  40:src/main.cpp  ****     A* a1 = new A();
 130              		.loc 1 40 5 is_stmt 1
 131              		.loc 1 40 19 is_stmt 0
 132 00e0 13050001 		li	a0,16
 133              	.LVL9:
 134 00e4 97000000 		call	_Znwm@plt
 134      E7800000 
 135              	.LVL10:
 136 00ec 93090500 		mv	s3,a0
 137 00f0 23340500 		sd	zero,8(a0)
 138              	.LVL11:
  41:src/main.cpp  ****     a0->a = 0;
 139              		.loc 1 41 5 is_stmt 1
 140              		.loc 1 41 11 is_stmt 0
 141 00f4 23A00400 		sw	zero,0(s1)
  42:src/main.cpp  ****     a1->a = 1;
 142              		.loc 1 42 5 is_stmt 1
 143              		.loc 1 42 11 is_stmt 0
 144 00f8 93071000 		li	a5,1
 145 00fc 2320F500 		sw	a5,0(a0)
  43:src/main.cpp  ****     b0->a = 10;
 146              		.loc 1 43 5 is_stmt 1
 147              		.loc 1 43 11 is_stmt 0
 148 0100 9307A000 		li	a5,10
 149 0104 2320F900 		sw	a5,0(s2)
  44:src/main.cpp  ****     delete(a0);
 150              		.loc 1 44 5 is_stmt 1
 151              		.loc 1 44 15 is_stmt 0
 152 0108 63880400 		beqz	s1,.L3
 153              		.loc 1 44 14 discriminator 1
 154 010c 13850400 		mv	a0,s1
 155              	.LVL12:
 156 0110 97000000 		call	_ZdlPv@plt
 156      E7800000 
 157              	.LVL13:
 158              	.L3:
  45:src/main.cpp  ****     B* b1 = new B();
 159              		.loc 1 45 5 is_stmt 1
 160              		.loc 1 45 19 is_stmt 0
GAS LISTING /tmp/ccE6cq47.s 			page 9


 161 0118 13050005 		li	a0,80
 162 011c 97000000 		call	_Znwm@plt
 162      E7800000 
 163              	.LVL14:
 164 0124 93040500 		mv	s1,a0
 165              	.LVL15:
 166 0128 23300500 		sd	zero,0(a0)
 167 012c 23340500 		sd	zero,8(a0)
 168 0130 23380500 		sd	zero,16(a0)
 169 0134 233C0500 		sd	zero,24(a0)
 170 0138 23300502 		sd	zero,32(a0)
 171 013c 23340502 		sd	zero,40(a0)
 172 0140 23380502 		sd	zero,48(a0)
 173 0144 233C0502 		sd	zero,56(a0)
 174 0148 23300504 		sd	zero,64(a0)
 175 014c 23340504 		sd	zero,72(a0)
 176              	.LVL16:
  46:src/main.cpp  ****     b1->a = 11;
 177              		.loc 1 46 5 is_stmt 1
 178              		.loc 1 46 11 is_stmt 0
 179 0150 9307B000 		li	a5,11
 180 0154 2320F500 		sw	a5,0(a0)
  47:src/main.cpp  ****     delete(a1);
 181              		.loc 1 47 5 is_stmt 1
 182              		.loc 1 47 15 is_stmt 0
 183 0158 63880900 		beqz	s3,.L4
 184              		.loc 1 47 14 discriminator 1
 185 015c 13850900 		mv	a0,s3
 186 0160 97000000 		call	_ZdlPv@plt
 186      E7800000 
 187              	.LVL17:
 188              	.L4:
  48:src/main.cpp  ****     delete(b0);
 189              		.loc 1 48 5 is_stmt 1
 190              		.loc 1 48 15 is_stmt 0
 191 0168 63080900 		beqz	s2,.L5
 192              		.loc 1 48 14 discriminator 1
 193 016c 13050900 		mv	a0,s2
 194 0170 97000000 		call	_ZdlPv@plt
 194      E7800000 
 195              	.LVL18:
 196              	.L5:
  49:src/main.cpp  ****     delete(b1);
 197              		.loc 1 49 5 is_stmt 1
 198              		.loc 1 49 15 is_stmt 0
 199 0178 63880400 		beqz	s1,.L6
 200              		.loc 1 49 14 discriminator 1
 201 017c 13850400 		mv	a0,s1
 202 0180 97000000 		call	_ZdlPv@plt
 202      E7800000 
 203              	.LVL19:
 204              	.L6:
  50:src/main.cpp  ****     C* c1 = new C(5);
 205              		.loc 1 50 5 is_stmt 1
 206              		.loc 1 50 20 is_stmt 0
 207 0188 13058000 		li	a0,8
 208 018c 97000000 		call	_Znwm@plt
GAS LISTING /tmp/ccE6cq47.s 			page 10


 208      E7800000 
 209              	.LVL20:
 210              	.LBB38:
 211              	.LBB39:
  24:src/main.cpp  ****     }
 212              		.loc 1 24 9 is_stmt 1
  24:src/main.cpp  ****     }
 213              		.loc 1 24 12 is_stmt 0
 214 0194 93075000 		li	a5,5
 215 0198 2330F500 		sd	a5,0(a0)
 216              	.LVL21:
 217              	.LBE39:
 218              	.LBE38:
  51:src/main.cpp  ****     delete c1;
 219              		.loc 1 51 5 is_stmt 1
 220              		.loc 1 51 14 is_stmt 0
 221 019c 63060500 		beqz	a0,.L7
 222              		.loc 1 51 12 discriminator 1
 223 01a0 97000000 		call	_ZdlPv@plt
 223      E7800000 
 224              	.LVL22:
 225              	.L7:
  52:src/main.cpp  **** 
  53:src/main.cpp  ****     PCB::running = PCB::createThread(nullptr, nullptr);
 226              		.loc 1 53 5 is_stmt 1
 227              		.loc 1 53 37 is_stmt 0
 228 01a8 93050000 		li	a1,0
 229 01ac 13050000 		li	a0,0
 230 01b0 97000000 		call	_ZN3PCB12createThreadEPFvPvES0_@plt
 230      E7800000 
 231              	.LVL23:
 232              		.loc 1 53 18
 233 01b8 97070000 		la	a5,_ZN3PCB7runningE
 233      83B70700 
 234 01c0 23B0A700 		sd	a0,0(a5)
  54:src/main.cpp  ****     PCB::running->setState(PCB::RUNNING);
 235              		.loc 1 54 5 is_stmt 1
 236              	.LVL24:
 237              	.LBB40:
 238              	.LBB41:
 239              		.file 4 "src/../h/PCB.hpp"
   1:src/../h/PCB.hpp **** #ifndef PROJECT_BASE_V1_1_PCB_HPP
   2:src/../h/PCB.hpp **** #define PROJECT_BASE_V1_1_PCB_HPP
   3:src/../h/PCB.hpp **** 
   4:src/../h/PCB.hpp **** 
   5:src/../h/PCB.hpp **** #include "Scheduler.hpp"
   6:src/../h/PCB.hpp **** #include "riscv.hpp"
   7:src/../h/PCB.hpp **** #include "../h/syscall_c.hpp"
   8:src/../h/PCB.hpp **** 
   9:src/../h/PCB.hpp **** 
  10:src/../h/PCB.hpp **** 
  11:src/../h/PCB.hpp **** 
  12:src/../h/PCB.hpp **** class PCB {
  13:src/../h/PCB.hpp **** public:
  14:src/../h/PCB.hpp **** 
  15:src/../h/PCB.hpp ****     struct Context
  16:src/../h/PCB.hpp ****     {
GAS LISTING /tmp/ccE6cq47.s 			page 11


  17:src/../h/PCB.hpp ****         uint64 ra;
  18:src/../h/PCB.hpp ****         uint64 sp;
  19:src/../h/PCB.hpp ****     };
  20:src/../h/PCB.hpp **** 
  21:src/../h/PCB.hpp ****     enum State{
  22:src/../h/PCB.hpp ****         READY,
  23:src/../h/PCB.hpp ****         RUNNING,
  24:src/../h/PCB.hpp ****         SUSPENDED,
  25:src/../h/PCB.hpp ****         FINISHED
  26:src/../h/PCB.hpp ****     };
  27:src/../h/PCB.hpp ****     ~PCB() { delete[] stack; }
  28:src/../h/PCB.hpp **** 
  29:src/../h/PCB.hpp ****     bool isFinished() const { return state==FINISHED; }
  30:src/../h/PCB.hpp **** 
  31:src/../h/PCB.hpp ****     void setState(State s) { state = s; }
 240              		.loc 4 31 30
 241              		.loc 4 31 36 is_stmt 0
 242 01c4 93071000 		li	a5,1
 243 01c8 2324F502 		sw	a5,40(a0)
 244              	.LVL25:
 245              	.LBE41:
 246              	.LBE40:
  55:src/main.cpp  **** 
  56:src/main.cpp  **** 
  57:src/main.cpp  ****     //printString("MAIN START\n");
  58:src/main.cpp  **** 
  59:src/main.cpp  **** //    thread_t t;
  60:src/main.cpp  **** //    thread_create(&t, (void (*)(void *))(userMain), nullptr);
  61:src/main.cpp  **** //
  62:src/main.cpp  **** //    while(!((PCB*)t)->isFinished()){
  63:src/main.cpp  **** //        thread_dispatch();
  64:src/main.cpp  **** //    }
  65:src/main.cpp  **** //
  66:src/main.cpp  **** //    delete (PCB*)t;
  67:src/main.cpp  **** //
  68:src/main.cpp  **** //    delete PCB::running;
  69:src/main.cpp  **** //
  70:src/main.cpp  **** ////    A* a0 = new A();
  71:src/main.cpp  **** ////    B* b0 = new B();
  72:src/main.cpp  **** ////    A* a1 = new A();
  73:src/main.cpp  **** ////    a0->a = 0;
  74:src/main.cpp  **** ////    a1->a = 1;
  75:src/main.cpp  **** ////    b0->a = 10;
  76:src/main.cpp  **** ////    delete(a0);
  77:src/main.cpp  **** ////    B* b1 = new B();
  78:src/main.cpp  **** ////    b1->a = 11;
  79:src/main.cpp  **** ////    delete(a1);
  80:src/main.cpp  **** ////    delete(b0);
  81:src/main.cpp  **** ////    delete(b1);
  82:src/main.cpp  **** //
  83:src/main.cpp  **** //
  84:src/main.cpp  **** //
  85:src/main.cpp  **** //    //printString("Finished\n");
  86:src/main.cpp  **** //
  87:src/main.cpp  ****     return 0;
 247              		.loc 1 87 5 is_stmt 1
  88:src/main.cpp  **** }
GAS LISTING /tmp/ccE6cq47.s 			page 12


 248              		.loc 1 88 1 is_stmt 0
 249 01cc 13050000 		li	a0,0
 250 01d0 83308102 		ld	ra,40(sp)
 251              		.cfi_restore 1
 252 01d4 03340102 		ld	s0,32(sp)
 253              		.cfi_restore 8
 254              		.cfi_def_cfa 2, 48
 255 01d8 83348101 		ld	s1,24(sp)
 256              		.cfi_restore 9
 257              	.LVL26:
 258 01dc 03390101 		ld	s2,16(sp)
 259              		.cfi_restore 18
 260              	.LVL27:
 261 01e0 83398100 		ld	s3,8(sp)
 262              		.cfi_restore 19
 263              	.LVL28:
 264 01e4 13010103 		addi	sp,sp,48
 265              		.cfi_def_cfa_offset 0
 266 01e8 67800000 		jr	ra
 267              		.cfi_endproc
 268              	.LFE51:
 270              		.weak	_ZGVZN15MemoryAllocator11getInstanceEvE8instance
 271              		.section	.bss._ZGVZN15MemoryAllocator11getInstanceEvE8instance,"awG",@nobits,_ZGVZN15MemoryAllocat
 272              		.align	3
 275              	_ZGVZN15MemoryAllocator11getInstanceEvE8instance:
 276 0000 00000000 		.zero	8
 276      00000000 
 277              		.text
 278              	.Letext0:
 279              		.file 5 "src/../h/../h/../lib/hw.h"
GAS LISTING /tmp/ccE6cq47.s 			page 13


DEFINED SYMBOLS
                            *ABS*:0000000000000000 main.cpp
     /tmp/ccE6cq47.s:9      .text:0000000000000000 main
     /tmp/ccE6cq47.s:13     .text:0000000000000000 .L0 
     /tmp/ccE6cq47.s:14     .text:0000000000000000 .L0 
     /tmp/ccE6cq47.s:15     .text:0000000000000004 .L0 
     /tmp/ccE6cq47.s:21     .text:0000000000000018 .L0 
     /tmp/ccE6cq47.s:22     .text:0000000000000018 .L0 
     /tmp/ccE6cq47.s:23     .text:0000000000000018 .L0 
     /tmp/ccE6cq47.s:24     .text:0000000000000018 .L0 
     /tmp/ccE6cq47.s:25     .text:0000000000000018 .L0 
     /tmp/ccE6cq47.s:27     .text:000000000000001c .L0 
     /tmp/ccE6cq47.s:32     .text:000000000000001c .L0 
     /tmp/ccE6cq47.s:33     .text:000000000000001c .L0 
     /tmp/ccE6cq47.s:275    .bss._ZGVZN15MemoryAllocator11getInstanceEvE8instance:0000000000000000 _ZGVZN15MemoryAllocator11getInstanceEvE8instance
     /tmp/ccE6cq47.s:34     .text:000000000000001c .L0 
     /tmp/ccE6cq47.s:46     .text:0000000000000034 .L0 
     /tmp/ccE6cq47.s:47     .text:0000000000000034 .L0 
     /tmp/ccE6cq47.s:48     .text:0000000000000034 .L0 
     /tmp/ccE6cq47.s:53     .text:000000000000004c .L0 
     /tmp/ccE6cq47.s:54     .text:000000000000004c .L0 
     /tmp/ccE6cq47.s:57     .text:0000000000000058 .L0 
     /tmp/ccE6cq47.s:60     .text:0000000000000060 .L0 
     /tmp/ccE6cq47.s:62     .text:0000000000000064 .L0 
     /tmp/ccE6cq47.s:63     .text:0000000000000064 .L0 
     /tmp/ccE6cq47.s:65     .text:0000000000000068 .L0 
     /tmp/ccE6cq47.s:67     .text:000000000000006c .L0 
     /tmp/ccE6cq47.s:68     .text:000000000000006c .L0 
     /tmp/ccE6cq47.s:73     .text:0000000000000078 .L0 
     /tmp/ccE6cq47.s:74     .text:0000000000000078 .L0 
     /tmp/ccE6cq47.s:81     .text:0000000000000084 .L0 
  src/../h/riscv.hpp:157    .text:0000000000000084 .L0 
     /tmp/ccE6cq47.s:93     .text:0000000000000088 .L0 
     /tmp/ccE6cq47.s:94     .text:0000000000000088 .L0 
     /tmp/ccE6cq47.s:95     .text:0000000000000088 .L0 
     /tmp/ccE6cq47.s:105    .text:0000000000000090 .L0 
     /tmp/ccE6cq47.s:106    .text:0000000000000090 .L0 
     /tmp/ccE6cq47.s:114    .text:00000000000000a8 .L0 
     /tmp/ccE6cq47.s:115    .text:00000000000000a8 .L0 
     /tmp/ccE6cq47.s:131    .text:00000000000000e0 .L0 
     /tmp/ccE6cq47.s:132    .text:00000000000000e0 .L0 
     /tmp/ccE6cq47.s:140    .text:00000000000000f4 .L0 
     /tmp/ccE6cq47.s:141    .text:00000000000000f4 .L0 
     /tmp/ccE6cq47.s:143    .text:00000000000000f8 .L0 
     /tmp/ccE6cq47.s:144    .text:00000000000000f8 .L0 
     /tmp/ccE6cq47.s:147    .text:0000000000000100 .L0 
     /tmp/ccE6cq47.s:148    .text:0000000000000100 .L0 
     /tmp/ccE6cq47.s:151    .text:0000000000000108 .L0 
     /tmp/ccE6cq47.s:152    .text:0000000000000108 .L0 
     /tmp/ccE6cq47.s:154    .text:000000000000010c .L0 
     /tmp/ccE6cq47.s:160    .text:0000000000000118 .L0 
     /tmp/ccE6cq47.s:161    .text:0000000000000118 .L0 
     /tmp/ccE6cq47.s:178    .text:0000000000000150 .L0 
     /tmp/ccE6cq47.s:179    .text:0000000000000150 .L0 
     /tmp/ccE6cq47.s:182    .text:0000000000000158 .L0 
     /tmp/ccE6cq47.s:183    .text:0000000000000158 .L0 
     /tmp/ccE6cq47.s:185    .text:000000000000015c .L0 
GAS LISTING /tmp/ccE6cq47.s 			page 14


     /tmp/ccE6cq47.s:190    .text:0000000000000168 .L0 
     /tmp/ccE6cq47.s:191    .text:0000000000000168 .L0 
     /tmp/ccE6cq47.s:193    .text:000000000000016c .L0 
     /tmp/ccE6cq47.s:198    .text:0000000000000178 .L0 
     /tmp/ccE6cq47.s:199    .text:0000000000000178 .L0 
     /tmp/ccE6cq47.s:201    .text:000000000000017c .L0 
     /tmp/ccE6cq47.s:206    .text:0000000000000188 .L0 
     /tmp/ccE6cq47.s:207    .text:0000000000000188 .L0 
     /tmp/ccE6cq47.s:213    .text:0000000000000194 .L0 
     /tmp/ccE6cq47.s:214    .text:0000000000000194 .L0 
     /tmp/ccE6cq47.s:220    .text:000000000000019c .L0 
     /tmp/ccE6cq47.s:221    .text:000000000000019c .L0 
     /tmp/ccE6cq47.s:223    .text:00000000000001a0 .L0 
     /tmp/ccE6cq47.s:227    .text:00000000000001a8 .L0 
     /tmp/ccE6cq47.s:228    .text:00000000000001a8 .L0 
     /tmp/ccE6cq47.s:233    .text:00000000000001b8 .L0 
     /tmp/ccE6cq47.s:240    .text:00000000000001c4 .L0 
     /tmp/ccE6cq47.s:241    .text:00000000000001c4 .L0 
     /tmp/ccE6cq47.s:242    .text:00000000000001c4 .L0 
     /tmp/ccE6cq47.s:248    .text:00000000000001cc .L0 
     /tmp/ccE6cq47.s:249    .text:00000000000001cc .L0 
     /tmp/ccE6cq47.s:251    .text:00000000000001d4 .L0 
     /tmp/ccE6cq47.s:253    .text:00000000000001d8 .L0 
     /tmp/ccE6cq47.s:254    .text:00000000000001d8 .L0 
     /tmp/ccE6cq47.s:256    .text:00000000000001dc .L0 
     /tmp/ccE6cq47.s:259    .text:00000000000001e0 .L0 
     /tmp/ccE6cq47.s:262    .text:00000000000001e4 .L0 
     /tmp/ccE6cq47.s:265    .text:00000000000001e8 .L0 
     /tmp/ccE6cq47.s:267    .text:00000000000001ec .L0 
     /tmp/ccE6cq47.s:280    .text:00000000000001ec .L0 
     /tmp/ccE6cq47.s:34     .text:000000000000001c .L0 
     /tmp/ccE6cq47.s:38     .text:000000000000002c .L0 
     /tmp/ccE6cq47.s:48     .text:0000000000000034 .L0 
     /tmp/ccE6cq47.s:50     .text:0000000000000040 .L0 
     /tmp/ccE6cq47.s:54     .text:000000000000004c .L0 
     /tmp/ccE6cq47.s:68     .text:000000000000006c .L0 
     /tmp/ccE6cq47.s:74     .text:0000000000000078 .L0 
     /tmp/ccE6cq47.s:233    .text:00000000000001b8 .L0 
     /tmp/ccE6cq47.s:40     .text:0000000000000034 .L2
     /tmp/ccE6cq47.s:158    .text:0000000000000118 .L3
     /tmp/ccE6cq47.s:188    .text:0000000000000168 .L4
     /tmp/ccE6cq47.s:196    .text:0000000000000178 .L5
     /tmp/ccE6cq47.s:204    .text:0000000000000188 .L6
     /tmp/ccE6cq47.s:225    .text:00000000000001a8 .L7
     /tmp/ccE6cq47.s:1613   .debug_abbrev:0000000000000000 .Ldebug_abbrev0
     /tmp/ccE6cq47.s:2983   .debug_str:00000000000006d1 .LASF148
     /tmp/ccE6cq47.s:2809   .debug_str:000000000000022b .LASF149
     /tmp/ccE6cq47.s:2987   .debug_str:00000000000007a9 .LASF150
     /tmp/ccE6cq47.s:5      .text:0000000000000000 .Ltext0
     /tmp/ccE6cq47.s:278    .text:00000000000001ec .Letext0
     /tmp/ccE6cq47.s:2733   .debug_line:0000000000000000 .Ldebug_line0
     /tmp/ccE6cq47.s:2831   .debug_str:00000000000002cd .LASF0
     /tmp/ccE6cq47.s:2865   .debug_str:00000000000003b7 .LASF1
     /tmp/ccE6cq47.s:2925   .debug_str:0000000000000571 .LASF2
     /tmp/ccE6cq47.s:2935   .debug_str:00000000000005b9 .LASF4
     /tmp/ccE6cq47.s:2843   .debug_str:0000000000000327 .LASF3
     /tmp/ccE6cq47.s:2739   .debug_str:0000000000000015 .LASF5
GAS LISTING /tmp/ccE6cq47.s 			page 15


     /tmp/ccE6cq47.s:2909   .debug_str:00000000000004fa .LASF6
     /tmp/ccE6cq47.s:2859   .debug_str:000000000000038c .LASF7
     /tmp/ccE6cq47.s:2817   .debug_str:0000000000000249 .LASF8
     /tmp/ccE6cq47.s:2821   .debug_str:0000000000000279 .LASF9
     /tmp/ccE6cq47.s:2767   .debug_str:00000000000000f2 .LASF10
     /tmp/ccE6cq47.s:2807   .debug_str:000000000000021c .LASF11
     /tmp/ccE6cq47.s:2777   .debug_str:000000000000012c .LASF12
     /tmp/ccE6cq47.s:2765   .debug_str:00000000000000e2 .LASF13
     /tmp/ccE6cq47.s:2967   .debug_str:0000000000000680 .LASF14
     /tmp/ccE6cq47.s:2795   .debug_str:00000000000001c0 .LASF15
     /tmp/ccE6cq47.s:2955   .debug_str:000000000000062c .LASF16
     /tmp/ccE6cq47.s:2851   .debug_str:000000000000036b .LASF129
     /tmp/ccE6cq47.s:2863   .debug_str:00000000000003b2 .LASF17
     /tmp/ccE6cq47.s:2769   .debug_str:0000000000000101 .LASF18
     /tmp/ccE6cq47.s:2905   .debug_str:00000000000004d9 .LASF27
     /tmp/ccE6cq47.s:2747   .debug_str:0000000000000056 .LASF70
     /tmp/ccE6cq47.s:2999   .debug_str:000000000000080b .LASF19
     /tmp/ccE6cq47.s:2959   .debug_str:000000000000064c .LASF20
     /tmp/ccE6cq47.s:3029   .debug_str:00000000000008aa .LASF45
     /tmp/ccE6cq47.s:2881   .debug_str:000000000000042a .LASF47
     /tmp/ccE6cq47.s:2751   .debug_str:0000000000000097 .LASF41
     /tmp/ccE6cq47.s:3041   .debug_str:0000000000000918 .LASF43
     /tmp/ccE6cq47.s:3047   .debug_str:0000000000000949 .LASF21
     /tmp/ccE6cq47.s:2819   .debug_str:0000000000000259 .LASF23
     /tmp/ccE6cq47.s:2877   .debug_str:0000000000000409 .LASF22
     /tmp/ccE6cq47.s:2901   .debug_str:00000000000004ad .LASF24
     /tmp/ccE6cq47.s:2847   .debug_str:000000000000034a .LASF35
     /tmp/ccE6cq47.s:2927   .debug_str:000000000000057f .LASF25
     /tmp/ccE6cq47.s:3003   .debug_str:000000000000081a .LASF26
     /tmp/ccE6cq47.s:2971   .debug_str:000000000000069e .LASF151
     /tmp/ccE6cq47.s:2977   .debug_str:00000000000006b6 .LASF56
     /tmp/ccE6cq47.s:2761   .debug_str:00000000000000c9 .LASF28
     /tmp/ccE6cq47.s:2945   .debug_str:00000000000005f9 .LASF29
     /tmp/ccE6cq47.s:2773   .debug_str:0000000000000119 .LASF30
     /tmp/ccE6cq47.s:2757   .debug_str:00000000000000af .LASF31
     /tmp/ccE6cq47.s:3015   .debug_str:000000000000085d .LASF32
     /tmp/ccE6cq47.s:3039   .debug_str:000000000000090c .LASF33
     /tmp/ccE6cq47.s:2973   .debug_str:00000000000006a6 .LASF34
     /tmp/ccE6cq47.s:3021   .debug_str:000000000000086c .LASF36
     /tmp/ccE6cq47.s:2933   .debug_str:00000000000005b0 .LASF37
     /tmp/ccE6cq47.s:2839   .debug_str:0000000000000301 .LASF38
     /tmp/ccE6cq47.s:2965   .debug_str:0000000000000673 .LASF39
     /tmp/ccE6cq47.s:3033   .debug_str:00000000000008cc .LASF40
     /tmp/ccE6cq47.s:2897   .debug_str:0000000000000497 .LASF152
     /tmp/ccE6cq47.s:2787   .debug_str:0000000000000197 .LASF42
     /tmp/ccE6cq47.s:2745   .debug_str:0000000000000043 .LASF44
     /tmp/ccE6cq47.s:2949   .debug_str:0000000000000607 .LASF46
     /tmp/ccE6cq47.s:2931   .debug_str:00000000000005a1 .LASF48
     /tmp/ccE6cq47.s:2979   .debug_str:00000000000006bc .LASF153
     /tmp/ccE6cq47.s:2779   .debug_str:000000000000013c .LASF154
     /tmp/ccE6cq47.s:2749   .debug_str:000000000000006f .LASF155
     /tmp/ccE6cq47.s:3005   .debug_str:0000000000000836 .LASF124
     /tmp/ccE6cq47.s:2969   .debug_str:000000000000068c .LASF126
     /tmp/ccE6cq47.s:2793   .debug_str:00000000000001ac .LASF133
     /tmp/ccE6cq47.s:2735   .debug_str:0000000000000000 .LASF49
     /tmp/ccE6cq47.s:2947   .debug_str:0000000000000601 .LASF50
     /tmp/ccE6cq47.s:3001   .debug_str:0000000000000815 .LASF51
GAS LISTING /tmp/ccE6cq47.s 			page 16


     /tmp/ccE6cq47.s:2989   .debug_str:00000000000007cc .LASF52
     /tmp/ccE6cq47.s:2789   .debug_str:00000000000001a0 .LASF53
     /tmp/ccE6cq47.s:2875   .debug_str:0000000000000404 .LASF54
     /tmp/ccE6cq47.s:3011   .debug_str:000000000000084d .LASF55
     /tmp/ccE6cq47.s:2799   .debug_str:00000000000001f1 .LASF57
     /tmp/ccE6cq47.s:2803   .debug_str:000000000000020a .LASF58
     /tmp/ccE6cq47.s:2981   .debug_str:00000000000006c4 .LASF59
     /tmp/ccE6cq47.s:2783   .debug_str:0000000000000179 .LASF60
     /tmp/ccE6cq47.s:2823   .debug_str:0000000000000287 .LASF61
     /tmp/ccE6cq47.s:2827   .debug_str:00000000000002a4 .LASF62
     /tmp/ccE6cq47.s:2941   .debug_str:00000000000005da .LASF63
     /tmp/ccE6cq47.s:2797   .debug_str:00000000000001d6 .LASF64
     /tmp/ccE6cq47.s:2833   .debug_str:00000000000002da .LASF65
     /tmp/ccE6cq47.s:3025   .debug_str:0000000000000888 .LASF66
     /tmp/ccE6cq47.s:2997   .debug_str:0000000000000802 .LASF67
     /tmp/ccE6cq47.s:2991   .debug_str:00000000000007d4 .LASF68
     /tmp/ccE6cq47.s:2921   .debug_str:000000000000055d .LASF69
     /tmp/ccE6cq47.s:2893   .debug_str:000000000000047b .LASF71
     /tmp/ccE6cq47.s:2913   .debug_str:0000000000000517 .LASF72
     /tmp/ccE6cq47.s:2917   .debug_str:0000000000000536 .LASF73
     /tmp/ccE6cq47.s:2887   .debug_str:000000000000045b .LASF74
     /tmp/ccE6cq47.s:2861   .debug_str:000000000000039f .LASF75
     /tmp/ccE6cq47.s:3027   .debug_str:00000000000008a2 .LASF76
     /tmp/ccE6cq47.s:2985   .debug_str:0000000000000795 .LASF77
     /tmp/ccE6cq47.s:2885   .debug_str:0000000000000453 .LASF78
     /tmp/ccE6cq47.s:2891   .debug_str:0000000000000467 .LASF79
     /tmp/ccE6cq47.s:2869   .debug_str:00000000000003e3 .LASF80
     /tmp/ccE6cq47.s:2919   .debug_str:0000000000000549 .LASF81
     /tmp/ccE6cq47.s:3045   .debug_str:0000000000000941 .LASF82
     /tmp/ccE6cq47.s:2837   .debug_str:00000000000002ed .LASF83
     /tmp/ccE6cq47.s:2961   .debug_str:000000000000065b .LASF84
     /tmp/ccE6cq47.s:2937   .debug_str:00000000000005c0 .LASF85
     /tmp/ccE6cq47.s:2939   .debug_str:00000000000005d3 .LASF86
     /tmp/ccE6cq47.s:2771   .debug_str:0000000000000106 .LASF87
     /tmp/ccE6cq47.s:2791   .debug_str:00000000000001a6 .LASF88
     /tmp/ccE6cq47.s:2825   .debug_str:0000000000000292 .LASF89
     /tmp/ccE6cq47.s:2835   .debug_str:00000000000002e7 .LASF90
     /tmp/ccE6cq47.s:2785   .debug_str:0000000000000185 .LASF91
     /tmp/ccE6cq47.s:2741   .debug_str:000000000000001c .LASF92
     /tmp/ccE6cq47.s:2929   .debug_str:0000000000000589 .LASF93
     /tmp/ccE6cq47.s:2923   .debug_str:0000000000000566 .LASF94
     /tmp/ccE6cq47.s:2915   .debug_str:000000000000051e .LASF95
     /tmp/ccE6cq47.s:3013   .debug_str:0000000000000853 .LASF96
     /tmp/ccE6cq47.s:3031   .debug_str:00000000000008b6 .LASF97
     /tmp/ccE6cq47.s:3009   .debug_str:0000000000000843 .LASF98
     /tmp/ccE6cq47.s:2879   .debug_str:0000000000000414 .LASF99
     /tmp/ccE6cq47.s:2951   .debug_str:000000000000060c .LASF100
     /tmp/ccE6cq47.s:2873   .debug_str:00000000000003f1 .LASF101
     /tmp/ccE6cq47.s:2815   .debug_str:0000000000000242 .LASF102
     /tmp/ccE6cq47.s:2763   .debug_str:00000000000000cf .LASF103
     /tmp/ccE6cq47.s:2995   .debug_str:00000000000007f3 .LASF104
     /tmp/ccE6cq47.s:2743   .debug_str:0000000000000027 .LASF105
     /tmp/ccE6cq47.s:3017   .debug_str:0000000000000862 .LASF106
     /tmp/ccE6cq47.s:2899   .debug_str:000000000000049c .LASF107
     /tmp/ccE6cq47.s:2849   .debug_str:0000000000000366 .LASF108
     /tmp/ccE6cq47.s:2963   .debug_str:0000000000000662 .LASF109
     /tmp/ccE6cq47.s:3019   .debug_str:0000000000000867 .LASF110
GAS LISTING /tmp/ccE6cq47.s 			page 17


     /tmp/ccE6cq47.s:2845   .debug_str:0000000000000339 .LASF111
     /tmp/ccE6cq47.s:2883   .debug_str:000000000000044e .LASF112
     /tmp/ccE6cq47.s:2907   .debug_str:00000000000004e9 .LASF113
     /tmp/ccE6cq47.s:2889   .debug_str:0000000000000462 .LASF114
     /tmp/ccE6cq47.s:2759   .debug_str:00000000000000b8 .LASF115
     /tmp/ccE6cq47.s:2853   .debug_str:0000000000000371 .LASF116
     /tmp/ccE6cq47.s:2857   .debug_str:000000000000037b .LASF117
     /tmp/ccE6cq47.s:3023   .debug_str:0000000000000883 .LASF118
     /tmp/ccE6cq47.s:2829   .debug_str:00000000000002bc .LASF119
     /tmp/ccE6cq47.s:2855   .debug_str:0000000000000376 .LASF120
     /tmp/ccE6cq47.s:2943   .debug_str:00000000000005e8 .LASF121
     /tmp/ccE6cq47.s:2903   .debug_str:00000000000004d1 .LASF122
     /tmp/ccE6cq47.s:3035   .debug_str:00000000000008ec .LASF123
     /tmp/ccE6cq47.s:3037   .debug_str:0000000000000900 .LASF125
     /tmp/ccE6cq47.s:2867   .debug_str:00000000000003ca .LASF127
     /tmp/ccE6cq47.s:2753   .debug_str:000000000000009c .LASF128
     /tmp/ccE6cq47.s:2957   .debug_str:0000000000000642 .LASF130
     /tmp/ccE6cq47.s:2841   .debug_str:000000000000031d .LASF131
     /tmp/ccE6cq47.s:2975   .debug_str:00000000000006b1 .LASF132
     /tmp/ccE6cq47.s:2911   .debug_str:000000000000050d .LASF134
     /tmp/ccE6cq47.s:2813   .debug_str:000000000000023d .LASF135
     /tmp/ccE6cq47.s:10     .text:0000000000000000 .LFB51
     /tmp/ccE6cq47.s:268    .text:00000000000001ec .LFE51
     /tmp/ccE6cq47.s:2632   .debug_loc:0000000000000000 .LLST0
     /tmp/ccE6cq47.s:2639   .debug_loc:0000000000000023 .LLST1
     /tmp/ccE6cq47.s:2650   .debug_loc:0000000000000059 .LLST2
     /tmp/ccE6cq47.s:2661   .debug_loc:000000000000008f .LLST3
     /tmp/ccE6cq47.s:2668   .debug_loc:00000000000000b2 .LLST4
     /tmp/ccE6cq47.s:29     .text:000000000000001c .LBB30
     /tmp/ccE6cq47.s:43     .text:0000000000000034 .LBE30
     /tmp/ccE6cq47.s:44     .text:0000000000000034 .LBB32
     /tmp/ccE6cq47.s:71     .text:0000000000000078 .LBE32
     /tmp/ccE6cq47.s:77     .text:0000000000000084 .LBB34
     /tmp/ccE6cq47.s:89     .text:0000000000000088 .LBE34
     /tmp/ccE6cq47.s:2675   .debug_loc:00000000000000d5 .LLST5
     /tmp/ccE6cq47.s:91     .text:0000000000000088 .LBB36
     /tmp/ccE6cq47.s:103    .text:0000000000000090 .LBE36
     /tmp/ccE6cq47.s:2682   .debug_loc:00000000000000f8 .LLST6
     /tmp/ccE6cq47.s:210    .text:0000000000000194 .LBB38
     /tmp/ccE6cq47.s:218    .text:000000000000019c .LBE38
     /tmp/ccE6cq47.s:2690   .debug_loc:000000000000011c .LLST7
     /tmp/ccE6cq47.s:2698   .debug_loc:0000000000000140 .LLST8
     /tmp/ccE6cq47.s:237    .text:00000000000001c4 .LBB40
     /tmp/ccE6cq47.s:246    .text:00000000000001cc .LBE40
     /tmp/ccE6cq47.s:2705   .debug_loc:0000000000000163 .LLST9
     /tmp/ccE6cq47.s:2713   .debug_loc:0000000000000187 .LLST10
     /tmp/ccE6cq47.s:108    .text:000000000000009c .LVL5
     /tmp/ccE6cq47.s:117    .text:00000000000000b4 .LVL7
     /tmp/ccE6cq47.s:135    .text:00000000000000ec .LVL10
     /tmp/ccE6cq47.s:157    .text:0000000000000118 .LVL13
     /tmp/ccE6cq47.s:163    .text:0000000000000124 .LVL14
     /tmp/ccE6cq47.s:187    .text:0000000000000168 .LVL17
     /tmp/ccE6cq47.s:195    .text:0000000000000178 .LVL18
     /tmp/ccE6cq47.s:203    .text:0000000000000188 .LVL19
     /tmp/ccE6cq47.s:209    .text:0000000000000194 .LVL20
     /tmp/ccE6cq47.s:224    .text:00000000000001a8 .LVL22
     /tmp/ccE6cq47.s:231    .text:00000000000001b8 .LVL23
GAS LISTING /tmp/ccE6cq47.s 			page 18


     /tmp/ccE6cq47.s:2811   .debug_str:0000000000000238 .LASF136
     /tmp/ccE6cq47.s:2993   .debug_str:00000000000007e9 .LASF137
     /tmp/ccE6cq47.s:2755   .debug_str:00000000000000a5 .LASF138
     /tmp/ccE6cq47.s:2801   .debug_str:0000000000000200 .LASF139
     /tmp/ccE6cq47.s:3007   .debug_str:000000000000083e .LASF140
     /tmp/ccE6cq47.s:2871   .debug_str:00000000000003eb .LASF141
     /tmp/ccE6cq47.s:2775   .debug_str:0000000000000123 .LASF142
     /tmp/ccE6cq47.s:2781   .debug_str:000000000000014a .LASF156
     /tmp/ccE6cq47.s:2953   .debug_str:0000000000000613 .LASF143
     /tmp/ccE6cq47.s:2805   .debug_str:0000000000000216 .LASF144
     /tmp/ccE6cq47.s:3043   .debug_str:0000000000000934 .LASF146
     /tmp/ccE6cq47.s:2895   .debug_str:0000000000000490 .LASF145
     /tmp/ccE6cq47.s:2737   .debug_str:0000000000000005 .LASF147
     /tmp/ccE6cq47.s:112    .text:00000000000000a8 .LVL6
     /tmp/ccE6cq47.s:165    .text:0000000000000128 .LVL15
     /tmp/ccE6cq47.s:129    .text:00000000000000e0 .LVL8
     /tmp/ccE6cq47.s:133    .text:00000000000000e4 .LVL9
     /tmp/ccE6cq47.s:260    .text:00000000000001e0 .LVL27
     /tmp/ccE6cq47.s:138    .text:00000000000000f4 .LVL11
     /tmp/ccE6cq47.s:155    .text:0000000000000110 .LVL12
     /tmp/ccE6cq47.s:263    .text:00000000000001e4 .LVL28
     /tmp/ccE6cq47.s:176    .text:0000000000000150 .LVL16
     /tmp/ccE6cq47.s:257    .text:00000000000001dc .LVL26
     /tmp/ccE6cq47.s:216    .text:000000000000019c .LVL21
     /tmp/ccE6cq47.s:76     .text:0000000000000084 .LVL2
     /tmp/ccE6cq47.s:86     .text:0000000000000088 .LVL3
     /tmp/ccE6cq47.s:100    .text:0000000000000090 .LVL4
     /tmp/ccE6cq47.s:236    .text:00000000000001c4 .LVL24
     /tmp/ccE6cq47.s:244    .text:00000000000001cc .LVL25
     /tmp/ccE6cq47.s:281    .debug_info:0000000000000000 .Ldebug_info0

UNDEFINED SYMBOLS
HEAP_START_ADDR
_ZN15MemoryAllocator9free_listE
HEAP_END_ADDR
_ZN15MemoryAllocator14allocated_listE
_ZN5Riscv14supervisorTrapEv
_Znwm
_ZdlPv
_ZN3PCB12createThreadEPFvPvES0_
_ZN3PCB7runningE
