GAS LISTING /tmp/ccapaTpE.s 			page 1


   1              		.file	"main.cpp"
   2              		.option pic
   3              		.option norelax
   4              		.text
   5              	.Ltext0:
   6              		.align	2
   7              		.globl	_Z7createCm
   9              	_Z7createCm:
  10              	.LFB55:
  11              		.file 1 "src/main.cpp"
   1:src/main.cpp  **** 
   2:src/main.cpp  **** #include "../h/riscv.hpp"
   3:src/main.cpp  **** #include "../h/syscall_c.hpp"
   4:src/main.cpp  **** #include "../h/print.hpp"
   5:src/main.cpp  **** #include "../h/PCB.hpp"
   6:src/main.cpp  **** #include "../h/syscall_cpp.hpp"
   7:src/main.cpp  **** 
   8:src/main.cpp  **** 
   9:src/main.cpp  **** struct A {
  10:src/main.cpp  ****     int a;
  11:src/main.cpp  ****     int* b = nullptr;
  12:src/main.cpp  **** };
  13:src/main.cpp  **** 
  14:src/main.cpp  **** struct B {
  15:src/main.cpp  ****     int a;
  16:src/main.cpp  ****     int* b = nullptr;
  17:src/main.cpp  ****     long c;
  18:src/main.cpp  ****     char d[50];
  19:src/main.cpp  **** };
  20:src/main.cpp  **** 
  21:src/main.cpp  **** class C{
  22:src/main.cpp  **** private:
  23:src/main.cpp  ****     uint64 num;
  24:src/main.cpp  **** 
  25:src/main.cpp  **** public:
  26:src/main.cpp  **** 
  27:src/main.cpp  ****     C(uint64 n){
  28:src/main.cpp  ****         num = n;
  29:src/main.cpp  ****     }
  30:src/main.cpp  **** 
  31:src/main.cpp  **** 
  32:src/main.cpp  **** 
  33:src/main.cpp  **** 
  34:src/main.cpp  **** };
  35:src/main.cpp  **** 
  36:src/main.cpp  **** C* createC(uint64 n){
  12              		.loc 1 36 21
  13              		.cfi_startproc
  14              	.LVL0:
  15 0000 130101FE 		addi	sp,sp,-32
  16              		.cfi_def_cfa_offset 32
  17 0004 233C1100 		sd	ra,24(sp)
  18 0008 23388100 		sd	s0,16(sp)
  19 000c 23349100 		sd	s1,8(sp)
  20              		.cfi_offset 1, -8
  21              		.cfi_offset 8, -16
  22              		.cfi_offset 9, -24
GAS LISTING /tmp/ccapaTpE.s 			page 2


  23 0010 13040102 		addi	s0,sp,32
  24              		.cfi_def_cfa 8, 0
  25 0014 93040500 		mv	s1,a0
  37:src/main.cpp  ****     return new C(n);
  26              		.loc 1 37 5
  27              		.loc 1 37 19 is_stmt 0
  28 0018 13058000 		li	a0,8
  29              	.LVL1:
  30 001c 97000000 		call	_Znwm@plt
  30      E7800000 
  31              	.LVL2:
  32              	.LBB29:
  33              	.LBB30:
  28:src/main.cpp  ****     }
  34              		.loc 1 28 9 is_stmt 1
  28:src/main.cpp  ****     }
  35              		.loc 1 28 13 is_stmt 0
  36 0024 23309500 		sd	s1,0(a0)
  37              	.LVL3:
  38              	.LBE30:
  39              	.LBE29:
  38:src/main.cpp  **** }
  40              		.loc 1 38 1
  41 0028 83308101 		ld	ra,24(sp)
  42              		.cfi_restore 1
  43 002c 03340101 		ld	s0,16(sp)
  44              		.cfi_restore 8
  45              		.cfi_def_cfa 2, 32
  46 0030 83348100 		ld	s1,8(sp)
  47              		.cfi_restore 9
  48              	.LVL4:
  49 0034 13010102 		addi	sp,sp,32
  50              		.cfi_def_cfa_offset 0
  51 0038 67800000 		jr	ra
  52              		.cfi_endproc
  53              	.LFE55:
  55              		.align	2
  56              		.globl	main
  58              	main:
  59              	.LFB56:
  39:src/main.cpp  **** 
  40:src/main.cpp  **** extern void userMain();
  41:src/main.cpp  **** 
  42:src/main.cpp  **** int main() {
  60              		.loc 1 42 12 is_stmt 1
  61              		.cfi_startproc
  62              		.cfi_personality 0x9b,DW.ref.__gxx_personality_v0
  63              		.cfi_lsda 0x1b,.LLSDA56
  64 003c 130101FD 		addi	sp,sp,-48
  65              		.cfi_def_cfa_offset 48
  66 0040 23341102 		sd	ra,40(sp)
  67 0044 23308102 		sd	s0,32(sp)
  68 0048 233C9100 		sd	s1,24(sp)
  69 004c 23382101 		sd	s2,16(sp)
  70 0050 23343101 		sd	s3,8(sp)
  71              		.cfi_offset 1, -8
  72              		.cfi_offset 8, -16
GAS LISTING /tmp/ccapaTpE.s 			page 3


  73              		.cfi_offset 9, -24
  74              		.cfi_offset 18, -32
  75              		.cfi_offset 19, -40
  76 0054 13040103 		addi	s0,sp,48
  77              		.cfi_def_cfa 8, 0
  43:src/main.cpp  **** 
  44:src/main.cpp  **** 
  45:src/main.cpp  ****     MemoryAllocator::getInstance().init();
  78              		.loc 1 45 5
  79              	.LBB31:
  80              	.LBB32:
  81              		.file 2 "src/../h/../h/MemoryAllocator.hpp"
   1:src/../h/../h/MemoryAllocator.hpp **** #ifndef PROJECT_BASE_V1_1_MEMORYALLOCATOR_HPP
   2:src/../h/../h/MemoryAllocator.hpp **** #define PROJECT_BASE_V1_1_MEMORYALLOCATOR_HPP
   3:src/../h/../h/MemoryAllocator.hpp **** #include "print.hpp"
   4:src/../h/../h/MemoryAllocator.hpp **** 
   5:src/../h/../h/MemoryAllocator.hpp **** struct Block {
   6:src/../h/../h/MemoryAllocator.hpp ****     size_t size;
   7:src/../h/../h/MemoryAllocator.hpp ****     Block *next;
   8:src/../h/../h/MemoryAllocator.hpp **** };
   9:src/../h/../h/MemoryAllocator.hpp **** 
  10:src/../h/../h/MemoryAllocator.hpp **** class MemoryAllocator {
  11:src/../h/../h/MemoryAllocator.hpp **** 
  12:src/../h/../h/MemoryAllocator.hpp **** private:
  13:src/../h/../h/MemoryAllocator.hpp **** 
  14:src/../h/../h/MemoryAllocator.hpp **** 
  15:src/../h/../h/MemoryAllocator.hpp ****     MemoryAllocator() {}
  16:src/../h/../h/MemoryAllocator.hpp **** 
  17:src/../h/../h/MemoryAllocator.hpp ****     static Block *free_list;
  18:src/../h/../h/MemoryAllocator.hpp ****     static Block *allocated_list;
  19:src/../h/../h/MemoryAllocator.hpp **** 
  20:src/../h/../h/MemoryAllocator.hpp **** 
  21:src/../h/../h/MemoryAllocator.hpp **** public:
  22:src/../h/../h/MemoryAllocator.hpp **** 
  23:src/../h/../h/MemoryAllocator.hpp **** 
  24:src/../h/../h/MemoryAllocator.hpp ****     // Get the singleton instance
  25:src/../h/../h/MemoryAllocator.hpp ****     static MemoryAllocator &getInstance() {
  26:src/../h/../h/MemoryAllocator.hpp ****         static MemoryAllocator instance;
  82              		.loc 2 26 9
  83              		.loc 2 26 32 is_stmt 0
  84 0058 97070000 		lbu	a5,_ZGVZN15MemoryAllocator11getInstanceEvE8instance
  84      83C70700 
  85 0060 63980700 		bnez	a5,.L4
  86              	.LVL5:
  87 0064 93071000 		li	a5,1
  88 0068 17070000 		sb	a5,_ZGVZN15MemoryAllocator11getInstanceEvE8instance,a4
  88      2300F700 
  89              	.LVL6:
  90              	.L4:
  27:src/../h/../h/MemoryAllocator.hpp ****         return instance;
  91              		.loc 2 27 9 is_stmt 1
  92              	.LBE32:
  93              	.LBE31:
  94              	.LBB33:
  95              	.LBB34:
  28:src/../h/../h/MemoryAllocator.hpp ****     }
  29:src/../h/../h/MemoryAllocator.hpp **** 
GAS LISTING /tmp/ccapaTpE.s 			page 4


  30:src/../h/../h/MemoryAllocator.hpp ****     static void init() {
  31:src/../h/../h/MemoryAllocator.hpp ****         // Initialize the free list
  32:src/../h/../h/MemoryAllocator.hpp **** 
  33:src/../h/../h/MemoryAllocator.hpp ****         // For testing purposes
  34:src/../h/../h/MemoryAllocator.hpp **** //        uint64 start = (uint64)((Block *) HEAP_START_ADDR);
  35:src/../h/../h/MemoryAllocator.hpp **** //        printInteger(start);
  36:src/../h/../h/MemoryAllocator.hpp **** //        printString("\n");
  37:src/../h/../h/MemoryAllocator.hpp **** //        uint64 end = (uint64)((Block *) HEAP_END_ADDR);
  38:src/../h/../h/MemoryAllocator.hpp **** //        printInteger(end);
  39:src/../h/../h/MemoryAllocator.hpp **** //        printString("\n");
  40:src/../h/../h/MemoryAllocator.hpp **** 
  41:src/../h/../h/MemoryAllocator.hpp ****         free_list = (Block *) HEAP_START_ADDR;
  96              		.loc 2 41 9
  97              		.loc 2 41 19 is_stmt 0
  98 0070 97070000 		la	a5,HEAP_START_ADDR
  98      83B70700 
  99 0078 03B70700 		ld	a4,0(a5)
 100 007c 97060000 		la	a3,_ZN15MemoryAllocator9free_listE
 100      83B60600 
 101 0084 23B0E600 		sd	a4,0(a3)
  42:src/../h/../h/MemoryAllocator.hpp ****         free_list->size = (uint64 *) HEAP_END_ADDR - (uint64 *) HEAP_START_ADDR;
 102              		.loc 2 42 9 is_stmt 1
 103              		.loc 2 42 27 is_stmt 0
 104 0088 97070000 		la	a5,HEAP_END_ADDR
 104      83B70700 
 105 0090 83B70700 		ld	a5,0(a5)
 106              		.loc 2 42 52
 107 0094 B387E740 		sub	a5,a5,a4
 108 0098 93D73740 		srai	a5,a5,3
 109              		.loc 2 42 25
 110 009c 2330F700 		sd	a5,0(a4)
  43:src/../h/../h/MemoryAllocator.hpp ****         free_list->next = nullptr;
 111              		.loc 2 43 9 is_stmt 1
 112              		.loc 2 43 20 is_stmt 0
 113 00a0 83B70600 		ld	a5,0(a3)
 114              		.loc 2 43 25
 115 00a4 23B40700 		sd	zero,8(a5)
  44:src/../h/../h/MemoryAllocator.hpp ****         allocated_list = nullptr;
 116              		.loc 2 44 9 is_stmt 1
 117              		.loc 2 44 24 is_stmt 0
 118 00a8 97070000 		la	a5,_ZN15MemoryAllocator14allocated_listE
 118      83B70700 
 119 00b0 23B00700 		sd	zero,0(a5)
 120              	.LBE34:
 121              	.LBE33:
  46:src/main.cpp  ****     Riscv::w_stvec((uint64) &Riscv::supervisorTrap+1);
 122              		.loc 1 46 5 is_stmt 1
 123              		.loc 1 46 19 is_stmt 0
 124 00b4 97070000 		la	a5,_ZN5Riscv14supervisorTrapEv
 124      83B70700 
 125 00bc 93871700 		addi	a5,a5,1
 126              	.LVL7:
 127              	.LBB35:
 128              	.LBB36:
 129              		.file 3 "src/../h/riscv.hpp"
   1:src/../h/riscv.hpp **** #ifndef PROJECT_BASE_V1_1_RISCV_HPP
   2:src/../h/riscv.hpp **** #define PROJECT_BASE_V1_1_RISCV_HPP
GAS LISTING /tmp/ccapaTpE.s 			page 5


   3:src/../h/riscv.hpp **** 
   4:src/../h/riscv.hpp **** 
   5:src/../h/riscv.hpp **** #include "../h/MemoryAllocator.hpp"
   6:src/../h/riscv.hpp **** #include "PCB.hpp"
   7:src/../h/riscv.hpp **** 
   8:src/../h/riscv.hpp **** 
   9:src/../h/riscv.hpp **** #define readUsrReg(reg, dst) __asm__ volatile("mv %0,"#reg : "=r" (dst));
  10:src/../h/riscv.hpp **** #define writeUsrReg(reg, src) __asm__ volatile("mv "#reg", %0" : : "r" (src));
  11:src/../h/riscv.hpp **** 
  12:src/../h/riscv.hpp **** 
  13:src/../h/riscv.hpp **** class Riscv
  14:src/../h/riscv.hpp **** {
  15:src/../h/riscv.hpp **** public:
  16:src/../h/riscv.hpp **** 
  17:src/../h/riscv.hpp **** 
  18:src/../h/riscv.hpp **** 
  19:src/../h/riscv.hpp ****     // pop sstatus.spp and sstatus.spie bits (has to be a non inline function)
  20:src/../h/riscv.hpp ****     static void popSppSpie();
  21:src/../h/riscv.hpp **** 
  22:src/../h/riscv.hpp ****     // push x3..x31 registers onto stack
  23:src/../h/riscv.hpp ****     static void pushRegisters();
  24:src/../h/riscv.hpp **** 
  25:src/../h/riscv.hpp ****     // pop x3..x31 registers onto stack
  26:src/../h/riscv.hpp ****     static void popRegisters();
  27:src/../h/riscv.hpp **** 
  28:src/../h/riscv.hpp ****     // read register scause
  29:src/../h/riscv.hpp ****     static uint64 r_scause();
  30:src/../h/riscv.hpp **** 
  31:src/../h/riscv.hpp ****     // write register scause
  32:src/../h/riscv.hpp ****     static void w_scause(uint64 scause);
  33:src/../h/riscv.hpp **** 
  34:src/../h/riscv.hpp ****     // read register sepc
  35:src/../h/riscv.hpp ****     static uint64 r_sepc();
  36:src/../h/riscv.hpp **** 
  37:src/../h/riscv.hpp ****     // write register sepc
  38:src/../h/riscv.hpp ****     static void w_sepc(uint64 sepc);
  39:src/../h/riscv.hpp **** 
  40:src/../h/riscv.hpp ****     // read register stvec
  41:src/../h/riscv.hpp ****     static uint64 r_stvec();
  42:src/../h/riscv.hpp **** 
  43:src/../h/riscv.hpp ****     // write register stvec
  44:src/../h/riscv.hpp ****     static void w_stvec(uint64 stvec);
  45:src/../h/riscv.hpp **** 
  46:src/../h/riscv.hpp ****     // read register stval
  47:src/../h/riscv.hpp ****     static uint64 r_stval();
  48:src/../h/riscv.hpp **** 
  49:src/../h/riscv.hpp ****     // write register stval
  50:src/../h/riscv.hpp ****     static void w_stval(uint64 stval);
  51:src/../h/riscv.hpp **** 
  52:src/../h/riscv.hpp ****     enum BitMaskSip
  53:src/../h/riscv.hpp ****     {
  54:src/../h/riscv.hpp **** //        SIP_SSIE = (1 << 1),
  55:src/../h/riscv.hpp **** //        SIP_STIE = (1 << 5),
  56:src/../h/riscv.hpp **** //        SIP_SEIE = (1 << 9),
  57:src/../h/riscv.hpp ****         SIP_SSIP = (1<<1),
  58:src/../h/riscv.hpp ****         SIP_SEIP = (1<<9)
  59:src/../h/riscv.hpp ****     };
GAS LISTING /tmp/ccapaTpE.s 			page 6


  60:src/../h/riscv.hpp **** 
  61:src/../h/riscv.hpp ****     // mask set register sip
  62:src/../h/riscv.hpp ****     static void ms_sip(uint64 mask);
  63:src/../h/riscv.hpp **** 
  64:src/../h/riscv.hpp ****     // mask clear register sip
  65:src/../h/riscv.hpp ****     static void mc_sip(uint64 mask);
  66:src/../h/riscv.hpp **** 
  67:src/../h/riscv.hpp ****     // read register sip
  68:src/../h/riscv.hpp ****     static uint64 r_sip();
  69:src/../h/riscv.hpp **** 
  70:src/../h/riscv.hpp ****     // write register sip
  71:src/../h/riscv.hpp ****     static void w_sip(uint64 sip);
  72:src/../h/riscv.hpp **** 
  73:src/../h/riscv.hpp ****     enum BitMaskSstatus
  74:src/../h/riscv.hpp ****     {
  75:src/../h/riscv.hpp ****         SSTATUS_SIE = (1 << 1),
  76:src/../h/riscv.hpp ****         SSTATUS_SPIE = (1 << 5),
  77:src/../h/riscv.hpp ****         SSTATUS_SPP = (1 << 8),
  78:src/../h/riscv.hpp ****     };
  79:src/../h/riscv.hpp **** 
  80:src/../h/riscv.hpp ****     // mask set register sstatus
  81:src/../h/riscv.hpp ****     static void ms_sstatus(uint64 mask);
  82:src/../h/riscv.hpp **** 
  83:src/../h/riscv.hpp ****     // mask clear register sstatus
  84:src/../h/riscv.hpp ****     static void mc_sstatus(uint64 mask);
  85:src/../h/riscv.hpp **** 
  86:src/../h/riscv.hpp ****     // read register sstatus
  87:src/../h/riscv.hpp ****     static uint64 r_sstatus();
  88:src/../h/riscv.hpp **** 
  89:src/../h/riscv.hpp ****     // write register sstatus
  90:src/../h/riscv.hpp ****     static void w_sstatus(uint64 sstatus);
  91:src/../h/riscv.hpp **** 
  92:src/../h/riscv.hpp ****     // mask set register sie
  93:src/../h/riscv.hpp ****     static void ms_sie(uint64 mask);
  94:src/../h/riscv.hpp **** 
  95:src/../h/riscv.hpp ****     // mask clear register sie
  96:src/../h/riscv.hpp ****     static void mc_sie(uint64 mask);
  97:src/../h/riscv.hpp **** 
  98:src/../h/riscv.hpp ****     static void supervisorTrap();
  99:src/../h/riscv.hpp **** 
 100:src/../h/riscv.hpp ****     static long r_a0();
 101:src/../h/riscv.hpp **** 
 102:src/../h/riscv.hpp ****     static void w_a0(long a0);
 103:src/../h/riscv.hpp **** 
 104:src/../h/riscv.hpp ****     static uint64 r_a1();
 105:src/../h/riscv.hpp **** 
 106:src/../h/riscv.hpp ****     static void w_a1(uint64 a1);
 107:src/../h/riscv.hpp **** 
 108:src/../h/riscv.hpp ****     static uint64 r_a2();
 109:src/../h/riscv.hpp **** 
 110:src/../h/riscv.hpp ****     static void w_a2(uint64 a1);
 111:src/../h/riscv.hpp **** 
 112:src/../h/riscv.hpp ****     static uint64 r_a3();
 113:src/../h/riscv.hpp **** 
 114:src/../h/riscv.hpp ****     static void w_a3(uint64 a1);
 115:src/../h/riscv.hpp **** 
 116:src/../h/riscv.hpp ****     static void push_a0(long a0);
GAS LISTING /tmp/ccapaTpE.s 			page 7


 117:src/../h/riscv.hpp **** 
 118:src/../h/riscv.hpp **** private:
 119:src/../h/riscv.hpp ****     static void trapHandler();
 120:src/../h/riscv.hpp **** 
 121:src/../h/riscv.hpp **** 
 122:src/../h/riscv.hpp **** };
 123:src/../h/riscv.hpp **** 
 124:src/../h/riscv.hpp **** inline uint64 Riscv::r_scause()
 125:src/../h/riscv.hpp **** {
 126:src/../h/riscv.hpp ****     uint64 volatile scause;
 127:src/../h/riscv.hpp ****     __asm__ volatile ("csrr %[scause], scause" : [scause] "=r"(scause));
 128:src/../h/riscv.hpp ****     return scause;
 129:src/../h/riscv.hpp **** }
 130:src/../h/riscv.hpp **** 
 131:src/../h/riscv.hpp **** inline void Riscv::w_scause(uint64 scause)
 132:src/../h/riscv.hpp **** {
 133:src/../h/riscv.hpp ****     __asm__ volatile ("csrw scause, %[scause]" : : [scause] "r"(scause));
 134:src/../h/riscv.hpp **** }
 135:src/../h/riscv.hpp **** 
 136:src/../h/riscv.hpp **** inline uint64 Riscv::r_sepc()
 137:src/../h/riscv.hpp **** {
 138:src/../h/riscv.hpp ****     uint64 volatile sepc;
 139:src/../h/riscv.hpp ****     __asm__ volatile ("csrr %[sepc], sepc" : [sepc] "=r"(sepc));
 140:src/../h/riscv.hpp ****     return sepc;
 141:src/../h/riscv.hpp **** }
 142:src/../h/riscv.hpp **** 
 143:src/../h/riscv.hpp **** inline void Riscv::w_sepc(uint64 sepc)
 144:src/../h/riscv.hpp **** {
 145:src/../h/riscv.hpp ****     __asm__ volatile ("csrw sepc, %[sepc]" : : [sepc] "r"(sepc));
 146:src/../h/riscv.hpp **** }
 147:src/../h/riscv.hpp **** 
 148:src/../h/riscv.hpp **** inline uint64 Riscv::r_stvec()
 149:src/../h/riscv.hpp **** {
 150:src/../h/riscv.hpp ****     uint64 volatile stvec;
 151:src/../h/riscv.hpp ****     __asm__ volatile ("csrr %[stvec], stvec" : [stvec] "=r"(stvec));
 152:src/../h/riscv.hpp ****     return stvec;
 153:src/../h/riscv.hpp **** }
 154:src/../h/riscv.hpp **** 
 155:src/../h/riscv.hpp **** inline void Riscv::w_stvec(uint64 stvec)
 156:src/../h/riscv.hpp **** {
 157:src/../h/riscv.hpp ****     __asm__ volatile ("csrw stvec, %[stvec]" : : [stvec] "r"(stvec));
 130              		.loc 3 157 5 is_stmt 1
 131              		.loc 3 157 69 is_stmt 0
 132              	#APP
 133              	# 157 "src/../h/riscv.hpp" 1
 158              	}
 134              		csrw stvec, a5
 135              	# 0 "" 2
 136              	.LVL8:
 137              	#NO_APP
 138              	.LBE36:
 139              	.LBE35:
  47:src/main.cpp  ****     PCB* pcb = new PCB(nullptr, nullptr, nullptr);
 140              		.loc 1 47 5 is_stmt 1
 141              		.loc 1 47 49 is_stmt 0
 142 00c4 13058003 		li	a0,56
 143              	.LEHB0:
GAS LISTING /tmp/ccapaTpE.s 			page 8


 144 00c8 97000000 		call	_Znwm@plt
 144      E7800000 
 145              	.LVL9:
 146              	.LEHE0:
 147 00d0 13090500 		mv	s2,a0
 148 00d4 93060000 		li	a3,0
 149 00d8 13060000 		li	a2,0
 150 00dc 93050000 		li	a1,0
 151              	.LEHB1:
 152 00e0 97000000 		call	_ZN3PCBC1EPFvPvES0_Pm@plt
 152      E7800000 
 153              	.LVL10:
 154              	.LEHE1:
  48:src/main.cpp  ****     PCB::running=pcb;
 155              		.loc 1 48 5 is_stmt 1 discriminator 2
 156              		.loc 1 48 17 is_stmt 0 discriminator 2
 157 00e8 97070000 		la	a5,_ZN3PCB7runningE
 157      83B70700 
 158 00f0 23B02701 		sd	s2,0(a5)
  49:src/main.cpp  ****     pcb->setState(PCB::RUNNING);
 159              		.loc 1 49 5 is_stmt 1 discriminator 2
 160              	.LVL11:
 161              	.LBB37:
 162              	.LBB38:
 163              		.file 4 "src/../h/PCB.hpp"
   1:src/../h/PCB.hpp **** #ifndef PROJECT_BASE_V1_1_PCB_HPP
   2:src/../h/PCB.hpp **** #define PROJECT_BASE_V1_1_PCB_HPP
   3:src/../h/PCB.hpp **** 
   4:src/../h/PCB.hpp **** 
   5:src/../h/PCB.hpp **** #include "Scheduler.hpp"
   6:src/../h/PCB.hpp **** #include "riscv.hpp"
   7:src/../h/PCB.hpp **** #include "../h/syscall_c.hpp"
   8:src/../h/PCB.hpp **** 
   9:src/../h/PCB.hpp **** class Sem;
  10:src/../h/PCB.hpp **** 
  11:src/../h/PCB.hpp **** class PCB {
  12:src/../h/PCB.hpp **** public:
  13:src/../h/PCB.hpp ****     struct Context {
  14:src/../h/PCB.hpp ****         uint64 ra;
  15:src/../h/PCB.hpp ****         uint64 sp;
  16:src/../h/PCB.hpp ****     };
  17:src/../h/PCB.hpp **** 
  18:src/../h/PCB.hpp ****     enum State {
  19:src/../h/PCB.hpp ****         READY,
  20:src/../h/PCB.hpp ****         RUNNING,
  21:src/../h/PCB.hpp ****         SUSPENDED,
  22:src/../h/PCB.hpp ****         FINISHED
  23:src/../h/PCB.hpp ****     };
  24:src/../h/PCB.hpp **** 
  25:src/../h/PCB.hpp ****     ~PCB() { delete[] stack; }
  26:src/../h/PCB.hpp **** 
  27:src/../h/PCB.hpp ****     bool isFinished() const { return state == FINISHED; }
  28:src/../h/PCB.hpp **** 
  29:src/../h/PCB.hpp ****     void setState(State s) { state = s; }
 164              		.loc 4 29 30 discriminator 2
 165              		.loc 4 29 36 is_stmt 0 discriminator 2
 166 00f4 93071000 		li	a5,1
GAS LISTING /tmp/ccapaTpE.s 			page 9


 167 00f8 2328F902 		sw	a5,48(s2)
 168              	.LVL12:
 169              	.LBE38:
 170              	.LBE37:
  50:src/main.cpp  ****     Riscv::ms_sstatus(Riscv::SSTATUS_SIE);
 171              		.loc 1 50 5 is_stmt 1 discriminator 2
 172              	.LBB39:
 173              	.LBB40:
 159:src/../h/riscv.hpp **** 
 160:src/../h/riscv.hpp **** inline uint64 Riscv::r_stval()
 161:src/../h/riscv.hpp **** {
 162:src/../h/riscv.hpp ****     uint64 volatile stval;
 163:src/../h/riscv.hpp ****     __asm__ volatile ("csrr %[stval], stval" : [stval] "=r"(stval));
 164:src/../h/riscv.hpp ****     return stval;
 165:src/../h/riscv.hpp **** }
 166:src/../h/riscv.hpp **** 
 167:src/../h/riscv.hpp **** inline void Riscv::w_stval(uint64 stval)
 168:src/../h/riscv.hpp **** {
 169:src/../h/riscv.hpp ****     __asm__ volatile ("csrw stval, %[stval]" : : [stval] "r"(stval));
 170:src/../h/riscv.hpp **** }
 171:src/../h/riscv.hpp **** 
 172:src/../h/riscv.hpp **** inline void Riscv::ms_sip(uint64 mask)
 173:src/../h/riscv.hpp **** {
 174:src/../h/riscv.hpp ****     __asm__ volatile ("csrs sip, %[mask]" : : [mask] "r"(mask));
 175:src/../h/riscv.hpp **** }
 176:src/../h/riscv.hpp **** 
 177:src/../h/riscv.hpp **** inline void Riscv::mc_sip(uint64 mask)
 178:src/../h/riscv.hpp **** {
 179:src/../h/riscv.hpp ****     __asm__ volatile ("csrc sip, %[mask]" : : [mask] "r"(mask));
 180:src/../h/riscv.hpp **** }
 181:src/../h/riscv.hpp **** 
 182:src/../h/riscv.hpp **** inline uint64 Riscv::r_sip()
 183:src/../h/riscv.hpp **** {
 184:src/../h/riscv.hpp ****     uint64 volatile sip;
 185:src/../h/riscv.hpp ****     __asm__ volatile ("csrr %[sip], sip" : [sip] "=r"(sip));
 186:src/../h/riscv.hpp ****     return sip;
 187:src/../h/riscv.hpp **** }
 188:src/../h/riscv.hpp **** 
 189:src/../h/riscv.hpp **** inline void Riscv::w_sip(uint64 sip)
 190:src/../h/riscv.hpp **** {
 191:src/../h/riscv.hpp ****     __asm__ volatile ("csrw sip, %[sip]" : : [sip] "r"(sip));
 192:src/../h/riscv.hpp **** }
 193:src/../h/riscv.hpp **** 
 194:src/../h/riscv.hpp **** inline void Riscv::ms_sstatus(uint64 mask)
 195:src/../h/riscv.hpp **** {
 196:src/../h/riscv.hpp ****     __asm__ volatile ("csrs sstatus, %[mask]" : : [mask] "r"(mask));
 174              		.loc 3 196 5 discriminator 2
 175              		.loc 3 196 68 is_stmt 0 discriminator 2
 176 00fc 93072000 		li	a5,2
 177              	#APP
 178              	# 196 "src/../h/riscv.hpp" 1
 197              	}
 179              		csrs sstatus, a5
 180              	# 0 "" 2
 181              	.LVL13:
 182              	#NO_APP
 183              	.LBE40:
GAS LISTING /tmp/ccapaTpE.s 			page 10


 184              	.LBE39:
  51:src/main.cpp  **** 
  52:src/main.cpp  ****     switchToUserMode();
 185              		.loc 1 52 5 is_stmt 1 discriminator 2
 186              	.LEHB2:
 187              		.loc 1 52 21 is_stmt 0 discriminator 2
 188 0104 97000000 		call	_Z16switchToUserModev@plt
 188      E7800000 
 189              	.LVL14:
  53:src/main.cpp  **** 
  54:src/main.cpp  ****     uint64* stack = (uint64*)MemoryAllocator::getInstance().allocate(((DEFAULT_STACK_SIZE + 16+ MEM
 190              		.loc 1 54 5 is_stmt 1 discriminator 2
 191              	.LBB41:
 192              	.LBB42:
  26:src/../h/../h/MemoryAllocator.hpp ****         return instance;
 193              		.loc 2 26 9 discriminator 2
  26:src/../h/../h/MemoryAllocator.hpp ****         return instance;
 194              		.loc 2 26 32 is_stmt 0 discriminator 2
 195 010c 97070000 		lbu	a5,_ZGVZN15MemoryAllocator11getInstanceEvE8instance
 195      83C70700 
 196 0114 63980700 		bnez	a5,.L5
 197              	.LVL15:
  26:src/../h/../h/MemoryAllocator.hpp ****         return instance;
 198              		.loc 2 26 32
 199 0118 93071000 		li	a5,1
 200 011c 17070000 		sb	a5,_ZGVZN15MemoryAllocator11getInstanceEvE8instance,a4
 200      2300F700 
 201              	.LVL16:
 202              	.L5:
  27:src/../h/../h/MemoryAllocator.hpp ****     }
 203              		.loc 2 27 9 is_stmt 1
 204              	.LBE42:
 205              	.LBE41:
 206              		.loc 1 54 134 is_stmt 0
 207 0124 13051004 		li	a0,65
 208 0128 97000000 		call	_ZN15MemoryAllocator8allocateEm@plt
 208      E7800000 
 209              	.LVL17:
 210 0130 93090500 		mv	s3,a0
 211              	.LVL18:
  55:src/main.cpp  ****     PCB* usrT = new PCB((void (*)(void *))(userMain), nullptr, stack);
 212              		.loc 1 55 5 is_stmt 1
 213              		.loc 1 55 69 is_stmt 0
 214 0134 13058003 		li	a0,56
 215              	.LVL19:
 216 0138 97000000 		call	_Znwm@plt
 216      E7800000 
 217              	.LVL20:
 218              	.LEHE2:
 219 0140 93040500 		mv	s1,a0
 220 0144 93860900 		mv	a3,s3
 221 0148 13060000 		li	a2,0
 222 014c 97050000 		la	a1,_Z8userMainv
 222      83B50500 
 223              	.LEHB3:
 224 0154 97000000 		call	_ZN3PCBC1EPFvPvES0_Pm@plt
 224      E7800000 
GAS LISTING /tmp/ccapaTpE.s 			page 11


 225              	.LVL21:
 226              	.LEHE3:
  56:src/main.cpp  ****     Scheduler::put(usrT);
 227              		.loc 1 56 5 is_stmt 1 discriminator 2
 228              		.loc 1 56 19 is_stmt 0 discriminator 2
 229 015c 13850400 		mv	a0,s1
 230              	.LEHB4:
 231 0160 97000000 		call	_ZN9Scheduler3putEP3PCB@plt
 231      E7800000 
 232              	.LVL22:
 233              	.L7:
  57:src/main.cpp  **** 
  58:src/main.cpp  **** 
  59:src/main.cpp  ****     while (!usrT->isFinished()){
 234              		.loc 1 59 5 is_stmt 1
 235              		.loc 1 59 12
 236              	.LBB43:
 237              	.LBB44:
  27:src/../h/PCB.hpp **** 
 238              		.loc 4 27 31
  27:src/../h/PCB.hpp **** 
 239              		.loc 4 27 38 is_stmt 0
 240 0168 03A70403 		lw	a4,48(s1)
 241              	.LVL23:
 242              	.LBE44:
 243              	.LBE43:
 244              		.loc 1 59 12
 245 016c 93073000 		li	a5,3
 246 0170 6308F700 		beq	a4,a5,.L6
  60:src/main.cpp  ****         thread_dispatch();
 247              		.loc 1 60 9 is_stmt 1
 248              		.loc 1 60 24 is_stmt 0
 249 0174 97000000 		call	_Z15thread_dispatchv@plt
 249      E7800000 
 250              	.LVL24:
  59:src/main.cpp  ****         thread_dispatch();
 251              		.loc 1 59 5
 252 017c 6FF0DFFE 		j	.L7
 253              	.L6:
  61:src/main.cpp  ****     }
  62:src/main.cpp  **** 
  63:src/main.cpp  **** 
  64:src/main.cpp  ****     delete usrT;
 254              		.loc 1 64 5 is_stmt 1
 255              		.loc 1 64 16 is_stmt 0
 256 0180 63800402 		beqz	s1,.L8
 257              	.LVL25:
 258              	.LBB45:
 259              	.LBB46:
  25:src/../h/PCB.hpp **** 
 260              		.loc 4 25 14 is_stmt 1
  25:src/../h/PCB.hpp **** 
 261              		.loc 4 25 23 is_stmt 0
 262 0184 03B50401 		ld	a0,16(s1)
  25:src/../h/PCB.hpp **** 
 263              		.loc 4 25 28
 264 0188 63060500 		beqz	a0,.L9
GAS LISTING /tmp/ccapaTpE.s 			page 12


  25:src/../h/PCB.hpp **** 
 265              		.loc 4 25 23
 266 018c 97000000 		call	_ZdaPv@plt
 266      E7800000 
 267              	.LVL26:
 268              	.L9:
 269              	.LBE46:
 270              	.LBE45:
 271              		.loc 1 64 12
 272 0194 13850400 		mv	a0,s1
 273 0198 97000000 		call	_ZdlPv@plt
 273      E7800000 
 274              	.LVL27:
 275              	.L8:
  65:src/main.cpp  ****     delete pcb;
 276              		.loc 1 65 5 is_stmt 1
 277              		.loc 1 65 15 is_stmt 0
 278 01a0 63000902 		beqz	s2,.L16
 279              	.LVL28:
 280              	.LBB47:
 281              	.LBB48:
  25:src/../h/PCB.hpp **** 
 282              		.loc 4 25 14 is_stmt 1
  25:src/../h/PCB.hpp **** 
 283              		.loc 4 25 23 is_stmt 0
 284 01a4 03350901 		ld	a0,16(s2)
  25:src/../h/PCB.hpp **** 
 285              		.loc 4 25 28
 286 01a8 63060500 		beqz	a0,.L11
  25:src/../h/PCB.hpp **** 
 287              		.loc 4 25 23
 288 01ac 97000000 		call	_ZdaPv@plt
 288      E7800000 
 289              	.LVL29:
 290              	.L11:
 291              	.LBE48:
 292              	.LBE47:
 293              		.loc 1 65 12
 294 01b4 13050900 		mv	a0,s2
 295 01b8 97000000 		call	_ZdlPv@plt
 295      E7800000 
 296              	.LVL30:
 297              	.LEHE4:
  66:src/main.cpp  **** 
  67:src/main.cpp  ****     //printString("MAIN START\n");
  68:src/main.cpp  **** 
  69:src/main.cpp  **** 
  70:src/main.cpp  **** 
  71:src/main.cpp  **** 
  72:src/main.cpp  ****     //printString("Finished\n");
  73:src/main.cpp  **** 
  74:src/main.cpp  ****     return 0;
 298              		.loc 1 74 5 is_stmt 1
 299              	.L16:
  75:src/main.cpp  **** }...
 300              		.loc 1 75 1 is_stmt 0
 301 01c0 13050000 		li	a0,0
GAS LISTING /tmp/ccapaTpE.s 			page 13


 302 01c4 83308102 		ld	ra,40(sp)
 303              		.cfi_remember_state
 304              		.cfi_restore 1
 305 01c8 03340102 		ld	s0,32(sp)
 306              		.cfi_restore 8
 307              		.cfi_def_cfa 2, 48
 308 01cc 83348101 		ld	s1,24(sp)
 309              		.cfi_restore 9
 310              	.LVL31:
 311 01d0 03390101 		ld	s2,16(sp)
 312              		.cfi_restore 18
 313              	.LVL32:
 314 01d4 83398100 		ld	s3,8(sp)
 315              		.cfi_restore 19
 316              	.LVL33:
 317 01d8 13010103 		addi	sp,sp,48
 318              		.cfi_def_cfa_offset 0
 319 01dc 67800000 		jr	ra
 320              	.L14:
 321              		.cfi_restore_state
 322 01e0 93040500 		mv	s1,a0
  47:src/main.cpp  ****     PCB* pcb = new PCB(nullptr, nullptr, nullptr);
 323              		.loc 1 47 49
 324 01e4 13050900 		mv	a0,s2
 325 01e8 97000000 		call	_ZdlPv@plt
 325      E7800000 
 326              	.LVL34:
 327 01f0 13850400 		mv	a0,s1
 328              	.LEHB5:
 329 01f4 97000000 		call	_Unwind_Resume@plt
 329      E7800000 
 330              	.LVL35:
 331              	.LEHE5:
 332              	.L15:
 333 01fc 13090500 		mv	s2,a0
 334              	.LVL36:
  55:src/main.cpp  ****     PCB* usrT = new PCB((void (*)(void *))(userMain), nullptr, stack);
 335              		.loc 1 55 69
 336 0200 13850400 		mv	a0,s1
 337 0204 97000000 		call	_ZdlPv@plt
 337      E7800000 
 338              	.LVL37:
 339 020c 13050900 		mv	a0,s2
 340              	.LEHB6:
 341 0210 97000000 		call	_Unwind_Resume@plt
 341      E7800000 
 342              	.LVL38:
 343              	.LEHE6:
 344              		.cfi_endproc
 345              	.LFE56:
 346              		.globl	__gxx_personality_v0
 347              		.section	.gcc_except_table,"a",@progbits
 348              	.LLSDA56:
 349 0000 FF       		.byte	0xff
 350 0001 FF       		.byte	0xff
 351 0002 03       		.byte	0x3
 352 0003 5B       		.byte	0x5b
GAS LISTING /tmp/ccapaTpE.s 			page 14


 353 0004 00000000 		.4byte	.LEHB0-.LFB56
 354 0008 00000000 		.4byte	.LEHE0-.LEHB0
 355 000c 00000000 		.4byte	0
 356 0010 00       		.byte	0
 357 0011 00000000 		.4byte	.LEHB1-.LFB56
 358 0015 00000000 		.4byte	.LEHE1-.LEHB1
 359 0019 00000000 		.4byte	.L14-.LFB56
 360 001d 00       		.byte	0
 361 001e 00000000 		.4byte	.LEHB2-.LFB56
 362 0022 00000000 		.4byte	.LEHE2-.LEHB2
 363 0026 00000000 		.4byte	0
 364 002a 00       		.byte	0
 365 002b 00000000 		.4byte	.LEHB3-.LFB56
 366 002f 00000000 		.4byte	.LEHE3-.LEHB3
 367 0033 00000000 		.4byte	.L15-.LFB56
 368 0037 00       		.byte	0
 369 0038 00000000 		.4byte	.LEHB4-.LFB56
 370 003c 00000000 		.4byte	.LEHE4-.LEHB4
 371 0040 00000000 		.4byte	0
 372 0044 00       		.byte	0
 373 0045 00000000 		.4byte	.LEHB5-.LFB56
 374 0049 00000000 		.4byte	.LEHE5-.LEHB5
 375 004d 00000000 		.4byte	0
 376 0051 00       		.byte	0
 377 0052 00000000 		.4byte	.LEHB6-.LFB56
 378 0056 00000000 		.4byte	.LEHE6-.LEHB6
 379 005a 00000000 		.4byte	0
 380 005e 00       		.byte	0
 381              		.text
 383              		.weak	_ZGVZN15MemoryAllocator11getInstanceEvE8instance
 384              		.section	.bss._ZGVZN15MemoryAllocator11getInstanceEvE8instance,"awG",@nobits,_ZGVZN15MemoryAllocat
 385              		.align	3
 388              	_ZGVZN15MemoryAllocator11getInstanceEvE8instance:
 389 0000 00000000 		.zero	8
 389      00000000 
 390              		.text
 391              	.Letext0:
 392              		.file 5 "src/../h/../h/../lib/hw.h"
 393              		.file 6 "src/../h/Scheduler.hpp"
 394              		.file 7 "src/../h/list.hpp"
 395              		.file 8 "src/../h/../h/Sem.hpp"
 396              		.file 9 "src/../h/syscall_cpp.hpp"
 397              		.file 10 "src/../h/../h/syscall_c.hpp"
 3797              		.align	3
 3800              	DW.ref.__gxx_personality_v0:
 3801 0000 00000000 		.dword	__gxx_personality_v0
 3801      00000000 
 3802              		.ident	"GCC: (Ubuntu 9.4.0-1ubuntu1~20.04) 9.4.0"
 3803              		.section	.note.GNU-stack,"",@progbits
GAS LISTING /tmp/ccapaTpE.s 			page 15


DEFINED SYMBOLS
                            *ABS*:0000000000000000 main.cpp
     /tmp/ccapaTpE.s:9      .text:0000000000000000 _Z7createCm
     /tmp/ccapaTpE.s:13     .text:0000000000000000 .L0 
     /tmp/ccapaTpE.s:15     .text:0000000000000000 .L0 
     /tmp/ccapaTpE.s:16     .text:0000000000000004 .L0 
     /tmp/ccapaTpE.s:20     .text:0000000000000010 .L0 
     /tmp/ccapaTpE.s:21     .text:0000000000000010 .L0 
     /tmp/ccapaTpE.s:22     .text:0000000000000010 .L0 
     /tmp/ccapaTpE.s:24     .text:0000000000000014 .L0 
     /tmp/ccapaTpE.s:27     .text:0000000000000018 .L0 
     /tmp/ccapaTpE.s:28     .text:0000000000000018 .L0 
     /tmp/ccapaTpE.s:35     .text:0000000000000024 .L0 
     /tmp/ccapaTpE.s:36     .text:0000000000000024 .L0 
     /tmp/ccapaTpE.s:41     .text:0000000000000028 .L0 
     /tmp/ccapaTpE.s:42     .text:000000000000002c .L0 
     /tmp/ccapaTpE.s:44     .text:0000000000000030 .L0 
     /tmp/ccapaTpE.s:45     .text:0000000000000030 .L0 
     /tmp/ccapaTpE.s:47     .text:0000000000000034 .L0 
     /tmp/ccapaTpE.s:50     .text:0000000000000038 .L0 
     /tmp/ccapaTpE.s:52     .text:000000000000003c .L0 
     /tmp/ccapaTpE.s:58     .text:000000000000003c main
     /tmp/ccapaTpE.s:61     .text:000000000000003c .L0 
     /tmp/ccapaTpE.s:3800   .data.rel.local.DW.ref.__gxx_personality_v0:0000000000000000 DW.ref.__gxx_personality_v0
     /tmp/ccapaTpE.s:64     .text:000000000000003c .L0 
     /tmp/ccapaTpE.s:65     .text:0000000000000040 .L0 
     /tmp/ccapaTpE.s:71     .text:0000000000000054 .L0 
     /tmp/ccapaTpE.s:72     .text:0000000000000054 .L0 
     /tmp/ccapaTpE.s:73     .text:0000000000000054 .L0 
     /tmp/ccapaTpE.s:74     .text:0000000000000054 .L0 
     /tmp/ccapaTpE.s:75     .text:0000000000000054 .L0 
     /tmp/ccapaTpE.s:77     .text:0000000000000058 .L0 
     /tmp/ccapaTpE.s:82     .text:0000000000000058 .L0 
     /tmp/ccapaTpE.s:83     .text:0000000000000058 .L0 
     /tmp/ccapaTpE.s:388    .bss._ZGVZN15MemoryAllocator11getInstanceEvE8instance:0000000000000000 _ZGVZN15MemoryAllocator11getInstanceEvE8instance
     /tmp/ccapaTpE.s:84     .text:0000000000000058 .L0 
     /tmp/ccapaTpE.s:96     .text:0000000000000070 .L0 
     /tmp/ccapaTpE.s:97     .text:0000000000000070 .L0 
     /tmp/ccapaTpE.s:98     .text:0000000000000070 .L0 
     /tmp/ccapaTpE.s:103    .text:0000000000000088 .L0 
     /tmp/ccapaTpE.s:104    .text:0000000000000088 .L0 
     /tmp/ccapaTpE.s:107    .text:0000000000000094 .L0 
     /tmp/ccapaTpE.s:110    .text:000000000000009c .L0 
     /tmp/ccapaTpE.s:112    .text:00000000000000a0 .L0 
     /tmp/ccapaTpE.s:113    .text:00000000000000a0 .L0 
     /tmp/ccapaTpE.s:115    .text:00000000000000a4 .L0 
     /tmp/ccapaTpE.s:117    .text:00000000000000a8 .L0 
     /tmp/ccapaTpE.s:118    .text:00000000000000a8 .L0 
     /tmp/ccapaTpE.s:123    .text:00000000000000b4 .L0 
     /tmp/ccapaTpE.s:124    .text:00000000000000b4 .L0 
     /tmp/ccapaTpE.s:131    .text:00000000000000c0 .L0 
  src/../h/riscv.hpp:157    .text:00000000000000c0 .L0 
     /tmp/ccapaTpE.s:141    .text:00000000000000c4 .L0 
     /tmp/ccapaTpE.s:142    .text:00000000000000c4 .L0 
     /tmp/ccapaTpE.s:156    .text:00000000000000e8 .L0 
     /tmp/ccapaTpE.s:157    .text:00000000000000e8 .L0 
     /tmp/ccapaTpE.s:164    .text:00000000000000f4 .L0 
GAS LISTING /tmp/ccapaTpE.s 			page 16


     /tmp/ccapaTpE.s:165    .text:00000000000000f4 .L0 
     /tmp/ccapaTpE.s:166    .text:00000000000000f4 .L0 
     /tmp/ccapaTpE.s:174    .text:00000000000000fc .L0 
     /tmp/ccapaTpE.s:175    .text:00000000000000fc .L0 
     /tmp/ccapaTpE.s:176    .text:00000000000000fc .L0 
     /tmp/ccapaTpE.s:187    .text:0000000000000104 .L0 
     /tmp/ccapaTpE.s:188    .text:0000000000000104 .L0 
     /tmp/ccapaTpE.s:193    .text:000000000000010c .L0 
     /tmp/ccapaTpE.s:194    .text:000000000000010c .L0 
     /tmp/ccapaTpE.s:195    .text:000000000000010c .L0 
     /tmp/ccapaTpE.s:199    .text:0000000000000118 .L0 
     /tmp/ccapaTpE.s:206    .text:0000000000000124 .L0 
     /tmp/ccapaTpE.s:207    .text:0000000000000124 .L0 
     /tmp/ccapaTpE.s:213    .text:0000000000000134 .L0 
     /tmp/ccapaTpE.s:214    .text:0000000000000134 .L0 
     /tmp/ccapaTpE.s:228    .text:000000000000015c .L0 
     /tmp/ccapaTpE.s:229    .text:000000000000015c .L0 
     /tmp/ccapaTpE.s:235    .text:0000000000000168 .L0 
     /tmp/ccapaTpE.s:238    .text:0000000000000168 .L0 
     /tmp/ccapaTpE.s:239    .text:0000000000000168 .L0 
     /tmp/ccapaTpE.s:240    .text:0000000000000168 .L0 
     /tmp/ccapaTpE.s:245    .text:000000000000016c .L0 
     /tmp/ccapaTpE.s:248    .text:0000000000000174 .L0 
     /tmp/ccapaTpE.s:249    .text:0000000000000174 .L0 
     /tmp/ccapaTpE.s:252    .text:000000000000017c .L0 
     /tmp/ccapaTpE.s:255    .text:0000000000000180 .L0 
     /tmp/ccapaTpE.s:256    .text:0000000000000180 .L0 
     /tmp/ccapaTpE.s:261    .text:0000000000000184 .L0 
     /tmp/ccapaTpE.s:262    .text:0000000000000184 .L0 
     /tmp/ccapaTpE.s:264    .text:0000000000000188 .L0 
     /tmp/ccapaTpE.s:266    .text:000000000000018c .L0 
     /tmp/ccapaTpE.s:272    .text:0000000000000194 .L0 
     /tmp/ccapaTpE.s:277    .text:00000000000001a0 .L0 
     /tmp/ccapaTpE.s:278    .text:00000000000001a0 .L0 
     /tmp/ccapaTpE.s:283    .text:00000000000001a4 .L0 
     /tmp/ccapaTpE.s:284    .text:00000000000001a4 .L0 
     /tmp/ccapaTpE.s:286    .text:00000000000001a8 .L0 
     /tmp/ccapaTpE.s:288    .text:00000000000001ac .L0 
     /tmp/ccapaTpE.s:294    .text:00000000000001b4 .L0 
     /tmp/ccapaTpE.s:300    .text:00000000000001c0 .L0 
     /tmp/ccapaTpE.s:301    .text:00000000000001c0 .L0 
     /tmp/ccapaTpE.s:303    .text:00000000000001c8 .L0 
     /tmp/ccapaTpE.s:304    .text:00000000000001c8 .L0 
     /tmp/ccapaTpE.s:306    .text:00000000000001cc .L0 
     /tmp/ccapaTpE.s:307    .text:00000000000001cc .L0 
     /tmp/ccapaTpE.s:309    .text:00000000000001d0 .L0 
     /tmp/ccapaTpE.s:312    .text:00000000000001d4 .L0 
     /tmp/ccapaTpE.s:315    .text:00000000000001d8 .L0 
     /tmp/ccapaTpE.s:318    .text:00000000000001dc .L0 
     /tmp/ccapaTpE.s:321    .text:00000000000001e0 .L0 
     /tmp/ccapaTpE.s:324    .text:00000000000001e4 .L0 
     /tmp/ccapaTpE.s:336    .text:0000000000000200 .L0 
     /tmp/ccapaTpE.s:344    .text:0000000000000218 .L0 
     /tmp/ccapaTpE.s:398    .text:0000000000000218 .L0 
     /tmp/ccapaTpE.s:84     .text:0000000000000058 .L0 
     /tmp/ccapaTpE.s:88     .text:0000000000000068 .L0 
     /tmp/ccapaTpE.s:98     .text:0000000000000070 .L0 
GAS LISTING /tmp/ccapaTpE.s 			page 17


     /tmp/ccapaTpE.s:100    .text:000000000000007c .L0 
     /tmp/ccapaTpE.s:104    .text:0000000000000088 .L0 
     /tmp/ccapaTpE.s:118    .text:00000000000000a8 .L0 
     /tmp/ccapaTpE.s:124    .text:00000000000000b4 .L0 
     /tmp/ccapaTpE.s:157    .text:00000000000000e8 .L0 
     /tmp/ccapaTpE.s:195    .text:000000000000010c .L0 
     /tmp/ccapaTpE.s:200    .text:000000000000011c .L0 
     /tmp/ccapaTpE.s:222    .text:000000000000014c .L0 
     /tmp/ccapaTpE.s:90     .text:0000000000000070 .L4
     /tmp/ccapaTpE.s:202    .text:0000000000000124 .L5
     /tmp/ccapaTpE.s:253    .text:0000000000000180 .L6
     /tmp/ccapaTpE.s:233    .text:0000000000000168 .L7
     /tmp/ccapaTpE.s:275    .text:00000000000001a0 .L8
     /tmp/ccapaTpE.s:268    .text:0000000000000194 .L9
     /tmp/ccapaTpE.s:299    .text:00000000000001c0 .L16
     /tmp/ccapaTpE.s:290    .text:00000000000001b4 .L11
     /tmp/ccapaTpE.s:143    .text:00000000000000c8 .LEHB0
     /tmp/ccapaTpE.s:59     .text:000000000000003c .LFB56
     /tmp/ccapaTpE.s:146    .text:00000000000000d0 .LEHE0
     /tmp/ccapaTpE.s:151    .text:00000000000000e0 .LEHB1
     /tmp/ccapaTpE.s:154    .text:00000000000000e8 .LEHE1
     /tmp/ccapaTpE.s:320    .text:00000000000001e0 .L14
     /tmp/ccapaTpE.s:186    .text:0000000000000104 .LEHB2
     /tmp/ccapaTpE.s:218    .text:0000000000000140 .LEHE2
     /tmp/ccapaTpE.s:223    .text:0000000000000154 .LEHB3
     /tmp/ccapaTpE.s:226    .text:000000000000015c .LEHE3
     /tmp/ccapaTpE.s:332    .text:00000000000001fc .L15
     /tmp/ccapaTpE.s:230    .text:0000000000000160 .LEHB4
     /tmp/ccapaTpE.s:297    .text:00000000000001c0 .LEHE4
     /tmp/ccapaTpE.s:328    .text:00000000000001f4 .LEHB5
     /tmp/ccapaTpE.s:331    .text:00000000000001fc .LEHE5
     /tmp/ccapaTpE.s:340    .text:0000000000000210 .LEHB6
     /tmp/ccapaTpE.s:343    .text:0000000000000218 .LEHE6
     /tmp/ccapaTpE.s:2094   .debug_abbrev:0000000000000000 .Ldebug_abbrev0
     /tmp/ccapaTpE.s:3706   .debug_str:00000000000008e8 .LASF193
     /tmp/ccapaTpE.s:3480   .debug_str:00000000000002f8 .LASF194
     /tmp/ccapaTpE.s:3718   .debug_str:0000000000000a0a .LASF195
     /tmp/ccapaTpE.s:5      .text:0000000000000000 .Ltext0
     /tmp/ccapaTpE.s:391    .text:0000000000000218 .Letext0
     /tmp/ccapaTpE.s:3378   .debug_line:0000000000000000 .Ldebug_line0
     /tmp/ccapaTpE.s:3508   .debug_str:00000000000003af .LASF0
     /tmp/ccapaTpE.s:3544   .debug_str:000000000000049d .LASF1
     /tmp/ccapaTpE.s:3638   .debug_str:0000000000000732 .LASF2
     /tmp/ccapaTpE.s:3648   .debug_str:000000000000077a .LASF4
     /tmp/ccapaTpE.s:3520   .debug_str:0000000000000404 .LASF3
     /tmp/ccapaTpE.s:3390   .debug_str:000000000000003e .LASF5
     /tmp/ccapaTpE.s:3608   .debug_str:0000000000000657 .LASF6
     /tmp/ccapaTpE.s:3536   .debug_str:0000000000000469 .LASF7
     /tmp/ccapaTpE.s:3490   .debug_str:0000000000000320 .LASF8
     /tmp/ccapaTpE.s:3496   .debug_str:0000000000000355 .LASF9
     /tmp/ccapaTpE.s:3420   .debug_str:000000000000013e .LASF10
     /tmp/ccapaTpE.s:3478   .debug_str:00000000000002e9 .LASF11
     /tmp/ccapaTpE.s:3432   .debug_str:000000000000018d .LASF12
     /tmp/ccapaTpE.s:3418   .debug_str:000000000000012e .LASF13
     /tmp/ccapaTpE.s:3686   .debug_str:000000000000088b .LASF14
     /tmp/ccapaTpE.s:3464   .debug_str:000000000000027a .LASF15
     /tmp/ccapaTpE.s:3674   .debug_str:0000000000000825 .LASF16
GAS LISTING /tmp/ccapaTpE.s 			page 18


     /tmp/ccapaTpE.s:3528   .debug_str:0000000000000448 .LASF196
     /tmp/ccapaTpE.s:3542   .debug_str:0000000000000498 .LASF17
     /tmp/ccapaTpE.s:3422   .debug_str:000000000000014d .LASF18
     /tmp/ccapaTpE.s:3602   .debug_str:000000000000062a .LASF27
     /tmp/ccapaTpE.s:3402   .debug_str:00000000000000ac .LASF91
     /tmp/ccapaTpE.s:3728   .debug_str:0000000000000a62 .LASF19
     /tmp/ccapaTpE.s:3676   .debug_str:000000000000083b .LASF20
     /tmp/ccapaTpE.s:3768   .debug_str:0000000000000b59 .LASF30
     /tmp/ccapaTpE.s:3564   .debug_str:000000000000051d .LASF32
     /tmp/ccapaTpE.s:3406   .debug_str:00000000000000ed .LASF63
     /tmp/ccapaTpE.s:3782   .debug_str:0000000000000bc1 .LASF65
     /tmp/ccapaTpE.s:3790   .debug_str:0000000000000c01 .LASF21
     /tmp/ccapaTpE.s:3494   .debug_str:0000000000000335 .LASF23
     /tmp/ccapaTpE.s:3560   .debug_str:00000000000004fc .LASF22
     /tmp/ccapaTpE.s:3598   .debug_str:00000000000005f2 .LASF24
     /tmp/ccapaTpE.s:3524   .debug_str:0000000000000427 .LASF39
     /tmp/ccapaTpE.s:3640   .debug_str:0000000000000740 .LASF25
     /tmp/ccapaTpE.s:3734   .debug_str:0000000000000a79 .LASF26
     /tmp/ccapaTpE.s:3488   .debug_str:0000000000000316 .LASF28
     /tmp/ccapaTpE.s:3430   .debug_str:0000000000000182 .LASF29
     /tmp/ccapaTpE.s:3776   .debug_str:0000000000000b95 .LASF197
     /tmp/ccapaTpE.s:3394   .debug_str:0000000000000050 .LASF168
     /tmp/ccapaTpE.s:3382   .debug_str:000000000000000c .LASF31
     /tmp/ccapaTpE.s:3658   .debug_str:00000000000007bf .LASF33
     /tmp/ccapaTpE.s:3416   .debug_str:0000000000000124 .LASF34
     /tmp/ccapaTpE.s:3730   .debug_str:0000000000000a6c .LASF198
     /tmp/ccapaTpE.s:3678   .debug_str:000000000000084a .LASF35
     /tmp/ccapaTpE.s:3582   .debug_str:000000000000059b .LASF36
     /tmp/ccapaTpE.s:3570   .debug_str:0000000000000568 .LASF37
     /tmp/ccapaTpE.s:3766   .debug_str:0000000000000b46 .LASF38
     /tmp/ccapaTpE.s:3408   .debug_str:00000000000000f2 .LASF40
     /tmp/ccapaTpE.s:3434   .debug_str:000000000000019d .LASF173
     /tmp/ccapaTpE.s:3540   .debug_str:000000000000048f .LASF41
     /tmp/ccapaTpE.s:3716   .debug_str:00000000000009ed .LASF42
     /tmp/ccapaTpE.s:3556   .debug_str:00000000000004ef .LASF43
     /tmp/ccapaTpE.s:3630   .debug_str:00000000000006f8 .LASF44
     /tmp/ccapaTpE.s:3604   .debug_str:000000000000063a .LASF45
     /tmp/ccapaTpE.s:3744   .debug_str:0000000000000ab8 .LASF46
     /tmp/ccapaTpE.s:3792   .debug_str:0000000000000c0a .LASF47
     /tmp/ccapaTpE.s:3566   .debug_str:0000000000000541 .LASF48
     /tmp/ccapaTpE.s:3662   .debug_str:00000000000007e7 .LASF49
     /tmp/ccapaTpE.s:3424   .debug_str:0000000000000152 .LASF50
     /tmp/ccapaTpE.s:3622   .debug_str:00000000000006d0 .LASF51
     /tmp/ccapaTpE.s:3682   .debug_str:0000000000000860 .LASF52
     /tmp/ccapaTpE.s:3694   .debug_str:00000000000008b5 .LASF199
     /tmp/ccapaTpE.s:3700   .debug_str:00000000000008cd .LASF95
     /tmp/ccapaTpE.s:3414   .debug_str:000000000000011e .LASF53
     /tmp/ccapaTpE.s:3664   .debug_str:00000000000007f2 .LASF54
     /tmp/ccapaTpE.s:3426   .debug_str:000000000000016f .LASF55
     /tmp/ccapaTpE.s:3410   .debug_str:0000000000000109 .LASF56
     /tmp/ccapaTpE.s:3754   .debug_str:0000000000000b01 .LASF57
     /tmp/ccapaTpE.s:3780   .debug_str:0000000000000bb5 .LASF58
     /tmp/ccapaTpE.s:3696   .debug_str:00000000000008bd .LASF59
     /tmp/ccapaTpE.s:3760   .debug_str:0000000000000b10 .LASF60
     /tmp/ccapaTpE.s:3646   .debug_str:0000000000000771 .LASF61
     /tmp/ccapaTpE.s:3518   .debug_str:00000000000003e8 .LASF62
     /tmp/ccapaTpE.s:3452   .debug_str:0000000000000244 .LASF64
GAS LISTING /tmp/ccapaTpE.s 			page 19


     /tmp/ccapaTpE.s:3400   .debug_str:0000000000000099 .LASF66
     /tmp/ccapaTpE.s:3668   .debug_str:0000000000000800 .LASF67
     /tmp/ccapaTpE.s:3644   .debug_str:0000000000000762 .LASF68
     /tmp/ccapaTpE.s:3654   .debug_str:000000000000079b .LASF81
     /tmp/ccapaTpE.s:3594   .debug_str:00000000000005dc .LASF200
     /tmp/ccapaTpE.s:3774   .debug_str:0000000000000b8f .LASF69
     /tmp/ccapaTpE.s:3710   .debug_str:00000000000009bf .LASF70
     /tmp/ccapaTpE.s:3702   .debug_str:00000000000008d3 .LASF201
     /tmp/ccapaTpE.s:3516   .debug_str:00000000000003e3 .LASF71
     /tmp/ccapaTpE.s:3788   .debug_str:0000000000000bf2 .LASF72
     /tmp/ccapaTpE.s:3436   .debug_str:00000000000001b4 .LASF202
     /tmp/ccapaTpE.s:3404   .debug_str:00000000000000c5 .LASF203
     /tmp/ccapaTpE.s:3738   .debug_str:0000000000000aa4 .LASF162
     /tmp/ccapaTpE.s:3692   .debug_str:00000000000008a3 .LASF164
     /tmp/ccapaTpE.s:3632   .debug_str:0000000000000714 .LASF73
     /tmp/ccapaTpE.s:3450   .debug_str:000000000000023f .LASF74
     /tmp/ccapaTpE.s:3666   .debug_str:00000000000007fa .LASF75
     /tmp/ccapaTpE.s:3690   .debug_str:000000000000089e .LASF76
     /tmp/ccapaTpE.s:3720   .debug_str:0000000000000a2d .LASF77
     /tmp/ccapaTpE.s:3456   .debug_str:0000000000000252 .LASF78
     /tmp/ccapaTpE.s:3500   .debug_str:000000000000036e .LASF79
     /tmp/ccapaTpE.s:3576   .debug_str:0000000000000584 .LASF80
     /tmp/ccapaTpE.s:3412   .debug_str:0000000000000112 .LASF82
     /tmp/ccapaTpE.s:3568   .debug_str:000000000000055c .LASF83
     /tmp/ccapaTpE.s:3548   .debug_str:00000000000004c9 .LASF84
     /tmp/ccapaTpE.s:3380   .debug_str:0000000000000000 .LASF85
     /tmp/ccapaTpE.s:3454   .debug_str:000000000000024d .LASF86
     /tmp/ccapaTpE.s:3572   .debug_str:000000000000056d .LASF87
     /tmp/ccapaTpE.s:3688   .debug_str:0000000000000897 .LASF88
     /tmp/ccapaTpE.s:3680   .debug_str:000000000000084f .LASF89
     /tmp/ccapaTpE.s:3714   .debug_str:00000000000009e3 .LASF90
     /tmp/ccapaTpE.s:3600   .debug_str:0000000000000616 .LASF92
     /tmp/ccapaTpE.s:3558   .debug_str:00000000000004f7 .LASF93
     /tmp/ccapaTpE.s:3750   .debug_str:0000000000000af1 .LASF94
     /tmp/ccapaTpE.s:3468   .debug_str:00000000000002ab .LASF96
     /tmp/ccapaTpE.s:3472   .debug_str:00000000000002c4 .LASF97
     /tmp/ccapaTpE.s:3704   .debug_str:00000000000008db .LASF98
     /tmp/ccapaTpE.s:3444   .debug_str:0000000000000209 .LASF99
     /tmp/ccapaTpE.s:3498   .debug_str:0000000000000363 .LASF100
     /tmp/ccapaTpE.s:3504   .debug_str:0000000000000386 .LASF101
     /tmp/ccapaTpE.s:3656   .debug_str:00000000000007b1 .LASF102
     /tmp/ccapaTpE.s:3466   .debug_str:0000000000000290 .LASF103
     /tmp/ccapaTpE.s:3510   .debug_str:00000000000003bc .LASF104
     /tmp/ccapaTpE.s:3764   .debug_str:0000000000000b2c .LASF105
     /tmp/ccapaTpE.s:3726   .debug_str:0000000000000a59 .LASF106
     /tmp/ccapaTpE.s:3722   .debug_str:0000000000000a35 .LASF107
     /tmp/ccapaTpE.s:3634   .debug_str:000000000000071e .LASF108
     /tmp/ccapaTpE.s:3592   .debug_str:00000000000005c7 .LASF109
     /tmp/ccapaTpE.s:3612   .debug_str:0000000000000674 .LASF110
     /tmp/ccapaTpE.s:3618   .debug_str:00000000000006a9 .LASF111
     /tmp/ccapaTpE.s:3584   .debug_str:00000000000005a0 .LASF112
     /tmp/ccapaTpE.s:3538   .debug_str:000000000000047c .LASF113
     /tmp/ccapaTpE.s:3574   .debug_str:000000000000057c .LASF114
     /tmp/ccapaTpE.s:3712   .debug_str:00000000000009cf .LASF115
     /tmp/ccapaTpE.s:3580   .debug_str:0000000000000593 .LASF116
     /tmp/ccapaTpE.s:3590   .debug_str:00000000000005b3 .LASF117
     /tmp/ccapaTpE.s:3550   .debug_str:00000000000004ce .LASF118
GAS LISTING /tmp/ccapaTpE.s 			page 20


     /tmp/ccapaTpE.s:3620   .debug_str:00000000000006bc .LASF119
     /tmp/ccapaTpE.s:3786   .debug_str:0000000000000bea .LASF120
     /tmp/ccapaTpE.s:3514   .debug_str:00000000000003cf .LASF121
     /tmp/ccapaTpE.s:3624   .debug_str:00000000000006d9 .LASF122
     /tmp/ccapaTpE.s:3650   .debug_str:0000000000000781 .LASF123
     /tmp/ccapaTpE.s:3652   .debug_str:0000000000000794 .LASF124
     /tmp/ccapaTpE.s:3462   .debug_str:0000000000000267 .LASF125
     /tmp/ccapaTpE.s:3458   .debug_str:0000000000000258 .LASF126
     /tmp/ccapaTpE.s:3502   .debug_str:0000000000000374 .LASF127
     /tmp/ccapaTpE.s:3512   .debug_str:00000000000003c9 .LASF128
     /tmp/ccapaTpE.s:3448   .debug_str:000000000000022d .LASF129
     /tmp/ccapaTpE.s:3392   .debug_str:0000000000000045 .LASF130
     /tmp/ccapaTpE.s:3642   .debug_str:000000000000074a .LASF131
     /tmp/ccapaTpE.s:3636   .debug_str:0000000000000727 .LASF132
     /tmp/ccapaTpE.s:3614   .debug_str:000000000000067b .LASF133
     /tmp/ccapaTpE.s:3752   .debug_str:0000000000000af7 .LASF134
     /tmp/ccapaTpE.s:3770   .debug_str:0000000000000b65 .LASF135
     /tmp/ccapaTpE.s:3746   .debug_str:0000000000000ad6 .LASF136
     /tmp/ccapaTpE.s:3562   .debug_str:0000000000000507 .LASF137
     /tmp/ccapaTpE.s:3670   .debug_str:0000000000000805 .LASF138
     /tmp/ccapaTpE.s:3554   .debug_str:00000000000004dc .LASF139
     /tmp/ccapaTpE.s:3486   .debug_str:000000000000030f .LASF140
     /tmp/ccapaTpE.s:3708   .debug_str:00000000000009ac .LASF141
     /tmp/ccapaTpE.s:3724   .debug_str:0000000000000a4a .LASF142
     /tmp/ccapaTpE.s:3398   .debug_str:000000000000007d .LASF143
     /tmp/ccapaTpE.s:3756   .debug_str:0000000000000b06 .LASF144
     /tmp/ccapaTpE.s:3596   .debug_str:00000000000005e1 .LASF145
     /tmp/ccapaTpE.s:3526   .debug_str:0000000000000443 .LASF146
     /tmp/ccapaTpE.s:3684   .debug_str:000000000000087a .LASF147
     /tmp/ccapaTpE.s:3758   .debug_str:0000000000000b0b .LASF148
     /tmp/ccapaTpE.s:3522   .debug_str:0000000000000416 .LASF149
     /tmp/ccapaTpE.s:3578   .debug_str:000000000000058e .LASF150
     /tmp/ccapaTpE.s:3606   .debug_str:0000000000000646 .LASF151
     /tmp/ccapaTpE.s:3588   .debug_str:00000000000005ae .LASF152
     /tmp/ccapaTpE.s:3386   .debug_str:0000000000000023 .LASF153
     /tmp/ccapaTpE.s:3530   .debug_str:000000000000044e .LASF154
     /tmp/ccapaTpE.s:3534   .debug_str:0000000000000458 .LASF155
     /tmp/ccapaTpE.s:3762   .debug_str:0000000000000b27 .LASF156
     /tmp/ccapaTpE.s:3506   .debug_str:000000000000039e .LASF157
     /tmp/ccapaTpE.s:3532   .debug_str:0000000000000453 .LASF158
     /tmp/ccapaTpE.s:3660   .debug_str:00000000000007d6 .LASF159
     /tmp/ccapaTpE.s:3732   .debug_str:0000000000000a71 .LASF160
     /tmp/ccapaTpE.s:3772   .debug_str:0000000000000b7b .LASF161
     /tmp/ccapaTpE.s:3778   .debug_str:0000000000000ba9 .LASF163
     /tmp/ccapaTpE.s:3546   .debug_str:00000000000004b0 .LASF165
     /tmp/ccapaTpE.s:3460   .debug_str:000000000000025e .LASF166
     /tmp/ccapaTpE.s:3698   .debug_str:00000000000008c8 .LASF167
     /tmp/ccapaTpE.s:3610   .debug_str:000000000000066a .LASF169
     /tmp/ccapaTpE.s:3484   .debug_str:000000000000030a .LASF170
     /tmp/ccapaTpE.s:345    .text:0000000000000218 .LFE56
     /tmp/ccapaTpE.s:3251   .debug_loc:0000000000000000 .LLST3
     /tmp/ccapaTpE.s:3262   .debug_loc:0000000000000036 .LLST4
     /tmp/ccapaTpE.s:3492   .debug_str:0000000000000330 .LASF171
     /tmp/ccapaTpE.s:3277   .debug_loc:000000000000007f .LLST5
     /tmp/ccapaTpE.s:79     .text:0000000000000058 .LBB31
     /tmp/ccapaTpE.s:93     .text:0000000000000070 .LBE31
     /tmp/ccapaTpE.s:94     .text:0000000000000070 .LBB33
GAS LISTING /tmp/ccapaTpE.s 			page 21


     /tmp/ccapaTpE.s:121    .text:00000000000000b4 .LBE33
     /tmp/ccapaTpE.s:127    .text:00000000000000c0 .LBB35
     /tmp/ccapaTpE.s:139    .text:00000000000000c4 .LBE35
     /tmp/ccapaTpE.s:3284   .debug_loc:00000000000000a2 .LLST6
     /tmp/ccapaTpE.s:161    .text:00000000000000f4 .LBB37
     /tmp/ccapaTpE.s:170    .text:00000000000000fc .LBE37
     /tmp/ccapaTpE.s:3291   .debug_loc:00000000000000c5 .LLST7
     /tmp/ccapaTpE.s:3299   .debug_loc:00000000000000e9 .LLST8
     /tmp/ccapaTpE.s:172    .text:00000000000000fc .LBB39
     /tmp/ccapaTpE.s:184    .text:0000000000000104 .LBE39
     /tmp/ccapaTpE.s:3306   .debug_loc:000000000000010c .LLST9
     /tmp/ccapaTpE.s:191    .text:000000000000010c .LBB41
     /tmp/ccapaTpE.s:205    .text:0000000000000124 .LBE41
     /tmp/ccapaTpE.s:236    .text:0000000000000168 .LBB43
     /tmp/ccapaTpE.s:243    .text:000000000000016c .LBE43
     /tmp/ccapaTpE.s:3314   .debug_loc:0000000000000130 .LLST10
     /tmp/ccapaTpE.s:258    .text:0000000000000184 .LBB45
     /tmp/ccapaTpE.s:270    .text:0000000000000194 .LBE45
     /tmp/ccapaTpE.s:3321   .debug_loc:0000000000000153 .LLST11
     /tmp/ccapaTpE.s:267    .text:0000000000000194 .LVL26
     /tmp/ccapaTpE.s:280    .text:00000000000001a4 .LBB47
     /tmp/ccapaTpE.s:292    .text:00000000000001b4 .LBE47
     /tmp/ccapaTpE.s:3328   .debug_loc:0000000000000176 .LLST12
     /tmp/ccapaTpE.s:289    .text:00000000000001b4 .LVL29
     /tmp/ccapaTpE.s:145    .text:00000000000000d0 .LVL9
     /tmp/ccapaTpE.s:153    .text:00000000000000e8 .LVL10
     /tmp/ccapaTpE.s:189    .text:000000000000010c .LVL14
     /tmp/ccapaTpE.s:209    .text:0000000000000130 .LVL17
     /tmp/ccapaTpE.s:217    .text:0000000000000140 .LVL20
     /tmp/ccapaTpE.s:225    .text:000000000000015c .LVL21
     /tmp/ccapaTpE.s:232    .text:0000000000000168 .LVL22
     /tmp/ccapaTpE.s:250    .text:000000000000017c .LVL24
     /tmp/ccapaTpE.s:274    .text:00000000000001a0 .LVL27
     /tmp/ccapaTpE.s:296    .text:00000000000001c0 .LVL30
     /tmp/ccapaTpE.s:326    .text:00000000000001f0 .LVL34
     /tmp/ccapaTpE.s:330    .text:00000000000001fc .LVL35
     /tmp/ccapaTpE.s:338    .text:000000000000020c .LVL37
     /tmp/ccapaTpE.s:342    .text:0000000000000218 .LVL38
     /tmp/ccapaTpE.s:3628   .debug_str:00000000000006f0 .LASF172
     /tmp/ccapaTpE.s:3440   .debug_str:00000000000001ce .LASF174
     /tmp/ccapaTpE.s:10     .text:0000000000000000 .LFB55
     /tmp/ccapaTpE.s:53     .text:000000000000003c .LFE55
     /tmp/ccapaTpE.s:3335   .debug_loc:0000000000000199 .LLST0
     /tmp/ccapaTpE.s:32     .text:0000000000000024 .LBB29
     /tmp/ccapaTpE.s:39     .text:0000000000000028 .LBE29
     /tmp/ccapaTpE.s:3351   .debug_loc:00000000000001e3 .LLST1
     /tmp/ccapaTpE.s:3358   .debug_loc:0000000000000206 .LLST2
     /tmp/ccapaTpE.s:31     .text:0000000000000024 .LVL2
     /tmp/ccapaTpE.s:3482   .debug_str:0000000000000305 .LASF177
     /tmp/ccapaTpE.s:3470   .debug_str:00000000000002ba .LASF179
     /tmp/ccapaTpE.s:3740   .debug_str:0000000000000aac .LASF175
     /tmp/ccapaTpE.s:3552   .debug_str:00000000000004d6 .LASF176
     /tmp/ccapaTpE.s:3388   .debug_str:0000000000000034 .LASF178
     /tmp/ccapaTpE.s:3438   .debug_str:00000000000001c2 .LASF180
     /tmp/ccapaTpE.s:3428   .debug_str:0000000000000179 .LASF181
     /tmp/ccapaTpE.s:3442   .debug_str:00000000000001da .LASF204
     /tmp/ccapaTpE.s:3672   .debug_str:000000000000080c .LASF182
GAS LISTING /tmp/ccapaTpE.s 			page 22


     /tmp/ccapaTpE.s:3586   .debug_str:00000000000005a7 .LASF183
     /tmp/ccapaTpE.s:3474   .debug_str:00000000000002d0 .LASF185
     /tmp/ccapaTpE.s:3476   .debug_str:00000000000002e3 .LASF184
     /tmp/ccapaTpE.s:3784   .debug_str:0000000000000bdd .LASF186
     /tmp/ccapaTpE.s:3616   .debug_str:0000000000000693 .LASF187
     /tmp/ccapaTpE.s:3748   .debug_str:0000000000000ae0 .LASF188
     /tmp/ccapaTpE.s:3396   .debug_str:0000000000000068 .LASF189
     /tmp/ccapaTpE.s:3626   .debug_str:00000000000006e0 .LASF190
     /tmp/ccapaTpE.s:3742   .debug_str:0000000000000ab1 .LASF191
     /tmp/ccapaTpE.s:3384   .debug_str:0000000000000013 .LASF192
     /tmp/ccapaTpE.s:3736   .debug_str:0000000000000a95 .LASF205
     /tmp/ccapaTpE.s:3446   .debug_str:0000000000000215 .LASF206
     /tmp/ccapaTpE.s:313    .text:00000000000001d4 .LVL32
     /tmp/ccapaTpE.s:334    .text:0000000000000200 .LVL36
     /tmp/ccapaTpE.s:211    .text:0000000000000134 .LVL18
     /tmp/ccapaTpE.s:215    .text:0000000000000138 .LVL19
     /tmp/ccapaTpE.s:316    .text:00000000000001d8 .LVL33
     /tmp/ccapaTpE.s:310    .text:00000000000001d0 .LVL31
     /tmp/ccapaTpE.s:126    .text:00000000000000c0 .LVL7
     /tmp/ccapaTpE.s:136    .text:00000000000000c4 .LVL8
     /tmp/ccapaTpE.s:160    .text:00000000000000f4 .LVL11
     /tmp/ccapaTpE.s:168    .text:00000000000000fc .LVL12
     /tmp/ccapaTpE.s:181    .text:0000000000000104 .LVL13
     /tmp/ccapaTpE.s:241    .text:000000000000016c .LVL23
     /tmp/ccapaTpE.s:257    .text:0000000000000184 .LVL25
     /tmp/ccapaTpE.s:279    .text:00000000000001a4 .LVL28
     /tmp/ccapaTpE.s:14     .text:0000000000000000 .LVL0
     /tmp/ccapaTpE.s:29     .text:000000000000001c .LVL1
     /tmp/ccapaTpE.s:48     .text:0000000000000034 .LVL4
     /tmp/ccapaTpE.s:37     .text:0000000000000028 .LVL3
     /tmp/ccapaTpE.s:399    .debug_info:0000000000000000 .Ldebug_info0
     /tmp/ccapaTpE.s:348    .gcc_except_table:0000000000000000 .LLSDA56

UNDEFINED SYMBOLS
_Znwm
HEAP_START_ADDR
_ZN15MemoryAllocator9free_listE
HEAP_END_ADDR
_ZN15MemoryAllocator14allocated_listE
_ZN5Riscv14supervisorTrapEv
_ZN3PCBC1EPFvPvES0_Pm
_ZN3PCB7runningE
_Z16switchToUserModev
_ZN15MemoryAllocator8allocateEm
_Z8userMainv
_ZN9Scheduler3putEP3PCB
_Z15thread_dispatchv
_ZdaPv
_ZdlPv
_Unwind_Resume
__gxx_personality_v0
