GAS LISTING /tmp/ccE5dOao.s 			page 1


   1              		.file	"MemoryAllocator.cpp"
   2              		.option pic
   3              		.option norelax
   4              		.text
   5              	.Ltext0:
   6              		.align	2
   7              		.globl	_ZN15MemoryAllocator8allocateEm
   9              	_ZN15MemoryAllocator8allocateEm:
  10              	.LFB5:
  11              		.file 1 "src/MemoryAllocator.cpp"
   1:src/MemoryAllocator.cpp **** //
   2:src/MemoryAllocator.cpp **** // Created by os on 1/28/23.
   3:src/MemoryAllocator.cpp **** //
   4:src/MemoryAllocator.cpp **** 
   5:src/MemoryAllocator.cpp **** #include "../h/MemoryAllocator.hpp"
   6:src/MemoryAllocator.cpp **** 
   7:src/MemoryAllocator.cpp **** Block *MemoryAllocator::free_list = nullptr;
   8:src/MemoryAllocator.cpp **** Block *MemoryAllocator::allocated_list = nullptr;
   9:src/MemoryAllocator.cpp **** 
  10:src/MemoryAllocator.cpp **** 
  11:src/MemoryAllocator.cpp **** // Allocate memory
  12:src/MemoryAllocator.cpp **** void *MemoryAllocator::allocate(size_t size) {
  12              		.loc 1 12 46
  13              		.cfi_startproc
  14              	.LVL0:
  15 0000 130101FF 		addi	sp,sp,-16
  16              		.cfi_def_cfa_offset 16
  17 0004 23348100 		sd	s0,8(sp)
  18              		.cfi_offset 8, -8
  19 0008 13040101 		addi	s0,sp,16
  20              		.cfi_def_cfa 8, 0
  21 000c 13060500 		mv	a2,a0
  13:src/MemoryAllocator.cpp ****     size_t sizeToAllocate = size * MEM_BLOCK_SIZE;
  22              		.loc 1 13 5
  23              		.loc 1 13 12 is_stmt 0
  24 0010 13176500 		slli	a4,a0,6
  25              	.LVL1:
  14:src/MemoryAllocator.cpp **** 
  15:src/MemoryAllocator.cpp ****     Block *prev = nullptr;
  26              		.loc 1 15 5 is_stmt 1
  16:src/MemoryAllocator.cpp ****     Block *current = free_list;
  27              		.loc 1 16 5
  28              		.loc 1 16 12 is_stmt 0
  29 0014 17050000 		ld	a0,.LANCHOR0
  29      03350500 
  30              	.LVL2:
  15:src/MemoryAllocator.cpp ****     Block *current = free_list;
  31              		.loc 1 15 12
  32 001c 93060000 		li	a3,0
  33              	.LVL3:
  34              	.L11:
  17:src/MemoryAllocator.cpp **** 
  18:src/MemoryAllocator.cpp ****     // Find a free block that is large enough
  19:src/MemoryAllocator.cpp ****     while (current != nullptr) {
  35              		.loc 1 19 5 is_stmt 1
  36              		.loc 1 19 20
  37 0020 630E0506 		beqz	a0,.L1
GAS LISTING /tmp/ccE5dOao.s 			page 2


  38              	.LBB2:
  20:src/MemoryAllocator.cpp **** 
  21:src/MemoryAllocator.cpp ****         if (current->size >= sizeToAllocate) {
  39              		.loc 1 21 9
  40              	.LBB3:
  41              		.loc 1 21 22 is_stmt 0
  42 0024 83370500 		ld	a5,0(a0)
  43              		.loc 1 21 9
  44 0028 63F8E700 		bgeu	a5,a4,.L13
  45              	.LBE3:
  22:src/MemoryAllocator.cpp ****             // Found a block, remove it from the free list
  23:src/MemoryAllocator.cpp **** 
  24:src/MemoryAllocator.cpp **** 
  25:src/MemoryAllocator.cpp ****             if (prev == nullptr) {
  26:src/MemoryAllocator.cpp ****                 free_list = current->next;
  27:src/MemoryAllocator.cpp ****             } else {
  28:src/MemoryAllocator.cpp ****                 prev->next = current->next;
  29:src/MemoryAllocator.cpp ****             }
  30:src/MemoryAllocator.cpp **** 
  31:src/MemoryAllocator.cpp ****             // Check if block is too big
  32:src/MemoryAllocator.cpp ****             if (current->size - sizeToAllocate >= MEM_BLOCK_SIZE) {
  33:src/MemoryAllocator.cpp **** 
  34:src/MemoryAllocator.cpp **** 
  35:src/MemoryAllocator.cpp ****                 Block *newBlock = (Block *) ((uint64 *) current + sizeToAllocate);
  36:src/MemoryAllocator.cpp ****                 newBlock->size = current->size - sizeToAllocate;
  37:src/MemoryAllocator.cpp ****                 current->size = sizeToAllocate;
  38:src/MemoryAllocator.cpp ****                 if (!free_list) {
  39:src/MemoryAllocator.cpp ****                     free_list = newBlock;
  40:src/MemoryAllocator.cpp ****                     newBlock->next = nullptr;
  41:src/MemoryAllocator.cpp ****                 } else if (!prev) {
  42:src/MemoryAllocator.cpp ****                     newBlock->next = free_list;
  43:src/MemoryAllocator.cpp ****                     free_list = newBlock;
  44:src/MemoryAllocator.cpp ****                 } else {
  45:src/MemoryAllocator.cpp ****                     prev->next = newBlock;
  46:src/MemoryAllocator.cpp ****                     newBlock->next = current->next;
  47:src/MemoryAllocator.cpp ****                 }
  48:src/MemoryAllocator.cpp **** 
  49:src/MemoryAllocator.cpp **** 
  50:src/MemoryAllocator.cpp ****             }
  51:src/MemoryAllocator.cpp ****             //add block to allocated list
  52:src/MemoryAllocator.cpp ****             if (!allocated_list) {
  53:src/MemoryAllocator.cpp ****                 allocated_list = current;
  54:src/MemoryAllocator.cpp ****                 allocated_list->next = nullptr;
  55:src/MemoryAllocator.cpp ****             } else {
  56:src/MemoryAllocator.cpp ****                 current->next = allocated_list;
  57:src/MemoryAllocator.cpp ****                 allocated_list = current;
  58:src/MemoryAllocator.cpp ****             }
  59:src/MemoryAllocator.cpp **** 
  60:src/MemoryAllocator.cpp ****             // Return the memory
  61:src/MemoryAllocator.cpp **** 
  62:src/MemoryAllocator.cpp ****             void *userPtr = (char *) ((uint64 *) current + sizeof(Block));
  63:src/MemoryAllocator.cpp ****             return userPtr;
  64:src/MemoryAllocator.cpp ****         }
  65:src/MemoryAllocator.cpp ****         prev = current;
  46              		.loc 1 65 9 is_stmt 1
  47              	.LVL4:
  66:src/MemoryAllocator.cpp ****         current = current->next;
GAS LISTING /tmp/ccE5dOao.s 			page 3


  48              		.loc 1 66 9
  65:src/MemoryAllocator.cpp ****         current = current->next;
  49              		.loc 1 65 14 is_stmt 0
  50 002c 93060500 		mv	a3,a0
  51              		.loc 1 66 17
  52 0030 03358500 		ld	a0,8(a0)
  53              	.LVL5:
  54              	.LBE2:
  19:src/MemoryAllocator.cpp **** 
  55              		.loc 1 19 5
  56 0034 6FF0DFFE 		j	.L11
  57              	.L13:
  58              	.LBB12:
  59              	.LBB10:
  60              	.LBB4:
  25:src/MemoryAllocator.cpp ****                 free_list = current->next;
  61              		.loc 1 25 13 is_stmt 1
  62 0038 63880606 		beqz	a3,.L14
  28:src/MemoryAllocator.cpp ****             }
  63              		.loc 1 28 17
  28:src/MemoryAllocator.cpp ****             }
  64              		.loc 1 28 39 is_stmt 0
  65 003c 83378500 		ld	a5,8(a0)
  28:src/MemoryAllocator.cpp ****             }
  66              		.loc 1 28 28
  67 0040 23B4F600 		sd	a5,8(a3)
  68              	.L5:
  32:src/MemoryAllocator.cpp **** 
  69              		.loc 1 32 13 is_stmt 1
  70              	.LBB5:
  32:src/MemoryAllocator.cpp **** 
  71              		.loc 1 32 26 is_stmt 0
  72 0044 83370500 		ld	a5,0(a0)
  32:src/MemoryAllocator.cpp **** 
  73              		.loc 1 32 31
  74 0048 B387E740 		sub	a5,a5,a4
  32:src/MemoryAllocator.cpp **** 
  75              		.loc 1 32 13
  76 004c 9305F003 		li	a1,63
  77 0050 63F8F502 		bleu	a5,a1,.L6
  78              	.LBB6:
  35:src/MemoryAllocator.cpp ****                 newBlock->size = current->size - sizeToAllocate;
  79              		.loc 1 35 17 is_stmt 1
  35:src/MemoryAllocator.cpp ****                 newBlock->size = current->size - sizeToAllocate;
  80              		.loc 1 35 65 is_stmt 0
  81 0054 13169600 		slli	a2,a2,9
  82              	.LVL6:
  35:src/MemoryAllocator.cpp ****                 newBlock->size = current->size - sizeToAllocate;
  83              		.loc 1 35 24
  84 0058 3306C500 		add	a2,a0,a2
  85              	.LVL7:
  36:src/MemoryAllocator.cpp ****                 current->size = sizeToAllocate;
  86              		.loc 1 36 17 is_stmt 1
  36:src/MemoryAllocator.cpp ****                 current->size = sizeToAllocate;
  87              		.loc 1 36 32 is_stmt 0
  88 005c 2330F600 		sd	a5,0(a2)
  37:src/MemoryAllocator.cpp ****                 if (!free_list) {
GAS LISTING /tmp/ccE5dOao.s 			page 4


  89              		.loc 1 37 17 is_stmt 1
  37:src/MemoryAllocator.cpp ****                 if (!free_list) {
  90              		.loc 1 37 31 is_stmt 0
  91 0060 2330E500 		sd	a4,0(a0)
  38:src/MemoryAllocator.cpp ****                     free_list = newBlock;
  92              		.loc 1 38 17 is_stmt 1
  38:src/MemoryAllocator.cpp ****                     free_list = newBlock;
  93              		.loc 1 38 21 is_stmt 0
  94 0064 97070000 		ld	a5,.LANCHOR0
  94      83B70700 
  38:src/MemoryAllocator.cpp ****                     free_list = newBlock;
  95              		.loc 1 38 17
  96 006c 63860704 		beqz	a5,.L15
  41:src/MemoryAllocator.cpp ****                     newBlock->next = free_list;
  97              		.loc 1 41 24 is_stmt 1
  98 0070 638C0604 		beqz	a3,.L16
  45:src/MemoryAllocator.cpp ****                     newBlock->next = current->next;
  99              		.loc 1 45 21
  45:src/MemoryAllocator.cpp ****                     newBlock->next = current->next;
 100              		.loc 1 45 32 is_stmt 0
 101 0074 23B4C600 		sd	a2,8(a3)
  46:src/MemoryAllocator.cpp ****                 }
 102              		.loc 1 46 21 is_stmt 1
  46:src/MemoryAllocator.cpp ****                 }
 103              		.loc 1 46 47 is_stmt 0
 104 0078 83378500 		ld	a5,8(a0)
  46:src/MemoryAllocator.cpp ****                 }
 105              		.loc 1 46 36
 106 007c 2334F600 		sd	a5,8(a2)
 107              	.LVL8:
 108              	.L6:
 109              	.LBE6:
 110              	.LBE5:
  52:src/MemoryAllocator.cpp ****                 allocated_list = current;
 111              		.loc 1 52 13 is_stmt 1
  52:src/MemoryAllocator.cpp ****                 allocated_list = current;
 112              		.loc 1 52 17 is_stmt 0
 113 0080 97070000 		ld	a5,.LANCHOR0+8
 113      83B70700 
  52:src/MemoryAllocator.cpp ****                 allocated_list = current;
 114              		.loc 1 52 13
 115 0088 63880704 		beqz	a5,.L17
  56:src/MemoryAllocator.cpp ****                 allocated_list = current;
 116              		.loc 1 56 17 is_stmt 1
  56:src/MemoryAllocator.cpp ****                 allocated_list = current;
 117              		.loc 1 56 31 is_stmt 0
 118 008c 2334F500 		sd	a5,8(a0)
  57:src/MemoryAllocator.cpp ****             }
 119              		.loc 1 57 17 is_stmt 1
  57:src/MemoryAllocator.cpp ****             }
 120              		.loc 1 57 32 is_stmt 0
 121 0090 97070000 		sd	a0,.LANCHOR0+8,a5
 121      23B0A700 
 122              	.L10:
  62:src/MemoryAllocator.cpp ****             return userPtr;
 123              		.loc 1 62 13 is_stmt 1
  62:src/MemoryAllocator.cpp ****             return userPtr;
GAS LISTING /tmp/ccE5dOao.s 			page 5


 124              		.loc 1 62 19 is_stmt 0
 125 0098 13050508 		addi	a0,a0,128
 126              	.LVL9:
  63:src/MemoryAllocator.cpp ****         }
 127              		.loc 1 63 13 is_stmt 1
 128              	.L1:
 129              	.LBE4:
 130              	.LBE10:
 131              	.LBE12:
  67:src/MemoryAllocator.cpp ****     }
  68:src/MemoryAllocator.cpp **** 
  69:src/MemoryAllocator.cpp ****     // No block was found
  70:src/MemoryAllocator.cpp ****     return nullptr;
  71:src/MemoryAllocator.cpp **** }
 132              		.loc 1 71 1 is_stmt 0
 133 009c 03348100 		ld	s0,8(sp)
 134              		.cfi_remember_state
 135              		.cfi_restore 8
 136              		.cfi_def_cfa 2, 16
 137 00a0 13010101 		addi	sp,sp,16
 138              		.cfi_def_cfa_offset 0
 139 00a4 67800000 		jr	ra
 140              	.LVL10:
 141              	.L14:
 142              		.cfi_restore_state
 143              	.LBB13:
 144              	.LBB11:
 145              	.LBB9:
  26:src/MemoryAllocator.cpp ****             } else {
 146              		.loc 1 26 17 is_stmt 1
  26:src/MemoryAllocator.cpp ****             } else {
 147              		.loc 1 26 38 is_stmt 0
 148 00a8 83378500 		ld	a5,8(a0)
  26:src/MemoryAllocator.cpp ****             } else {
 149              		.loc 1 26 27
 150 00ac 97050000 		sd	a5,.LANCHOR0,a1
 150      23B0F500 
 151 00b4 6FF01FF9 		j	.L5
 152              	.LVL11:
 153              	.L15:
 154              	.LBB8:
 155              	.LBB7:
  39:src/MemoryAllocator.cpp ****                     newBlock->next = nullptr;
 156              		.loc 1 39 21 is_stmt 1
  39:src/MemoryAllocator.cpp ****                     newBlock->next = nullptr;
 157              		.loc 1 39 31 is_stmt 0
 158 00b8 97070000 		sd	a2,.LANCHOR0,a5
 158      23B0C700 
  40:src/MemoryAllocator.cpp ****                 } else if (!prev) {
 159              		.loc 1 40 21 is_stmt 1
  40:src/MemoryAllocator.cpp ****                 } else if (!prev) {
 160              		.loc 1 40 36 is_stmt 0
 161 00c0 23340600 		sd	zero,8(a2)
 162 00c4 6FF0DFFB 		j	.L6
 163              	.L16:
  42:src/MemoryAllocator.cpp ****                     free_list = newBlock;
 164              		.loc 1 42 21 is_stmt 1
GAS LISTING /tmp/ccE5dOao.s 			page 6


  42:src/MemoryAllocator.cpp ****                     free_list = newBlock;
 165              		.loc 1 42 36 is_stmt 0
 166 00c8 2334F600 		sd	a5,8(a2)
  43:src/MemoryAllocator.cpp ****                 } else {
 167              		.loc 1 43 21 is_stmt 1
  43:src/MemoryAllocator.cpp ****                 } else {
 168              		.loc 1 43 31 is_stmt 0
 169 00cc 97070000 		sd	a2,.LANCHOR0,a5
 169      23B0C700 
 170 00d4 6FF0DFFA 		j	.L6
 171              	.LVL12:
 172              	.L17:
 173              	.LBE7:
 174              	.LBE8:
  53:src/MemoryAllocator.cpp ****                 allocated_list->next = nullptr;
 175              		.loc 1 53 17 is_stmt 1
  53:src/MemoryAllocator.cpp ****                 allocated_list->next = nullptr;
 176              		.loc 1 53 32 is_stmt 0
 177 00d8 97070000 		sd	a0,.LANCHOR0+8,a5
 177      23B0A700 
  54:src/MemoryAllocator.cpp ****             } else {
 178              		.loc 1 54 17 is_stmt 1
  54:src/MemoryAllocator.cpp ****             } else {
 179              		.loc 1 54 38 is_stmt 0
 180 00e0 23340500 		sd	zero,8(a0)
 181 00e4 6FF05FFB 		j	.L10
 182              	.LBE9:
 183              	.LBE11:
 184              	.LBE13:
 185              		.cfi_endproc
 186              	.LFE5:
 188              		.align	2
 189              		.globl	_ZN15MemoryAllocator10deallocateEPv
 191              	_ZN15MemoryAllocator10deallocateEPv:
 192              	.LFB6:
  72:src/MemoryAllocator.cpp **** 
  73:src/MemoryAllocator.cpp **** // Deallocate memory
  74:src/MemoryAllocator.cpp **** int MemoryAllocator::deallocate(void *ptr) {
 193              		.loc 1 74 44 is_stmt 1
 194              		.cfi_startproc
 195              	.LVL13:
 196 00e8 130101FF 		addi	sp,sp,-16
 197              		.cfi_def_cfa_offset 16
 198 00ec 23348100 		sd	s0,8(sp)
 199              		.cfi_offset 8, -8
 200 00f0 13040101 		addi	s0,sp,16
 201              		.cfi_def_cfa 8, 0
  75:src/MemoryAllocator.cpp ****     Block *block = (Block *) ((uint64 *) ptr - sizeof(Block));
 202              		.loc 1 75 5
 203              		.loc 1 75 12 is_stmt 0
 204 00f4 130705F8 		addi	a4,a0,-128
 205              	.LVL14:
  76:src/MemoryAllocator.cpp ****     Block *tmpPrev = nullptr;
 206              		.loc 1 76 5 is_stmt 1
  77:src/MemoryAllocator.cpp ****     Block *tmp = allocated_list;
 207              		.loc 1 77 5
 208              		.loc 1 77 12 is_stmt 0
GAS LISTING /tmp/ccE5dOao.s 			page 7


 209 00f8 97070000 		ld	a5,.LANCHOR0+8
 209      83B70700 
 210              	.LVL15:
  78:src/MemoryAllocator.cpp ****     uint8 flag = 0;
 211              		.loc 1 78 5 is_stmt 1
  76:src/MemoryAllocator.cpp ****     Block *tmpPrev = nullptr;
 212              		.loc 1 76 12 is_stmt 0
 213 0100 93060000 		li	a3,0
 214              	.LVL16:
 215              	.L20:
  79:src/MemoryAllocator.cpp **** 
  80:src/MemoryAllocator.cpp ****     //Check if the block given was previously allocated
  81:src/MemoryAllocator.cpp ****     while (tmp) {
 216              		.loc 1 81 5 is_stmt 1
 217              		.loc 1 81 12
 218 0104 638A0700 		beqz	a5,.L30
  82:src/MemoryAllocator.cpp ****         if (tmp == block) {
 219              		.loc 1 82 9
 220 0108 6382E704 		beq	a5,a4,.L31
  83:src/MemoryAllocator.cpp ****             flag = 1;
  84:src/MemoryAllocator.cpp ****             break;
  85:src/MemoryAllocator.cpp ****         }
  86:src/MemoryAllocator.cpp ****         tmpPrev = tmp;
 221              		.loc 1 86 9
 222              	.LVL17:
  87:src/MemoryAllocator.cpp ****         tmp = tmp->next;
 223              		.loc 1 87 9
  86:src/MemoryAllocator.cpp ****         tmp = tmp->next;
 224              		.loc 1 86 17 is_stmt 0
 225 010c 93860700 		mv	a3,a5
 226              		.loc 1 87 13
 227 0110 83B78700 		ld	a5,8(a5)
 228              	.LVL18:
  81:src/MemoryAllocator.cpp ****         if (tmp == block) {
 229              		.loc 1 81 5
 230 0114 6FF01FFF 		j	.L20
 231              	.L30:
  78:src/MemoryAllocator.cpp **** 
 232              		.loc 1 78 11
 233 0118 13060000 		li	a2,0
 234              	.L19:
 235              	.LVL19:
  88:src/MemoryAllocator.cpp ****     }
  89:src/MemoryAllocator.cpp ****     if (flag == 0) return -1;
 236              		.loc 1 89 5 is_stmt 1
 237 011c 6302060E 		beqz	a2,.L32
  90:src/MemoryAllocator.cpp **** 
  91:src/MemoryAllocator.cpp ****     // Found a block, remove it from the allocated list
  92:src/MemoryAllocator.cpp ****     if (tmpPrev != nullptr) {
 238              		.loc 1 92 5
 239 0120 638A0602 		beqz	a3,.L22
  93:src/MemoryAllocator.cpp ****         tmpPrev->next = tmp->next;
 240              		.loc 1 93 9
 241              		.loc 1 93 30 is_stmt 0
 242 0124 83B78700 		ld	a5,8(a5)
 243              	.LVL20:
 244              		.loc 1 93 23
GAS LISTING /tmp/ccE5dOao.s 			page 8


 245 0128 23B4F600 		sd	a5,8(a3)
 246              	.LVL21:
 247              	.L23:
  94:src/MemoryAllocator.cpp ****     } else {
  95:src/MemoryAllocator.cpp ****         allocated_list = tmp->next;
  96:src/MemoryAllocator.cpp ****     }
  97:src/MemoryAllocator.cpp **** 
  98:src/MemoryAllocator.cpp **** 
  99:src/MemoryAllocator.cpp ****     Block *prev = nullptr;
 248              		.loc 1 99 5 is_stmt 1
 100:src/MemoryAllocator.cpp ****     Block *current = free_list;
 249              		.loc 1 100 5
 250              		.loc 1 100 12 is_stmt 0
 251 012c 97070000 		ld	a5,.LANCHOR0
 251      83B70700 
 252              	.LVL22:
  99:src/MemoryAllocator.cpp ****     Block *current = free_list;
 253              		.loc 1 99 12
 254 0134 93060000 		li	a3,0
 255              	.LVL23:
 256              	.L27:
 101:src/MemoryAllocator.cpp **** 
 102:src/MemoryAllocator.cpp ****     // Add it to the free_list
 103:src/MemoryAllocator.cpp ****     while (current != nullptr) {
 257              		.loc 1 103 5 is_stmt 1
 258              		.loc 1 103 20
 259 0138 638C0702 		beqz	a5,.L24
 104:src/MemoryAllocator.cpp ****         if ((uint64 *) block < (uint64 *) current) {
 260              		.loc 1 104 9
 261 013c 6364F702 		bgtu	a5,a4,.L36
 105:src/MemoryAllocator.cpp ****             // Insert the block in the right place
 106:src/MemoryAllocator.cpp ****             block->next = current;
 107:src/MemoryAllocator.cpp ****             if (prev != nullptr) {
 108:src/MemoryAllocator.cpp ****                 prev->next = block;
 109:src/MemoryAllocator.cpp ****             } else {
 110:src/MemoryAllocator.cpp ****                 free_list = block;
 111:src/MemoryAllocator.cpp ****             }
 112:src/MemoryAllocator.cpp ****             break;
 113:src/MemoryAllocator.cpp ****         }
 114:src/MemoryAllocator.cpp ****         prev = current;
 262              		.loc 1 114 9
 263              	.LVL24:
 115:src/MemoryAllocator.cpp ****         current = current->next;
 264              		.loc 1 115 9
 114:src/MemoryAllocator.cpp ****         current = current->next;
 265              		.loc 1 114 14 is_stmt 0
 266 0140 93860700 		mv	a3,a5
 267              		.loc 1 115 17
 268 0144 83B78700 		ld	a5,8(a5)
 269              	.LVL25:
 103:src/MemoryAllocator.cpp ****         if ((uint64 *) block < (uint64 *) current) {
 270              		.loc 1 103 5
 271 0148 6FF01FFF 		j	.L27
 272              	.LVL26:
 273              	.L31:
  83:src/MemoryAllocator.cpp ****             break;
 274              		.loc 1 83 18
GAS LISTING /tmp/ccE5dOao.s 			page 9


 275 014c 13061000 		li	a2,1
 276 0150 6FF0DFFC 		j	.L19
 277              	.LVL27:
 278              	.L22:
  95:src/MemoryAllocator.cpp ****     }
 279              		.loc 1 95 9 is_stmt 1
  95:src/MemoryAllocator.cpp ****     }
 280              		.loc 1 95 31 is_stmt 0
 281 0154 83B78700 		ld	a5,8(a5)
 282              	.LVL28:
  95:src/MemoryAllocator.cpp ****     }
 283              		.loc 1 95 24
 284 0158 97060000 		sd	a5,.LANCHOR0+8,a3
 284      23B0F600 
 285              	.LVL29:
 286 0160 6FF0DFFC 		j	.L23
 287              	.LVL30:
 288              	.L36:
 106:src/MemoryAllocator.cpp ****             if (prev != nullptr) {
 289              		.loc 1 106 13 is_stmt 1
 106:src/MemoryAllocator.cpp ****             if (prev != nullptr) {
 290              		.loc 1 106 25 is_stmt 0
 291 0164 2334F5F8 		sd	a5,-120(a0)
 107:src/MemoryAllocator.cpp ****                 prev->next = block;
 292              		.loc 1 107 13 is_stmt 1
 293 0168 63840604 		beqz	a3,.L26
 108:src/MemoryAllocator.cpp ****             } else {
 294              		.loc 1 108 17
 108:src/MemoryAllocator.cpp ****             } else {
 295              		.loc 1 108 28 is_stmt 0
 296 016c 23B4E600 		sd	a4,8(a3)
 297              	.LVL31:
 298              	.L24:
 116:src/MemoryAllocator.cpp ****     }
 117:src/MemoryAllocator.cpp ****     if (current == nullptr) {
 299              		.loc 1 117 5 is_stmt 1
 300 0170 63860704 		beqz	a5,.L37
 301              	.L28:
 118:src/MemoryAllocator.cpp ****         // Add the block at the end of the list
 119:src/MemoryAllocator.cpp ****         prev->next = block;
 120:src/MemoryAllocator.cpp ****         //current = block;
 121:src/MemoryAllocator.cpp ****         block->next = nullptr;
 122:src/MemoryAllocator.cpp ****     }
 123:src/MemoryAllocator.cpp **** 
 124:src/MemoryAllocator.cpp ****     //Merge it with neighbour blocks if possible
 125:src/MemoryAllocator.cpp ****     if (prev != nullptr) {
 302              		.loc 1 125 5
 303 0174 638A0600 		beqz	a3,.L29
 126:src/MemoryAllocator.cpp ****         if ((uint64 *) prev + prev->size == (uint64 *) block) {
 304              		.loc 1 126 9
 305              		.loc 1 126 37 is_stmt 0
 306 0178 03B60600 		ld	a2,0(a3)
 307              		.loc 1 126 29
 308 017c 93173600 		slli	a5,a2,3
 309              	.LVL32:
 310 0180 B387F600 		add	a5,a3,a5
 311              		.loc 1 126 9
GAS LISTING /tmp/ccE5dOao.s 			page 10


 312 0184 6382E704 		beq	a5,a4,.L38
 313              	.L29:
 127:src/MemoryAllocator.cpp ****             // Merge block with previous
 128:src/MemoryAllocator.cpp ****             prev->size = prev->size + block->size;
 129:src/MemoryAllocator.cpp ****             prev->next = block->next;
 130:src/MemoryAllocator.cpp ****             block = prev;
 131:src/MemoryAllocator.cpp ****         }
 132:src/MemoryAllocator.cpp ****     }
 133:src/MemoryAllocator.cpp ****     if (block->next != nullptr) {
 314              		.loc 1 133 5 is_stmt 1
 315              		.loc 1 133 16 is_stmt 0
 316 0188 83378700 		ld	a5,8(a4)
 317              		.loc 1 133 5
 318 018c 638E0706 		beqz	a5,.L33
 134:src/MemoryAllocator.cpp ****         if ((uint64 *) block + block->size == (uint64 *) block->next) {
 319              		.loc 1 134 9 is_stmt 1
 320              		.loc 1 134 39 is_stmt 0
 321 0190 03360700 		ld	a2,0(a4)
 322              		.loc 1 134 30
 323 0194 93163600 		slli	a3,a2,3
 324              	.LVL33:
 325 0198 B306D700 		add	a3,a4,a3
 326              		.loc 1 134 9
 327 019c 6384D704 		beq	a5,a3,.L39
 135:src/MemoryAllocator.cpp ****             // Merge block with next
 136:src/MemoryAllocator.cpp ****             block->size += block->next->size;
 137:src/MemoryAllocator.cpp ****             block->next = block->next->next;
 138:src/MemoryAllocator.cpp ****         }
 139:src/MemoryAllocator.cpp ****     }
 140:src/MemoryAllocator.cpp **** 
 141:src/MemoryAllocator.cpp ****     return 0;
 328              		.loc 1 141 12
 329 01a0 13050000 		li	a0,0
 330              	.LVL34:
 331              	.L21:
 142:src/MemoryAllocator.cpp **** 
 143:src/MemoryAllocator.cpp **** }
 332              		.loc 1 143 1
 333 01a4 03348100 		ld	s0,8(sp)
 334              		.cfi_remember_state
 335              		.cfi_restore 8
 336              		.cfi_def_cfa 2, 16
 337 01a8 13010101 		addi	sp,sp,16
 338              		.cfi_def_cfa_offset 0
 339 01ac 67800000 		jr	ra
 340              	.LVL35:
 341              	.L26:
 342              		.cfi_restore_state
 110:src/MemoryAllocator.cpp ****             }
 343              		.loc 1 110 17 is_stmt 1
 110:src/MemoryAllocator.cpp ****             }
 344              		.loc 1 110 27 is_stmt 0
 345 01b0 17060000 		sd	a4,.LANCHOR0,a2
 345      2330E600 
 346              	.LVL36:
 347 01b8 6FF09FFB 		j	.L24
 348              	.L37:
GAS LISTING /tmp/ccE5dOao.s 			page 11


 119:src/MemoryAllocator.cpp ****         //current = block;
 349              		.loc 1 119 9 is_stmt 1
 119:src/MemoryAllocator.cpp ****         //current = block;
 350              		.loc 1 119 20 is_stmt 0
 351 01bc 23B4E600 		sd	a4,8(a3)
 121:src/MemoryAllocator.cpp ****     }
 352              		.loc 1 121 9 is_stmt 1
 121:src/MemoryAllocator.cpp ****     }
 353              		.loc 1 121 21 is_stmt 0
 354 01c0 233405F8 		sd	zero,-120(a0)
 355 01c4 6FF01FFB 		j	.L28
 356              	.LVL37:
 357              	.L38:
 128:src/MemoryAllocator.cpp ****             prev->next = block->next;
 358              		.loc 1 128 13 is_stmt 1
 128:src/MemoryAllocator.cpp ****             prev->next = block->next;
 359              		.loc 1 128 46 is_stmt 0
 360 01c8 833705F8 		ld	a5,-128(a0)
 128:src/MemoryAllocator.cpp ****             prev->next = block->next;
 361              		.loc 1 128 37
 362 01cc 3306F600 		add	a2,a2,a5
 128:src/MemoryAllocator.cpp ****             prev->next = block->next;
 363              		.loc 1 128 24
 364 01d0 23B0C600 		sd	a2,0(a3)
 129:src/MemoryAllocator.cpp ****             block = prev;
 365              		.loc 1 129 13 is_stmt 1
 129:src/MemoryAllocator.cpp ****             block = prev;
 366              		.loc 1 129 33 is_stmt 0
 367 01d4 833785F8 		ld	a5,-120(a0)
 129:src/MemoryAllocator.cpp ****             block = prev;
 368              		.loc 1 129 24
 369 01d8 23B4F600 		sd	a5,8(a3)
 130:src/MemoryAllocator.cpp ****         }
 370              		.loc 1 130 13 is_stmt 1
 371              	.LVL38:
 130:src/MemoryAllocator.cpp ****         }
 372              		.loc 1 130 19 is_stmt 0
 373 01dc 13870600 		mv	a4,a3
 374 01e0 6FF09FFA 		j	.L29
 375              	.LVL39:
 376              	.L39:
 136:src/MemoryAllocator.cpp ****             block->next = block->next->next;
 377              		.loc 1 136 13 is_stmt 1
 136:src/MemoryAllocator.cpp ****             block->next = block->next->next;
 378              		.loc 1 136 41 is_stmt 0
 379 01e4 83B60700 		ld	a3,0(a5)
 136:src/MemoryAllocator.cpp ****             block->next = block->next->next;
 380              		.loc 1 136 25
 381 01e8 3306D600 		add	a2,a2,a3
 382 01ec 2330C700 		sd	a2,0(a4)
 137:src/MemoryAllocator.cpp ****         }
 383              		.loc 1 137 13 is_stmt 1
 137:src/MemoryAllocator.cpp ****         }
 384              		.loc 1 137 40 is_stmt 0
 385 01f0 83B78700 		ld	a5,8(a5)
 137:src/MemoryAllocator.cpp ****         }
 386              		.loc 1 137 25
GAS LISTING /tmp/ccE5dOao.s 			page 12


 387 01f4 2334F700 		sd	a5,8(a4)
 141:src/MemoryAllocator.cpp **** 
 388              		.loc 1 141 12
 389 01f8 13050000 		li	a0,0
 390              	.LVL40:
 391 01fc 6FF09FFA 		j	.L21
 392              	.LVL41:
 393              	.L32:
  89:src/MemoryAllocator.cpp **** 
 394              		.loc 1 89 28
 395 0200 1305F0FF 		li	a0,-1
 396              	.LVL42:
 397 0204 6FF01FFA 		j	.L21
 398              	.LVL43:
 399              	.L33:
 141:src/MemoryAllocator.cpp **** 
 400              		.loc 1 141 12
 401 0208 13050000 		li	a0,0
 402              	.LVL44:
 403 020c 6FF09FF9 		j	.L21
 404              		.cfi_endproc
 405              	.LFE6:
 407              		.globl	_ZN15MemoryAllocator14allocated_listE
 408              		.globl	_ZN15MemoryAllocator9free_listE
 409              		.bss
 410              		.align	3
 411              		.set	.LANCHOR0,. + 0
 414              	_ZN15MemoryAllocator9free_listE:
 415 0000 00000000 		.zero	8
 415      00000000 
 418              	_ZN15MemoryAllocator14allocated_listE:
 419 0008 00000000 		.zero	8
 419      00000000 
 420              		.text
 421              	.Letext0:
 422              		.file 2 "src/../h/../lib/hw.h"
 423              		.file 3 "src/../h/MemoryAllocator.hpp"
GAS LISTING /tmp/ccE5dOao.s 			page 13

