GAS LISTING /tmp/ccVPohSk.s 			page 1


   1              		.file	"PCB.cpp"
   2              		.option pic
   3              		.option norelax
   4              		.text
   5              	.Ltext0:
   6              		.align	2
   7              		.globl	_ZN3PCB8dispatchEv
   9              	_ZN3PCB8dispatchEv:
  10              	.LFB48:
  11              		.file 1 "src/PCB.cpp"
   1:src/PCB.cpp   **** //
   2:src/PCB.cpp   **** // Created by os on 7/28/23.
   3:src/PCB.cpp   **** //
   4:src/PCB.cpp   **** 
   5:src/PCB.cpp   **** #include "../h/PCB.hpp"
   6:src/PCB.cpp   **** 
   7:src/PCB.cpp   **** 
   8:src/PCB.cpp   **** PCB* PCB::running;
   9:src/PCB.cpp   **** 
  10:src/PCB.cpp   **** 
  11:src/PCB.cpp   **** 
  12:src/PCB.cpp   **** 
  13:src/PCB.cpp   **** void PCB::dispatch() {
  12              		.loc 1 13 22
  13              		.cfi_startproc
  14 0000 130101FE 		addi	sp,sp,-32
  15              		.cfi_def_cfa_offset 32
  16 0004 233C1100 		sd	ra,24(sp)
  17 0008 23388100 		sd	s0,16(sp)
  18 000c 23349100 		sd	s1,8(sp)
  19              		.cfi_offset 1, -8
  20              		.cfi_offset 8, -16
  21              		.cfi_offset 9, -24
  22 0010 13040102 		addi	s0,sp,32
  23              		.cfi_def_cfa 8, 0
  14:src/PCB.cpp   ****     Riscv::pushRegisters();
  24              		.loc 1 14 5
  25              		.loc 1 14 25 is_stmt 0
  26 0014 97000000 		call	_ZN5Riscv13pushRegistersEv@plt
  26      E7800000 
  27              	.LVL0:
  15:src/PCB.cpp   **** 
  16:src/PCB.cpp   ****     PCB *old = running;
  28              		.loc 1 16 5 is_stmt 1
  29              		.loc 1 16 10 is_stmt 0
  30 001c 97040000 		ld	s1,.LANCHOR0
  30      83B40400 
  31              	.LVL1:
  17:src/PCB.cpp   ****     if (!old->isFinished()) {
  32              		.loc 1 17 5 is_stmt 1
  33              	.LBB4:
  34              	.LBB5:
  35              		.file 2 "src/../h/PCB.hpp"
   1:src/../h/PCB.hpp **** #ifndef PROJECT_BASE_V1_1_PCB_HPP
   2:src/../h/PCB.hpp **** #define PROJECT_BASE_V1_1_PCB_HPP
   3:src/../h/PCB.hpp **** 
   4:src/../h/PCB.hpp **** 
GAS LISTING /tmp/ccVPohSk.s 			page 2


   5:src/../h/PCB.hpp **** #include "Scheduler.hpp"
   6:src/../h/PCB.hpp **** #include "riscv.hpp"
   7:src/../h/PCB.hpp **** #include "../h/syscall_c.hpp"
   8:src/../h/PCB.hpp **** 
   9:src/../h/PCB.hpp **** 
  10:src/../h/PCB.hpp **** class PCB {
  11:src/../h/PCB.hpp **** public:
  12:src/../h/PCB.hpp ****     struct Context {
  13:src/../h/PCB.hpp ****         uint64 ra;
  14:src/../h/PCB.hpp ****         uint64 sp;
  15:src/../h/PCB.hpp ****     };
  16:src/../h/PCB.hpp **** 
  17:src/../h/PCB.hpp ****     enum State {
  18:src/../h/PCB.hpp ****         READY,
  19:src/../h/PCB.hpp ****         RUNNING,
  20:src/../h/PCB.hpp ****         SUSPENDED,
  21:src/../h/PCB.hpp ****         FINISHED
  22:src/../h/PCB.hpp ****     };
  23:src/../h/PCB.hpp **** 
  24:src/../h/PCB.hpp ****     ~PCB() { delete[] stack; }
  25:src/../h/PCB.hpp **** 
  26:src/../h/PCB.hpp ****     bool isFinished() const { return state == FINISHED; }
  36              		.loc 2 26 31
  37              		.loc 2 26 38 is_stmt 0
  38 0024 03A78402 		lw	a4,40(s1)
  39              	.LVL2:
  40              	.LBE5:
  41              	.LBE4:
  42              		.loc 1 17 5
  43 0028 93073000 		li	a5,3
  44 002c 6314F704 		bne	a4,a5,.L4
  45              	.L2:
  18:src/PCB.cpp   ****         old->state = READY;
  19:src/PCB.cpp   ****         Scheduler::put(old);
  20:src/PCB.cpp   ****     }
  21:src/PCB.cpp   ****     running = Scheduler::get();
  46              		.loc 1 21 5 is_stmt 1
  47              		.loc 1 21 29 is_stmt 0
  48 0030 97000000 		call	_ZN9Scheduler3getEv@plt
  48      E7800000 
  49              	.LVL3:
  50              		.loc 1 21 13
  51 0038 97070000 		sd	a0,.LANCHOR0,a5
  51      23B0A700 
  22:src/PCB.cpp   ****     running->state=RUNNING;
  52              		.loc 1 22 5 is_stmt 1
  53              		.loc 1 22 19 is_stmt 0
  54 0040 93071000 		li	a5,1
  55 0044 2324F502 		sw	a5,40(a0)
  23:src/PCB.cpp   **** 
  24:src/PCB.cpp   ****     PCB::contextSwitch(&old->context, &running->context);
  56              		.loc 1 24 5 is_stmt 1
  57              		.loc 1 24 23 is_stmt 0
  58 0048 93058501 		addi	a1,a0,24
  59 004c 13858401 		addi	a0,s1,24
  60 0050 97000000 		call	_ZN3PCB13contextSwitchEPNS_7ContextES1_@plt
  60      E7800000 
GAS LISTING /tmp/ccVPohSk.s 			page 3


  61              	.LVL4:
  25:src/PCB.cpp   **** 
  26:src/PCB.cpp   ****     Riscv::popRegisters();
  62              		.loc 1 26 5 is_stmt 1
  63              		.loc 1 26 24 is_stmt 0
  64 0058 97000000 		call	_ZN5Riscv12popRegistersEv@plt
  64      E7800000 
  65              	.LVL5:
  27:src/PCB.cpp   **** }
  66              		.loc 1 27 1
  67 0060 83308101 		ld	ra,24(sp)
  68              		.cfi_remember_state
  69              		.cfi_restore 1
  70 0064 03340101 		ld	s0,16(sp)
  71              		.cfi_restore 8
  72              		.cfi_def_cfa 2, 32
  73 0068 83348100 		ld	s1,8(sp)
  74              		.cfi_restore 9
  75              	.LVL6:
  76 006c 13010102 		addi	sp,sp,32
  77              		.cfi_def_cfa_offset 0
  78 0070 67800000 		jr	ra
  79              	.LVL7:
  80              	.L4:
  81              		.cfi_restore_state
  18:src/PCB.cpp   ****         Scheduler::put(old);
  82              		.loc 1 18 9 is_stmt 1
  18:src/PCB.cpp   ****         Scheduler::put(old);
  83              		.loc 1 18 20 is_stmt 0
  84 0074 23A40402 		sw	zero,40(s1)
  19:src/PCB.cpp   ****     }
  85              		.loc 1 19 9 is_stmt 1
  19:src/PCB.cpp   ****     }
  86              		.loc 1 19 23 is_stmt 0
  87 0078 13850400 		mv	a0,s1
  88 007c 97000000 		call	_ZN9Scheduler3putEP3PCB@plt
  88      E7800000 
  89              	.LVL8:
  90 0084 6FF0DFFA 		j	.L2
  91              		.cfi_endproc
  92              	.LFE48:
  94              		.align	2
  95              		.globl	_ZN3PCB4exitEv
  97              	_ZN3PCB4exitEv:
  98              	.LFB49:
  28:src/PCB.cpp   **** 
  29:src/PCB.cpp   **** int PCB::exit() {
  99              		.loc 1 29 17 is_stmt 1
 100              		.cfi_startproc
  30:src/PCB.cpp   ****     if(running->state==RUNNING){
 101              		.loc 1 30 5
 102              		.loc 1 30 17 is_stmt 0
 103 0088 97070000 		ld	a5,.LANCHOR0
 103      83B70700 
 104 0090 83A68702 		lw	a3,40(a5)
 105              		.loc 1 30 5
 106 0094 13071000 		li	a4,1
GAS LISTING /tmp/ccVPohSk.s 			page 4


 107 0098 639CE602 		bne	a3,a4,.L7
  29:src/PCB.cpp   ****     if(running->state==RUNNING){
 108              		.loc 1 29 17
 109 009c 130101FF 		addi	sp,sp,-16
 110              		.cfi_def_cfa_offset 16
 111 00a0 23341100 		sd	ra,8(sp)
 112 00a4 23308100 		sd	s0,0(sp)
 113              		.cfi_offset 1, -8
 114              		.cfi_offset 8, -16
 115 00a8 13040101 		addi	s0,sp,16
 116              		.cfi_def_cfa 8, 0
  31:src/PCB.cpp   ****         running->state=FINISHED;
 117              		.loc 1 31 9 is_stmt 1
 118              		.loc 1 31 23 is_stmt 0
 119 00ac 13073000 		li	a4,3
 120 00b0 23A4E702 		sw	a4,40(a5)
  32:src/PCB.cpp   ****         thread_dispatch();
 121              		.loc 1 32 9 is_stmt 1
 122              		.loc 1 32 24 is_stmt 0
 123 00b4 97000000 		call	_Z15thread_dispatchv@plt
 123      E7800000 
 124              	.LVL9:
  33:src/PCB.cpp   ****         return 0;
 125              		.loc 1 33 9 is_stmt 1
 126              		.loc 1 33 16 is_stmt 0
 127 00bc 13050000 		li	a0,0
  34:src/PCB.cpp   ****     }
  35:src/PCB.cpp   ****     return -1;
  36:src/PCB.cpp   **** }
 128              		.loc 1 36 1
 129 00c0 83308100 		ld	ra,8(sp)
 130              		.cfi_restore 1
 131 00c4 03340100 		ld	s0,0(sp)
 132              		.cfi_restore 8
 133              		.cfi_def_cfa 2, 16
 134 00c8 13010101 		addi	sp,sp,16
 135              		.cfi_def_cfa_offset 0
 136 00cc 67800000 		jr	ra
 137              	.L7:
  35:src/PCB.cpp   **** }
 138              		.loc 1 35 13
 139 00d0 1305F0FF 		li	a0,-1
 140              		.loc 1 36 1
 141 00d4 67800000 		ret
 142              		.cfi_endproc
 143              	.LFE49:
 145              		.align	2
 146              		.globl	_ZN3PCB7wrapperEv
 148              	_ZN3PCB7wrapperEv:
 149              	.LFB50:
  37:src/PCB.cpp   **** 
  38:src/PCB.cpp   **** void PCB::wrapper() {
 150              		.loc 1 38 21 is_stmt 1
 151              		.cfi_startproc
 152 00d8 130101FF 		addi	sp,sp,-16
 153              		.cfi_def_cfa_offset 16
 154 00dc 23341100 		sd	ra,8(sp)
GAS LISTING /tmp/ccVPohSk.s 			page 5


 155 00e0 23308100 		sd	s0,0(sp)
 156              		.cfi_offset 1, -8
 157              		.cfi_offset 8, -16
 158 00e4 13040101 		addi	s0,sp,16
 159              		.cfi_def_cfa 8, 0
  39:src/PCB.cpp   ****     Riscv::popSppSpie();
 160              		.loc 1 39 5
 161              		.loc 1 39 22 is_stmt 0
 162 00e8 97000000 		call	_ZN5Riscv10popSppSpieEv@plt
 162      E7800000 
 163              	.LVL10:
  40:src/PCB.cpp   ****     running->body(running->args);
 164              		.loc 1 40 5 is_stmt 1
 165              		.loc 1 40 14 is_stmt 0
 166 00f0 97070000 		ld	a5,.LANCHOR0
 166      83B70700 
 167 00f8 03B70700 		ld	a4,0(a5)
 168              		.loc 1 40 18
 169 00fc 03B50701 		ld	a0,16(a5)
 170 0100 E7000700 		jalr	a4
 171              	.LVL11:
  41:src/PCB.cpp   ****     thread_exit();
 172              		.loc 1 41 5 is_stmt 1
 173              		.loc 1 41 16 is_stmt 0
 174 0104 97000000 		call	_Z11thread_exitv@plt
 174      E7800000 
 175              	.LVL12:
  42:src/PCB.cpp   **** }
 176              		.loc 1 42 1
 177 010c 83308100 		ld	ra,8(sp)
 178              		.cfi_restore 1
 179 0110 03340100 		ld	s0,0(sp)
 180              		.cfi_restore 8
 181              		.cfi_def_cfa 2, 16
 182 0114 13010101 		addi	sp,sp,16
 183              		.cfi_def_cfa_offset 0
 184 0118 67800000 		jr	ra
 185              		.cfi_endproc
 186              	.LFE50:
 188              		.globl	_ZN3PCB7runningE
 189              		.bss
 190              		.align	3
 191              		.set	.LANCHOR0,. + 0
 194              	_ZN3PCB7runningE:
 195 0000 00000000 		.zero	8
 195      00000000 
 196              		.text
 197              	.Letext0:
 198              		.file 3 "src/../h/Scheduler.hpp"
 199              		.file 4 "src/../h/../h/../lib/hw.h"
 200              		.file 5 "src/../h/riscv.hpp"
 201              		.file 6 "src/../h/../h/syscall_c.hpp"
GAS LISTING /tmp/ccVPohSk.s 			page 6


DEFINED SYMBOLS
                            *ABS*:0000000000000000 PCB.cpp
     /tmp/ccVPohSk.s:9      .text:0000000000000000 _ZN3PCB8dispatchEv
     /tmp/ccVPohSk.s:13     .text:0000000000000000 .L0 
     /tmp/ccVPohSk.s:14     .text:0000000000000000 .L0 
     /tmp/ccVPohSk.s:15     .text:0000000000000004 .L0 
     /tmp/ccVPohSk.s:19     .text:0000000000000010 .L0 
     /tmp/ccVPohSk.s:20     .text:0000000000000010 .L0 
     /tmp/ccVPohSk.s:21     .text:0000000000000010 .L0 
     /tmp/ccVPohSk.s:23     .text:0000000000000014 .L0 
     /tmp/ccVPohSk.s:25     .text:0000000000000014 .L0 
     /tmp/ccVPohSk.s:26     .text:0000000000000014 .L0 
     /tmp/ccVPohSk.s:29     .text:000000000000001c .L0 
     /tmp/ccVPohSk.s:30     .text:000000000000001c .L0 
     /tmp/ccVPohSk.s:36     .text:0000000000000024 .L0 
     /tmp/ccVPohSk.s:37     .text:0000000000000024 .L0 
     /tmp/ccVPohSk.s:38     .text:0000000000000024 .L0 
     /tmp/ccVPohSk.s:43     .text:0000000000000028 .L0 
     /tmp/ccVPohSk.s:47     .text:0000000000000030 .L0 
     /tmp/ccVPohSk.s:48     .text:0000000000000030 .L0 
     /tmp/ccVPohSk.s:51     .text:0000000000000038 .L0 
     /tmp/ccVPohSk.s:53     .text:0000000000000040 .L0 
     /tmp/ccVPohSk.s:54     .text:0000000000000040 .L0 
     /tmp/ccVPohSk.s:57     .text:0000000000000048 .L0 
     /tmp/ccVPohSk.s:58     .text:0000000000000048 .L0 
     /tmp/ccVPohSk.s:63     .text:0000000000000058 .L0 
     /tmp/ccVPohSk.s:64     .text:0000000000000058 .L0 
     /tmp/ccVPohSk.s:67     .text:0000000000000060 .L0 
     /tmp/ccVPohSk.s:68     .text:0000000000000064 .L0 
     /tmp/ccVPohSk.s:69     .text:0000000000000064 .L0 
     /tmp/ccVPohSk.s:71     .text:0000000000000068 .L0 
     /tmp/ccVPohSk.s:72     .text:0000000000000068 .L0 
     /tmp/ccVPohSk.s:74     .text:000000000000006c .L0 
     /tmp/ccVPohSk.s:77     .text:0000000000000070 .L0 
     /tmp/ccVPohSk.s:81     .text:0000000000000074 .L0 
     /tmp/ccVPohSk.s:83     .text:0000000000000074 .L0 
     /tmp/ccVPohSk.s:84     .text:0000000000000074 .L0 
     /tmp/ccVPohSk.s:86     .text:0000000000000078 .L0 
     /tmp/ccVPohSk.s:87     .text:0000000000000078 .L0 
     /tmp/ccVPohSk.s:91     .text:0000000000000088 .L0 
     /tmp/ccVPohSk.s:97     .text:0000000000000088 _ZN3PCB4exitEv
     /tmp/ccVPohSk.s:100    .text:0000000000000088 .L0 
     /tmp/ccVPohSk.s:101    .text:0000000000000088 .L0 
     /tmp/ccVPohSk.s:102    .text:0000000000000088 .L0 
     /tmp/ccVPohSk.s:103    .text:0000000000000088 .L0 
     /tmp/ccVPohSk.s:106    .text:0000000000000094 .L0 
     /tmp/ccVPohSk.s:109    .text:000000000000009c .L0 
     /tmp/ccVPohSk.s:110    .text:00000000000000a0 .L0 
     /tmp/ccVPohSk.s:113    .text:00000000000000a8 .L0 
     /tmp/ccVPohSk.s:114    .text:00000000000000a8 .L0 
     /tmp/ccVPohSk.s:116    .text:00000000000000ac .L0 
     /tmp/ccVPohSk.s:118    .text:00000000000000ac .L0 
     /tmp/ccVPohSk.s:119    .text:00000000000000ac .L0 
     /tmp/ccVPohSk.s:122    .text:00000000000000b4 .L0 
     /tmp/ccVPohSk.s:123    .text:00000000000000b4 .L0 
     /tmp/ccVPohSk.s:126    .text:00000000000000bc .L0 
     /tmp/ccVPohSk.s:127    .text:00000000000000bc .L0 
GAS LISTING /tmp/ccVPohSk.s 			page 7


     /tmp/ccVPohSk.s:129    .text:00000000000000c0 .L0 
     /tmp/ccVPohSk.s:130    .text:00000000000000c4 .L0 
     /tmp/ccVPohSk.s:132    .text:00000000000000c8 .L0 
     /tmp/ccVPohSk.s:133    .text:00000000000000c8 .L0 
     /tmp/ccVPohSk.s:135    .text:00000000000000cc .L0 
     /tmp/ccVPohSk.s:139    .text:00000000000000d0 .L0 
     /tmp/ccVPohSk.s:141    .text:00000000000000d4 .L0 
     /tmp/ccVPohSk.s:142    .text:00000000000000d8 .L0 
     /tmp/ccVPohSk.s:148    .text:00000000000000d8 _ZN3PCB7wrapperEv
     /tmp/ccVPohSk.s:151    .text:00000000000000d8 .L0 
     /tmp/ccVPohSk.s:152    .text:00000000000000d8 .L0 
     /tmp/ccVPohSk.s:153    .text:00000000000000dc .L0 
     /tmp/ccVPohSk.s:156    .text:00000000000000e4 .L0 
     /tmp/ccVPohSk.s:157    .text:00000000000000e4 .L0 
     /tmp/ccVPohSk.s:159    .text:00000000000000e8 .L0 
     /tmp/ccVPohSk.s:161    .text:00000000000000e8 .L0 
     /tmp/ccVPohSk.s:162    .text:00000000000000e8 .L0 
     /tmp/ccVPohSk.s:165    .text:00000000000000f0 .L0 
     /tmp/ccVPohSk.s:166    .text:00000000000000f0 .L0 
     /tmp/ccVPohSk.s:169    .text:00000000000000fc .L0 
     /tmp/ccVPohSk.s:173    .text:0000000000000104 .L0 
     /tmp/ccVPohSk.s:174    .text:0000000000000104 .L0 
     /tmp/ccVPohSk.s:177    .text:000000000000010c .L0 
     /tmp/ccVPohSk.s:178    .text:0000000000000110 .L0 
     /tmp/ccVPohSk.s:180    .text:0000000000000114 .L0 
     /tmp/ccVPohSk.s:181    .text:0000000000000114 .L0 
     /tmp/ccVPohSk.s:183    .text:0000000000000118 .L0 
     /tmp/ccVPohSk.s:185    .text:000000000000011c .L0 
     /tmp/ccVPohSk.s:194    .bss:0000000000000000 _ZN3PCB7runningE
     /tmp/ccVPohSk.s:191    .bss:0000000000000000 .LANCHOR0
     /tmp/ccVPohSk.s:202    .text:000000000000011c .L0 
     /tmp/ccVPohSk.s:30     .text:000000000000001c .L0 
     /tmp/ccVPohSk.s:51     .text:0000000000000038 .L0 
     /tmp/ccVPohSk.s:103    .text:0000000000000088 .L0 
     /tmp/ccVPohSk.s:166    .text:00000000000000f0 .L0 
     /tmp/ccVPohSk.s:80     .text:0000000000000074 .L4
     /tmp/ccVPohSk.s:45     .text:0000000000000030 .L2
     /tmp/ccVPohSk.s:137    .text:00000000000000d0 .L7
     /tmp/ccVPohSk.s:1047   .debug_abbrev:0000000000000000 .Ldebug_abbrev0
     /tmp/ccVPohSk.s:2095   .debug_str:00000000000005eb .LASF113
     /tmp/ccVPohSk.s:1987   .debug_str:0000000000000336 .LASF114
     /tmp/ccVPohSk.s:1927   .debug_str:000000000000016b .LASF115
     /tmp/ccVPohSk.s:5      .text:0000000000000000 .Ltext0
     /tmp/ccVPohSk.s:197    .text:000000000000011c .Letext0
     /tmp/ccVPohSk.s:1871   .debug_line:0000000000000000 .Ldebug_line0
     /tmp/ccVPohSk.s:2053   .debug_str:00000000000004dc .LASF0
     /tmp/ccVPohSk.s:1895   .debug_str:000000000000009a .LASF14
     /tmp/ccVPohSk.s:2001   .debug_str:000000000000038b .LASF116
     /tmp/ccVPohSk.s:2039   .debug_str:000000000000046b .LASF117
     /tmp/ccVPohSk.s:2077   .debug_str:000000000000057d .LASF9
     /tmp/ccVPohSk.s:2109   .debug_str:0000000000000704 .LASF11
     /tmp/ccVPohSk.s:1983   .debug_str:0000000000000324 .LASF118
     /tmp/ccVPohSk.s:1887   .debug_str:000000000000006b .LASF119
     /tmp/ccVPohSk.s:1963   .debug_str:00000000000002a3 .LASF120
     /tmp/ccVPohSk.s:2055   .debug_str:00000000000004e6 .LASF1
     /tmp/ccVPohSk.s:2051   .debug_str:00000000000004d4 .LASF2
     /tmp/ccVPohSk.s:2069   .debug_str:0000000000000549 .LASF3
GAS LISTING /tmp/ccVPohSk.s 			page 8


     /tmp/ccVPohSk.s:2081   .debug_str:0000000000000593 .LASF4
     /tmp/ccVPohSk.s:2061   .debug_str:0000000000000512 .LASF5
     /tmp/ccVPohSk.s:1959   .debug_str:0000000000000281 .LASF7
     /tmp/ccVPohSk.s:2073   .debug_str:000000000000056b .LASF121
     /tmp/ccVPohSk.s:2049   .debug_str:00000000000004bd .LASF122
     /tmp/ccVPohSk.s:2009   .debug_str:00000000000003cd .LASF6
     /tmp/ccVPohSk.s:1889   .debug_str:0000000000000073 .LASF8
     /tmp/ccVPohSk.s:2023   .debug_str:0000000000000424 .LASF10
     /tmp/ccVPohSk.s:1967   .debug_str:00000000000002ba .LASF12
     /tmp/ccVPohSk.s:1993   .debug_str:000000000000036a .LASF13
     /tmp/ccVPohSk.s:1883   .debug_str:0000000000000055 .LASF46
     /tmp/ccVPohSk.s:1939   .debug_str:00000000000001ee .LASF123
     /tmp/ccVPohSk.s:2113   .debug_str:000000000000072a .LASF124
     /tmp/ccVPohSk.s:1917   .debug_str:000000000000010c .LASF125
     /tmp/ccVPohSk.s:2085   .debug_str:00000000000005b2 .LASF103
     /tmp/ccVPohSk.s:1875   .debug_str:0000000000000008 .LASF105
     /tmp/ccVPohSk.s:2083   .debug_str:000000000000059c .LASF126
     /tmp/ccVPohSk.s:1907   .debug_str:00000000000000cc .LASF127
     /tmp/ccVPohSk.s:1977   .debug_str:000000000000030c .LASF15
     /tmp/ccVPohSk.s:2025   .debug_str:000000000000042d .LASF16
     /tmp/ccVPohSk.s:2027   .debug_str:0000000000000433 .LASF17
     /tmp/ccVPohSk.s:1981   .debug_str:000000000000031c .LASF18
     /tmp/ccVPohSk.s:1915   .debug_str:0000000000000106 .LASF19
     /tmp/ccVPohSk.s:2037   .debug_str:0000000000000465 .LASF20
     /tmp/ccVPohSk.s:1971   .debug_str:00000000000002e3 .LASF49
     /tmp/ccVPohSk.s:2019   .debug_str:0000000000000410 .LASF21
     /tmp/ccVPohSk.s:2057   .debug_str:00000000000004ec .LASF22
     /tmp/ccVPohSk.s:1997   .debug_str:0000000000000374 .LASF23
     /tmp/ccVPohSk.s:1973   .debug_str:00000000000002f3 .LASF25
     /tmp/ccVPohSk.s:1975   .debug_str:00000000000002fa .LASF24
     /tmp/ccVPohSk.s:1901   .debug_str:00000000000000bb .LASF26
     /tmp/ccVPohSk.s:2043   .debug_str:0000000000000494 .LASF27
     /tmp/ccVPohSk.s:2017   .debug_str:00000000000003fd .LASF28
     /tmp/ccVPohSk.s:2107   .debug_str:00000000000006f4 .LASF29
     /tmp/ccVPohSk.s:1957   .debug_str:0000000000000273 .LASF30
     /tmp/ccVPohSk.s:2111   .debug_str:000000000000071b .LASF31
     /tmp/ccVPohSk.s:2099   .debug_str:00000000000006b4 .LASF32
     /tmp/ccVPohSk.s:1989   .debug_str:0000000000000342 .LASF33
     /tmp/ccVPohSk.s:1881   .debug_str:0000000000000045 .LASF34
     /tmp/ccVPohSk.s:1921   .debug_str:000000000000013e .LASF35
     /tmp/ccVPohSk.s:2065   .debug_str:0000000000000522 .LASF36
     /tmp/ccVPohSk.s:2029   .debug_str:0000000000000438 .LASF37
     /tmp/ccVPohSk.s:2035   .debug_str:000000000000045f .LASF38
     /tmp/ccVPohSk.s:2063   .debug_str:0000000000000517 .LASF39
     /tmp/ccVPohSk.s:2121   .debug_str:0000000000000759 .LASF40
     /tmp/ccVPohSk.s:1897   .debug_str:00000000000000a5 .LASF41
     /tmp/ccVPohSk.s:1937   .debug_str:00000000000001d3 .LASF42
     /tmp/ccVPohSk.s:1947   .debug_str:0000000000000230 .LASF43
     /tmp/ccVPohSk.s:1877   .debug_str:000000000000001a .LASF44
     /tmp/ccVPohSk.s:1999   .debug_str:0000000000000382 .LASF45
     /tmp/ccVPohSk.s:1941   .debug_str:00000000000001f6 .LASF47
     /tmp/ccVPohSk.s:1935   .debug_str:00000000000001ca .LASF48
     /tmp/ccVPohSk.s:1933   .debug_str:00000000000001b5 .LASF50
     /tmp/ccVPohSk.s:2075   .debug_str:0000000000000576 .LASF51
     /tmp/ccVPohSk.s:2059   .debug_str:00000000000004ff .LASF52
     /tmp/ccVPohSk.s:2093   .debug_str:00000000000005e4 .LASF53
     /tmp/ccVPohSk.s:2087   .debug_str:00000000000005ba .LASF54
GAS LISTING /tmp/ccVPohSk.s 			page 9


     /tmp/ccVPohSk.s:1953   .debug_str:0000000000000265 .LASF55
     /tmp/ccVPohSk.s:1929   .debug_str:000000000000018e .LASF56
     /tmp/ccVPohSk.s:1873   .debug_str:0000000000000000 .LASF57
     /tmp/ccVPohSk.s:2125   .debug_str:0000000000000782 .LASF58
     /tmp/ccVPohSk.s:1899   .debug_str:00000000000000b3 .LASF59
     /tmp/ccVPohSk.s:1911   .debug_str:00000000000000d6 .LASF60
     /tmp/ccVPohSk.s:2129   .debug_str:00000000000007a1 .LASF61
     /tmp/ccVPohSk.s:1943   .debug_str:000000000000020b .LASF62
     /tmp/ccVPohSk.s:2021   .debug_str:000000000000041d .LASF63
     /tmp/ccVPohSk.s:2117   .debug_str:0000000000000741 .LASF64
     /tmp/ccVPohSk.s:2105   .debug_str:00000000000006ed .LASF65
     /tmp/ccVPohSk.s:1951   .debug_str:0000000000000252 .LASF66
     /tmp/ccVPohSk.s:1955   .debug_str:000000000000026d .LASF67
     /tmp/ccVPohSk.s:2091   .debug_str:00000000000005d2 .LASF68
     /tmp/ccVPohSk.s:1893   .debug_str:0000000000000094 .LASF69
     /tmp/ccVPohSk.s:2131   .debug_str:00000000000007a9 .LASF70
     /tmp/ccVPohSk.s:2127   .debug_str:0000000000000796 .LASF71
     /tmp/ccVPohSk.s:2071   .debug_str:0000000000000553 .LASF72
     /tmp/ccVPohSk.s:1979   .debug_str:0000000000000311 .LASF73
     /tmp/ccVPohSk.s:1991   .debug_str:0000000000000352 .LASF74
     /tmp/ccVPohSk.s:1919   .debug_str:0000000000000134 .LASF75
     /tmp/ccVPohSk.s:1969   .debug_str:00000000000002cd .LASF76
     /tmp/ccVPohSk.s:2005   .debug_str:00000000000003b2 .LASF77
     /tmp/ccVPohSk.s:1961   .debug_str:000000000000028d .LASF78
     /tmp/ccVPohSk.s:2015   .debug_str:00000000000003f6 .LASF79
     /tmp/ccVPohSk.s:1931   .debug_str:00000000000001a2 .LASF80
     /tmp/ccVPohSk.s:1885   .debug_str:0000000000000064 .LASF81
     /tmp/ccVPohSk.s:2003   .debug_str:000000000000039f .LASF82
     /tmp/ccVPohSk.s:2079   .debug_str:0000000000000584 .LASF83
     /tmp/ccVPohSk.s:1913   .debug_str:00000000000000ea .LASF84
     /tmp/ccVPohSk.s:2089   .debug_str:00000000000005cd .LASF85
     /tmp/ccVPohSk.s:2047   .debug_str:00000000000004ac .LASF86
     /tmp/ccVPohSk.s:1903   .debug_str:00000000000000c2 .LASF87
     /tmp/ccVPohSk.s:2007   .debug_str:00000000000003bc .LASF88
     /tmp/ccVPohSk.s:1891   .debug_str:000000000000008f .LASF89
     /tmp/ccVPohSk.s:2123   .debug_str:0000000000000771 .LASF90
     /tmp/ccVPohSk.s:1905   .debug_str:00000000000000c7 .LASF91
     /tmp/ccVPohSk.s:1879   .debug_str:0000000000000034 .LASF92
     /tmp/ccVPohSk.s:2045   .debug_str:00000000000004a7 .LASF93
     /tmp/ccVPohSk.s:2101   .debug_str:00000000000006c3 .LASF94
     /tmp/ccVPohSk.s:2033   .debug_str:000000000000045a .LASF95
     /tmp/ccVPohSk.s:1945   .debug_str:000000000000021f .LASF96
     /tmp/ccVPohSk.s:1995   .debug_str:000000000000036f .LASF97
     /tmp/ccVPohSk.s:2067   .debug_str:0000000000000538 .LASF98
     /tmp/ccVPohSk.s:1909   .debug_str:00000000000000d1 .LASF99
     /tmp/ccVPohSk.s:1923   .debug_str:000000000000014a .LASF100
     /tmp/ccVPohSk.s:1985   .debug_str:000000000000032e .LASF101
     /tmp/ccVPohSk.s:2013   .debug_str:00000000000003e2 .LASF102
     /tmp/ccVPohSk.s:2011   .debug_str:00000000000003d6 .LASF104
     /tmp/ccVPohSk.s:2103   .debug_str:00000000000006d4 .LASF106
     /tmp/ccVPohSk.s:2115   .debug_str:0000000000000738 .LASF107
     /tmp/ccVPohSk.s:2097   .debug_str:00000000000006af .LASF108
     /tmp/ccVPohSk.s:1965   .debug_str:00000000000002a9 .LASF128
     /tmp/ccVPohSk.s:149    .text:00000000000000d8 .LFB50
     /tmp/ccVPohSk.s:186    .text:000000000000011c .LFE50
     /tmp/ccVPohSk.s:163    .text:00000000000000f0 .LVL10
     /tmp/ccVPohSk.s:175    .text:000000000000010c .LVL12
GAS LISTING /tmp/ccVPohSk.s 			page 10


     /tmp/ccVPohSk.s:98     .text:0000000000000088 .LFB49
     /tmp/ccVPohSk.s:143    .text:00000000000000d8 .LFE49
     /tmp/ccVPohSk.s:124    .text:00000000000000bc .LVL9
     /tmp/ccVPohSk.s:10     .text:0000000000000000 .LFB48
     /tmp/ccVPohSk.s:92     .text:0000000000000088 .LFE48
     /tmp/ccVPohSk.s:1840   .debug_loc:0000000000000000 .LLST0
     /tmp/ccVPohSk.s:33     .text:0000000000000024 .LBB4
     /tmp/ccVPohSk.s:41     .text:0000000000000028 .LBE4
     /tmp/ccVPohSk.s:1851   .debug_loc:0000000000000036 .LLST1
     /tmp/ccVPohSk.s:27     .text:000000000000001c .LVL0
     /tmp/ccVPohSk.s:49     .text:0000000000000038 .LVL3
     /tmp/ccVPohSk.s:61     .text:0000000000000058 .LVL4
     /tmp/ccVPohSk.s:65     .text:0000000000000060 .LVL5
     /tmp/ccVPohSk.s:89     .text:0000000000000084 .LVL8
     /tmp/ccVPohSk.s:2119   .debug_str:0000000000000754 .LASF129
     /tmp/ccVPohSk.s:2041   .debug_str:0000000000000483 .LASF109
     /tmp/ccVPohSk.s:2031   .debug_str:000000000000044e .LASF111
     /tmp/ccVPohSk.s:1949   .debug_str:000000000000023d .LASF110
     /tmp/ccVPohSk.s:1925   .debug_str:000000000000015b .LASF112
     /tmp/ccVPohSk.s:31     .text:0000000000000024 .LVL1
     /tmp/ccVPohSk.s:75     .text:000000000000006c .LVL6
     /tmp/ccVPohSk.s:79     .text:0000000000000074 .LVL7
     /tmp/ccVPohSk.s:39     .text:0000000000000028 .LVL2
     /tmp/ccVPohSk.s:203    .debug_info:0000000000000000 .Ldebug_info0

UNDEFINED SYMBOLS
_ZN5Riscv13pushRegistersEv
_ZN9Scheduler3getEv
_ZN3PCB13contextSwitchEPNS_7ContextES1_
_ZN5Riscv12popRegistersEv
_ZN9Scheduler3putEP3PCB
_Z15thread_dispatchv
_ZN5Riscv10popSppSpieEv
_Z11thread_exitv
