GAS LISTING /tmp/cczYiKDy.s 			page 1


   1              		.file	"PCB.cpp"
   2              		.option pic
   3              		.option norelax
   4              		.text
   5              	.Ltext0:
   6              		.align	2
   7              		.globl	_ZN3PCB7wrapperEv
   9              	_ZN3PCB7wrapperEv:
  10              	.LFB57:
  11              		.file 1 "src/PCB.cpp"
   1:src/PCB.cpp   **** //
   2:src/PCB.cpp   **** // Created by os on 7/28/23.
   3:src/PCB.cpp   **** //
   4:src/PCB.cpp   **** 
   5:src/PCB.cpp   **** #include "../h/PCB.hpp"
   6:src/PCB.cpp   **** #include "../h/Sem.hpp"
   7:src/PCB.cpp   **** 
   8:src/PCB.cpp   **** PCB* PCB::running;
   9:src/PCB.cpp   **** 
  10:src/PCB.cpp   **** 
  11:src/PCB.cpp   **** PCB::PCB(PCB::Body body, void *args, uint64 *stack) {
  12:src/PCB.cpp   ****     this->body = body;
  13:src/PCB.cpp   **** 
  14:src/PCB.cpp   ****     this->stack = stack;
  15:src/PCB.cpp   ****     context = {(uint64) &wrapper,
  16:src/PCB.cpp   ****                stack != nullptr ? (uint64) &stack[DEFAULT_STACK_SIZE] : 0
  17:src/PCB.cpp   ****     };
  18:src/PCB.cpp   ****     this->args = args;
  19:src/PCB.cpp   ****     state = READY;
  20:src/PCB.cpp   **** 
  21:src/PCB.cpp   ****     //semaphore = new Sem();
  22:src/PCB.cpp   **** }
  23:src/PCB.cpp   **** 
  24:src/PCB.cpp   **** PCB::~PCB() {
  25:src/PCB.cpp   ****     if(body)delete[] stack;
  26:src/PCB.cpp   ****     //delete semaphore;
  27:src/PCB.cpp   **** }
  28:src/PCB.cpp   **** 
  29:src/PCB.cpp   **** 
  30:src/PCB.cpp   **** void PCB::dispatch() {
  31:src/PCB.cpp   ****     Riscv::pushRegisters();
  32:src/PCB.cpp   **** 
  33:src/PCB.cpp   ****     PCB *old = running;
  34:src/PCB.cpp   ****     if (!old->isFinished()) {
  35:src/PCB.cpp   ****         old->state = READY;
  36:src/PCB.cpp   ****         Scheduler::put(old);
  37:src/PCB.cpp   ****     }
  38:src/PCB.cpp   ****     running = Scheduler::get();
  39:src/PCB.cpp   ****     running->state=RUNNING;
  40:src/PCB.cpp   **** 
  41:src/PCB.cpp   ****     PCB::contextSwitch(&old->context, &running->context);
  42:src/PCB.cpp   **** 
  43:src/PCB.cpp   ****     Riscv::popRegisters();
  44:src/PCB.cpp   **** }
  45:src/PCB.cpp   **** 
  46:src/PCB.cpp   **** void PCB::join() {
  47:src/PCB.cpp   ****     //semaphore->wait();
GAS LISTING /tmp/cczYiKDy.s 			page 2


  48:src/PCB.cpp   **** }
  49:src/PCB.cpp   **** 
  50:src/PCB.cpp   **** int PCB::exit() {
  51:src/PCB.cpp   ****     if(running->state==RUNNING){
  52:src/PCB.cpp   ****         //delete PCB::running->semaphore;
  53:src/PCB.cpp   ****         running->state=FINISHED;
  54:src/PCB.cpp   ****         thread_dispatch();
  55:src/PCB.cpp   ****         return 0;
  56:src/PCB.cpp   ****     }
  57:src/PCB.cpp   ****     return -1;
  58:src/PCB.cpp   **** }
  59:src/PCB.cpp   **** 
  60:src/PCB.cpp   **** void PCB::wrapper() {
  12              		.loc 1 60 21
  13              		.cfi_startproc
  14 0000 130101FF 		addi	sp,sp,-16
  15              		.cfi_def_cfa_offset 16
  16 0004 23341100 		sd	ra,8(sp)
  17 0008 23308100 		sd	s0,0(sp)
  18              		.cfi_offset 1, -8
  19              		.cfi_offset 8, -16
  20 000c 13040101 		addi	s0,sp,16
  21              		.cfi_def_cfa 8, 0
  61:src/PCB.cpp   ****     Riscv::popSppSpie();
  22              		.loc 1 61 5
  23              		.loc 1 61 22 is_stmt 0
  24 0010 97000000 		call	_ZN5Riscv10popSppSpieEv@plt
  24      E7800000 
  25              	.LVL0:
  62:src/PCB.cpp   ****     running->body(running->args);
  26              		.loc 1 62 5 is_stmt 1
  27              		.loc 1 62 14 is_stmt 0
  28 0018 97070000 		ld	a5,.LANCHOR0
  28      83B70700 
  29 0020 03B70700 		ld	a4,0(a5)
  30              		.loc 1 62 18
  31 0024 03B50701 		ld	a0,16(a5)
  32 0028 E7000700 		jalr	a4
  33              	.LVL1:
  63:src/PCB.cpp   ****     thread_exit();
  34              		.loc 1 63 5 is_stmt 1
  35              		.loc 1 63 16 is_stmt 0
  36 002c 97000000 		call	_Z11thread_exitv@plt
  36      E7800000 
  37              	.LVL2:
  64:src/PCB.cpp   **** }
  38              		.loc 1 64 1
  39 0034 83308100 		ld	ra,8(sp)
  40              		.cfi_restore 1
  41 0038 03340100 		ld	s0,0(sp)
  42              		.cfi_restore 8
  43              		.cfi_def_cfa 2, 16
  44 003c 13010101 		addi	sp,sp,16
  45              		.cfi_def_cfa_offset 0
  46 0040 67800000 		jr	ra
  47              		.cfi_endproc
  48              	.LFE57:
GAS LISTING /tmp/cczYiKDy.s 			page 3


  50              		.align	2
  51              		.globl	_ZN3PCBC2EPFvPvES0_Pm
  53              	_ZN3PCBC2EPFvPvES0_Pm:
  54              	.LFB49:
  11:src/PCB.cpp   ****     this->body = body;
  55              		.loc 1 11 1 is_stmt 1
  56              		.cfi_startproc
  57              	.LVL3:
  58 0044 130101FF 		addi	sp,sp,-16
  59              		.cfi_def_cfa_offset 16
  60 0048 23348100 		sd	s0,8(sp)
  61              		.cfi_offset 8, -8
  62 004c 13040101 		addi	s0,sp,16
  63              		.cfi_def_cfa 8, 0
  64              	.LBB4:
  12:src/PCB.cpp   **** 
  65              		.loc 1 12 5
  12:src/PCB.cpp   **** 
  66              		.loc 1 12 16 is_stmt 0
  67 0050 2330B500 		sd	a1,0(a0)
  14:src/PCB.cpp   ****     context = {(uint64) &wrapper,
  68              		.loc 1 14 5 is_stmt 1
  14:src/PCB.cpp   ****     context = {(uint64) &wrapper,
  69              		.loc 1 14 17 is_stmt 0
  70 0054 2334D500 		sd	a3,8(a0)
  15:src/PCB.cpp   ****                stack != nullptr ? (uint64) &stack[DEFAULT_STACK_SIZE] : 0
  71              		.loc 1 15 5 is_stmt 1
  16:src/PCB.cpp   ****     };
  72              		.loc 1 16 33 is_stmt 0
  73 0058 63880602 		beqz	a3,.L5
  16:src/PCB.cpp   ****     };
  74              		.loc 1 16 44 discriminator 1
  75 005c B7870000 		li	a5,32768
  76 0060 B386F600 		add	a3,a3,a5
  77              	.LVL4:
  78              	.L4:
  15:src/PCB.cpp   ****                stack != nullptr ? (uint64) &stack[DEFAULT_STACK_SIZE] : 0
  79              		.loc 1 15 13
  80 0064 97070000 		lla	a5,_ZN3PCB7wrapperEv
  80      93870700 
  81 006c 233CF500 		sd	a5,24(a0)
  82 0070 2330D502 		sd	a3,32(a0)
  18:src/PCB.cpp   ****     state = READY;
  83              		.loc 1 18 5 is_stmt 1
  18:src/PCB.cpp   ****     state = READY;
  84              		.loc 1 18 16 is_stmt 0
  85 0074 2338C500 		sd	a2,16(a0)
  19:src/PCB.cpp   **** 
  86              		.loc 1 19 5 is_stmt 1
  19:src/PCB.cpp   **** 
  87              		.loc 1 19 11 is_stmt 0
  88 0078 23240502 		sw	zero,40(a0)
  89              	.LBE4:
  22:src/PCB.cpp   **** 
  90              		.loc 1 22 1
  91 007c 03348100 		ld	s0,8(sp)
  92              		.cfi_remember_state
GAS LISTING /tmp/cczYiKDy.s 			page 4


  93              		.cfi_restore 8
  94              		.cfi_def_cfa 2, 16
  95 0080 13010101 		addi	sp,sp,16
  96              		.cfi_def_cfa_offset 0
  97 0084 67800000 		jr	ra
  98              	.LVL5:
  99              	.L5:
 100              		.cfi_restore_state
 101              	.LBB5:
  16:src/PCB.cpp   ****     };
 102              		.loc 1 16 33
 103 0088 93060000 		li	a3,0
 104              	.LVL6:
 105 008c 6FF09FFD 		j	.L4
 106              	.LBE5:
 107              		.cfi_endproc
 108              	.LFE49:
 110              		.globl	_ZN3PCBC1EPFvPvES0_Pm
 111              		.set	_ZN3PCBC1EPFvPvES0_Pm,_ZN3PCBC2EPFvPvES0_Pm
 112              		.align	2
 113              		.globl	_ZN3PCBD2Ev
 115              	_ZN3PCBD2Ev:
 116              	.LFB52:
  24:src/PCB.cpp   ****     if(body)delete[] stack;
 117              		.loc 1 24 1 is_stmt 1
 118              		.cfi_startproc
 119              	.LVL7:
 120              	.LBB6:
  25:src/PCB.cpp   ****     //delete semaphore;
 121              		.loc 1 25 5
  25:src/PCB.cpp   ****     //delete semaphore;
 122              		.loc 1 25 8 is_stmt 0
 123 0090 83370500 		ld	a5,0(a0)
  25:src/PCB.cpp   ****     //delete semaphore;
 124              		.loc 1 25 5
 125 0094 638A0702 		beqz	a5,.L10
  25:src/PCB.cpp   ****     //delete semaphore;
 126              		.loc 1 25 13 is_stmt 1 discriminator 1
  25:src/PCB.cpp   ****     //delete semaphore;
 127              		.loc 1 25 22 is_stmt 0 discriminator 1
 128 0098 03358500 		ld	a0,8(a0)
 129              	.LVL8:
  25:src/PCB.cpp   ****     //delete semaphore;
 130              		.loc 1 25 27 discriminator 1
 131 009c 63060502 		beqz	a0,.L10
 132              	.LBE6:
  24:src/PCB.cpp   ****     if(body)delete[] stack;
 133              		.loc 1 24 1 discriminator 2
 134 00a0 130101FF 		addi	sp,sp,-16
 135              		.cfi_def_cfa_offset 16
 136 00a4 23341100 		sd	ra,8(sp)
 137 00a8 23308100 		sd	s0,0(sp)
 138              		.cfi_offset 1, -8
 139              		.cfi_offset 8, -16
 140 00ac 13040101 		addi	s0,sp,16
 141              		.cfi_def_cfa 8, 0
 142              	.LBB7:
GAS LISTING /tmp/cczYiKDy.s 			page 5


  25:src/PCB.cpp   ****     //delete semaphore;
 143              		.loc 1 25 22 discriminator 2
 144 00b0 97000000 		call	_ZdaPv@plt
 144      E7800000 
 145              	.LVL9:
 146              	.LBE7:
  27:src/PCB.cpp   **** 
 147              		.loc 1 27 1 discriminator 2
 148 00b8 83308100 		ld	ra,8(sp)
 149              		.cfi_restore 1
 150 00bc 03340100 		ld	s0,0(sp)
 151              		.cfi_restore 8
 152              		.cfi_def_cfa 2, 16
 153 00c0 13010101 		addi	sp,sp,16
 154              		.cfi_def_cfa_offset 0
 155 00c4 67800000 		jr	ra
 156              	.L10:
 157 00c8 67800000 		ret
 158              		.cfi_endproc
 159              	.LFE52:
 161              		.globl	_ZN3PCBD1Ev
 162              		.set	_ZN3PCBD1Ev,_ZN3PCBD2Ev
 163              		.align	2
 164              		.globl	_ZN3PCB8dispatchEv
 166              	_ZN3PCB8dispatchEv:
 167              	.LFB54:
  30:src/PCB.cpp   ****     Riscv::pushRegisters();
 168              		.loc 1 30 22 is_stmt 1
 169              		.cfi_startproc
 170 00cc 130101FE 		addi	sp,sp,-32
 171              		.cfi_def_cfa_offset 32
 172 00d0 233C1100 		sd	ra,24(sp)
 173 00d4 23388100 		sd	s0,16(sp)
 174 00d8 23349100 		sd	s1,8(sp)
 175              		.cfi_offset 1, -8
 176              		.cfi_offset 8, -16
 177              		.cfi_offset 9, -24
 178 00dc 13040102 		addi	s0,sp,32
 179              		.cfi_def_cfa 8, 0
  31:src/PCB.cpp   **** 
 180              		.loc 1 31 5
  31:src/PCB.cpp   **** 
 181              		.loc 1 31 25 is_stmt 0
 182 00e0 97000000 		call	_ZN5Riscv13pushRegistersEv@plt
 182      E7800000 
 183              	.LVL10:
  33:src/PCB.cpp   ****     if (!old->isFinished()) {
 184              		.loc 1 33 5 is_stmt 1
  33:src/PCB.cpp   ****     if (!old->isFinished()) {
 185              		.loc 1 33 10 is_stmt 0
 186 00e8 97040000 		ld	s1,.LANCHOR0
 186      83B40400 
 187              	.LVL11:
  34:src/PCB.cpp   ****         old->state = READY;
 188              		.loc 1 34 5 is_stmt 1
 189              	.LBB8:
 190              	.LBB9:
GAS LISTING /tmp/cczYiKDy.s 			page 6


 191              		.file 2 "src/../h/PCB.hpp"
   1:src/../h/PCB.hpp **** #ifndef PROJECT_BASE_V1_1_PCB_HPP
   2:src/../h/PCB.hpp **** #define PROJECT_BASE_V1_1_PCB_HPP
   3:src/../h/PCB.hpp **** 
   4:src/../h/PCB.hpp **** 
   5:src/../h/PCB.hpp **** #include "Scheduler.hpp"
   6:src/../h/PCB.hpp **** #include "riscv.hpp"
   7:src/../h/PCB.hpp **** #include "../h/syscall_c.hpp"
   8:src/../h/PCB.hpp **** 
   9:src/../h/PCB.hpp **** class Sem;
  10:src/../h/PCB.hpp **** 
  11:src/../h/PCB.hpp **** class PCB {
  12:src/../h/PCB.hpp **** public:
  13:src/../h/PCB.hpp ****     struct Context {
  14:src/../h/PCB.hpp ****         uint64 ra;
  15:src/../h/PCB.hpp ****         uint64 sp;
  16:src/../h/PCB.hpp ****     };
  17:src/../h/PCB.hpp **** 
  18:src/../h/PCB.hpp ****     enum State {
  19:src/../h/PCB.hpp ****         READY,
  20:src/../h/PCB.hpp ****         RUNNING,
  21:src/../h/PCB.hpp ****         SUSPENDED,
  22:src/../h/PCB.hpp ****         FINISHED
  23:src/../h/PCB.hpp ****     };
  24:src/../h/PCB.hpp **** 
  25:src/../h/PCB.hpp ****     ~PCB();
  26:src/../h/PCB.hpp **** 
  27:src/../h/PCB.hpp ****     bool isFinished() const { return state == FINISHED; }
 192              		.loc 2 27 31
 193              		.loc 2 27 38 is_stmt 0
 194 00f0 03A78402 		lw	a4,40(s1)
 195              	.LVL12:
 196              	.LBE9:
 197              	.LBE8:
  34:src/PCB.cpp   ****         old->state = READY;
 198              		.loc 1 34 5
 199 00f4 93073000 		li	a5,3
 200 00f8 6314F704 		bne	a4,a5,.L16
 201              	.L14:
  38:src/PCB.cpp   ****     running->state=RUNNING;
 202              		.loc 1 38 5 is_stmt 1
  38:src/PCB.cpp   ****     running->state=RUNNING;
 203              		.loc 1 38 29 is_stmt 0
 204 00fc 97000000 		call	_ZN9Scheduler3getEv@plt
 204      E7800000 
 205              	.LVL13:
  38:src/PCB.cpp   ****     running->state=RUNNING;
 206              		.loc 1 38 13
 207 0104 97070000 		sd	a0,.LANCHOR0,a5
 207      23B0A700 
  39:src/PCB.cpp   **** 
 208              		.loc 1 39 5 is_stmt 1
  39:src/PCB.cpp   **** 
 209              		.loc 1 39 19 is_stmt 0
 210 010c 93071000 		li	a5,1
 211 0110 2324F502 		sw	a5,40(a0)
  41:src/PCB.cpp   **** 
GAS LISTING /tmp/cczYiKDy.s 			page 7


 212              		.loc 1 41 5 is_stmt 1
  41:src/PCB.cpp   **** 
 213              		.loc 1 41 23 is_stmt 0
 214 0114 93058501 		addi	a1,a0,24
 215 0118 13858401 		addi	a0,s1,24
 216 011c 97000000 		call	_ZN3PCB13contextSwitchEPNS_7ContextES1_@plt
 216      E7800000 
 217              	.LVL14:
  43:src/PCB.cpp   **** }
 218              		.loc 1 43 5 is_stmt 1
  43:src/PCB.cpp   **** }
 219              		.loc 1 43 24 is_stmt 0
 220 0124 97000000 		call	_ZN5Riscv12popRegistersEv@plt
 220      E7800000 
 221              	.LVL15:
  44:src/PCB.cpp   **** 
 222              		.loc 1 44 1
 223 012c 83308101 		ld	ra,24(sp)
 224              		.cfi_remember_state
 225              		.cfi_restore 1
 226 0130 03340101 		ld	s0,16(sp)
 227              		.cfi_restore 8
 228              		.cfi_def_cfa 2, 32
 229 0134 83348100 		ld	s1,8(sp)
 230              		.cfi_restore 9
 231              	.LVL16:
 232 0138 13010102 		addi	sp,sp,32
 233              		.cfi_def_cfa_offset 0
 234 013c 67800000 		jr	ra
 235              	.LVL17:
 236              	.L16:
 237              		.cfi_restore_state
  35:src/PCB.cpp   ****         Scheduler::put(old);
 238              		.loc 1 35 9 is_stmt 1
  35:src/PCB.cpp   ****         Scheduler::put(old);
 239              		.loc 1 35 20 is_stmt 0
 240 0140 23A40402 		sw	zero,40(s1)
  36:src/PCB.cpp   ****     }
 241              		.loc 1 36 9 is_stmt 1
  36:src/PCB.cpp   ****     }
 242              		.loc 1 36 23 is_stmt 0
 243 0144 13850400 		mv	a0,s1
 244 0148 97000000 		call	_ZN9Scheduler3putEP3PCB@plt
 244      E7800000 
 245              	.LVL18:
 246 0150 6FF0DFFA 		j	.L14
 247              		.cfi_endproc
 248              	.LFE54:
 250              		.align	2
 251              		.globl	_ZN3PCB4joinEv
 253              	_ZN3PCB4joinEv:
 254              	.LFB55:
  46:src/PCB.cpp   ****     //semaphore->wait();
 255              		.loc 1 46 18 is_stmt 1
 256              		.cfi_startproc
 257              	.LVL19:
 258 0154 130101FF 		addi	sp,sp,-16
GAS LISTING /tmp/cczYiKDy.s 			page 8


 259              		.cfi_def_cfa_offset 16
 260 0158 23348100 		sd	s0,8(sp)
 261              		.cfi_offset 8, -8
 262 015c 13040101 		addi	s0,sp,16
 263              		.cfi_def_cfa 8, 0
  48:src/PCB.cpp   **** 
 264              		.loc 1 48 1 is_stmt 0
 265 0160 03348100 		ld	s0,8(sp)
 266              		.cfi_restore 8
 267              		.cfi_def_cfa 2, 16
 268 0164 13010101 		addi	sp,sp,16
 269              		.cfi_def_cfa_offset 0
 270 0168 67800000 		jr	ra
 271              		.cfi_endproc
 272              	.LFE55:
 274              		.align	2
 275              		.globl	_ZN3PCB4exitEv
 277              	_ZN3PCB4exitEv:
 278              	.LFB56:
  50:src/PCB.cpp   ****     if(running->state==RUNNING){
 279              		.loc 1 50 17 is_stmt 1
 280              		.cfi_startproc
  51:src/PCB.cpp   ****         //delete PCB::running->semaphore;
 281              		.loc 1 51 5
  51:src/PCB.cpp   ****         //delete PCB::running->semaphore;
 282              		.loc 1 51 17 is_stmt 0
 283 016c 97070000 		ld	a5,.LANCHOR0
 283      83B70700 
 284 0174 83A68702 		lw	a3,40(a5)
  51:src/PCB.cpp   ****         //delete PCB::running->semaphore;
 285              		.loc 1 51 5
 286 0178 13071000 		li	a4,1
 287 017c 639CE602 		bne	a3,a4,.L21
  50:src/PCB.cpp   ****     if(running->state==RUNNING){
 288              		.loc 1 50 17
 289 0180 130101FF 		addi	sp,sp,-16
 290              		.cfi_def_cfa_offset 16
 291 0184 23341100 		sd	ra,8(sp)
 292 0188 23308100 		sd	s0,0(sp)
 293              		.cfi_offset 1, -8
 294              		.cfi_offset 8, -16
 295 018c 13040101 		addi	s0,sp,16
 296              		.cfi_def_cfa 8, 0
  53:src/PCB.cpp   ****         thread_dispatch();
 297              		.loc 1 53 9 is_stmt 1
  53:src/PCB.cpp   ****         thread_dispatch();
 298              		.loc 1 53 23 is_stmt 0
 299 0190 13073000 		li	a4,3
 300 0194 23A4E702 		sw	a4,40(a5)
  54:src/PCB.cpp   ****         return 0;
 301              		.loc 1 54 9 is_stmt 1
  54:src/PCB.cpp   ****         return 0;
 302              		.loc 1 54 24 is_stmt 0
 303 0198 97000000 		call	_Z15thread_dispatchv@plt
 303      E7800000 
 304              	.LVL20:
  55:src/PCB.cpp   ****     }
GAS LISTING /tmp/cczYiKDy.s 			page 9


 305              		.loc 1 55 9 is_stmt 1
  55:src/PCB.cpp   ****     }
 306              		.loc 1 55 16 is_stmt 0
 307 01a0 13050000 		li	a0,0
  58:src/PCB.cpp   **** 
 308              		.loc 1 58 1
 309 01a4 83308100 		ld	ra,8(sp)
 310              		.cfi_restore 1
 311 01a8 03340100 		ld	s0,0(sp)
 312              		.cfi_restore 8
 313              		.cfi_def_cfa 2, 16
 314 01ac 13010101 		addi	sp,sp,16
 315              		.cfi_def_cfa_offset 0
 316 01b0 67800000 		jr	ra
 317              	.L21:
  57:src/PCB.cpp   **** }
 318              		.loc 1 57 13
 319 01b4 1305F0FF 		li	a0,-1
  58:src/PCB.cpp   **** 
 320              		.loc 1 58 1
 321 01b8 67800000 		ret
 322              		.cfi_endproc
 323              	.LFE56:
 325              		.globl	_ZN3PCB7runningE
 326              		.bss
 327              		.align	3
 328              		.set	.LANCHOR0,. + 0
 331              	_ZN3PCB7runningE:
 332 0000 00000000 		.zero	8
 332      00000000 
 333              		.text
 334              	.Letext0:
 335              		.file 3 "src/../h/../lib/hw.h"
 336              		.file 4 "src/../h/Scheduler.hpp"
 337              		.file 5 "src/../h/list.hpp"
 338              		.file 6 "src/../h/riscv.hpp"
 339              		.file 7 "src/../h/../h/syscall_c.hpp"
GAS LISTING /tmp/cczYiKDy.s 			page 10

