GAS LISTING /tmp/cc6HxLXV.s 			page 1


   1              		.file	"PCB.cpp"
   2              		.option pic
   3              		.option norelax
   4              		.text
   5              	.Ltext0:
   6              		.align	2
   7              		.globl	_ZN3PCB7wrapperEv
   9              	_ZN3PCB7wrapperEv:
  10              	.LFB51:
  11              		.file 1 "src/PCB.cpp"
   1:src/PCB.cpp   **** //
   2:src/PCB.cpp   **** // Created by os on 7/28/23.
   3:src/PCB.cpp   **** //
   4:src/PCB.cpp   **** 
   5:src/PCB.cpp   **** #include "../h/PCB.hpp"
   6:src/PCB.cpp   **** 
   7:src/PCB.cpp   **** 
   8:src/PCB.cpp   **** PCB* PCB::running;
   9:src/PCB.cpp   **** 
  10:src/PCB.cpp   **** PCB *PCB::createThread(PCB::Body body, void *args, uint64* stack) {
  11:src/PCB.cpp   ****     return new PCB(body, args, stack);
  12:src/PCB.cpp   **** }
  13:src/PCB.cpp   **** 
  14:src/PCB.cpp   **** 
  15:src/PCB.cpp   **** void PCB::dispatch() {
  16:src/PCB.cpp   ****     Riscv::pushRegisters();
  17:src/PCB.cpp   **** 
  18:src/PCB.cpp   ****     PCB *old = running;
  19:src/PCB.cpp   ****     if (!old->isFinished()) {
  20:src/PCB.cpp   ****         old->state = READY;
  21:src/PCB.cpp   ****         Scheduler::put(old);
  22:src/PCB.cpp   ****     }
  23:src/PCB.cpp   ****     running = Scheduler::get();
  24:src/PCB.cpp   ****     running->state=RUNNING;
  25:src/PCB.cpp   **** 
  26:src/PCB.cpp   ****     PCB::contextSwitch(&old->context, &running->context);
  27:src/PCB.cpp   **** 
  28:src/PCB.cpp   ****     Riscv::popRegisters();
  29:src/PCB.cpp   **** }
  30:src/PCB.cpp   **** 
  31:src/PCB.cpp   **** int PCB::exit() {
  32:src/PCB.cpp   ****     if(running->state==RUNNING){
  33:src/PCB.cpp   ****         running->state=FINISHED;
  34:src/PCB.cpp   ****         dispatch();
  35:src/PCB.cpp   ****         return 0;
  36:src/PCB.cpp   ****     }
  37:src/PCB.cpp   ****     return -1;
  38:src/PCB.cpp   **** }
  39:src/PCB.cpp   **** 
  40:src/PCB.cpp   **** void PCB::wrapper() {
  12              		.loc 1 40 21
  13              		.cfi_startproc
  14 0000 130101FF 		addi	sp,sp,-16
  15              		.cfi_def_cfa_offset 16
  16 0004 23341100 		sd	ra,8(sp)
  17 0008 23308100 		sd	s0,0(sp)
  18              		.cfi_offset 1, -8
GAS LISTING /tmp/cc6HxLXV.s 			page 2


  19              		.cfi_offset 8, -16
  20 000c 13040101 		addi	s0,sp,16
  21              		.cfi_def_cfa 8, 0
  41:src/PCB.cpp   ****     Riscv::popSppSpie();
  22              		.loc 1 41 5
  23              		.loc 1 41 22 is_stmt 0
  24 0010 97000000 		call	_ZN5Riscv10popSppSpieEv@plt
  24      E7800000 
  25              	.LVL0:
  42:src/PCB.cpp   ****     running->body(running->args);
  26              		.loc 1 42 5 is_stmt 1
  27              		.loc 1 42 14 is_stmt 0
  28 0018 97070000 		ld	a5,.LANCHOR0
  28      83B70700 
  29 0020 03B70700 		ld	a4,0(a5)
  30              		.loc 1 42 18
  31 0024 03B50701 		ld	a0,16(a5)
  32 0028 E7000700 		jalr	a4
  33              	.LVL1:
  43:src/PCB.cpp   ****     thread_exit();
  34              		.loc 1 43 5 is_stmt 1
  35              		.loc 1 43 16 is_stmt 0
  36 002c 97000000 		call	_Z11thread_exitv@plt
  36      E7800000 
  37              	.LVL2:
  44:src/PCB.cpp   **** }...
  38              		.loc 1 44 1
  39 0034 83308100 		ld	ra,8(sp)
  40              		.cfi_restore 1
  41 0038 03340100 		ld	s0,0(sp)
  42              		.cfi_restore 8
  43              		.cfi_def_cfa 2, 16
  44 003c 13010101 		addi	sp,sp,16
  45              		.cfi_def_cfa_offset 0
  46 0040 67800000 		jr	ra
  47              		.cfi_endproc
  48              	.LFE51:
  50              		.align	2
  51              		.globl	_ZN3PCB12createThreadEPFvPvES0_Pm
  53              	_ZN3PCB12createThreadEPFvPvES0_Pm:
  54              	.LFB48:
  10:src/PCB.cpp   **** PCB *PCB::createThread(PCB::Body body, void *args, uint64* stack) {
  55              		.loc 1 10 67 is_stmt 1
  56              		.cfi_startproc
  57              	.LVL3:
  58 0044 130101FD 		addi	sp,sp,-48
  59              		.cfi_def_cfa_offset 48
  60 0048 23341102 		sd	ra,40(sp)
  61 004c 23308102 		sd	s0,32(sp)
  62 0050 233C9100 		sd	s1,24(sp)
  63 0054 23382101 		sd	s2,16(sp)
  64 0058 23343101 		sd	s3,8(sp)
  65              		.cfi_offset 1, -8
  66              		.cfi_offset 8, -16
  67              		.cfi_offset 9, -24
  68              		.cfi_offset 18, -32
  69              		.cfi_offset 19, -40
GAS LISTING /tmp/cc6HxLXV.s 			page 3


  70 005c 13040103 		addi	s0,sp,48
  71              		.cfi_def_cfa 8, 0
  72 0060 93090500 		mv	s3,a0
  73 0064 13890500 		mv	s2,a1
  74 0068 93040600 		mv	s1,a2
  11:src/PCB.cpp   ****     return new PCB(body, args, stack);
  75              		.loc 1 11 5
  11:src/PCB.cpp   ****     return new PCB(body, args, stack);
  76              		.loc 1 11 37 is_stmt 0
  77 006c 13050003 		li	a0,48
  78              	.LVL4:
  79 0070 97000000 		call	_Znwm@plt
  79      E7800000 
  80              	.LVL5:
  81              	.LBB7:
  82              	.LBB8:
  83              		.file 2 "src/../h/PCB.hpp"
   1:src/../h/PCB.hpp **** #ifndef PROJECT_BASE_V1_1_PCB_HPP
   2:src/../h/PCB.hpp **** #define PROJECT_BASE_V1_1_PCB_HPP
   3:src/../h/PCB.hpp **** 
   4:src/../h/PCB.hpp **** 
   5:src/../h/PCB.hpp **** #include "Scheduler.hpp"
   6:src/../h/PCB.hpp **** #include "riscv.hpp"
   7:src/../h/PCB.hpp **** #include "../h/syscall_c.hpp"
   8:src/../h/PCB.hpp **** 
   9:src/../h/PCB.hpp **** 
  10:src/../h/PCB.hpp **** 
  11:src/../h/PCB.hpp **** 
  12:src/../h/PCB.hpp **** class PCB {
  13:src/../h/PCB.hpp **** public:
  14:src/../h/PCB.hpp ****     struct Context
  15:src/../h/PCB.hpp ****     {
  16:src/../h/PCB.hpp ****         uint64 ra;
  17:src/../h/PCB.hpp ****         uint64 sp;
  18:src/../h/PCB.hpp ****     };
  19:src/../h/PCB.hpp **** 
  20:src/../h/PCB.hpp ****     enum State{
  21:src/../h/PCB.hpp ****         READY,
  22:src/../h/PCB.hpp ****         RUNNING,
  23:src/../h/PCB.hpp ****         SUSPENDED,
  24:src/../h/PCB.hpp ****         FINISHED
  25:src/../h/PCB.hpp ****     };
  26:src/../h/PCB.hpp ****     ~PCB() { delete[] stack; }
  27:src/../h/PCB.hpp **** 
  28:src/../h/PCB.hpp ****     bool isFinished() const { return state==FINISHED; }
  29:src/../h/PCB.hpp **** 
  30:src/../h/PCB.hpp ****     void setState(State s) { state = s; }
  31:src/../h/PCB.hpp **** 
  32:src/../h/PCB.hpp ****     using Body = void (*)(void*);
  33:src/../h/PCB.hpp **** 
  34:src/../h/PCB.hpp ****     static PCB *createThread(Body body, void* args, uint64* stack);
  35:src/../h/PCB.hpp **** 
  36:src/../h/PCB.hpp ****     static void dispatch();
  37:src/../h/PCB.hpp **** 
  38:src/../h/PCB.hpp ****     static int exit();
  39:src/../h/PCB.hpp **** 
  40:src/../h/PCB.hpp **** 
GAS LISTING /tmp/cc6HxLXV.s 			page 4


  41:src/../h/PCB.hpp ****     static PCB *running;
  42:src/../h/PCB.hpp **** 
  43:src/../h/PCB.hpp **** private:
  44:src/../h/PCB.hpp **** 
  45:src/../h/PCB.hpp ****     static void contextSwitch(Context* old, Context* running);
  46:src/../h/PCB.hpp **** 
  47:src/../h/PCB.hpp ****     static void wrapper();
  48:src/../h/PCB.hpp **** public:
  49:src/../h/PCB.hpp ****     PCB(Body body, void* args, uint64* stack)
  50:src/../h/PCB.hpp ****     {
  51:src/../h/PCB.hpp ****         this->body = body;
  84              		.loc 2 51 9 is_stmt 1
  85              		.loc 2 51 20 is_stmt 0
  86 0078 23303501 		sd	s3,0(a0)
  52:src/../h/PCB.hpp ****         this->stack = stack;
  87              		.loc 2 52 9 is_stmt 1
  88              		.loc 2 52 21 is_stmt 0
  89 007c 23349500 		sd	s1,8(a0)
  53:src/../h/PCB.hpp ****         context = {   (uint64)&wrapper,
  90              		.loc 2 53 9 is_stmt 1
  54:src/../h/PCB.hpp ****                       stack != nullptr ? (uint64) &stack[DEFAULT_STACK_SIZE] : 0
  91              		.loc 2 54 40 is_stmt 0
  92 0080 63800404 		beqz	s1,.L5
  93              		.loc 2 54 51
  94 0084 37860000 		li	a2,32768
  95 0088 B384C400 		add	s1,s1,a2
  96              	.LVL6:
  97              	.L4:
  53:src/../h/PCB.hpp ****         context = {   (uint64)&wrapper,
  98              		.loc 2 53 17
  99 008c 97070000 		lla	a5,_ZN3PCB7wrapperEv
  99      93870700 
 100 0094 233CF500 		sd	a5,24(a0)
 101 0098 23309502 		sd	s1,32(a0)
  55:src/../h/PCB.hpp ****         };
  56:src/../h/PCB.hpp ****         this->args=args;
 102              		.loc 2 56 9 is_stmt 1
 103              		.loc 2 56 19 is_stmt 0
 104 009c 23382501 		sd	s2,16(a0)
  57:src/../h/PCB.hpp ****         state = READY;
 105              		.loc 2 57 9 is_stmt 1
 106              		.loc 2 57 15 is_stmt 0
 107 00a0 23240502 		sw	zero,40(a0)
 108              	.LVL7:
 109              	.LBE8:
 110              	.LBE7:
  12:src/PCB.cpp   **** }
 111              		.loc 1 12 1
 112 00a4 83308102 		ld	ra,40(sp)
 113              		.cfi_remember_state
 114              		.cfi_restore 1
 115 00a8 03340102 		ld	s0,32(sp)
 116              		.cfi_restore 8
 117              		.cfi_def_cfa 2, 48
 118 00ac 83348101 		ld	s1,24(sp)
 119              		.cfi_restore 9
 120 00b0 03390101 		ld	s2,16(sp)
GAS LISTING /tmp/cc6HxLXV.s 			page 5


 121              		.cfi_restore 18
 122              	.LVL8:
 123 00b4 83398100 		ld	s3,8(sp)
 124              		.cfi_restore 19
 125              	.LVL9:
 126 00b8 13010103 		addi	sp,sp,48
 127              		.cfi_def_cfa_offset 0
 128 00bc 67800000 		jr	ra
 129              	.LVL10:
 130              	.L5:
 131              		.cfi_restore_state
 132              	.LBB10:
 133              	.LBB9:
  54:src/../h/PCB.hpp ****         };
 134              		.loc 2 54 40
 135 00c0 93040000 		li	s1,0
 136              	.LVL11:
 137 00c4 6FF09FFC 		j	.L4
 138              	.LBE9:
 139              	.LBE10:
 140              		.cfi_endproc
 141              	.LFE48:
 143              		.align	2
 144              		.globl	_ZN3PCB8dispatchEv
 146              	_ZN3PCB8dispatchEv:
 147              	.LFB49:
  15:src/PCB.cpp   **** void PCB::dispatch() {
 148              		.loc 1 15 22 is_stmt 1
 149              		.cfi_startproc
 150 00c8 130101FE 		addi	sp,sp,-32
 151              		.cfi_def_cfa_offset 32
 152 00cc 233C1100 		sd	ra,24(sp)
 153 00d0 23388100 		sd	s0,16(sp)
 154 00d4 23349100 		sd	s1,8(sp)
 155              		.cfi_offset 1, -8
 156              		.cfi_offset 8, -16
 157              		.cfi_offset 9, -24
 158 00d8 13040102 		addi	s0,sp,32
 159              		.cfi_def_cfa 8, 0
  16:src/PCB.cpp   ****     Riscv::pushRegisters();
 160              		.loc 1 16 5
  16:src/PCB.cpp   ****     Riscv::pushRegisters();
 161              		.loc 1 16 25 is_stmt 0
 162 00dc 97000000 		call	_ZN5Riscv13pushRegistersEv@plt
 162      E7800000 
 163              	.LVL12:
  18:src/PCB.cpp   ****     PCB *old = running;
 164              		.loc 1 18 5 is_stmt 1
  18:src/PCB.cpp   ****     PCB *old = running;
 165              		.loc 1 18 10 is_stmt 0
 166 00e4 97040000 		ld	s1,.LANCHOR0
 166      83B40400 
 167              	.LVL13:
  19:src/PCB.cpp   ****     if (!old->isFinished()) {
 168              		.loc 1 19 5 is_stmt 1
 169              	.LBB11:
 170              	.LBB12:
GAS LISTING /tmp/cc6HxLXV.s 			page 6


  28:src/../h/PCB.hpp **** 
 171              		.loc 2 28 31
  28:src/../h/PCB.hpp **** 
 172              		.loc 2 28 38 is_stmt 0
 173 00ec 03A78402 		lw	a4,40(s1)
 174              	.LVL14:
 175              	.LBE12:
 176              	.LBE11:
  19:src/PCB.cpp   ****     if (!old->isFinished()) {
 177              		.loc 1 19 5
 178 00f0 93073000 		li	a5,3
 179 00f4 6314F704 		bne	a4,a5,.L10
 180              	.L8:
  23:src/PCB.cpp   ****     running = Scheduler::get();
 181              		.loc 1 23 5 is_stmt 1
  23:src/PCB.cpp   ****     running = Scheduler::get();
 182              		.loc 1 23 29 is_stmt 0
 183 00f8 97000000 		call	_ZN9Scheduler3getEv@plt
 183      E7800000 
 184              	.LVL15:
  23:src/PCB.cpp   ****     running = Scheduler::get();
 185              		.loc 1 23 13
 186 0100 97070000 		sd	a0,.LANCHOR0,a5
 186      23B0A700 
  24:src/PCB.cpp   ****     running->state=RUNNING;
 187              		.loc 1 24 5 is_stmt 1
  24:src/PCB.cpp   ****     running->state=RUNNING;
 188              		.loc 1 24 19 is_stmt 0
 189 0108 93071000 		li	a5,1
 190 010c 2324F502 		sw	a5,40(a0)
  26:src/PCB.cpp   ****     PCB::contextSwitch(&old->context, &running->context);
 191              		.loc 1 26 5 is_stmt 1
  26:src/PCB.cpp   ****     PCB::contextSwitch(&old->context, &running->context);
 192              		.loc 1 26 23 is_stmt 0
 193 0110 93058501 		addi	a1,a0,24
 194 0114 13858401 		addi	a0,s1,24
 195 0118 97000000 		call	_ZN3PCB13contextSwitchEPNS_7ContextES1_@plt
 195      E7800000 
 196              	.LVL16:
  28:src/PCB.cpp   ****     Riscv::popRegisters();
 197              		.loc 1 28 5 is_stmt 1
  28:src/PCB.cpp   ****     Riscv::popRegisters();
 198              		.loc 1 28 24 is_stmt 0
 199 0120 97000000 		call	_ZN5Riscv12popRegistersEv@plt
 199      E7800000 
 200              	.LVL17:
  29:src/PCB.cpp   **** }
 201              		.loc 1 29 1
 202 0128 83308101 		ld	ra,24(sp)
 203              		.cfi_remember_state
 204              		.cfi_restore 1
 205 012c 03340101 		ld	s0,16(sp)
 206              		.cfi_restore 8
 207              		.cfi_def_cfa 2, 32
 208 0130 83348100 		ld	s1,8(sp)
 209              		.cfi_restore 9
 210              	.LVL18:
GAS LISTING /tmp/cc6HxLXV.s 			page 7


 211 0134 13010102 		addi	sp,sp,32
 212              		.cfi_def_cfa_offset 0
 213 0138 67800000 		jr	ra
 214              	.LVL19:
 215              	.L10:
 216              		.cfi_restore_state
  20:src/PCB.cpp   ****         old->state = READY;
 217              		.loc 1 20 9 is_stmt 1
  20:src/PCB.cpp   ****         old->state = READY;
 218              		.loc 1 20 20 is_stmt 0
 219 013c 23A40402 		sw	zero,40(s1)
  21:src/PCB.cpp   ****         Scheduler::put(old);
 220              		.loc 1 21 9 is_stmt 1
  21:src/PCB.cpp   ****         Scheduler::put(old);
 221              		.loc 1 21 23 is_stmt 0
 222 0140 13850400 		mv	a0,s1
 223 0144 97000000 		call	_ZN9Scheduler3putEP3PCB@plt
 223      E7800000 
 224              	.LVL20:
 225 014c 6FF0DFFA 		j	.L8
 226              		.cfi_endproc
 227              	.LFE49:
 229              		.align	2
 230              		.globl	_ZN3PCB4exitEv
 232              	_ZN3PCB4exitEv:
 233              	.LFB50:
  31:src/PCB.cpp   **** int PCB::exit() {
 234              		.loc 1 31 17 is_stmt 1
 235              		.cfi_startproc
  32:src/PCB.cpp   ****     if(running->state==RUNNING){
 236              		.loc 1 32 5
  32:src/PCB.cpp   ****     if(running->state==RUNNING){
 237              		.loc 1 32 17 is_stmt 0
 238 0150 97070000 		ld	a5,.LANCHOR0
 238      83B70700 
 239 0158 83A68702 		lw	a3,40(a5)
  32:src/PCB.cpp   ****     if(running->state==RUNNING){
 240              		.loc 1 32 5
 241 015c 13071000 		li	a4,1
 242 0160 639CE602 		bne	a3,a4,.L13
  31:src/PCB.cpp   **** int PCB::exit() {
 243              		.loc 1 31 17
 244 0164 130101FF 		addi	sp,sp,-16
 245              		.cfi_def_cfa_offset 16
 246 0168 23341100 		sd	ra,8(sp)
 247 016c 23308100 		sd	s0,0(sp)
 248              		.cfi_offset 1, -8
 249              		.cfi_offset 8, -16
 250 0170 13040101 		addi	s0,sp,16
 251              		.cfi_def_cfa 8, 0
  33:src/PCB.cpp   ****         running->state=FINISHED;
 252              		.loc 1 33 9 is_stmt 1
  33:src/PCB.cpp   ****         running->state=FINISHED;
 253              		.loc 1 33 23 is_stmt 0
 254 0174 13073000 		li	a4,3
 255 0178 23A4E702 		sw	a4,40(a5)
  34:src/PCB.cpp   ****         dispatch();
GAS LISTING /tmp/cc6HxLXV.s 			page 8


 256              		.loc 1 34 9 is_stmt 1
  34:src/PCB.cpp   ****         dispatch();
 257              		.loc 1 34 17 is_stmt 0
 258 017c 97000000 		call	_ZN3PCB8dispatchEv
 258      E7800000 
 259              	.LVL21:
  35:src/PCB.cpp   ****         return 0;
 260              		.loc 1 35 9 is_stmt 1
  35:src/PCB.cpp   ****         return 0;
 261              		.loc 1 35 16 is_stmt 0
 262 0184 13050000 		li	a0,0
  38:src/PCB.cpp   **** }
 263              		.loc 1 38 1
 264 0188 83308100 		ld	ra,8(sp)
 265              		.cfi_restore 1
 266 018c 03340100 		ld	s0,0(sp)
 267              		.cfi_restore 8
 268              		.cfi_def_cfa 2, 16
 269 0190 13010101 		addi	sp,sp,16
 270              		.cfi_def_cfa_offset 0
 271 0194 67800000 		jr	ra
 272              	.L13:
  37:src/PCB.cpp   ****     return -1;
 273              		.loc 1 37 13
 274 0198 1305F0FF 		li	a0,-1
  38:src/PCB.cpp   **** }
 275              		.loc 1 38 1
 276 019c 67800000 		ret
 277              		.cfi_endproc
 278              	.LFE50:
 280              		.globl	_ZN3PCB7runningE
 281              		.bss
 282              		.align	3
 283              		.set	.LANCHOR0,. + 0
 286              	_ZN3PCB7runningE:
 287 0000 00000000 		.zero	8
 287      00000000 
 288              		.text
 289              	.Letext0:
 290              		.file 3 "src/../h/Scheduler.hpp"
 291              		.file 4 "src/../h/../h/../lib/hw.h"
 292              		.file 5 "src/../h/riscv.hpp"
 293              		.file 6 "src/../h/../h/syscall_c.hpp"
GAS LISTING /tmp/cc6HxLXV.s 			page 9


DEFINED SYMBOLS
                            *ABS*:0000000000000000 PCB.cpp
     /tmp/cc6HxLXV.s:9      .text:0000000000000000 _ZN3PCB7wrapperEv
     /tmp/cc6HxLXV.s:13     .text:0000000000000000 .L0 
     /tmp/cc6HxLXV.s:14     .text:0000000000000000 .L0 
     /tmp/cc6HxLXV.s:15     .text:0000000000000004 .L0 
     /tmp/cc6HxLXV.s:18     .text:000000000000000c .L0 
     /tmp/cc6HxLXV.s:19     .text:000000000000000c .L0 
     /tmp/cc6HxLXV.s:21     .text:0000000000000010 .L0 
     /tmp/cc6HxLXV.s:23     .text:0000000000000010 .L0 
     /tmp/cc6HxLXV.s:24     .text:0000000000000010 .L0 
     /tmp/cc6HxLXV.s:27     .text:0000000000000018 .L0 
     /tmp/cc6HxLXV.s:28     .text:0000000000000018 .L0 
     /tmp/cc6HxLXV.s:31     .text:0000000000000024 .L0 
     /tmp/cc6HxLXV.s:35     .text:000000000000002c .L0 
     /tmp/cc6HxLXV.s:36     .text:000000000000002c .L0 
     /tmp/cc6HxLXV.s:39     .text:0000000000000034 .L0 
     /tmp/cc6HxLXV.s:40     .text:0000000000000038 .L0 
     /tmp/cc6HxLXV.s:42     .text:000000000000003c .L0 
     /tmp/cc6HxLXV.s:43     .text:000000000000003c .L0 
     /tmp/cc6HxLXV.s:45     .text:0000000000000040 .L0 
     /tmp/cc6HxLXV.s:47     .text:0000000000000044 .L0 
     /tmp/cc6HxLXV.s:53     .text:0000000000000044 _ZN3PCB12createThreadEPFvPvES0_Pm
     /tmp/cc6HxLXV.s:56     .text:0000000000000044 .L0 
     /tmp/cc6HxLXV.s:58     .text:0000000000000044 .L0 
     /tmp/cc6HxLXV.s:59     .text:0000000000000048 .L0 
     /tmp/cc6HxLXV.s:65     .text:000000000000005c .L0 
     /tmp/cc6HxLXV.s:66     .text:000000000000005c .L0 
     /tmp/cc6HxLXV.s:67     .text:000000000000005c .L0 
     /tmp/cc6HxLXV.s:68     .text:000000000000005c .L0 
     /tmp/cc6HxLXV.s:69     .text:000000000000005c .L0 
     /tmp/cc6HxLXV.s:71     .text:0000000000000060 .L0 
     /tmp/cc6HxLXV.s:76     .text:000000000000006c .L0 
     /tmp/cc6HxLXV.s:77     .text:000000000000006c .L0 
     /tmp/cc6HxLXV.s:85     .text:0000000000000078 .L0 
     /tmp/cc6HxLXV.s:86     .text:0000000000000078 .L0 
     /tmp/cc6HxLXV.s:88     .text:000000000000007c .L0 
     /tmp/cc6HxLXV.s:89     .text:000000000000007c .L0 
     /tmp/cc6HxLXV.s:91     .text:0000000000000080 .L0 
     /tmp/cc6HxLXV.s:92     .text:0000000000000080 .L0 
     /tmp/cc6HxLXV.s:94     .text:0000000000000084 .L0 
     /tmp/cc6HxLXV.s:99     .text:000000000000008c .L0 
     /tmp/cc6HxLXV.s:103    .text:000000000000009c .L0 
     /tmp/cc6HxLXV.s:104    .text:000000000000009c .L0 
     /tmp/cc6HxLXV.s:106    .text:00000000000000a0 .L0 
     /tmp/cc6HxLXV.s:107    .text:00000000000000a0 .L0 
     /tmp/cc6HxLXV.s:112    .text:00000000000000a4 .L0 
     /tmp/cc6HxLXV.s:113    .text:00000000000000a8 .L0 
     /tmp/cc6HxLXV.s:114    .text:00000000000000a8 .L0 
     /tmp/cc6HxLXV.s:116    .text:00000000000000ac .L0 
     /tmp/cc6HxLXV.s:117    .text:00000000000000ac .L0 
     /tmp/cc6HxLXV.s:119    .text:00000000000000b0 .L0 
     /tmp/cc6HxLXV.s:121    .text:00000000000000b4 .L0 
     /tmp/cc6HxLXV.s:124    .text:00000000000000b8 .L0 
     /tmp/cc6HxLXV.s:127    .text:00000000000000bc .L0 
     /tmp/cc6HxLXV.s:131    .text:00000000000000c0 .L0 
     /tmp/cc6HxLXV.s:135    .text:00000000000000c0 .L0 
GAS LISTING /tmp/cc6HxLXV.s 			page 10


     /tmp/cc6HxLXV.s:140    .text:00000000000000c8 .L0 
     /tmp/cc6HxLXV.s:146    .text:00000000000000c8 _ZN3PCB8dispatchEv
     /tmp/cc6HxLXV.s:149    .text:00000000000000c8 .L0 
     /tmp/cc6HxLXV.s:150    .text:00000000000000c8 .L0 
     /tmp/cc6HxLXV.s:151    .text:00000000000000cc .L0 
     /tmp/cc6HxLXV.s:155    .text:00000000000000d8 .L0 
     /tmp/cc6HxLXV.s:156    .text:00000000000000d8 .L0 
     /tmp/cc6HxLXV.s:157    .text:00000000000000d8 .L0 
     /tmp/cc6HxLXV.s:159    .text:00000000000000dc .L0 
     /tmp/cc6HxLXV.s:161    .text:00000000000000dc .L0 
     /tmp/cc6HxLXV.s:162    .text:00000000000000dc .L0 
     /tmp/cc6HxLXV.s:165    .text:00000000000000e4 .L0 
     /tmp/cc6HxLXV.s:166    .text:00000000000000e4 .L0 
     /tmp/cc6HxLXV.s:171    .text:00000000000000ec .L0 
     /tmp/cc6HxLXV.s:172    .text:00000000000000ec .L0 
     /tmp/cc6HxLXV.s:173    .text:00000000000000ec .L0 
     /tmp/cc6HxLXV.s:178    .text:00000000000000f0 .L0 
     /tmp/cc6HxLXV.s:182    .text:00000000000000f8 .L0 
     /tmp/cc6HxLXV.s:183    .text:00000000000000f8 .L0 
     /tmp/cc6HxLXV.s:186    .text:0000000000000100 .L0 
     /tmp/cc6HxLXV.s:188    .text:0000000000000108 .L0 
     /tmp/cc6HxLXV.s:189    .text:0000000000000108 .L0 
     /tmp/cc6HxLXV.s:192    .text:0000000000000110 .L0 
     /tmp/cc6HxLXV.s:193    .text:0000000000000110 .L0 
     /tmp/cc6HxLXV.s:198    .text:0000000000000120 .L0 
     /tmp/cc6HxLXV.s:199    .text:0000000000000120 .L0 
     /tmp/cc6HxLXV.s:202    .text:0000000000000128 .L0 
     /tmp/cc6HxLXV.s:203    .text:000000000000012c .L0 
     /tmp/cc6HxLXV.s:204    .text:000000000000012c .L0 
     /tmp/cc6HxLXV.s:206    .text:0000000000000130 .L0 
     /tmp/cc6HxLXV.s:207    .text:0000000000000130 .L0 
     /tmp/cc6HxLXV.s:209    .text:0000000000000134 .L0 
     /tmp/cc6HxLXV.s:212    .text:0000000000000138 .L0 
     /tmp/cc6HxLXV.s:216    .text:000000000000013c .L0 
     /tmp/cc6HxLXV.s:218    .text:000000000000013c .L0 
     /tmp/cc6HxLXV.s:219    .text:000000000000013c .L0 
     /tmp/cc6HxLXV.s:221    .text:0000000000000140 .L0 
     /tmp/cc6HxLXV.s:222    .text:0000000000000140 .L0 
     /tmp/cc6HxLXV.s:226    .text:0000000000000150 .L0 
     /tmp/cc6HxLXV.s:232    .text:0000000000000150 _ZN3PCB4exitEv
     /tmp/cc6HxLXV.s:235    .text:0000000000000150 .L0 
     /tmp/cc6HxLXV.s:236    .text:0000000000000150 .L0 
     /tmp/cc6HxLXV.s:237    .text:0000000000000150 .L0 
     /tmp/cc6HxLXV.s:238    .text:0000000000000150 .L0 
     /tmp/cc6HxLXV.s:241    .text:000000000000015c .L0 
     /tmp/cc6HxLXV.s:244    .text:0000000000000164 .L0 
     /tmp/cc6HxLXV.s:245    .text:0000000000000168 .L0 
     /tmp/cc6HxLXV.s:248    .text:0000000000000170 .L0 
     /tmp/cc6HxLXV.s:249    .text:0000000000000170 .L0 
     /tmp/cc6HxLXV.s:251    .text:0000000000000174 .L0 
     /tmp/cc6HxLXV.s:253    .text:0000000000000174 .L0 
     /tmp/cc6HxLXV.s:254    .text:0000000000000174 .L0 
     /tmp/cc6HxLXV.s:257    .text:000000000000017c .L0 
     /tmp/cc6HxLXV.s:258    .text:000000000000017c .L0 
     /tmp/cc6HxLXV.s:261    .text:0000000000000184 .L0 
     /tmp/cc6HxLXV.s:262    .text:0000000000000184 .L0 
     /tmp/cc6HxLXV.s:264    .text:0000000000000188 .L0 
GAS LISTING /tmp/cc6HxLXV.s 			page 11


     /tmp/cc6HxLXV.s:265    .text:000000000000018c .L0 
     /tmp/cc6HxLXV.s:267    .text:0000000000000190 .L0 
     /tmp/cc6HxLXV.s:268    .text:0000000000000190 .L0 
     /tmp/cc6HxLXV.s:270    .text:0000000000000194 .L0 
     /tmp/cc6HxLXV.s:274    .text:0000000000000198 .L0 
     /tmp/cc6HxLXV.s:276    .text:000000000000019c .L0 
     /tmp/cc6HxLXV.s:277    .text:00000000000001a0 .L0 
     /tmp/cc6HxLXV.s:286    .bss:0000000000000000 _ZN3PCB7runningE
     /tmp/cc6HxLXV.s:283    .bss:0000000000000000 .LANCHOR0
     /tmp/cc6HxLXV.s:294    .text:00000000000001a0 .L0 
     /tmp/cc6HxLXV.s:28     .text:0000000000000018 .L0 
     /tmp/cc6HxLXV.s:99     .text:000000000000008c .L0 
     /tmp/cc6HxLXV.s:166    .text:00000000000000e4 .L0 
     /tmp/cc6HxLXV.s:186    .text:0000000000000100 .L0 
     /tmp/cc6HxLXV.s:238    .text:0000000000000150 .L0 
     /tmp/cc6HxLXV.s:130    .text:00000000000000c0 .L5
     /tmp/cc6HxLXV.s:97     .text:000000000000008c .L4
     /tmp/cc6HxLXV.s:215    .text:000000000000013c .L10
     /tmp/cc6HxLXV.s:180    .text:00000000000000f8 .L8
     /tmp/cc6HxLXV.s:272    .text:0000000000000198 .L13
     /tmp/cc6HxLXV.s:1239   .debug_abbrev:0000000000000000 .Ldebug_abbrev0
     /tmp/cc6HxLXV.s:2496   .debug_str:00000000000005ec .LASF109
     /tmp/cc6HxLXV.s:2390   .debug_str:0000000000000326 .LASF110
     /tmp/cc6HxLXV.s:2330   .debug_str:0000000000000161 .LASF111
     /tmp/cc6HxLXV.s:5      .text:0000000000000000 .Ltext0
     /tmp/cc6HxLXV.s:289    .text:00000000000001a0 .Letext0
     /tmp/cc6HxLXV.s:2274   .debug_line:0000000000000000 .Ldebug_line0
     /tmp/cc6HxLXV.s:2452   .debug_str:00000000000004ba .LASF0
     /tmp/cc6HxLXV.s:2300   .debug_str:00000000000000a0 .LASF13
     /tmp/cc6HxLXV.s:2404   .debug_str:000000000000037b .LASF112
     /tmp/cc6HxLXV.s:2438   .debug_str:0000000000000449 .LASF113
     /tmp/cc6HxLXV.s:2384   .debug_str:0000000000000307 .LASF114
     /tmp/cc6HxLXV.s:2292   .debug_str:0000000000000071 .LASF115
     /tmp/cc6HxLXV.s:2366   .debug_str:0000000000000296 .LASF116
     /tmp/cc6HxLXV.s:2454   .debug_str:00000000000004c4 .LASF1
     /tmp/cc6HxLXV.s:2450   .debug_str:00000000000004b2 .LASF2
     /tmp/cc6HxLXV.s:2468   .debug_str:0000000000000527 .LASF3
     /tmp/cc6HxLXV.s:2482   .debug_str:0000000000000594 .LASF4
     /tmp/cc6HxLXV.s:2460   .debug_str:00000000000004f0 .LASF5
     /tmp/cc6HxLXV.s:2362   .debug_str:0000000000000274 .LASF7
     /tmp/cc6HxLXV.s:2474   .debug_str:000000000000055f .LASF117
     /tmp/cc6HxLXV.s:2448   .debug_str:000000000000049b .LASF118
     /tmp/cc6HxLXV.s:2412   .debug_str:00000000000003bd .LASF6
     /tmp/cc6HxLXV.s:2294   .debug_str:0000000000000079 .LASF8
     /tmp/cc6HxLXV.s:2386   .debug_str:0000000000000311 .LASF9
     /tmp/cc6HxLXV.s:2532   .debug_str:0000000000000798 .LASF10
     /tmp/cc6HxLXV.s:2312   .debug_str:00000000000000d2 .LASF119
     /tmp/cc6HxLXV.s:2426   .debug_str:0000000000000414 .LASF37
     /tmp/cc6HxLXV.s:2370   .debug_str:00000000000002ad .LASF39
     /tmp/cc6HxLXV.s:2396   .debug_str:000000000000035a .LASF11
     /tmp/cc6HxLXV.s:2286   .debug_str:0000000000000055 .LASF46
     /tmp/cc6HxLXV.s:2342   .debug_str:00000000000001e4 .LASF120
     /tmp/cc6HxLXV.s:2512   .debug_str:0000000000000714 .LASF12
     /tmp/cc6HxLXV.s:2322   .debug_str:0000000000000112 .LASF121
     /tmp/cc6HxLXV.s:2486   .debug_str:00000000000005b3 .LASF102
     /tmp/cc6HxLXV.s:2278   .debug_str:0000000000000008 .LASF104
     /tmp/cc6HxLXV.s:2484   .debug_str:000000000000059d .LASF122
GAS LISTING /tmp/cc6HxLXV.s 			page 12


     /tmp/cc6HxLXV.s:2378   .debug_str:00000000000002ef .LASF14
     /tmp/cc6HxLXV.s:2428   .debug_str:000000000000041d .LASF15
     /tmp/cc6HxLXV.s:2430   .debug_str:0000000000000423 .LASF16
     /tmp/cc6HxLXV.s:2382   .debug_str:00000000000002ff .LASF17
     /tmp/cc6HxLXV.s:2320   .debug_str:000000000000010c .LASF18
     /tmp/cc6HxLXV.s:2422   .debug_str:0000000000000400 .LASF19
     /tmp/cc6HxLXV.s:2456   .debug_str:00000000000004ca .LASF20
     /tmp/cc6HxLXV.s:2400   .debug_str:0000000000000364 .LASF21
     /tmp/cc6HxLXV.s:2374   .debug_str:00000000000002d6 .LASF23
     /tmp/cc6HxLXV.s:2376   .debug_str:00000000000002dd .LASF22
     /tmp/cc6HxLXV.s:2306   .debug_str:00000000000000c1 .LASF24
     /tmp/cc6HxLXV.s:2442   .debug_str:0000000000000472 .LASF25
     /tmp/cc6HxLXV.s:2420   .debug_str:00000000000003ed .LASF26
     /tmp/cc6HxLXV.s:2508   .debug_str:00000000000006f5 .LASF27
     /tmp/cc6HxLXV.s:2358   .debug_str:0000000000000254 .LASF28
     /tmp/cc6HxLXV.s:2510   .debug_str:0000000000000705 .LASF29
     /tmp/cc6HxLXV.s:2500   .debug_str:00000000000006b5 .LASF30
     /tmp/cc6HxLXV.s:2392   .debug_str:0000000000000332 .LASF31
     /tmp/cc6HxLXV.s:2284   .debug_str:0000000000000045 .LASF32
     /tmp/cc6HxLXV.s:2326   .debug_str:0000000000000144 .LASF33
     /tmp/cc6HxLXV.s:2464   .debug_str:0000000000000500 .LASF34
     /tmp/cc6HxLXV.s:2432   .debug_str:0000000000000428 .LASF35
     /tmp/cc6HxLXV.s:2436   .debug_str:0000000000000443 .LASF36
     /tmp/cc6HxLXV.s:2462   .debug_str:00000000000004f5 .LASF38
     /tmp/cc6HxLXV.s:2522   .debug_str:0000000000000750 .LASF40
     /tmp/cc6HxLXV.s:2302   .debug_str:00000000000000ab .LASF41
     /tmp/cc6HxLXV.s:2340   .debug_str:00000000000001c9 .LASF42
     /tmp/cc6HxLXV.s:2350   .debug_str:0000000000000226 .LASF43
     /tmp/cc6HxLXV.s:2280   .debug_str:000000000000001a .LASF44
     /tmp/cc6HxLXV.s:2402   .debug_str:0000000000000372 .LASF45
     /tmp/cc6HxLXV.s:2344   .debug_str:00000000000001ec .LASF47
     /tmp/cc6HxLXV.s:2338   .debug_str:00000000000001c0 .LASF50
     /tmp/cc6HxLXV.s:2336   .debug_str:00000000000001ab .LASF52
     /tmp/cc6HxLXV.s:2476   .debug_str:000000000000056a .LASF48
     /tmp/cc6HxLXV.s:2458   .debug_str:00000000000004dd .LASF49
     /tmp/cc6HxLXV.s:2494   .debug_str:00000000000005e5 .LASF51
     /tmp/cc6HxLXV.s:2488   .debug_str:00000000000005bb .LASF53
     /tmp/cc6HxLXV.s:2354   .debug_str:0000000000000246 .LASF54
     /tmp/cc6HxLXV.s:2332   .debug_str:0000000000000184 .LASF55
     /tmp/cc6HxLXV.s:2276   .debug_str:0000000000000000 .LASF56
     /tmp/cc6HxLXV.s:2478   .debug_str:0000000000000571 .LASF57
     /tmp/cc6HxLXV.s:2304   .debug_str:00000000000000b9 .LASF58
     /tmp/cc6HxLXV.s:2316   .debug_str:00000000000000dc .LASF59
     /tmp/cc6HxLXV.s:2530   .debug_str:0000000000000790 .LASF60
     /tmp/cc6HxLXV.s:2346   .debug_str:0000000000000201 .LASF61
     /tmp/cc6HxLXV.s:2424   .debug_str:000000000000040d .LASF62
     /tmp/cc6HxLXV.s:2518   .debug_str:0000000000000738 .LASF63
     /tmp/cc6HxLXV.s:2506   .debug_str:00000000000006ee .LASF64
     /tmp/cc6HxLXV.s:2352   .debug_str:0000000000000233 .LASF65
     /tmp/cc6HxLXV.s:2356   .debug_str:000000000000024e .LASF66
     /tmp/cc6HxLXV.s:2492   .debug_str:00000000000005d3 .LASF67
     /tmp/cc6HxLXV.s:2298   .debug_str:000000000000009a .LASF68
     /tmp/cc6HxLXV.s:2360   .debug_str:0000000000000262 .LASF69
     /tmp/cc6HxLXV.s:2528   .debug_str:0000000000000785 .LASF70
     /tmp/cc6HxLXV.s:2470   .debug_str:0000000000000531 .LASF71
     /tmp/cc6HxLXV.s:2380   .debug_str:00000000000002f4 .LASF72
     /tmp/cc6HxLXV.s:2394   .debug_str:0000000000000342 .LASF73
GAS LISTING /tmp/cc6HxLXV.s 			page 13


     /tmp/cc6HxLXV.s:2324   .debug_str:000000000000013a .LASF74
     /tmp/cc6HxLXV.s:2372   .debug_str:00000000000002c0 .LASF75
     /tmp/cc6HxLXV.s:2408   .debug_str:00000000000003a2 .LASF76
     /tmp/cc6HxLXV.s:2364   .debug_str:0000000000000280 .LASF77
     /tmp/cc6HxLXV.s:2418   .debug_str:00000000000003e6 .LASF78
     /tmp/cc6HxLXV.s:2334   .debug_str:0000000000000198 .LASF79
     /tmp/cc6HxLXV.s:2288   .debug_str:0000000000000064 .LASF80
     /tmp/cc6HxLXV.s:2406   .debug_str:000000000000038f .LASF81
     /tmp/cc6HxLXV.s:2480   .debug_str:0000000000000585 .LASF82
     /tmp/cc6HxLXV.s:2318   .debug_str:00000000000000f0 .LASF83
     /tmp/cc6HxLXV.s:2490   .debug_str:00000000000005ce .LASF84
     /tmp/cc6HxLXV.s:2446   .debug_str:000000000000048a .LASF85
     /tmp/cc6HxLXV.s:2308   .debug_str:00000000000000c8 .LASF86
     /tmp/cc6HxLXV.s:2410   .debug_str:00000000000003ac .LASF87
     /tmp/cc6HxLXV.s:2296   .debug_str:0000000000000095 .LASF88
     /tmp/cc6HxLXV.s:2524   .debug_str:0000000000000768 .LASF89
     /tmp/cc6HxLXV.s:2310   .debug_str:00000000000000cd .LASF90
     /tmp/cc6HxLXV.s:2282   .debug_str:0000000000000034 .LASF91
     /tmp/cc6HxLXV.s:2444   .debug_str:0000000000000485 .LASF92
     /tmp/cc6HxLXV.s:2502   .debug_str:00000000000006c4 .LASF93
     /tmp/cc6HxLXV.s:2434   .debug_str:000000000000043e .LASF94
     /tmp/cc6HxLXV.s:2348   .debug_str:0000000000000215 .LASF95
     /tmp/cc6HxLXV.s:2398   .debug_str:000000000000035f .LASF96
     /tmp/cc6HxLXV.s:2466   .debug_str:0000000000000516 .LASF97
     /tmp/cc6HxLXV.s:2314   .debug_str:00000000000000d7 .LASF98
     /tmp/cc6HxLXV.s:2328   .debug_str:0000000000000150 .LASF99
     /tmp/cc6HxLXV.s:2388   .debug_str:000000000000031e .LASF100
     /tmp/cc6HxLXV.s:2416   .debug_str:00000000000003d2 .LASF101
     /tmp/cc6HxLXV.s:2414   .debug_str:00000000000003c6 .LASF103
     /tmp/cc6HxLXV.s:2504   .debug_str:00000000000006d5 .LASF105
     /tmp/cc6HxLXV.s:2516   .debug_str:000000000000072f .LASF106
     /tmp/cc6HxLXV.s:2498   .debug_str:00000000000006b0 .LASF107
     /tmp/cc6HxLXV.s:2368   .debug_str:000000000000029c .LASF123
     /tmp/cc6HxLXV.s:10     .text:0000000000000000 .LFB51
     /tmp/cc6HxLXV.s:48     .text:0000000000000044 .LFE51
     /tmp/cc6HxLXV.s:25     .text:0000000000000018 .LVL0
     /tmp/cc6HxLXV.s:37     .text:0000000000000034 .LVL2
     /tmp/cc6HxLXV.s:233    .text:0000000000000150 .LFB50
     /tmp/cc6HxLXV.s:278    .text:00000000000001a0 .LFE50
     /tmp/cc6HxLXV.s:259    .text:0000000000000184 .LVL21
     /tmp/cc6HxLXV.s:147    .text:00000000000000c8 .LFB49
     /tmp/cc6HxLXV.s:227    .text:0000000000000150 .LFE49
     /tmp/cc6HxLXV.s:2116   .debug_loc:0000000000000000 .LLST7
     /tmp/cc6HxLXV.s:169    .text:00000000000000ec .LBB11
     /tmp/cc6HxLXV.s:176    .text:00000000000000f0 .LBE11
     /tmp/cc6HxLXV.s:2127   .debug_loc:0000000000000036 .LLST8
     /tmp/cc6HxLXV.s:163    .text:00000000000000e4 .LVL12
     /tmp/cc6HxLXV.s:184    .text:0000000000000100 .LVL15
     /tmp/cc6HxLXV.s:196    .text:0000000000000120 .LVL16
     /tmp/cc6HxLXV.s:200    .text:0000000000000128 .LVL17
     /tmp/cc6HxLXV.s:224    .text:000000000000014c .LVL20
     /tmp/cc6HxLXV.s:54     .text:0000000000000044 .LFB48
     /tmp/cc6HxLXV.s:141    .text:00000000000000c8 .LFE48
     /tmp/cc6HxLXV.s:2134   .debug_loc:0000000000000059 .LLST0
     /tmp/cc6HxLXV.s:2154   .debug_loc:00000000000000b6 .LLST1
     /tmp/cc6HxLXV.s:2174   .debug_loc:0000000000000113 .LLST2
     /tmp/cc6HxLXV.s:81     .text:0000000000000078 .LBB7
GAS LISTING /tmp/cc6HxLXV.s 			page 14


     /tmp/cc6HxLXV.s:2266   .debug_ranges:0000000000000000 .Ldebug_ranges0
     /tmp/cc6HxLXV.s:2199   .debug_loc:0000000000000184 .LLST3
     /tmp/cc6HxLXV.s:2220   .debug_loc:00000000000001e2 .LLST4
     /tmp/cc6HxLXV.s:2231   .debug_loc:0000000000000218 .LLST5
     /tmp/cc6HxLXV.s:2242   .debug_loc:000000000000024e .LLST6
     /tmp/cc6HxLXV.s:80     .text:0000000000000078 .LVL5
     /tmp/cc6HxLXV.s:2520   .debug_str:000000000000074b .LASF108
     /tmp/cc6HxLXV.s:2472   .debug_str:0000000000000549 .LASF124
     /tmp/cc6HxLXV.s:2440   .debug_str:0000000000000461 .LASF125
     /tmp/cc6HxLXV.s:2526   .debug_str:0000000000000779 .LASF126
     /tmp/cc6HxLXV.s:2290   .debug_str:000000000000006b .LASF127
     /tmp/cc6HxLXV.s:2514   .debug_str:0000000000000722 .LASF128
     /tmp/cc6HxLXV.s:167    .text:00000000000000ec .LVL13
     /tmp/cc6HxLXV.s:210    .text:0000000000000134 .LVL18
     /tmp/cc6HxLXV.s:214    .text:000000000000013c .LVL19
     /tmp/cc6HxLXV.s:174    .text:00000000000000f0 .LVL14
     /tmp/cc6HxLXV.s:57     .text:0000000000000044 .LVL3
     /tmp/cc6HxLXV.s:78     .text:0000000000000070 .LVL4
     /tmp/cc6HxLXV.s:125    .text:00000000000000b8 .LVL9
     /tmp/cc6HxLXV.s:129    .text:00000000000000c0 .LVL10
     /tmp/cc6HxLXV.s:122    .text:00000000000000b4 .LVL8
     /tmp/cc6HxLXV.s:96     .text:000000000000008c .LVL6
     /tmp/cc6HxLXV.s:136    .text:00000000000000c4 .LVL11
     /tmp/cc6HxLXV.s:108    .text:00000000000000a4 .LVL7
     /tmp/cc6HxLXV.s:295    .debug_info:0000000000000000 .Ldebug_info0
     /tmp/cc6HxLXV.s:110    .text:00000000000000a4 .LBE7
     /tmp/cc6HxLXV.s:132    .text:00000000000000c0 .LBB10
     /tmp/cc6HxLXV.s:139    .text:00000000000000c8 .LBE10

UNDEFINED SYMBOLS
_ZN5Riscv10popSppSpieEv
_Z11thread_exitv
_Znwm
_ZN5Riscv13pushRegistersEv
_ZN9Scheduler3getEv
_ZN3PCB13contextSwitchEPNS_7ContextES1_
_ZN5Riscv12popRegistersEv
_ZN9Scheduler3putEP3PCB
