GAS LISTING /tmp/ccRtX2Vt.s 			page 1


   1              		.file	"PCB.cpp"
   2              		.option pic
   3              		.option norelax
   4              		.text
   5              	.Ltext0:
   6              		.align	2
   7              		.globl	_ZN3PCB12createThreadEPFvPvES0_
   9              	_ZN3PCB12createThreadEPFvPvES0_:
  10              	.LFB44:
  11              		.file 1 "src/PCB.cpp"
   1:src/PCB.cpp   **** //
   2:src/PCB.cpp   **** // Created by os on 7/28/23.
   3:src/PCB.cpp   **** //
   4:src/PCB.cpp   **** 
   5:src/PCB.cpp   **** #include "../h/PCB.hpp"
   6:src/PCB.cpp   **** 
   7:src/PCB.cpp   **** 
   8:src/PCB.cpp   **** 
   9:src/PCB.cpp   **** PCB *PCB::createThread(PCB::Body body, void *args) {
  12              		.loc 1 9 52
  13              		.cfi_startproc
  14              		.cfi_personality 0x9b,DW.ref.__gxx_personality_v0
  15              		.cfi_lsda 0x1b,.LLSDA44
  16              	.LVL0:
  17 0000 130101FD 		addi	sp,sp,-48
  18              		.cfi_def_cfa_offset 48
  19 0004 23341102 		sd	ra,40(sp)
  20 0008 23308102 		sd	s0,32(sp)
  21 000c 233C9100 		sd	s1,24(sp)
  22 0010 23382101 		sd	s2,16(sp)
  23 0014 23343101 		sd	s3,8(sp)
  24              		.cfi_offset 1, -8
  25              		.cfi_offset 8, -16
  26              		.cfi_offset 9, -24
  27              		.cfi_offset 18, -32
  28              		.cfi_offset 19, -40
  29 0018 13040103 		addi	s0,sp,48
  30              		.cfi_def_cfa 8, 0
  31 001c 13090500 		mv	s2,a0
  32 0020 93890500 		mv	s3,a1
  10:src/PCB.cpp   ****     return new PCB(body, args);
  33              		.loc 1 10 5
  34              		.loc 1 10 30 is_stmt 0
  35 0024 13050003 		li	a0,48
  36              	.LVL1:
  37              	.LEHB0:
  38 0028 97000000 		call	_Znwm@plt
  38      E7800000 
  39              	.LVL2:
  40              	.LEHE0:
  41 0030 93040500 		mv	s1,a0
  42              	.LVL3:
  43              	.LBB7:
  44              	.LBB8:
  45              		.file 2 "src/../h/PCB.hpp"
   1:src/../h/PCB.hpp **** #ifndef PROJECT_BASE_V1_1_PCB_HPP
   2:src/../h/PCB.hpp **** #define PROJECT_BASE_V1_1_PCB_HPP
GAS LISTING /tmp/ccRtX2Vt.s 			page 2


   3:src/../h/PCB.hpp **** 
   4:src/../h/PCB.hpp **** 
   5:src/../h/PCB.hpp **** #include "Scheduler.hpp"
   6:src/../h/PCB.hpp **** #include "riscv.hpp"
   7:src/../h/PCB.hpp **** 
   8:src/../h/PCB.hpp **** 
   9:src/../h/PCB.hpp **** 
  10:src/../h/PCB.hpp **** 
  11:src/../h/PCB.hpp **** class PCB {
  12:src/../h/PCB.hpp **** public:
  13:src/../h/PCB.hpp **** 
  14:src/../h/PCB.hpp ****     struct Context
  15:src/../h/PCB.hpp ****     {
  16:src/../h/PCB.hpp ****         uint64 ra;
  17:src/../h/PCB.hpp ****         uint64 sp;
  18:src/../h/PCB.hpp ****     };
  19:src/../h/PCB.hpp **** 
  20:src/../h/PCB.hpp ****     enum State{
  21:src/../h/PCB.hpp ****         INITIALIZED,
  22:src/../h/PCB.hpp ****         READY,
  23:src/../h/PCB.hpp ****         RUNNING,
  24:src/../h/PCB.hpp ****         SUSPENDED,
  25:src/../h/PCB.hpp ****         FINISHED
  26:src/../h/PCB.hpp ****     };
  27:src/../h/PCB.hpp ****     ~PCB() { delete[] stack; }
  28:src/../h/PCB.hpp **** 
  29:src/../h/PCB.hpp ****     bool isFinished() const { return state==FINISHED; }
  30:src/../h/PCB.hpp **** 
  31:src/../h/PCB.hpp ****     void setFinished() { state = FINISHED; }
  32:src/../h/PCB.hpp **** 
  33:src/../h/PCB.hpp ****     using Body = void (*)(void*);
  34:src/../h/PCB.hpp **** 
  35:src/../h/PCB.hpp ****     static PCB *createThread(Body body, void* args);
  36:src/../h/PCB.hpp **** 
  37:src/../h/PCB.hpp ****     static void dispatch();
  38:src/../h/PCB.hpp **** 
  39:src/../h/PCB.hpp ****     static int exit();
  40:src/../h/PCB.hpp **** 
  41:src/../h/PCB.hpp **** 
  42:src/../h/PCB.hpp ****     static PCB *running;
  43:src/../h/PCB.hpp **** 
  44:src/../h/PCB.hpp ****     bool start();
  45:src/../h/PCB.hpp **** 
  46:src/../h/PCB.hpp **** private:
  47:src/../h/PCB.hpp **** 
  48:src/../h/PCB.hpp ****     static void contextSwitch(Context* old, Context* running);
  49:src/../h/PCB.hpp **** 
  50:src/../h/PCB.hpp ****     static void wrapper();
  51:src/../h/PCB.hpp **** 
  52:src/../h/PCB.hpp ****     PCB(Body body, void* args) :
  53:src/../h/PCB.hpp ****             body(body),
  54:src/../h/PCB.hpp ****             stack(body != nullptr ? new uint64[DEFAULT_STACK_SIZE] : nullptr),
  55:src/../h/PCB.hpp ****             context({   (uint64)&wrapper,
  56:src/../h/PCB.hpp ****                         stack != nullptr ? (uint64) &stack[DEFAULT_STACK_SIZE] : 0
  57:src/../h/PCB.hpp ****                     }),
  58:src/../h/PCB.hpp ****             state(INITIALIZED)
  46              		.loc 2 58 30
GAS LISTING /tmp/ccRtX2Vt.s 			page 3


  47 0034 23302501 		sd	s2,0(a0)
  54:src/../h/PCB.hpp ****             context({   (uint64)&wrapper,
  48              		.loc 2 54 35
  49 0038 630A0900 		beqz	s2,.L5
  54:src/../h/PCB.hpp ****             context({   (uint64)&wrapper,
  50              		.loc 2 54 66
  51 003c 37850000 		li	a0,32768
  52              	.LEHB1:
  53 0040 97000000 		call	_Znam@plt
  53      E7800000 
  54              	.LVL4:
  55              	.LEHE1:
  56 0048 6F008000 		j	.L2
  57              	.L5:
  54:src/../h/PCB.hpp ****             context({   (uint64)&wrapper,
  58              		.loc 2 54 35
  59 004c 13050000 		li	a0,0
  60              	.L2:
  61              		.loc 2 58 30
  62 0050 23B4A400 		sd	a0,8(s1)
  63 0054 97070000 		lla	a5,_ZN3PCB7wrapperEv
  63      93870700 
  64 005c 23BCF400 		sd	a5,24(s1)
  56:src/../h/PCB.hpp ****                     }),
  65              		.loc 2 56 42
  66 0060 630C0502 		beqz	a0,.L6
  56:src/../h/PCB.hpp ****                     }),
  67              		.loc 2 56 53
  68 0064 B7870000 		li	a5,32768
  69 0068 3305F500 		add	a0,a0,a5
  70              	.L3:
  71              		.loc 2 58 30
  72 006c 23B0A402 		sd	a0,32(s1)
  73 0070 23A40402 		sw	zero,40(s1)
  59:src/../h/PCB.hpp ****     {
  60:src/../h/PCB.hpp ****         this->args=args;
  74              		.loc 2 60 9 is_stmt 1
  75              		.loc 2 60 19 is_stmt 0
  76 0074 23B83401 		sd	s3,16(s1)
  77              	.LVL5:
  78              	.LBE8:
  79              	.LBE7:
  11:src/PCB.cpp   **** }
  80              		.loc 1 11 1
  81 0078 13850400 		mv	a0,s1
  82 007c 83308102 		ld	ra,40(sp)
  83              		.cfi_remember_state
  84              		.cfi_restore 1
  85 0080 03340102 		ld	s0,32(sp)
  86              		.cfi_restore 8
  87              		.cfi_def_cfa 2, 48
  88 0084 83348101 		ld	s1,24(sp)
  89              		.cfi_restore 9
  90 0088 03390101 		ld	s2,16(sp)
  91              		.cfi_restore 18
  92              	.LVL6:
  93 008c 83398100 		ld	s3,8(sp)
GAS LISTING /tmp/ccRtX2Vt.s 			page 4


  94              		.cfi_restore 19
  95              	.LVL7:
  96 0090 13010103 		addi	sp,sp,48
  97              		.cfi_def_cfa_offset 0
  98 0094 67800000 		jr	ra
  99              	.LVL8:
 100              	.L6:
 101              		.cfi_restore_state
 102              	.LBB10:
 103              	.LBB9:
  56:src/../h/PCB.hpp ****                     }),
 104              		.loc 2 56 42
 105 0098 13050000 		li	a0,0
 106 009c 6FF01FFD 		j	.L3
 107              	.L7:
 108 00a0 13090500 		mv	s2,a0
 109              	.LVL9:
 110              	.LBE9:
 111              	.LBE10:
  10:src/PCB.cpp   **** }
 112              		.loc 1 10 30
 113 00a4 13850400 		mv	a0,s1
 114 00a8 97000000 		call	_ZdlPv@plt
 114      E7800000 
 115              	.LVL10:
 116 00b0 13050900 		mv	a0,s2
 117              	.LEHB2:
 118 00b4 97000000 		call	_Unwind_Resume@plt
 118      E7800000 
 119              	.LVL11:
 120              	.LEHE2:
 121              		.cfi_endproc
 122              	.LFE44:
 123              		.globl	__gxx_personality_v0
 124              		.section	.gcc_except_table,"a",@progbits
 125              	.LLSDA44:
 126 0000 FF       		.byte	0xff
 127 0001 FF       		.byte	0xff
 128 0002 03       		.byte	0x3
 129 0003 27       		.byte	0x27
 130 0004 00000000 		.4byte	.LEHB0-.LFB44
 131 0008 00000000 		.4byte	.LEHE0-.LEHB0
 132 000c 00000000 		.4byte	0
 133 0010 00       		.byte	0
 134 0011 00000000 		.4byte	.LEHB1-.LFB44
 135 0015 00000000 		.4byte	.LEHE1-.LEHB1
 136 0019 00000000 		.4byte	.L7-.LFB44
 137 001d 00       		.byte	0
 138 001e 00000000 		.4byte	.LEHB2-.LFB44
 139 0022 00000000 		.4byte	.LEHE2-.LEHB2
 140 0026 00000000 		.4byte	0
 141 002a 00       		.byte	0
 142              		.text
 144              		.align	2
 145              		.globl	_ZN3PCB5startEv
 147              	_ZN3PCB5startEv:
 148              	.LFB45:
GAS LISTING /tmp/ccRtX2Vt.s 			page 5


  12:src/PCB.cpp   **** 
  13:src/PCB.cpp   **** bool PCB::start() {
 149              		.loc 1 13 19 is_stmt 1
 150              		.cfi_startproc
 151              	.LVL12:
  14:src/PCB.cpp   ****     if(state!=INITIALIZED)return false;
 152              		.loc 1 14 5
 153              		.loc 1 14 8 is_stmt 0
 154 00bc 83278502 		lw	a5,40(a0)
 155              		.loc 1 14 5
 156 00c0 63860700 		beqz	a5,.L17
 157              		.loc 1 14 34
 158 00c4 13050000 		li	a0,0
 159              	.LVL13:
  15:src/PCB.cpp   ****     state = READY;
  16:src/PCB.cpp   ****     Scheduler::put(this);
  17:src/PCB.cpp   ****     return true;
  18:src/PCB.cpp   **** }
 160              		.loc 1 18 1
 161 00c8 67800000 		ret
 162              	.LVL14:
 163              	.L17:
  13:src/PCB.cpp   ****     if(state!=INITIALIZED)return false;
 164              		.loc 1 13 19
 165 00cc 130101FF 		addi	sp,sp,-16
 166              		.cfi_def_cfa_offset 16
 167 00d0 23341100 		sd	ra,8(sp)
 168 00d4 23308100 		sd	s0,0(sp)
 169              		.cfi_offset 1, -8
 170              		.cfi_offset 8, -16
 171 00d8 13040101 		addi	s0,sp,16
 172              		.cfi_def_cfa 8, 0
  15:src/PCB.cpp   ****     state = READY;
 173              		.loc 1 15 5 is_stmt 1
  15:src/PCB.cpp   ****     state = READY;
 174              		.loc 1 15 11 is_stmt 0
 175 00dc 93071000 		li	a5,1
 176 00e0 2324F502 		sw	a5,40(a0)
  16:src/PCB.cpp   ****     return true;
 177              		.loc 1 16 5 is_stmt 1
  16:src/PCB.cpp   ****     return true;
 178              		.loc 1 16 19 is_stmt 0
 179 00e4 97000000 		call	_ZN9Scheduler3putEP3PCB@plt
 179      E7800000 
 180              	.LVL15:
  17:src/PCB.cpp   **** }
 181              		.loc 1 17 5 is_stmt 1
  17:src/PCB.cpp   **** }
 182              		.loc 1 17 12 is_stmt 0
 183 00ec 13051000 		li	a0,1
 184              		.loc 1 18 1
 185 00f0 83308100 		ld	ra,8(sp)
 186              		.cfi_restore 1
 187 00f4 03340100 		ld	s0,0(sp)
 188              		.cfi_restore 8
 189              		.cfi_def_cfa 2, 16
 190 00f8 13010101 		addi	sp,sp,16
GAS LISTING /tmp/ccRtX2Vt.s 			page 6


 191              		.cfi_def_cfa_offset 0
 192 00fc 67800000 		jr	ra
 193              		.cfi_endproc
 194              	.LFE45:
 196              		.align	2
 197              		.globl	_ZN3PCB8dispatchEv
 199              	_ZN3PCB8dispatchEv:
 200              	.LFB46:
  19:src/PCB.cpp   **** 
  20:src/PCB.cpp   **** void PCB::dispatch() {
 201              		.loc 1 20 22 is_stmt 1
 202              		.cfi_startproc
 203 0100 130101FE 		addi	sp,sp,-32
 204              		.cfi_def_cfa_offset 32
 205 0104 233C1100 		sd	ra,24(sp)
 206 0108 23388100 		sd	s0,16(sp)
 207 010c 23349100 		sd	s1,8(sp)
 208              		.cfi_offset 1, -8
 209              		.cfi_offset 8, -16
 210              		.cfi_offset 9, -24
 211 0110 13040102 		addi	s0,sp,32
 212              		.cfi_def_cfa 8, 0
  21:src/PCB.cpp   ****     Riscv::pushRegisters();
 213              		.loc 1 21 5
 214              		.loc 1 21 25 is_stmt 0
 215 0114 97000000 		call	_ZN5Riscv13pushRegistersEv@plt
 215      E7800000 
 216              	.LVL16:
  22:src/PCB.cpp   **** 
  23:src/PCB.cpp   ****     PCB *old = running;
 217              		.loc 1 23 5 is_stmt 1
 218              		.loc 1 23 10 is_stmt 0
 219 011c 97070000 		la	a5,_ZN3PCB7runningE
 219      83B70700 
 220 0124 83B40700 		ld	s1,0(a5)
 221              	.LVL17:
  24:src/PCB.cpp   ****     if (!old->isFinished()) {
 222              		.loc 1 24 5 is_stmt 1
 223              	.LBB11:
 224              	.LBB12:
  29:src/../h/PCB.hpp **** 
 225              		.loc 2 29 31
  29:src/../h/PCB.hpp **** 
 226              		.loc 2 29 38 is_stmt 0
 227 0128 03A78402 		lw	a4,40(s1)
 228              	.LVL18:
 229              	.LBE12:
 230              	.LBE11:
 231              		.loc 1 24 5
 232 012c 93074000 		li	a5,4
 233 0130 6316F704 		bne	a4,a5,.L21
 234              	.L19:
  25:src/PCB.cpp   ****         old->state = READY;
  26:src/PCB.cpp   ****         Scheduler::put(old);
  27:src/PCB.cpp   ****     }
  28:src/PCB.cpp   ****     running = Scheduler::get();
 235              		.loc 1 28 5 is_stmt 1
GAS LISTING /tmp/ccRtX2Vt.s 			page 7


 236              		.loc 1 28 29 is_stmt 0
 237 0134 97000000 		call	_ZN9Scheduler3getEv@plt
 237      E7800000 
 238              	.LVL19:
 239              		.loc 1 28 13
 240 013c 97070000 		la	a5,_ZN3PCB7runningE
 240      83B70700 
 241 0144 23B0A700 		sd	a0,0(a5)
  29:src/PCB.cpp   ****     running->state=RUNNING;
 242              		.loc 1 29 5 is_stmt 1
 243              		.loc 1 29 19 is_stmt 0
 244 0148 93072000 		li	a5,2
 245 014c 2324F502 		sw	a5,40(a0)
  30:src/PCB.cpp   **** 
  31:src/PCB.cpp   ****     PCB::contextSwitch(&old->context, &running->context);
 246              		.loc 1 31 5 is_stmt 1
 247              		.loc 1 31 23 is_stmt 0
 248 0150 93058501 		addi	a1,a0,24
 249 0154 13858401 		addi	a0,s1,24
 250 0158 97000000 		call	_ZN3PCB13contextSwitchEPNS_7ContextES1_@plt
 250      E7800000 
 251              	.LVL20:
  32:src/PCB.cpp   **** 
  33:src/PCB.cpp   ****     Riscv::popRegisters();
 252              		.loc 1 33 5 is_stmt 1
 253              		.loc 1 33 24 is_stmt 0
 254 0160 97000000 		call	_ZN5Riscv12popRegistersEv@plt
 254      E7800000 
 255              	.LVL21:
  34:src/PCB.cpp   **** }
 256              		.loc 1 34 1
 257 0168 83308101 		ld	ra,24(sp)
 258              		.cfi_remember_state
 259              		.cfi_restore 1
 260 016c 03340101 		ld	s0,16(sp)
 261              		.cfi_restore 8
 262              		.cfi_def_cfa 2, 32
 263 0170 83348100 		ld	s1,8(sp)
 264              		.cfi_restore 9
 265              	.LVL22:
 266 0174 13010102 		addi	sp,sp,32
 267              		.cfi_def_cfa_offset 0
 268 0178 67800000 		jr	ra
 269              	.LVL23:
 270              	.L21:
 271              		.cfi_restore_state
  25:src/PCB.cpp   ****         Scheduler::put(old);
 272              		.loc 1 25 9 is_stmt 1
  25:src/PCB.cpp   ****         Scheduler::put(old);
 273              		.loc 1 25 20 is_stmt 0
 274 017c 93071000 		li	a5,1
 275 0180 23A4F402 		sw	a5,40(s1)
  26:src/PCB.cpp   ****     }
 276              		.loc 1 26 9 is_stmt 1
  26:src/PCB.cpp   ****     }
 277              		.loc 1 26 23 is_stmt 0
 278 0184 13850400 		mv	a0,s1
GAS LISTING /tmp/ccRtX2Vt.s 			page 8


 279 0188 97000000 		call	_ZN9Scheduler3putEP3PCB@plt
 279      E7800000 
 280              	.LVL24:
 281 0190 6FF05FFA 		j	.L19
 282              		.cfi_endproc
 283              	.LFE46:
 285              		.align	2
 286              		.globl	_ZN3PCB4exitEv
 288              	_ZN3PCB4exitEv:
 289              	.LFB47:
  35:src/PCB.cpp   **** 
  36:src/PCB.cpp   **** int PCB::exit() {
 290              		.loc 1 36 17 is_stmt 1
 291              		.cfi_startproc
  37:src/PCB.cpp   ****     if(running->state==RUNNING){
 292              		.loc 1 37 5
 293              		.loc 1 37 17 is_stmt 0
 294 0194 97070000 		la	a5,_ZN3PCB7runningE
 294      83B70700 
 295 019c 83B70700 		ld	a5,0(a5)
 296 01a0 83A68702 		lw	a3,40(a5)
 297              		.loc 1 37 5
 298 01a4 13072000 		li	a4,2
 299 01a8 639CE602 		bne	a3,a4,.L24
  36:src/PCB.cpp   ****     if(running->state==RUNNING){
 300              		.loc 1 36 17
 301 01ac 130101FF 		addi	sp,sp,-16
 302              		.cfi_def_cfa_offset 16
 303 01b0 23341100 		sd	ra,8(sp)
 304 01b4 23308100 		sd	s0,0(sp)
 305              		.cfi_offset 1, -8
 306              		.cfi_offset 8, -16
 307 01b8 13040101 		addi	s0,sp,16
 308              		.cfi_def_cfa 8, 0
  38:src/PCB.cpp   ****         running->state=FINISHED;
 309              		.loc 1 38 9 is_stmt 1
 310              		.loc 1 38 23 is_stmt 0
 311 01bc 13074000 		li	a4,4
 312 01c0 23A4E702 		sw	a4,40(a5)
  39:src/PCB.cpp   ****         dispatch();
 313              		.loc 1 39 9 is_stmt 1
 314              		.loc 1 39 17 is_stmt 0
 315 01c4 97000000 		call	_ZN3PCB8dispatchEv
 315      E7800000 
 316              	.LVL25:
  40:src/PCB.cpp   ****         return 0;
 317              		.loc 1 40 9 is_stmt 1
 318              		.loc 1 40 16 is_stmt 0
 319 01cc 13050000 		li	a0,0
  41:src/PCB.cpp   ****     }
  42:src/PCB.cpp   ****     return -1;
  43:src/PCB.cpp   **** }
 320              		.loc 1 43 1
 321 01d0 83308100 		ld	ra,8(sp)
 322              		.cfi_restore 1
 323 01d4 03340100 		ld	s0,0(sp)
 324              		.cfi_restore 8
GAS LISTING /tmp/ccRtX2Vt.s 			page 9


 325              		.cfi_def_cfa 2, 16
 326 01d8 13010101 		addi	sp,sp,16
 327              		.cfi_def_cfa_offset 0
 328 01dc 67800000 		jr	ra
 329              	.L24:
  42:src/PCB.cpp   **** }
 330              		.loc 1 42 13
 331 01e0 1305F0FF 		li	a0,-1
 332              		.loc 1 43 1
 333 01e4 67800000 		ret
 334              		.cfi_endproc
 335              	.LFE47:
 337              		.align	2
 338              		.globl	_ZN3PCB7wrapperEv
 340              	_ZN3PCB7wrapperEv:
 341              	.LFB48:
  44:src/PCB.cpp   **** 
  45:src/PCB.cpp   **** void PCB::wrapper() {
 342              		.loc 1 45 21 is_stmt 1
 343              		.cfi_startproc
 344 01e8 130101FF 		addi	sp,sp,-16
 345              		.cfi_def_cfa_offset 16
 346 01ec 23341100 		sd	ra,8(sp)
 347 01f0 23308100 		sd	s0,0(sp)
 348              		.cfi_offset 1, -8
 349              		.cfi_offset 8, -16
 350 01f4 13040101 		addi	s0,sp,16
 351              		.cfi_def_cfa 8, 0
  46:src/PCB.cpp   ****     Riscv::popSppSpie();
 352              		.loc 1 46 5
 353              		.loc 1 46 22 is_stmt 0
 354 01f8 97000000 		call	_ZN5Riscv10popSppSpieEv@plt
 354      E7800000 
 355              	.LVL26:
  47:src/PCB.cpp   ****     running->body(running->args);
 356              		.loc 1 47 5 is_stmt 1
 357              		.loc 1 47 14 is_stmt 0
 358 0200 97070000 		la	a5,_ZN3PCB7runningE
 358      83B70700 
 359 0208 83B70700 		ld	a5,0(a5)
 360 020c 03B70700 		ld	a4,0(a5)
 361              		.loc 1 47 18
 362 0210 03B50701 		ld	a0,16(a5)
 363 0214 E7000700 		jalr	a4
 364              	.LVL27:
  48:src/PCB.cpp   ****     exit(); //thread_exit()?
 365              		.loc 1 48 5 is_stmt 1
 366              		.loc 1 48 9 is_stmt 0
 367 0218 97000000 		call	_ZN3PCB4exitEv
 367      E7800000 
 368              	.LVL28:
  49:src/PCB.cpp   **** }...
 369              		.loc 1 49 1
 370 0220 83308100 		ld	ra,8(sp)
 371              		.cfi_restore 1
 372 0224 03340100 		ld	s0,0(sp)
 373              		.cfi_restore 8
GAS LISTING /tmp/ccRtX2Vt.s 			page 10


 374              		.cfi_def_cfa 2, 16
 375 0228 13010101 		addi	sp,sp,16
 376              		.cfi_def_cfa_offset 0
 377 022c 67800000 		jr	ra
 378              		.cfi_endproc
 379              	.LFE48:
 381              	.Letext0:
 382              		.file 3 "src/../h/../lib/hw.h"
 383              		.file 4 "src/../h/Scheduler.hpp"
 384              		.file 5 "src/../h/riscv.hpp"
 2618              		.align	3
 2621              	DW.ref.__gxx_personality_v0:
 2622 0000 00000000 		.dword	__gxx_personality_v0
 2622      00000000 
 2623              		.ident	"GCC: (Ubuntu 9.4.0-1ubuntu1~20.04) 9.4.0"
 2624              		.section	.note.GNU-stack,"",@progbits
GAS LISTING /tmp/ccRtX2Vt.s 			page 11


DEFINED SYMBOLS
                            *ABS*:0000000000000000 PCB.cpp
     /tmp/ccRtX2Vt.s:9      .text:0000000000000000 _ZN3PCB12createThreadEPFvPvES0_
     /tmp/ccRtX2Vt.s:13     .text:0000000000000000 .L0 
     /tmp/ccRtX2Vt.s:2621   .data.rel.local.DW.ref.__gxx_personality_v0:0000000000000000 DW.ref.__gxx_personality_v0
     /tmp/ccRtX2Vt.s:17     .text:0000000000000000 .L0 
     /tmp/ccRtX2Vt.s:18     .text:0000000000000004 .L0 
     /tmp/ccRtX2Vt.s:24     .text:0000000000000018 .L0 
     /tmp/ccRtX2Vt.s:25     .text:0000000000000018 .L0 
     /tmp/ccRtX2Vt.s:26     .text:0000000000000018 .L0 
     /tmp/ccRtX2Vt.s:27     .text:0000000000000018 .L0 
     /tmp/ccRtX2Vt.s:28     .text:0000000000000018 .L0 
     /tmp/ccRtX2Vt.s:30     .text:000000000000001c .L0 
     /tmp/ccRtX2Vt.s:34     .text:0000000000000024 .L0 
     /tmp/ccRtX2Vt.s:35     .text:0000000000000024 .L0 
     /tmp/ccRtX2Vt.s:47     .text:0000000000000034 .L0 
     /tmp/ccRtX2Vt.s:49     .text:0000000000000038 .L0 
     /tmp/ccRtX2Vt.s:51     .text:000000000000003c .L0 
     /tmp/ccRtX2Vt.s:59     .text:000000000000004c .L0 
     /tmp/ccRtX2Vt.s:62     .text:0000000000000050 .L0 
     /tmp/ccRtX2Vt.s:340    .text:00000000000001e8 _ZN3PCB7wrapperEv
     /tmp/ccRtX2Vt.s:66     .text:0000000000000060 .L0 
     /tmp/ccRtX2Vt.s:68     .text:0000000000000064 .L0 
     /tmp/ccRtX2Vt.s:72     .text:000000000000006c .L0 
     /tmp/ccRtX2Vt.s:75     .text:0000000000000074 .L0 
     /tmp/ccRtX2Vt.s:76     .text:0000000000000074 .L0 
     /tmp/ccRtX2Vt.s:81     .text:0000000000000078 .L0 
     /tmp/ccRtX2Vt.s:83     .text:0000000000000080 .L0 
     /tmp/ccRtX2Vt.s:84     .text:0000000000000080 .L0 
     /tmp/ccRtX2Vt.s:86     .text:0000000000000084 .L0 
     /tmp/ccRtX2Vt.s:87     .text:0000000000000084 .L0 
     /tmp/ccRtX2Vt.s:89     .text:0000000000000088 .L0 
     /tmp/ccRtX2Vt.s:91     .text:000000000000008c .L0 
     /tmp/ccRtX2Vt.s:94     .text:0000000000000090 .L0 
     /tmp/ccRtX2Vt.s:97     .text:0000000000000094 .L0 
     /tmp/ccRtX2Vt.s:101    .text:0000000000000098 .L0 
     /tmp/ccRtX2Vt.s:105    .text:0000000000000098 .L0 
     /tmp/ccRtX2Vt.s:113    .text:00000000000000a4 .L0 
     /tmp/ccRtX2Vt.s:121    .text:00000000000000bc .L0 
     /tmp/ccRtX2Vt.s:147    .text:00000000000000bc _ZN3PCB5startEv
     /tmp/ccRtX2Vt.s:150    .text:00000000000000bc .L0 
     /tmp/ccRtX2Vt.s:152    .text:00000000000000bc .L0 
     /tmp/ccRtX2Vt.s:153    .text:00000000000000bc .L0 
     /tmp/ccRtX2Vt.s:154    .text:00000000000000bc .L0 
     /tmp/ccRtX2Vt.s:156    .text:00000000000000c0 .L0 
     /tmp/ccRtX2Vt.s:158    .text:00000000000000c4 .L0 
     /tmp/ccRtX2Vt.s:161    .text:00000000000000c8 .L0 
     /tmp/ccRtX2Vt.s:165    .text:00000000000000cc .L0 
     /tmp/ccRtX2Vt.s:166    .text:00000000000000d0 .L0 
     /tmp/ccRtX2Vt.s:169    .text:00000000000000d8 .L0 
     /tmp/ccRtX2Vt.s:170    .text:00000000000000d8 .L0 
     /tmp/ccRtX2Vt.s:172    .text:00000000000000dc .L0 
     /tmp/ccRtX2Vt.s:174    .text:00000000000000dc .L0 
     /tmp/ccRtX2Vt.s:175    .text:00000000000000dc .L0 
     /tmp/ccRtX2Vt.s:178    .text:00000000000000e4 .L0 
     /tmp/ccRtX2Vt.s:179    .text:00000000000000e4 .L0 
     /tmp/ccRtX2Vt.s:182    .text:00000000000000ec .L0 
GAS LISTING /tmp/ccRtX2Vt.s 			page 12


     /tmp/ccRtX2Vt.s:183    .text:00000000000000ec .L0 
     /tmp/ccRtX2Vt.s:185    .text:00000000000000f0 .L0 
     /tmp/ccRtX2Vt.s:186    .text:00000000000000f4 .L0 
     /tmp/ccRtX2Vt.s:188    .text:00000000000000f8 .L0 
     /tmp/ccRtX2Vt.s:189    .text:00000000000000f8 .L0 
     /tmp/ccRtX2Vt.s:191    .text:00000000000000fc .L0 
     /tmp/ccRtX2Vt.s:193    .text:0000000000000100 .L0 
     /tmp/ccRtX2Vt.s:199    .text:0000000000000100 _ZN3PCB8dispatchEv
     /tmp/ccRtX2Vt.s:202    .text:0000000000000100 .L0 
     /tmp/ccRtX2Vt.s:203    .text:0000000000000100 .L0 
     /tmp/ccRtX2Vt.s:204    .text:0000000000000104 .L0 
     /tmp/ccRtX2Vt.s:208    .text:0000000000000110 .L0 
     /tmp/ccRtX2Vt.s:209    .text:0000000000000110 .L0 
     /tmp/ccRtX2Vt.s:210    .text:0000000000000110 .L0 
     /tmp/ccRtX2Vt.s:212    .text:0000000000000114 .L0 
     /tmp/ccRtX2Vt.s:214    .text:0000000000000114 .L0 
     /tmp/ccRtX2Vt.s:215    .text:0000000000000114 .L0 
     /tmp/ccRtX2Vt.s:218    .text:000000000000011c .L0 
     /tmp/ccRtX2Vt.s:219    .text:000000000000011c .L0 
     /tmp/ccRtX2Vt.s:225    .text:0000000000000128 .L0 
     /tmp/ccRtX2Vt.s:226    .text:0000000000000128 .L0 
     /tmp/ccRtX2Vt.s:227    .text:0000000000000128 .L0 
     /tmp/ccRtX2Vt.s:232    .text:000000000000012c .L0 
     /tmp/ccRtX2Vt.s:236    .text:0000000000000134 .L0 
     /tmp/ccRtX2Vt.s:237    .text:0000000000000134 .L0 
     /tmp/ccRtX2Vt.s:240    .text:000000000000013c .L0 
     /tmp/ccRtX2Vt.s:243    .text:0000000000000148 .L0 
     /tmp/ccRtX2Vt.s:244    .text:0000000000000148 .L0 
     /tmp/ccRtX2Vt.s:247    .text:0000000000000150 .L0 
     /tmp/ccRtX2Vt.s:248    .text:0000000000000150 .L0 
     /tmp/ccRtX2Vt.s:253    .text:0000000000000160 .L0 
     /tmp/ccRtX2Vt.s:254    .text:0000000000000160 .L0 
     /tmp/ccRtX2Vt.s:257    .text:0000000000000168 .L0 
     /tmp/ccRtX2Vt.s:258    .text:000000000000016c .L0 
     /tmp/ccRtX2Vt.s:259    .text:000000000000016c .L0 
     /tmp/ccRtX2Vt.s:261    .text:0000000000000170 .L0 
     /tmp/ccRtX2Vt.s:262    .text:0000000000000170 .L0 
     /tmp/ccRtX2Vt.s:264    .text:0000000000000174 .L0 
     /tmp/ccRtX2Vt.s:267    .text:0000000000000178 .L0 
     /tmp/ccRtX2Vt.s:271    .text:000000000000017c .L0 
     /tmp/ccRtX2Vt.s:273    .text:000000000000017c .L0 
     /tmp/ccRtX2Vt.s:274    .text:000000000000017c .L0 
     /tmp/ccRtX2Vt.s:277    .text:0000000000000184 .L0 
     /tmp/ccRtX2Vt.s:278    .text:0000000000000184 .L0 
     /tmp/ccRtX2Vt.s:282    .text:0000000000000194 .L0 
     /tmp/ccRtX2Vt.s:288    .text:0000000000000194 _ZN3PCB4exitEv
     /tmp/ccRtX2Vt.s:291    .text:0000000000000194 .L0 
     /tmp/ccRtX2Vt.s:292    .text:0000000000000194 .L0 
     /tmp/ccRtX2Vt.s:293    .text:0000000000000194 .L0 
     /tmp/ccRtX2Vt.s:294    .text:0000000000000194 .L0 
     /tmp/ccRtX2Vt.s:298    .text:00000000000001a4 .L0 
     /tmp/ccRtX2Vt.s:301    .text:00000000000001ac .L0 
     /tmp/ccRtX2Vt.s:302    .text:00000000000001b0 .L0 
     /tmp/ccRtX2Vt.s:305    .text:00000000000001b8 .L0 
     /tmp/ccRtX2Vt.s:306    .text:00000000000001b8 .L0 
     /tmp/ccRtX2Vt.s:308    .text:00000000000001bc .L0 
     /tmp/ccRtX2Vt.s:310    .text:00000000000001bc .L0 
GAS LISTING /tmp/ccRtX2Vt.s 			page 13


     /tmp/ccRtX2Vt.s:311    .text:00000000000001bc .L0 
     /tmp/ccRtX2Vt.s:314    .text:00000000000001c4 .L0 
     /tmp/ccRtX2Vt.s:315    .text:00000000000001c4 .L0 
     /tmp/ccRtX2Vt.s:318    .text:00000000000001cc .L0 
     /tmp/ccRtX2Vt.s:319    .text:00000000000001cc .L0 
     /tmp/ccRtX2Vt.s:321    .text:00000000000001d0 .L0 
     /tmp/ccRtX2Vt.s:322    .text:00000000000001d4 .L0 
     /tmp/ccRtX2Vt.s:324    .text:00000000000001d8 .L0 
     /tmp/ccRtX2Vt.s:325    .text:00000000000001d8 .L0 
     /tmp/ccRtX2Vt.s:327    .text:00000000000001dc .L0 
     /tmp/ccRtX2Vt.s:331    .text:00000000000001e0 .L0 
     /tmp/ccRtX2Vt.s:333    .text:00000000000001e4 .L0 
     /tmp/ccRtX2Vt.s:334    .text:00000000000001e8 .L0 
     /tmp/ccRtX2Vt.s:343    .text:00000000000001e8 .L0 
     /tmp/ccRtX2Vt.s:344    .text:00000000000001e8 .L0 
     /tmp/ccRtX2Vt.s:345    .text:00000000000001ec .L0 
     /tmp/ccRtX2Vt.s:348    .text:00000000000001f4 .L0 
     /tmp/ccRtX2Vt.s:349    .text:00000000000001f4 .L0 
     /tmp/ccRtX2Vt.s:351    .text:00000000000001f8 .L0 
     /tmp/ccRtX2Vt.s:353    .text:00000000000001f8 .L0 
     /tmp/ccRtX2Vt.s:354    .text:00000000000001f8 .L0 
     /tmp/ccRtX2Vt.s:357    .text:0000000000000200 .L0 
     /tmp/ccRtX2Vt.s:358    .text:0000000000000200 .L0 
     /tmp/ccRtX2Vt.s:362    .text:0000000000000210 .L0 
     /tmp/ccRtX2Vt.s:366    .text:0000000000000218 .L0 
     /tmp/ccRtX2Vt.s:367    .text:0000000000000218 .L0 
     /tmp/ccRtX2Vt.s:370    .text:0000000000000220 .L0 
     /tmp/ccRtX2Vt.s:371    .text:0000000000000224 .L0 
     /tmp/ccRtX2Vt.s:373    .text:0000000000000228 .L0 
     /tmp/ccRtX2Vt.s:374    .text:0000000000000228 .L0 
     /tmp/ccRtX2Vt.s:376    .text:000000000000022c .L0 
     /tmp/ccRtX2Vt.s:378    .text:0000000000000230 .L0 
     /tmp/ccRtX2Vt.s:385    .text:0000000000000230 .L0 
     /tmp/ccRtX2Vt.s:63     .text:0000000000000054 .L0 
     /tmp/ccRtX2Vt.s:219    .text:000000000000011c .L0 
     /tmp/ccRtX2Vt.s:240    .text:000000000000013c .L0 
     /tmp/ccRtX2Vt.s:294    .text:0000000000000194 .L0 
     /tmp/ccRtX2Vt.s:358    .text:0000000000000200 .L0 
     /tmp/ccRtX2Vt.s:57     .text:000000000000004c .L5
     /tmp/ccRtX2Vt.s:60     .text:0000000000000050 .L2
     /tmp/ccRtX2Vt.s:100    .text:0000000000000098 .L6
     /tmp/ccRtX2Vt.s:70     .text:000000000000006c .L3
     /tmp/ccRtX2Vt.s:163    .text:00000000000000cc .L17
     /tmp/ccRtX2Vt.s:270    .text:000000000000017c .L21
     /tmp/ccRtX2Vt.s:234    .text:0000000000000134 .L19
     /tmp/ccRtX2Vt.s:329    .text:00000000000001e0 .L24
     /tmp/ccRtX2Vt.s:37     .text:0000000000000028 .LEHB0
     /tmp/ccRtX2Vt.s:10     .text:0000000000000000 .LFB44
     /tmp/ccRtX2Vt.s:40     .text:0000000000000030 .LEHE0
     /tmp/ccRtX2Vt.s:52     .text:0000000000000040 .LEHB1
     /tmp/ccRtX2Vt.s:55     .text:0000000000000048 .LEHE1
     /tmp/ccRtX2Vt.s:107    .text:00000000000000a0 .L7
     /tmp/ccRtX2Vt.s:117    .text:00000000000000b4 .LEHB2
     /tmp/ccRtX2Vt.s:120    .text:00000000000000bc .LEHE2
     /tmp/ccRtX2Vt.s:1331   .debug_abbrev:0000000000000000 .Ldebug_abbrev0
     /tmp/ccRtX2Vt.s:2579   .debug_str:00000000000005f2 .LASF113
     /tmp/ccRtX2Vt.s:2475   .debug_str:000000000000033f .LASF114
GAS LISTING /tmp/ccRtX2Vt.s 			page 14


     /tmp/ccRtX2Vt.s:2415   .debug_str:0000000000000186 .LASF115
     /tmp/ccRtX2Vt.s:5      .text:0000000000000000 .Ltext0
     /tmp/ccRtX2Vt.s:381    .text:0000000000000230 .Letext0
     /tmp/ccRtX2Vt.s:2359   .debug_line:0000000000000000 .Ldebug_line0
     /tmp/ccRtX2Vt.s:2533   .debug_str:00000000000004c3 .LASF0
     /tmp/ccRtX2Vt.s:2385   .debug_str:00000000000000a4 .LASF116
     /tmp/ccRtX2Vt.s:2487   .debug_str:000000000000038f .LASF117
     /tmp/ccRtX2Vt.s:2523   .debug_str:0000000000000468 .LASF118
     /tmp/ccRtX2Vt.s:2469   .debug_str:0000000000000322 .LASF119
     /tmp/ccRtX2Vt.s:2379   .debug_str:000000000000007d .LASF120
     /tmp/ccRtX2Vt.s:2451   .debug_str:00000000000002a4 .LASF121
     /tmp/ccRtX2Vt.s:2599   .debug_str:0000000000000730 .LASF1
     /tmp/ccRtX2Vt.s:2535   .debug_str:00000000000004cd .LASF2
     /tmp/ccRtX2Vt.s:2531   .debug_str:00000000000004bb .LASF3
     /tmp/ccRtX2Vt.s:2551   .debug_str:000000000000053e .LASF4
     /tmp/ccRtX2Vt.s:2563   .debug_str:0000000000000595 .LASF5
     /tmp/ccRtX2Vt.s:2541   .debug_str:00000000000004f9 .LASF6
     /tmp/ccRtX2Vt.s:2447   .debug_str:0000000000000282 .LASF8
     /tmp/ccRtX2Vt.s:2555   .debug_str:0000000000000560 .LASF13
     /tmp/ccRtX2Vt.s:2529   .debug_str:00000000000004a4 .LASF15
     /tmp/ccRtX2Vt.s:2489   .debug_str:00000000000003a3 .LASF7
     /tmp/ccRtX2Vt.s:2401   .debug_str:0000000000000103 .LASF9
     /tmp/ccRtX2Vt.s:2471   .debug_str:000000000000032c .LASF10
     /tmp/ccRtX2Vt.s:2461   .debug_str:00000000000002ea .LASF11
     /tmp/ccRtX2Vt.s:2395   .debug_str:00000000000000ce .LASF122
     /tmp/ccRtX2Vt.s:2511   .debug_str:0000000000000432 .LASF41
     /tmp/ccRtX2Vt.s:2453   .debug_str:00000000000002aa .LASF43
     /tmp/ccRtX2Vt.s:2481   .debug_str:0000000000000373 .LASF12
     /tmp/ccRtX2Vt.s:2373   .debug_str:0000000000000061 .LASF50
     /tmp/ccRtX2Vt.s:2427   .debug_str:0000000000000209 .LASF123
     /tmp/ccRtX2Vt.s:2521   .debug_str:0000000000000462 .LASF14
     /tmp/ccRtX2Vt.s:2457   .debug_str:00000000000002d3 .LASF16
     /tmp/ccRtX2Vt.s:2593   .debug_str:000000000000070c .LASF17
     /tmp/ccRtX2Vt.s:2405   .debug_str:0000000000000120 .LASF124
     /tmp/ccRtX2Vt.s:2569   .debug_str:00000000000005b9 .LASF98
     /tmp/ccRtX2Vt.s:2365   .debug_str:000000000000001c .LASF100
     /tmp/ccRtX2Vt.s:2441   .debug_str:000000000000025a .LASF125
     /tmp/ccRtX2Vt.s:2463   .debug_str:000000000000030a .LASF18
     /tmp/ccRtX2Vt.s:2513   .debug_str:000000000000043b .LASF19
     /tmp/ccRtX2Vt.s:2515   .debug_str:0000000000000441 .LASF20
     /tmp/ccRtX2Vt.s:2467   .debug_str:000000000000031a .LASF21
     /tmp/ccRtX2Vt.s:2403   .debug_str:000000000000011a .LASF22
     /tmp/ccRtX2Vt.s:2507   .debug_str:000000000000041e .LASF23
     /tmp/ccRtX2Vt.s:2537   .debug_str:00000000000004d3 .LASF24
     /tmp/ccRtX2Vt.s:2483   .debug_str:0000000000000378 .LASF25
     /tmp/ccRtX2Vt.s:2459   .debug_str:00000000000002e3 .LASF27
     /tmp/ccRtX2Vt.s:2367   .debug_str:000000000000002e .LASF26
     /tmp/ccRtX2Vt.s:2389   .debug_str:00000000000000bd .LASF28
     /tmp/ccRtX2Vt.s:2525   .debug_str:0000000000000480 .LASF29
     /tmp/ccRtX2Vt.s:2505   .debug_str:000000000000040b .LASF30
     /tmp/ccRtX2Vt.s:2589   .debug_str:00000000000006ed .LASF31
     /tmp/ccRtX2Vt.s:2445   .debug_str:0000000000000274 .LASF32
     /tmp/ccRtX2Vt.s:2591   .debug_str:00000000000006fd .LASF33
     /tmp/ccRtX2Vt.s:2581   .debug_str:00000000000006b6 .LASF34
     /tmp/ccRtX2Vt.s:2477   .debug_str:000000000000034b .LASF35
     /tmp/ccRtX2Vt.s:2371   .debug_str:0000000000000051 .LASF36
     /tmp/ccRtX2Vt.s:2409   .debug_str:0000000000000152 .LASF37
GAS LISTING /tmp/ccRtX2Vt.s 			page 15


     /tmp/ccRtX2Vt.s:2545   .debug_str:0000000000000509 .LASF38
     /tmp/ccRtX2Vt.s:2517   .debug_str:0000000000000446 .LASF39
     /tmp/ccRtX2Vt.s:2519   .debug_str:000000000000045c .LASF40
     /tmp/ccRtX2Vt.s:2543   .debug_str:00000000000004fe .LASF42
     /tmp/ccRtX2Vt.s:2605   .debug_str:0000000000000754 .LASF44
     /tmp/ccRtX2Vt.s:2387   .debug_str:00000000000000af .LASF45
     /tmp/ccRtX2Vt.s:2425   .debug_str:00000000000001ee .LASF46
     /tmp/ccRtX2Vt.s:2435   .debug_str:0000000000000232 .LASF47
     /tmp/ccRtX2Vt.s:2383   .debug_str:000000000000008a .LASF48
     /tmp/ccRtX2Vt.s:2485   .debug_str:0000000000000386 .LASF49
     /tmp/ccRtX2Vt.s:2567   .debug_str:00000000000005a4 .LASF51
     /tmp/ccRtX2Vt.s:2423   .debug_str:00000000000001e5 .LASF52
     /tmp/ccRtX2Vt.s:2421   .debug_str:00000000000001d0 .LASF56
     /tmp/ccRtX2Vt.s:2557   .debug_str:000000000000056b .LASF53
     /tmp/ccRtX2Vt.s:2539   .debug_str:00000000000004e6 .LASF54
     /tmp/ccRtX2Vt.s:2577   .debug_str:00000000000005eb .LASF55
     /tmp/ccRtX2Vt.s:2571   .debug_str:00000000000005c1 .LASF57
     /tmp/ccRtX2Vt.s:2439   .debug_str:0000000000000252 .LASF58
     /tmp/ccRtX2Vt.s:2417   .debug_str:00000000000001a9 .LASF59
     /tmp/ccRtX2Vt.s:2363   .debug_str:0000000000000014 .LASF60
     /tmp/ccRtX2Vt.s:2559   .debug_str:0000000000000572 .LASF61
     /tmp/ccRtX2Vt.s:2429   .debug_str:0000000000000211 .LASF62
     /tmp/ccRtX2Vt.s:2397   .debug_str:00000000000000d3 .LASF63
     /tmp/ccRtX2Vt.s:2611   .debug_str:0000000000000788 .LASF64
     /tmp/ccRtX2Vt.s:2431   .debug_str:0000000000000219 .LASF65
     /tmp/ccRtX2Vt.s:2509   .debug_str:000000000000042b .LASF66
     /tmp/ccRtX2Vt.s:2601   .debug_str:000000000000073c .LASF67
     /tmp/ccRtX2Vt.s:2587   .debug_str:00000000000006e6 .LASF68
     /tmp/ccRtX2Vt.s:2437   .debug_str:000000000000023f .LASF69
     /tmp/ccRtX2Vt.s:2443   .debug_str:000000000000026e .LASF70
     /tmp/ccRtX2Vt.s:2575   .debug_str:00000000000005d9 .LASF71
     /tmp/ccRtX2Vt.s:2473   .debug_str:0000000000000339 .LASF72
     /tmp/ccRtX2Vt.s:2613   .debug_str:0000000000000790 .LASF73
     /tmp/ccRtX2Vt.s:2609   .debug_str:000000000000077d .LASF74
     /tmp/ccRtX2Vt.s:2553   .debug_str:0000000000000548 .LASF75
     /tmp/ccRtX2Vt.s:2465   .debug_str:000000000000030f .LASF76
     /tmp/ccRtX2Vt.s:2479   .debug_str:000000000000035b .LASF77
     /tmp/ccRtX2Vt.s:2407   .debug_str:0000000000000148 .LASF78
     /tmp/ccRtX2Vt.s:2455   .debug_str:00000000000002bd .LASF79
     /tmp/ccRtX2Vt.s:2493   .debug_str:00000000000003c2 .LASF80
     /tmp/ccRtX2Vt.s:2449   .debug_str:000000000000028e .LASF81
     /tmp/ccRtX2Vt.s:2503   .debug_str:0000000000000404 .LASF82
     /tmp/ccRtX2Vt.s:2419   .debug_str:00000000000001bd .LASF83
     /tmp/ccRtX2Vt.s:2375   .debug_str:0000000000000070 .LASF84
     /tmp/ccRtX2Vt.s:2491   .debug_str:00000000000003af .LASF85
     /tmp/ccRtX2Vt.s:2561   .debug_str:0000000000000586 .LASF86
     /tmp/ccRtX2Vt.s:2399   .debug_str:00000000000000e7 .LASF87
     /tmp/ccRtX2Vt.s:2573   .debug_str:00000000000005d4 .LASF88
     /tmp/ccRtX2Vt.s:2527   .debug_str:0000000000000493 .LASF89
     /tmp/ccRtX2Vt.s:2391   .debug_str:00000000000000c4 .LASF90
     /tmp/ccRtX2Vt.s:2495   .debug_str:00000000000003cc .LASF91
     /tmp/ccRtX2Vt.s:2381   .debug_str:0000000000000085 .LASF92
     /tmp/ccRtX2Vt.s:2607   .debug_str:000000000000076c .LASF93
     /tmp/ccRtX2Vt.s:2393   .debug_str:00000000000000c9 .LASF94
     /tmp/ccRtX2Vt.s:2369   .debug_str:0000000000000040 .LASF95
     /tmp/ccRtX2Vt.s:2583   .debug_str:00000000000006c5 .LASF96
     /tmp/ccRtX2Vt.s:2501   .debug_str:00000000000003f0 .LASF97
GAS LISTING /tmp/ccRtX2Vt.s 			page 16


     /tmp/ccRtX2Vt.s:2499   .debug_str:00000000000003e4 .LASF99
     /tmp/ccRtX2Vt.s:2585   .debug_str:00000000000006cd .LASF101
     /tmp/ccRtX2Vt.s:2597   .debug_str:0000000000000727 .LASF102
     /tmp/ccRtX2Vt.s:2433   .debug_str:000000000000022d .LASF103
     /tmp/ccRtX2Vt.s:341    .text:00000000000001e8 .LFB48
     /tmp/ccRtX2Vt.s:379    .text:0000000000000230 .LFE48
     /tmp/ccRtX2Vt.s:355    .text:0000000000000200 .LVL26
     /tmp/ccRtX2Vt.s:368    .text:0000000000000220 .LVL28
     /tmp/ccRtX2Vt.s:289    .text:0000000000000194 .LFB47
     /tmp/ccRtX2Vt.s:335    .text:00000000000001e8 .LFE47
     /tmp/ccRtX2Vt.s:316    .text:00000000000001cc .LVL25
     /tmp/ccRtX2Vt.s:200    .text:0000000000000100 .LFB46
     /tmp/ccRtX2Vt.s:283    .text:0000000000000194 .LFE46
     /tmp/ccRtX2Vt.s:2206   .debug_loc:0000000000000000 .LLST6
     /tmp/ccRtX2Vt.s:223    .text:0000000000000128 .LBB11
     /tmp/ccRtX2Vt.s:230    .text:000000000000012c .LBE11
     /tmp/ccRtX2Vt.s:2217   .debug_loc:0000000000000036 .LLST7
     /tmp/ccRtX2Vt.s:216    .text:000000000000011c .LVL16
     /tmp/ccRtX2Vt.s:238    .text:000000000000013c .LVL19
     /tmp/ccRtX2Vt.s:251    .text:0000000000000160 .LVL20
     /tmp/ccRtX2Vt.s:255    .text:0000000000000168 .LVL21
     /tmp/ccRtX2Vt.s:280    .text:0000000000000190 .LVL24
     /tmp/ccRtX2Vt.s:148    .text:00000000000000bc .LFB45
     /tmp/ccRtX2Vt.s:194    .text:0000000000000100 .LFE45
     /tmp/ccRtX2Vt.s:2603   .debug_str:000000000000074f .LASF104
     /tmp/ccRtX2Vt.s:2224   .debug_loc:0000000000000059 .LLST5
     /tmp/ccRtX2Vt.s:180    .text:00000000000000ec .LVL15
     /tmp/ccRtX2Vt.s:122    .text:00000000000000bc .LFE44
     /tmp/ccRtX2Vt.s:2249   .debug_loc:00000000000000bb .LLST0
     /tmp/ccRtX2Vt.s:2278   .debug_loc:0000000000000130 .LLST1
     /tmp/ccRtX2Vt.s:43     .text:0000000000000034 .LBB7
     /tmp/ccRtX2Vt.s:2351   .debug_ranges:0000000000000000 .Ldebug_ranges0
     /tmp/ccRtX2Vt.s:2298   .debug_loc:000000000000018d .LLST2
     /tmp/ccRtX2Vt.s:2309   .debug_loc:00000000000001c3 .LLST3
     /tmp/ccRtX2Vt.s:2327   .debug_loc:000000000000020f .LLST4
     /tmp/ccRtX2Vt.s:54     .text:0000000000000048 .LVL4
     /tmp/ccRtX2Vt.s:39     .text:0000000000000030 .LVL2
     /tmp/ccRtX2Vt.s:115    .text:00000000000000b0 .LVL10
     /tmp/ccRtX2Vt.s:119    .text:00000000000000bc .LVL11
     /tmp/ccRtX2Vt.s:2361   .debug_str:0000000000000000 .LASF126
     /tmp/ccRtX2Vt.s:2565   .debug_str:000000000000059e .LASF105
     /tmp/ccRtX2Vt.s:2549   .debug_str:000000000000052e .LASF107
     /tmp/ccRtX2Vt.s:2377   .debug_str:0000000000000077 .LASF106
     /tmp/ccRtX2Vt.s:2595   .debug_str:000000000000071a .LASF108
     /tmp/ccRtX2Vt.s:2497   .debug_str:00000000000003dd .LASF109
     /tmp/ccRtX2Vt.s:2411   .debug_str:000000000000015e .LASF110
     /tmp/ccRtX2Vt.s:2547   .debug_str:000000000000051f .LASF111
     /tmp/ccRtX2Vt.s:2413   .debug_str:000000000000016e .LASF112
     /tmp/ccRtX2Vt.s:221    .text:0000000000000128 .LVL17
     /tmp/ccRtX2Vt.s:265    .text:0000000000000174 .LVL22
     /tmp/ccRtX2Vt.s:269    .text:000000000000017c .LVL23
     /tmp/ccRtX2Vt.s:228    .text:000000000000012c .LVL18
     /tmp/ccRtX2Vt.s:151    .text:00000000000000bc .LVL12
     /tmp/ccRtX2Vt.s:159    .text:00000000000000c8 .LVL13
     /tmp/ccRtX2Vt.s:162    .text:00000000000000cc .LVL14
     /tmp/ccRtX2Vt.s:16     .text:0000000000000000 .LVL0
     /tmp/ccRtX2Vt.s:36     .text:0000000000000028 .LVL1
GAS LISTING /tmp/ccRtX2Vt.s 			page 17


     /tmp/ccRtX2Vt.s:92     .text:000000000000008c .LVL6
     /tmp/ccRtX2Vt.s:99     .text:0000000000000098 .LVL8
     /tmp/ccRtX2Vt.s:109    .text:00000000000000a4 .LVL9
     /tmp/ccRtX2Vt.s:95     .text:0000000000000090 .LVL7
     /tmp/ccRtX2Vt.s:42     .text:0000000000000034 .LVL3
     /tmp/ccRtX2Vt.s:77     .text:0000000000000078 .LVL5
     /tmp/ccRtX2Vt.s:386    .debug_info:0000000000000000 .Ldebug_info0
     /tmp/ccRtX2Vt.s:79     .text:0000000000000078 .LBE7
     /tmp/ccRtX2Vt.s:102    .text:0000000000000098 .LBB10
     /tmp/ccRtX2Vt.s:111    .text:00000000000000a4 .LBE10
     /tmp/ccRtX2Vt.s:125    .gcc_except_table:0000000000000000 .LLSDA44

UNDEFINED SYMBOLS
_Znwm
_Znam
_ZdlPv
_Unwind_Resume
__gxx_personality_v0
_ZN9Scheduler3putEP3PCB
_ZN5Riscv13pushRegistersEv
_ZN3PCB7runningE
_ZN9Scheduler3getEv
_ZN3PCB13contextSwitchEPNS_7ContextES1_
_ZN5Riscv12popRegistersEv
_ZN5Riscv10popSppSpieEv
