GAS LISTING /tmp/ccn1PgOb.s 			page 1


   1              		.file	"PCB.cpp"
   2              		.option pic
   3              		.option norelax
   4              		.text
   5              	.Ltext0:
   6              		.align	2
   7              		.globl	_ZN3PCB7wrapperEv
   9              	_ZN3PCB7wrapperEv:
  10              	.LFB51:
  11              		.file 1 "src/PCB.cpp"
   1:src/PCB.cpp   **** //
   2:src/PCB.cpp   **** // Created by os on 7/28/23.
   3:src/PCB.cpp   **** //
   4:src/PCB.cpp   **** 
   5:src/PCB.cpp   **** #include "../h/PCB.hpp"
   6:src/PCB.cpp   **** 
   7:src/PCB.cpp   **** 
   8:src/PCB.cpp   **** PCB* PCB::running;
   9:src/PCB.cpp   **** 
  10:src/PCB.cpp   **** PCB *PCB::createThread(PCB::Body body, void *args) {
  11:src/PCB.cpp   ****     return new PCB(body, args);
  12:src/PCB.cpp   **** }
  13:src/PCB.cpp   **** 
  14:src/PCB.cpp   **** 
  15:src/PCB.cpp   **** void PCB::dispatch() {
  16:src/PCB.cpp   ****     Riscv::pushRegisters();
  17:src/PCB.cpp   **** 
  18:src/PCB.cpp   ****     PCB *old = running;
  19:src/PCB.cpp   ****     if (!old->isFinished()) {
  20:src/PCB.cpp   ****         old->state = READY;
  21:src/PCB.cpp   ****         Scheduler::put(old);
  22:src/PCB.cpp   ****     }
  23:src/PCB.cpp   ****     running = Scheduler::get();
  24:src/PCB.cpp   ****     running->state=RUNNING;
  25:src/PCB.cpp   **** 
  26:src/PCB.cpp   ****     PCB::contextSwitch(&old->context, &running->context);
  27:src/PCB.cpp   **** 
  28:src/PCB.cpp   ****     Riscv::popRegisters();
  29:src/PCB.cpp   **** }
  30:src/PCB.cpp   **** 
  31:src/PCB.cpp   **** int PCB::exit() {
  32:src/PCB.cpp   ****     if(running->state==RUNNING){
  33:src/PCB.cpp   ****         running->state=FINISHED;
  34:src/PCB.cpp   ****         dispatch();
  35:src/PCB.cpp   ****         return 0;
  36:src/PCB.cpp   ****     }
  37:src/PCB.cpp   ****     return -1;
  38:src/PCB.cpp   **** }
  39:src/PCB.cpp   **** 
  40:src/PCB.cpp   **** void PCB::wrapper() {
  12              		.loc 1 40 21
  13              		.cfi_startproc
  14 0000 130101FF 		addi	sp,sp,-16
  15              		.cfi_def_cfa_offset 16
  16 0004 23341100 		sd	ra,8(sp)
  17 0008 23308100 		sd	s0,0(sp)
  18              		.cfi_offset 1, -8
GAS LISTING /tmp/ccn1PgOb.s 			page 2


  19              		.cfi_offset 8, -16
  20 000c 13040101 		addi	s0,sp,16
  21              		.cfi_def_cfa 8, 0
  41:src/PCB.cpp   ****     Riscv::popSppSpie();
  22              		.loc 1 41 5
  23              		.loc 1 41 22 is_stmt 0
  24 0010 97000000 		call	_ZN5Riscv10popSppSpieEv@plt
  24      E7800000 
  25              	.LVL0:
  42:src/PCB.cpp   ****     running->body(running->args);
  26              		.loc 1 42 5 is_stmt 1
  27              		.loc 1 42 14 is_stmt 0
  28 0018 97070000 		ld	a5,.LANCHOR0
  28      83B70700 
  29 0020 03B70700 		ld	a4,0(a5)
  30              		.loc 1 42 18
  31 0024 03B50701 		ld	a0,16(a5)
  32 0028 E7000700 		jalr	a4
  33              	.LVL1:
  43:src/PCB.cpp   ****     thread_exit();
  34              		.loc 1 43 5 is_stmt 1
  35              		.loc 1 43 16 is_stmt 0
  36 002c 97000000 		call	_Z11thread_exitv@plt
  36      E7800000 
  37              	.LVL2:
  44:src/PCB.cpp   **** }...
  38              		.loc 1 44 1
  39 0034 83308100 		ld	ra,8(sp)
  40              		.cfi_restore 1
  41 0038 03340100 		ld	s0,0(sp)
  42              		.cfi_restore 8
  43              		.cfi_def_cfa 2, 16
  44 003c 13010101 		addi	sp,sp,16
  45              		.cfi_def_cfa_offset 0
  46 0040 67800000 		jr	ra
  47              		.cfi_endproc
  48              	.LFE51:
  50              		.align	2
  51              		.globl	_ZN3PCB12createThreadEPFvPvES0_
  53              	_ZN3PCB12createThreadEPFvPvES0_:
  54              	.LFB48:
  10:src/PCB.cpp   **** PCB *PCB::createThread(PCB::Body body, void *args) {
  55              		.loc 1 10 52 is_stmt 1
  56              		.cfi_startproc
  57              		.cfi_personality 0x9b,DW.ref.__gxx_personality_v0
  58              		.cfi_lsda 0x1b,.LLSDA48
  59              	.LVL3:
  60 0044 130101FD 		addi	sp,sp,-48
  61              		.cfi_def_cfa_offset 48
  62 0048 23341102 		sd	ra,40(sp)
  63 004c 23308102 		sd	s0,32(sp)
  64 0050 233C9100 		sd	s1,24(sp)
  65 0054 23382101 		sd	s2,16(sp)
  66 0058 23343101 		sd	s3,8(sp)
  67              		.cfi_offset 1, -8
  68              		.cfi_offset 8, -16
  69              		.cfi_offset 9, -24
GAS LISTING /tmp/ccn1PgOb.s 			page 3


  70              		.cfi_offset 18, -32
  71              		.cfi_offset 19, -40
  72 005c 13040103 		addi	s0,sp,48
  73              		.cfi_def_cfa 8, 0
  74 0060 13090500 		mv	s2,a0
  75 0064 93890500 		mv	s3,a1
  11:src/PCB.cpp   ****     return new PCB(body, args);
  76              		.loc 1 11 5
  11:src/PCB.cpp   ****     return new PCB(body, args);
  77              		.loc 1 11 30 is_stmt 0
  78 0068 13050003 		li	a0,48
  79              	.LVL4:
  80              	.LEHB0:
  81 006c 97000000 		call	_Znwm@plt
  81      E7800000 
  82              	.LVL5:
  83              	.LEHE0:
  84 0074 93040500 		mv	s1,a0
  85              	.LVL6:
  86              	.LBB7:
  87              	.LBB8:
  88              		.file 2 "src/../h/PCB.hpp"
   1:src/../h/PCB.hpp **** #ifndef PROJECT_BASE_V1_1_PCB_HPP
   2:src/../h/PCB.hpp **** #define PROJECT_BASE_V1_1_PCB_HPP
   3:src/../h/PCB.hpp **** 
   4:src/../h/PCB.hpp **** 
   5:src/../h/PCB.hpp **** #include "Scheduler.hpp"
   6:src/../h/PCB.hpp **** #include "riscv.hpp"
   7:src/../h/PCB.hpp **** #include "../h/syscall_c.hpp"
   8:src/../h/PCB.hpp **** 
   9:src/../h/PCB.hpp **** 
  10:src/../h/PCB.hpp **** 
  11:src/../h/PCB.hpp **** 
  12:src/../h/PCB.hpp **** class PCB {
  13:src/../h/PCB.hpp **** public:
  14:src/../h/PCB.hpp **** 
  15:src/../h/PCB.hpp ****     struct Context
  16:src/../h/PCB.hpp ****     {
  17:src/../h/PCB.hpp ****         uint64 ra;
  18:src/../h/PCB.hpp ****         uint64 sp;
  19:src/../h/PCB.hpp ****     };
  20:src/../h/PCB.hpp **** 
  21:src/../h/PCB.hpp ****     enum State{
  22:src/../h/PCB.hpp ****         READY,
  23:src/../h/PCB.hpp ****         RUNNING,
  24:src/../h/PCB.hpp ****         SUSPENDED,
  25:src/../h/PCB.hpp ****         FINISHED
  26:src/../h/PCB.hpp ****     };
  27:src/../h/PCB.hpp ****     ~PCB() { delete[] stack; }
  28:src/../h/PCB.hpp **** 
  29:src/../h/PCB.hpp ****     bool isFinished() const { return state==FINISHED; }
  30:src/../h/PCB.hpp **** 
  31:src/../h/PCB.hpp ****     void setFinished() { state = FINISHED; }
  32:src/../h/PCB.hpp **** 
  33:src/../h/PCB.hpp ****     using Body = void (*)(void*);
  34:src/../h/PCB.hpp **** 
  35:src/../h/PCB.hpp ****     static PCB *createThread(Body body, void* args);
GAS LISTING /tmp/ccn1PgOb.s 			page 4


  36:src/../h/PCB.hpp **** 
  37:src/../h/PCB.hpp ****     static void dispatch();
  38:src/../h/PCB.hpp **** 
  39:src/../h/PCB.hpp ****     static int exit();
  40:src/../h/PCB.hpp **** 
  41:src/../h/PCB.hpp **** 
  42:src/../h/PCB.hpp ****     static PCB *running;
  43:src/../h/PCB.hpp **** 
  44:src/../h/PCB.hpp **** private:
  45:src/../h/PCB.hpp **** 
  46:src/../h/PCB.hpp ****     static void contextSwitch(Context* old, Context* running);
  47:src/../h/PCB.hpp **** 
  48:src/../h/PCB.hpp ****     static void wrapper();
  49:src/../h/PCB.hpp **** 
  50:src/../h/PCB.hpp ****     PCB(Body body, void* args) :
  51:src/../h/PCB.hpp ****             body(body),
  52:src/../h/PCB.hpp ****             stack(body != nullptr ? new uint64[DEFAULT_STACK_SIZE] : nullptr),
  53:src/../h/PCB.hpp ****             context({   (uint64)&wrapper,
  54:src/../h/PCB.hpp ****                         stack != nullptr ? (uint64) &stack[DEFAULT_STACK_SIZE] : 0
  55:src/../h/PCB.hpp ****                     }),
  56:src/../h/PCB.hpp ****             state(READY)
  89              		.loc 2 56 24
  90 0078 23302501 		sd	s2,0(a0)
  52:src/../h/PCB.hpp ****             context({   (uint64)&wrapper,
  91              		.loc 2 52 35
  92 007c 630A0900 		beqz	s2,.L7
  52:src/../h/PCB.hpp ****             context({   (uint64)&wrapper,
  93              		.loc 2 52 66
  94 0080 37850000 		li	a0,32768
  95              	.LEHB1:
  96 0084 97000000 		call	_Znam@plt
  96      E7800000 
  97              	.LVL7:
  98              	.LEHE1:
  99 008c 6F008000 		j	.L4
 100              	.L7:
  52:src/../h/PCB.hpp ****             context({   (uint64)&wrapper,
 101              		.loc 2 52 35
 102 0090 13050000 		li	a0,0
 103              	.L4:
 104              		.loc 2 56 24
 105 0094 23B4A400 		sd	a0,8(s1)
 106 0098 97070000 		lla	a5,_ZN3PCB7wrapperEv
 106      93870700 
 107 00a0 23BCF400 		sd	a5,24(s1)
  54:src/../h/PCB.hpp ****                     }),
 108              		.loc 2 54 42
 109 00a4 630C0502 		beqz	a0,.L8
  54:src/../h/PCB.hpp ****                     }),
 110              		.loc 2 54 53
 111 00a8 B7870000 		li	a5,32768
 112 00ac 3305F500 		add	a0,a0,a5
 113              	.L5:
 114              		.loc 2 56 24
 115 00b0 23B0A402 		sd	a0,32(s1)
 116 00b4 23A40402 		sw	zero,40(s1)
  57:src/../h/PCB.hpp ****     {
GAS LISTING /tmp/ccn1PgOb.s 			page 5


  58:src/../h/PCB.hpp ****         this->args=args;
 117              		.loc 2 58 9 is_stmt 1
 118              		.loc 2 58 19 is_stmt 0
 119 00b8 23B83401 		sd	s3,16(s1)
 120              	.LVL8:
 121              	.LBE8:
 122              	.LBE7:
  12:src/PCB.cpp   **** }
 123              		.loc 1 12 1
 124 00bc 13850400 		mv	a0,s1
 125 00c0 83308102 		ld	ra,40(sp)
 126              		.cfi_remember_state
 127              		.cfi_restore 1
 128 00c4 03340102 		ld	s0,32(sp)
 129              		.cfi_restore 8
 130              		.cfi_def_cfa 2, 48
 131 00c8 83348101 		ld	s1,24(sp)
 132              		.cfi_restore 9
 133 00cc 03390101 		ld	s2,16(sp)
 134              		.cfi_restore 18
 135              	.LVL9:
 136 00d0 83398100 		ld	s3,8(sp)
 137              		.cfi_restore 19
 138              	.LVL10:
 139 00d4 13010103 		addi	sp,sp,48
 140              		.cfi_def_cfa_offset 0
 141 00d8 67800000 		jr	ra
 142              	.LVL11:
 143              	.L8:
 144              		.cfi_restore_state
 145              	.LBB10:
 146              	.LBB9:
  54:src/../h/PCB.hpp ****                     }),
 147              		.loc 2 54 42
 148 00dc 13050000 		li	a0,0
 149 00e0 6FF01FFD 		j	.L5
 150              	.L9:
 151 00e4 13090500 		mv	s2,a0
 152              	.LVL12:
 153              	.LBE9:
 154              	.LBE10:
  11:src/PCB.cpp   ****     return new PCB(body, args);
 155              		.loc 1 11 30
 156 00e8 13850400 		mv	a0,s1
 157 00ec 97000000 		call	_ZdlPv@plt
 157      E7800000 
 158              	.LVL13:
 159 00f4 13050900 		mv	a0,s2
 160              	.LEHB2:
 161 00f8 97000000 		call	_Unwind_Resume@plt
 161      E7800000 
 162              	.LVL14:
 163              	.LEHE2:
 164              		.cfi_endproc
 165              	.LFE48:
 166              		.globl	__gxx_personality_v0
 167              		.section	.gcc_except_table,"a",@progbits
GAS LISTING /tmp/ccn1PgOb.s 			page 6


 168              	.LLSDA48:
 169 0000 FF       		.byte	0xff
 170 0001 FF       		.byte	0xff
 171 0002 03       		.byte	0x3
 172 0003 27       		.byte	0x27
 173 0004 00000000 		.4byte	.LEHB0-.LFB48
 174 0008 00000000 		.4byte	.LEHE0-.LEHB0
 175 000c 00000000 		.4byte	0
 176 0010 00       		.byte	0
 177 0011 00000000 		.4byte	.LEHB1-.LFB48
 178 0015 00000000 		.4byte	.LEHE1-.LEHB1
 179 0019 00000000 		.4byte	.L9-.LFB48
 180 001d 00       		.byte	0
 181 001e 00000000 		.4byte	.LEHB2-.LFB48
 182 0022 00000000 		.4byte	.LEHE2-.LEHB2
 183 0026 00000000 		.4byte	0
 184 002a 00       		.byte	0
 185              		.text
 187              		.align	2
 188              		.globl	_ZN3PCB8dispatchEv
 190              	_ZN3PCB8dispatchEv:
 191              	.LFB49:
  15:src/PCB.cpp   **** void PCB::dispatch() {
 192              		.loc 1 15 22 is_stmt 1
 193              		.cfi_startproc
 194 0100 130101FE 		addi	sp,sp,-32
 195              		.cfi_def_cfa_offset 32
 196 0104 233C1100 		sd	ra,24(sp)
 197 0108 23388100 		sd	s0,16(sp)
 198 010c 23349100 		sd	s1,8(sp)
 199              		.cfi_offset 1, -8
 200              		.cfi_offset 8, -16
 201              		.cfi_offset 9, -24
 202 0110 13040102 		addi	s0,sp,32
 203              		.cfi_def_cfa 8, 0
  16:src/PCB.cpp   ****     Riscv::pushRegisters();
 204              		.loc 1 16 5
  16:src/PCB.cpp   ****     Riscv::pushRegisters();
 205              		.loc 1 16 25 is_stmt 0
 206 0114 97000000 		call	_ZN5Riscv13pushRegistersEv@plt
 206      E7800000 
 207              	.LVL15:
  18:src/PCB.cpp   ****     PCB *old = running;
 208              		.loc 1 18 5 is_stmt 1
  18:src/PCB.cpp   ****     PCB *old = running;
 209              		.loc 1 18 10 is_stmt 0
 210 011c 97040000 		ld	s1,.LANCHOR0
 210      83B40400 
 211              	.LVL16:
  19:src/PCB.cpp   ****     if (!old->isFinished()) {
 212              		.loc 1 19 5 is_stmt 1
 213              	.LBB11:
 214              	.LBB12:
  29:src/../h/PCB.hpp **** 
 215              		.loc 2 29 31
  29:src/../h/PCB.hpp **** 
 216              		.loc 2 29 38 is_stmt 0
GAS LISTING /tmp/ccn1PgOb.s 			page 7


 217 0124 03A78402 		lw	a4,40(s1)
 218              	.LVL17:
 219              	.LBE12:
 220              	.LBE11:
  19:src/PCB.cpp   ****     if (!old->isFinished()) {
 221              		.loc 1 19 5
 222 0128 93073000 		li	a5,3
 223 012c 6314F704 		bne	a4,a5,.L15
 224              	.L13:
  23:src/PCB.cpp   ****     running = Scheduler::get();
 225              		.loc 1 23 5 is_stmt 1
  23:src/PCB.cpp   ****     running = Scheduler::get();
 226              		.loc 1 23 29 is_stmt 0
 227 0130 97000000 		call	_ZN9Scheduler3getEv@plt
 227      E7800000 
 228              	.LVL18:
  23:src/PCB.cpp   ****     running = Scheduler::get();
 229              		.loc 1 23 13
 230 0138 97070000 		sd	a0,.LANCHOR0,a5
 230      23B0A700 
  24:src/PCB.cpp   ****     running->state=RUNNING;
 231              		.loc 1 24 5 is_stmt 1
  24:src/PCB.cpp   ****     running->state=RUNNING;
 232              		.loc 1 24 19 is_stmt 0
 233 0140 93071000 		li	a5,1
 234 0144 2324F502 		sw	a5,40(a0)
  26:src/PCB.cpp   ****     PCB::contextSwitch(&old->context, &running->context);
 235              		.loc 1 26 5 is_stmt 1
  26:src/PCB.cpp   ****     PCB::contextSwitch(&old->context, &running->context);
 236              		.loc 1 26 23 is_stmt 0
 237 0148 93058501 		addi	a1,a0,24
 238 014c 13858401 		addi	a0,s1,24
 239 0150 97000000 		call	_ZN3PCB13contextSwitchEPNS_7ContextES1_@plt
 239      E7800000 
 240              	.LVL19:
  28:src/PCB.cpp   ****     Riscv::popRegisters();
 241              		.loc 1 28 5 is_stmt 1
  28:src/PCB.cpp   ****     Riscv::popRegisters();
 242              		.loc 1 28 24 is_stmt 0
 243 0158 97000000 		call	_ZN5Riscv12popRegistersEv@plt
 243      E7800000 
 244              	.LVL20:
  29:src/PCB.cpp   **** }
 245              		.loc 1 29 1
 246 0160 83308101 		ld	ra,24(sp)
 247              		.cfi_remember_state
 248              		.cfi_restore 1
 249 0164 03340101 		ld	s0,16(sp)
 250              		.cfi_restore 8
 251              		.cfi_def_cfa 2, 32
 252 0168 83348100 		ld	s1,8(sp)
 253              		.cfi_restore 9
 254              	.LVL21:
 255 016c 13010102 		addi	sp,sp,32
 256              		.cfi_def_cfa_offset 0
 257 0170 67800000 		jr	ra
 258              	.LVL22:
GAS LISTING /tmp/ccn1PgOb.s 			page 8


 259              	.L15:
 260              		.cfi_restore_state
  20:src/PCB.cpp   ****         old->state = READY;
 261              		.loc 1 20 9 is_stmt 1
  20:src/PCB.cpp   ****         old->state = READY;
 262              		.loc 1 20 20 is_stmt 0
 263 0174 23A40402 		sw	zero,40(s1)
  21:src/PCB.cpp   ****         Scheduler::put(old);
 264              		.loc 1 21 9 is_stmt 1
  21:src/PCB.cpp   ****         Scheduler::put(old);
 265              		.loc 1 21 23 is_stmt 0
 266 0178 13850400 		mv	a0,s1
 267 017c 97000000 		call	_ZN9Scheduler3putEP3PCB@plt
 267      E7800000 
 268              	.LVL23:
 269 0184 6FF0DFFA 		j	.L13
 270              		.cfi_endproc
 271              	.LFE49:
 273              		.align	2
 274              		.globl	_ZN3PCB4exitEv
 276              	_ZN3PCB4exitEv:
 277              	.LFB50:
  31:src/PCB.cpp   **** int PCB::exit() {
 278              		.loc 1 31 17 is_stmt 1
 279              		.cfi_startproc
  32:src/PCB.cpp   ****     if(running->state==RUNNING){
 280              		.loc 1 32 5
  32:src/PCB.cpp   ****     if(running->state==RUNNING){
 281              		.loc 1 32 17 is_stmt 0
 282 0188 97070000 		ld	a5,.LANCHOR0
 282      83B70700 
 283 0190 83A68702 		lw	a3,40(a5)
  32:src/PCB.cpp   ****     if(running->state==RUNNING){
 284              		.loc 1 32 5
 285 0194 13071000 		li	a4,1
 286 0198 639CE602 		bne	a3,a4,.L18
  31:src/PCB.cpp   **** int PCB::exit() {
 287              		.loc 1 31 17
 288 019c 130101FF 		addi	sp,sp,-16
 289              		.cfi_def_cfa_offset 16
 290 01a0 23341100 		sd	ra,8(sp)
 291 01a4 23308100 		sd	s0,0(sp)
 292              		.cfi_offset 1, -8
 293              		.cfi_offset 8, -16
 294 01a8 13040101 		addi	s0,sp,16
 295              		.cfi_def_cfa 8, 0
  33:src/PCB.cpp   ****         running->state=FINISHED;
 296              		.loc 1 33 9 is_stmt 1
  33:src/PCB.cpp   ****         running->state=FINISHED;
 297              		.loc 1 33 23 is_stmt 0
 298 01ac 13073000 		li	a4,3
 299 01b0 23A4E702 		sw	a4,40(a5)
  34:src/PCB.cpp   ****         dispatch();
 300              		.loc 1 34 9 is_stmt 1
  34:src/PCB.cpp   ****         dispatch();
 301              		.loc 1 34 17 is_stmt 0
 302 01b4 97000000 		call	_ZN3PCB8dispatchEv
GAS LISTING /tmp/ccn1PgOb.s 			page 9


 302      E7800000 
 303              	.LVL24:
  35:src/PCB.cpp   ****         return 0;
 304              		.loc 1 35 9 is_stmt 1
  35:src/PCB.cpp   ****         return 0;
 305              		.loc 1 35 16 is_stmt 0
 306 01bc 13050000 		li	a0,0
  38:src/PCB.cpp   **** }
 307              		.loc 1 38 1
 308 01c0 83308100 		ld	ra,8(sp)
 309              		.cfi_restore 1
 310 01c4 03340100 		ld	s0,0(sp)
 311              		.cfi_restore 8
 312              		.cfi_def_cfa 2, 16
 313 01c8 13010101 		addi	sp,sp,16
 314              		.cfi_def_cfa_offset 0
 315 01cc 67800000 		jr	ra
 316              	.L18:
  37:src/PCB.cpp   ****     return -1;
 317              		.loc 1 37 13
 318 01d0 1305F0FF 		li	a0,-1
  38:src/PCB.cpp   **** }
 319              		.loc 1 38 1
 320 01d4 67800000 		ret
 321              		.cfi_endproc
 322              	.LFE50:
 324              		.globl	_ZN3PCB7runningE
 325              		.bss
 326              		.align	3
 327              		.set	.LANCHOR0,. + 0
 330              	_ZN3PCB7runningE:
 331 0000 00000000 		.zero	8
 331      00000000 
 332              		.text
 333              	.Letext0:
 334              		.file 3 "src/../h/../h/../lib/hw.h"
 335              		.file 4 "src/../h/Scheduler.hpp"
 336              		.file 5 "src/../h/riscv.hpp"
 337              		.file 6 "src/../h/../h/syscall_c.hpp"
 2570              		.align	3
 2573              	DW.ref.__gxx_personality_v0:
 2574 0000 00000000 		.dword	__gxx_personality_v0
 2574      00000000 
 2575              		.ident	"GCC: (Ubuntu 9.4.0-1ubuntu1~20.04) 9.4.0"
 2576              		.section	.note.GNU-stack,"",@progbits
GAS LISTING /tmp/ccn1PgOb.s 			page 10


DEFINED SYMBOLS
                            *ABS*:0000000000000000 PCB.cpp
     /tmp/ccn1PgOb.s:9      .text:0000000000000000 _ZN3PCB7wrapperEv
     /tmp/ccn1PgOb.s:13     .text:0000000000000000 .L0 
     /tmp/ccn1PgOb.s:14     .text:0000000000000000 .L0 
     /tmp/ccn1PgOb.s:15     .text:0000000000000004 .L0 
     /tmp/ccn1PgOb.s:18     .text:000000000000000c .L0 
     /tmp/ccn1PgOb.s:19     .text:000000000000000c .L0 
     /tmp/ccn1PgOb.s:21     .text:0000000000000010 .L0 
     /tmp/ccn1PgOb.s:23     .text:0000000000000010 .L0 
     /tmp/ccn1PgOb.s:24     .text:0000000000000010 .L0 
     /tmp/ccn1PgOb.s:27     .text:0000000000000018 .L0 
     /tmp/ccn1PgOb.s:28     .text:0000000000000018 .L0 
     /tmp/ccn1PgOb.s:31     .text:0000000000000024 .L0 
     /tmp/ccn1PgOb.s:35     .text:000000000000002c .L0 
     /tmp/ccn1PgOb.s:36     .text:000000000000002c .L0 
     /tmp/ccn1PgOb.s:39     .text:0000000000000034 .L0 
     /tmp/ccn1PgOb.s:40     .text:0000000000000038 .L0 
     /tmp/ccn1PgOb.s:42     .text:000000000000003c .L0 
     /tmp/ccn1PgOb.s:43     .text:000000000000003c .L0 
     /tmp/ccn1PgOb.s:45     .text:0000000000000040 .L0 
     /tmp/ccn1PgOb.s:47     .text:0000000000000044 .L0 
     /tmp/ccn1PgOb.s:53     .text:0000000000000044 _ZN3PCB12createThreadEPFvPvES0_
     /tmp/ccn1PgOb.s:56     .text:0000000000000044 .L0 
     /tmp/ccn1PgOb.s:2573   .data.rel.local.DW.ref.__gxx_personality_v0:0000000000000000 DW.ref.__gxx_personality_v0
     /tmp/ccn1PgOb.s:60     .text:0000000000000044 .L0 
     /tmp/ccn1PgOb.s:61     .text:0000000000000048 .L0 
     /tmp/ccn1PgOb.s:67     .text:000000000000005c .L0 
     /tmp/ccn1PgOb.s:68     .text:000000000000005c .L0 
     /tmp/ccn1PgOb.s:69     .text:000000000000005c .L0 
     /tmp/ccn1PgOb.s:70     .text:000000000000005c .L0 
     /tmp/ccn1PgOb.s:71     .text:000000000000005c .L0 
     /tmp/ccn1PgOb.s:73     .text:0000000000000060 .L0 
     /tmp/ccn1PgOb.s:77     .text:0000000000000068 .L0 
     /tmp/ccn1PgOb.s:78     .text:0000000000000068 .L0 
     /tmp/ccn1PgOb.s:90     .text:0000000000000078 .L0 
     /tmp/ccn1PgOb.s:92     .text:000000000000007c .L0 
     /tmp/ccn1PgOb.s:94     .text:0000000000000080 .L0 
     /tmp/ccn1PgOb.s:102    .text:0000000000000090 .L0 
     /tmp/ccn1PgOb.s:105    .text:0000000000000094 .L0 
     /tmp/ccn1PgOb.s:109    .text:00000000000000a4 .L0 
     /tmp/ccn1PgOb.s:111    .text:00000000000000a8 .L0 
     /tmp/ccn1PgOb.s:115    .text:00000000000000b0 .L0 
     /tmp/ccn1PgOb.s:118    .text:00000000000000b8 .L0 
     /tmp/ccn1PgOb.s:119    .text:00000000000000b8 .L0 
     /tmp/ccn1PgOb.s:124    .text:00000000000000bc .L0 
     /tmp/ccn1PgOb.s:126    .text:00000000000000c4 .L0 
     /tmp/ccn1PgOb.s:127    .text:00000000000000c4 .L0 
     /tmp/ccn1PgOb.s:129    .text:00000000000000c8 .L0 
     /tmp/ccn1PgOb.s:130    .text:00000000000000c8 .L0 
     /tmp/ccn1PgOb.s:132    .text:00000000000000cc .L0 
     /tmp/ccn1PgOb.s:134    .text:00000000000000d0 .L0 
     /tmp/ccn1PgOb.s:137    .text:00000000000000d4 .L0 
     /tmp/ccn1PgOb.s:140    .text:00000000000000d8 .L0 
     /tmp/ccn1PgOb.s:144    .text:00000000000000dc .L0 
     /tmp/ccn1PgOb.s:148    .text:00000000000000dc .L0 
     /tmp/ccn1PgOb.s:156    .text:00000000000000e8 .L0 
GAS LISTING /tmp/ccn1PgOb.s 			page 11


     /tmp/ccn1PgOb.s:164    .text:0000000000000100 .L0 
     /tmp/ccn1PgOb.s:190    .text:0000000000000100 _ZN3PCB8dispatchEv
     /tmp/ccn1PgOb.s:193    .text:0000000000000100 .L0 
     /tmp/ccn1PgOb.s:194    .text:0000000000000100 .L0 
     /tmp/ccn1PgOb.s:195    .text:0000000000000104 .L0 
     /tmp/ccn1PgOb.s:199    .text:0000000000000110 .L0 
     /tmp/ccn1PgOb.s:200    .text:0000000000000110 .L0 
     /tmp/ccn1PgOb.s:201    .text:0000000000000110 .L0 
     /tmp/ccn1PgOb.s:203    .text:0000000000000114 .L0 
     /tmp/ccn1PgOb.s:205    .text:0000000000000114 .L0 
     /tmp/ccn1PgOb.s:206    .text:0000000000000114 .L0 
     /tmp/ccn1PgOb.s:209    .text:000000000000011c .L0 
     /tmp/ccn1PgOb.s:210    .text:000000000000011c .L0 
     /tmp/ccn1PgOb.s:215    .text:0000000000000124 .L0 
     /tmp/ccn1PgOb.s:216    .text:0000000000000124 .L0 
     /tmp/ccn1PgOb.s:217    .text:0000000000000124 .L0 
     /tmp/ccn1PgOb.s:222    .text:0000000000000128 .L0 
     /tmp/ccn1PgOb.s:226    .text:0000000000000130 .L0 
     /tmp/ccn1PgOb.s:227    .text:0000000000000130 .L0 
     /tmp/ccn1PgOb.s:230    .text:0000000000000138 .L0 
     /tmp/ccn1PgOb.s:232    .text:0000000000000140 .L0 
     /tmp/ccn1PgOb.s:233    .text:0000000000000140 .L0 
     /tmp/ccn1PgOb.s:236    .text:0000000000000148 .L0 
     /tmp/ccn1PgOb.s:237    .text:0000000000000148 .L0 
     /tmp/ccn1PgOb.s:242    .text:0000000000000158 .L0 
     /tmp/ccn1PgOb.s:243    .text:0000000000000158 .L0 
     /tmp/ccn1PgOb.s:246    .text:0000000000000160 .L0 
     /tmp/ccn1PgOb.s:247    .text:0000000000000164 .L0 
     /tmp/ccn1PgOb.s:248    .text:0000000000000164 .L0 
     /tmp/ccn1PgOb.s:250    .text:0000000000000168 .L0 
     /tmp/ccn1PgOb.s:251    .text:0000000000000168 .L0 
     /tmp/ccn1PgOb.s:253    .text:000000000000016c .L0 
     /tmp/ccn1PgOb.s:256    .text:0000000000000170 .L0 
     /tmp/ccn1PgOb.s:260    .text:0000000000000174 .L0 
     /tmp/ccn1PgOb.s:262    .text:0000000000000174 .L0 
     /tmp/ccn1PgOb.s:263    .text:0000000000000174 .L0 
     /tmp/ccn1PgOb.s:265    .text:0000000000000178 .L0 
     /tmp/ccn1PgOb.s:266    .text:0000000000000178 .L0 
     /tmp/ccn1PgOb.s:270    .text:0000000000000188 .L0 
     /tmp/ccn1PgOb.s:276    .text:0000000000000188 _ZN3PCB4exitEv
     /tmp/ccn1PgOb.s:279    .text:0000000000000188 .L0 
     /tmp/ccn1PgOb.s:280    .text:0000000000000188 .L0 
     /tmp/ccn1PgOb.s:281    .text:0000000000000188 .L0 
     /tmp/ccn1PgOb.s:282    .text:0000000000000188 .L0 
     /tmp/ccn1PgOb.s:285    .text:0000000000000194 .L0 
     /tmp/ccn1PgOb.s:288    .text:000000000000019c .L0 
     /tmp/ccn1PgOb.s:289    .text:00000000000001a0 .L0 
     /tmp/ccn1PgOb.s:292    .text:00000000000001a8 .L0 
     /tmp/ccn1PgOb.s:293    .text:00000000000001a8 .L0 
     /tmp/ccn1PgOb.s:295    .text:00000000000001ac .L0 
     /tmp/ccn1PgOb.s:297    .text:00000000000001ac .L0 
     /tmp/ccn1PgOb.s:298    .text:00000000000001ac .L0 
     /tmp/ccn1PgOb.s:301    .text:00000000000001b4 .L0 
     /tmp/ccn1PgOb.s:302    .text:00000000000001b4 .L0 
     /tmp/ccn1PgOb.s:305    .text:00000000000001bc .L0 
     /tmp/ccn1PgOb.s:306    .text:00000000000001bc .L0 
     /tmp/ccn1PgOb.s:308    .text:00000000000001c0 .L0 
GAS LISTING /tmp/ccn1PgOb.s 			page 12


     /tmp/ccn1PgOb.s:309    .text:00000000000001c4 .L0 
     /tmp/ccn1PgOb.s:311    .text:00000000000001c8 .L0 
     /tmp/ccn1PgOb.s:312    .text:00000000000001c8 .L0 
     /tmp/ccn1PgOb.s:314    .text:00000000000001cc .L0 
     /tmp/ccn1PgOb.s:318    .text:00000000000001d0 .L0 
     /tmp/ccn1PgOb.s:320    .text:00000000000001d4 .L0 
     /tmp/ccn1PgOb.s:321    .text:00000000000001d8 .L0 
     /tmp/ccn1PgOb.s:330    .bss:0000000000000000 _ZN3PCB7runningE
     /tmp/ccn1PgOb.s:327    .bss:0000000000000000 .LANCHOR0
     /tmp/ccn1PgOb.s:338    .text:00000000000001d8 .L0 
     /tmp/ccn1PgOb.s:28     .text:0000000000000018 .L0 
     /tmp/ccn1PgOb.s:106    .text:0000000000000098 .L0 
     /tmp/ccn1PgOb.s:210    .text:000000000000011c .L0 
     /tmp/ccn1PgOb.s:230    .text:0000000000000138 .L0 
     /tmp/ccn1PgOb.s:282    .text:0000000000000188 .L0 
     /tmp/ccn1PgOb.s:100    .text:0000000000000090 .L7
     /tmp/ccn1PgOb.s:103    .text:0000000000000094 .L4
     /tmp/ccn1PgOb.s:143    .text:00000000000000dc .L8
     /tmp/ccn1PgOb.s:113    .text:00000000000000b0 .L5
     /tmp/ccn1PgOb.s:259    .text:0000000000000174 .L15
     /tmp/ccn1PgOb.s:224    .text:0000000000000130 .L13
     /tmp/ccn1PgOb.s:316    .text:00000000000001d0 .L18
     /tmp/ccn1PgOb.s:80     .text:000000000000006c .LEHB0
     /tmp/ccn1PgOb.s:54     .text:0000000000000044 .LFB48
     /tmp/ccn1PgOb.s:83     .text:0000000000000074 .LEHE0
     /tmp/ccn1PgOb.s:95     .text:0000000000000084 .LEHB1
     /tmp/ccn1PgOb.s:98     .text:000000000000008c .LEHE1
     /tmp/ccn1PgOb.s:150    .text:00000000000000e4 .L9
     /tmp/ccn1PgOb.s:160    .text:00000000000000f8 .LEHB2
     /tmp/ccn1PgOb.s:163    .text:0000000000000100 .LEHE2
     /tmp/ccn1PgOb.s:1294   .debug_abbrev:0000000000000000 .Ldebug_abbrev0
     /tmp/ccn1PgOb.s:2531   .debug_str:000000000000064d .LASF116
     /tmp/ccn1PgOb.s:2419   .debug_str:000000000000036f .LASF117
     /tmp/ccn1PgOb.s:2357   .debug_str:000000000000018d .LASF118
     /tmp/ccn1PgOb.s:5      .text:0000000000000000 .Ltext0
     /tmp/ccn1PgOb.s:333    .text:00000000000001d8 .Letext0
     /tmp/ccn1PgOb.s:2295   .debug_line:0000000000000000 .Ldebug_line0
     /tmp/ccn1PgOb.s:2485   .debug_str:000000000000051c .LASF0
     /tmp/ccn1PgOb.s:2323   .debug_str:0000000000000095 .LASF119
     /tmp/ccn1PgOb.s:2435   .debug_str:00000000000003d3 .LASF120
     /tmp/ccn1PgOb.s:2471   .debug_str:00000000000004ab .LASF121
     /tmp/ccn1PgOb.s:2413   .debug_str:0000000000000350 .LASF122
     /tmp/ccn1PgOb.s:2315   .debug_str:000000000000007d .LASF123
     /tmp/ccn1PgOb.s:2393   .debug_str:00000000000002b7 .LASF124
     /tmp/ccn1PgOb.s:2487   .debug_str:0000000000000526 .LASF1
     /tmp/ccn1PgOb.s:2483   .debug_str:0000000000000514 .LASF2
     /tmp/ccn1PgOb.s:2503   .debug_str:0000000000000599 .LASF3
     /tmp/ccn1PgOb.s:2515   .debug_str:00000000000005f0 .LASF4
     /tmp/ccn1PgOb.s:2493   .debug_str:0000000000000552 .LASF5
     /tmp/ccn1PgOb.s:2389   .debug_str:0000000000000295 .LASF7
     /tmp/ccn1PgOb.s:2507   .debug_str:00000000000005bb .LASF125
     /tmp/ccn1PgOb.s:2481   .debug_str:00000000000004fd .LASF126
     /tmp/ccn1PgOb.s:2437   .debug_str:00000000000003e7 .LASF6
     /tmp/ccn1PgOb.s:2341   .debug_str:00000000000000f9 .LASF8
     /tmp/ccn1PgOb.s:2415   .debug_str:000000000000035a .LASF9
     /tmp/ccn1PgOb.s:2405   .debug_str:0000000000000318 .LASF10
     /tmp/ccn1PgOb.s:2333   .debug_str:00000000000000bf .LASF127
GAS LISTING /tmp/ccn1PgOb.s 			page 13


     /tmp/ccn1PgOb.s:2459   .debug_str:0000000000000476 .LASF36
     /tmp/ccn1PgOb.s:2397   .debug_str:00000000000002ce .LASF38
     /tmp/ccn1PgOb.s:2425   .debug_str:00000000000003a3 .LASF11
     /tmp/ccn1PgOb.s:2309   .debug_str:0000000000000061 .LASF45
     /tmp/ccn1PgOb.s:2369   .debug_str:0000000000000210 .LASF128
     /tmp/ccn1PgOb.s:2545   .debug_str:0000000000000770 .LASF12
     /tmp/ccn1PgOb.s:2345   .debug_str:0000000000000116 .LASF129
     /tmp/ccn1PgOb.s:2521   .debug_str:0000000000000614 .LASF101
     /tmp/ccn1PgOb.s:2301   .debug_str:000000000000001c .LASF103
     /tmp/ccn1PgOb.s:2383   .debug_str:000000000000026d .LASF130
     /tmp/ccn1PgOb.s:2407   .debug_str:0000000000000338 .LASF13
     /tmp/ccn1PgOb.s:2461   .debug_str:000000000000047f .LASF14
     /tmp/ccn1PgOb.s:2463   .debug_str:0000000000000485 .LASF15
     /tmp/ccn1PgOb.s:2411   .debug_str:0000000000000348 .LASF16
     /tmp/ccn1PgOb.s:2343   .debug_str:0000000000000110 .LASF17
     /tmp/ccn1PgOb.s:2455   .debug_str:0000000000000462 .LASF18
     /tmp/ccn1PgOb.s:2489   .debug_str:000000000000052c .LASF19
     /tmp/ccn1PgOb.s:2429   .debug_str:00000000000003ad .LASF20
     /tmp/ccn1PgOb.s:2403   .debug_str:0000000000000311 .LASF22
     /tmp/ccn1PgOb.s:2303   .debug_str:000000000000002e .LASF21
     /tmp/ccn1PgOb.s:2327   .debug_str:00000000000000ae .LASF23
     /tmp/ccn1PgOb.s:2475   .debug_str:00000000000004d4 .LASF24
     /tmp/ccn1PgOb.s:2453   .debug_str:000000000000044f .LASF25
     /tmp/ccn1PgOb.s:2541   .debug_str:0000000000000751 .LASF26
     /tmp/ccn1PgOb.s:2387   .debug_str:0000000000000287 .LASF27
     /tmp/ccn1PgOb.s:2543   .debug_str:0000000000000761 .LASF28
     /tmp/ccn1PgOb.s:2533   .debug_str:0000000000000711 .LASF29
     /tmp/ccn1PgOb.s:2421   .debug_str:000000000000037b .LASF30
     /tmp/ccn1PgOb.s:2307   .debug_str:0000000000000051 .LASF31
     /tmp/ccn1PgOb.s:2349   .debug_str:0000000000000148 .LASF32
     /tmp/ccn1PgOb.s:2497   .debug_str:0000000000000562 .LASF33
     /tmp/ccn1PgOb.s:2465   .debug_str:000000000000048a .LASF34
     /tmp/ccn1PgOb.s:2469   .debug_str:00000000000004a5 .LASF35
     /tmp/ccn1PgOb.s:2495   .debug_str:0000000000000557 .LASF37
     /tmp/ccn1PgOb.s:2555   .debug_str:00000000000007ac .LASF39
     /tmp/ccn1PgOb.s:2325   .debug_str:00000000000000a0 .LASF40
     /tmp/ccn1PgOb.s:2367   .debug_str:00000000000001f5 .LASF41
     /tmp/ccn1PgOb.s:2377   .debug_str:0000000000000245 .LASF42
     /tmp/ccn1PgOb.s:2401   .debug_str:00000000000002f7 .LASF43
     /tmp/ccn1PgOb.s:2433   .debug_str:00000000000003ca .LASF44
     /tmp/ccn1PgOb.s:2519   .debug_str:00000000000005ff .LASF46
     /tmp/ccn1PgOb.s:2365   .debug_str:00000000000001ec .LASF47
     /tmp/ccn1PgOb.s:2363   .debug_str:00000000000001d7 .LASF51
     /tmp/ccn1PgOb.s:2509   .debug_str:00000000000005c6 .LASF48
     /tmp/ccn1PgOb.s:2491   .debug_str:000000000000053f .LASF49
     /tmp/ccn1PgOb.s:2529   .debug_str:0000000000000646 .LASF50
     /tmp/ccn1PgOb.s:2523   .debug_str:000000000000061c .LASF52
     /tmp/ccn1PgOb.s:2381   .debug_str:0000000000000265 .LASF53
     /tmp/ccn1PgOb.s:2359   .debug_str:00000000000001b0 .LASF54
     /tmp/ccn1PgOb.s:2299   .debug_str:0000000000000014 .LASF55
     /tmp/ccn1PgOb.s:2511   .debug_str:00000000000005cd .LASF56
     /tmp/ccn1PgOb.s:2371   .debug_str:0000000000000218 .LASF57
     /tmp/ccn1PgOb.s:2337   .debug_str:00000000000000c9 .LASF58
     /tmp/ccn1PgOb.s:2563   .debug_str:00000000000007ec .LASF59
     /tmp/ccn1PgOb.s:2373   .debug_str:0000000000000220 .LASF60
     /tmp/ccn1PgOb.s:2457   .debug_str:000000000000046f .LASF61
     /tmp/ccn1PgOb.s:2551   .debug_str:0000000000000794 .LASF62
GAS LISTING /tmp/ccn1PgOb.s 			page 14


     /tmp/ccn1PgOb.s:2539   .debug_str:000000000000074a .LASF63
     /tmp/ccn1PgOb.s:2379   .debug_str:0000000000000252 .LASF64
     /tmp/ccn1PgOb.s:2385   .debug_str:0000000000000281 .LASF65
     /tmp/ccn1PgOb.s:2527   .debug_str:0000000000000634 .LASF66
     /tmp/ccn1PgOb.s:2321   .debug_str:000000000000008f .LASF67
     /tmp/ccn1PgOb.s:2565   .debug_str:00000000000007f4 .LASF68
     /tmp/ccn1PgOb.s:2561   .debug_str:00000000000007e1 .LASF69
     /tmp/ccn1PgOb.s:2505   .debug_str:00000000000005a3 .LASF70
     /tmp/ccn1PgOb.s:2409   .debug_str:000000000000033d .LASF71
     /tmp/ccn1PgOb.s:2423   .debug_str:000000000000038b .LASF72
     /tmp/ccn1PgOb.s:2347   .debug_str:000000000000013e .LASF73
     /tmp/ccn1PgOb.s:2399   .debug_str:00000000000002e1 .LASF74
     /tmp/ccn1PgOb.s:2441   .debug_str:0000000000000406 .LASF75
     /tmp/ccn1PgOb.s:2391   .debug_str:00000000000002a1 .LASF76
     /tmp/ccn1PgOb.s:2451   .debug_str:0000000000000448 .LASF77
     /tmp/ccn1PgOb.s:2361   .debug_str:00000000000001c4 .LASF78
     /tmp/ccn1PgOb.s:2311   .debug_str:0000000000000070 .LASF79
     /tmp/ccn1PgOb.s:2439   .debug_str:00000000000003f3 .LASF80
     /tmp/ccn1PgOb.s:2513   .debug_str:00000000000005e1 .LASF81
     /tmp/ccn1PgOb.s:2339   .debug_str:00000000000000dd .LASF82
     /tmp/ccn1PgOb.s:2525   .debug_str:000000000000062f .LASF83
     /tmp/ccn1PgOb.s:2479   .debug_str:00000000000004ec .LASF84
     /tmp/ccn1PgOb.s:2329   .debug_str:00000000000000b5 .LASF85
     /tmp/ccn1PgOb.s:2443   .debug_str:0000000000000410 .LASF86
     /tmp/ccn1PgOb.s:2319   .debug_str:000000000000008a .LASF87
     /tmp/ccn1PgOb.s:2557   .debug_str:00000000000007c4 .LASF88
     /tmp/ccn1PgOb.s:2331   .debug_str:00000000000000ba .LASF89
     /tmp/ccn1PgOb.s:2305   .debug_str:0000000000000040 .LASF90
     /tmp/ccn1PgOb.s:2477   .debug_str:00000000000004e7 .LASF91
     /tmp/ccn1PgOb.s:2535   .debug_str:0000000000000720 .LASF92
     /tmp/ccn1PgOb.s:2467   .debug_str:00000000000004a0 .LASF93
     /tmp/ccn1PgOb.s:2375   .debug_str:0000000000000234 .LASF94
     /tmp/ccn1PgOb.s:2427   .debug_str:00000000000003a8 .LASF95
     /tmp/ccn1PgOb.s:2499   .debug_str:0000000000000578 .LASF96
     /tmp/ccn1PgOb.s:2335   .debug_str:00000000000000c4 .LASF97
     /tmp/ccn1PgOb.s:2353   .debug_str:0000000000000164 .LASF98
     /tmp/ccn1PgOb.s:2417   .debug_str:0000000000000367 .LASF99
     /tmp/ccn1PgOb.s:2449   .debug_str:0000000000000434 .LASF100
     /tmp/ccn1PgOb.s:2447   .debug_str:0000000000000428 .LASF102
     /tmp/ccn1PgOb.s:2537   .debug_str:0000000000000731 .LASF104
     /tmp/ccn1PgOb.s:2549   .debug_str:000000000000078b .LASF105
     /tmp/ccn1PgOb.s:2317   .debug_str:0000000000000085 .LASF106
     /tmp/ccn1PgOb.s:2395   .debug_str:00000000000002bd .LASF131
     /tmp/ccn1PgOb.s:10     .text:0000000000000000 .LFB51
     /tmp/ccn1PgOb.s:48     .text:0000000000000044 .LFE51
     /tmp/ccn1PgOb.s:25     .text:0000000000000018 .LVL0
     /tmp/ccn1PgOb.s:37     .text:0000000000000034 .LVL2
     /tmp/ccn1PgOb.s:277    .text:0000000000000188 .LFB50
     /tmp/ccn1PgOb.s:322    .text:00000000000001d8 .LFE50
     /tmp/ccn1PgOb.s:303    .text:00000000000001bc .LVL24
     /tmp/ccn1PgOb.s:191    .text:0000000000000100 .LFB49
     /tmp/ccn1PgOb.s:271    .text:0000000000000188 .LFE49
     /tmp/ccn1PgOb.s:2167   .debug_loc:0000000000000000 .LLST5
     /tmp/ccn1PgOb.s:213    .text:0000000000000124 .LBB11
     /tmp/ccn1PgOb.s:220    .text:0000000000000128 .LBE11
     /tmp/ccn1PgOb.s:2178   .debug_loc:0000000000000036 .LLST6
     /tmp/ccn1PgOb.s:207    .text:000000000000011c .LVL15
GAS LISTING /tmp/ccn1PgOb.s 			page 15


     /tmp/ccn1PgOb.s:228    .text:0000000000000138 .LVL18
     /tmp/ccn1PgOb.s:240    .text:0000000000000158 .LVL19
     /tmp/ccn1PgOb.s:244    .text:0000000000000160 .LVL20
     /tmp/ccn1PgOb.s:268    .text:0000000000000184 .LVL23
     /tmp/ccn1PgOb.s:165    .text:0000000000000100 .LFE48
     /tmp/ccn1PgOb.s:2185   .debug_loc:0000000000000059 .LLST0
     /tmp/ccn1PgOb.s:2214   .debug_loc:00000000000000ce .LLST1
     /tmp/ccn1PgOb.s:86     .text:0000000000000078 .LBB7
     /tmp/ccn1PgOb.s:2287   .debug_ranges:0000000000000000 .Ldebug_ranges0
     /tmp/ccn1PgOb.s:2234   .debug_loc:000000000000012b .LLST2
     /tmp/ccn1PgOb.s:2245   .debug_loc:0000000000000161 .LLST3
     /tmp/ccn1PgOb.s:2263   .debug_loc:00000000000001ad .LLST4
     /tmp/ccn1PgOb.s:97     .text:000000000000008c .LVL7
     /tmp/ccn1PgOb.s:82     .text:0000000000000074 .LVL5
     /tmp/ccn1PgOb.s:158    .text:00000000000000f4 .LVL13
     /tmp/ccn1PgOb.s:162    .text:0000000000000100 .LVL14
     /tmp/ccn1PgOb.s:2553   .debug_str:00000000000007a7 .LASF107
     /tmp/ccn1PgOb.s:2297   .debug_str:0000000000000000 .LASF132
     /tmp/ccn1PgOb.s:2473   .debug_str:00000000000004c3 .LASF133
     /tmp/ccn1PgOb.s:2559   .debug_str:00000000000007d5 .LASF134
     /tmp/ccn1PgOb.s:2517   .debug_str:00000000000005f9 .LASF108
     /tmp/ccn1PgOb.s:2501   .debug_str:0000000000000589 .LASF110
     /tmp/ccn1PgOb.s:2313   .debug_str:0000000000000077 .LASF109
     /tmp/ccn1PgOb.s:2547   .debug_str:000000000000077e .LASF111
     /tmp/ccn1PgOb.s:2445   .debug_str:0000000000000421 .LASF112
     /tmp/ccn1PgOb.s:2351   .debug_str:0000000000000154 .LASF113
     /tmp/ccn1PgOb.s:2431   .debug_str:00000000000003bb .LASF114
     /tmp/ccn1PgOb.s:2355   .debug_str:0000000000000175 .LASF115
     /tmp/ccn1PgOb.s:211    .text:0000000000000124 .LVL16
     /tmp/ccn1PgOb.s:254    .text:000000000000016c .LVL21
     /tmp/ccn1PgOb.s:258    .text:0000000000000174 .LVL22
     /tmp/ccn1PgOb.s:218    .text:0000000000000128 .LVL17
     /tmp/ccn1PgOb.s:59     .text:0000000000000044 .LVL3
     /tmp/ccn1PgOb.s:79     .text:000000000000006c .LVL4
     /tmp/ccn1PgOb.s:135    .text:00000000000000d0 .LVL9
     /tmp/ccn1PgOb.s:142    .text:00000000000000dc .LVL11
     /tmp/ccn1PgOb.s:152    .text:00000000000000e8 .LVL12
     /tmp/ccn1PgOb.s:138    .text:00000000000000d4 .LVL10
     /tmp/ccn1PgOb.s:85     .text:0000000000000078 .LVL6
     /tmp/ccn1PgOb.s:120    .text:00000000000000bc .LVL8
     /tmp/ccn1PgOb.s:339    .debug_info:0000000000000000 .Ldebug_info0
     /tmp/ccn1PgOb.s:122    .text:00000000000000bc .LBE7
     /tmp/ccn1PgOb.s:145    .text:00000000000000dc .LBB10
     /tmp/ccn1PgOb.s:154    .text:00000000000000e8 .LBE10
     /tmp/ccn1PgOb.s:168    .gcc_except_table:0000000000000000 .LLSDA48

UNDEFINED SYMBOLS
_ZN5Riscv10popSppSpieEv
_Z11thread_exitv
_Znwm
_Znam
_ZdlPv
_Unwind_Resume
__gxx_personality_v0
_ZN5Riscv13pushRegistersEv
_ZN9Scheduler3getEv
_ZN3PCB13contextSwitchEPNS_7ContextES1_
GAS LISTING /tmp/ccn1PgOb.s 			page 16


_ZN5Riscv12popRegistersEv
_ZN9Scheduler3putEP3PCB
