GAS LISTING /tmp/ccTzplhB.s 			page 1


   1              		.file	"PCB.cpp"
   2              		.option pic
   3              		.option norelax
   4              		.text
   5              	.Ltext0:
   6              		.align	2
   7              		.globl	_ZN3PCB8dispatchEv
   9              	_ZN3PCB8dispatchEv:
  10              	.LFB48:
  11              		.file 1 "src/PCB.cpp"
   1:src/PCB.cpp   **** //
   2:src/PCB.cpp   **** // Created by os on 7/28/23.
   3:src/PCB.cpp   **** //
   4:src/PCB.cpp   **** 
   5:src/PCB.cpp   **** #include "../h/PCB.hpp"
   6:src/PCB.cpp   **** 
   7:src/PCB.cpp   **** 
   8:src/PCB.cpp   **** PCB* PCB::running;
   9:src/PCB.cpp   **** 
  10:src/PCB.cpp   **** 
  11:src/PCB.cpp   **** 
  12:src/PCB.cpp   **** 
  13:src/PCB.cpp   **** void PCB::dispatch() {
  12              		.loc 1 13 22
  13              		.cfi_startproc
  14 0000 130101FE 		addi	sp,sp,-32
  15              		.cfi_def_cfa_offset 32
  16 0004 233C1100 		sd	ra,24(sp)
  17 0008 23388100 		sd	s0,16(sp)
  18 000c 23349100 		sd	s1,8(sp)
  19              		.cfi_offset 1, -8
  20              		.cfi_offset 8, -16
  21              		.cfi_offset 9, -24
  22 0010 13040102 		addi	s0,sp,32
  23              		.cfi_def_cfa 8, 0
  14:src/PCB.cpp   ****     Riscv::pushRegisters();
  24              		.loc 1 14 5
  25              		.loc 1 14 25 is_stmt 0
  26 0014 97000000 		call	_ZN5Riscv13pushRegistersEv@plt
  26      E7800000 
  27              	.LVL0:
  15:src/PCB.cpp   **** 
  16:src/PCB.cpp   ****     PCB *old = running;
  28              		.loc 1 16 5 is_stmt 1
  29              		.loc 1 16 10 is_stmt 0
  30 001c 97040000 		ld	s1,.LANCHOR0
  30      83B40400 
  31              	.LVL1:
  17:src/PCB.cpp   ****     if (!old->isFinished()) {
  32              		.loc 1 17 5 is_stmt 1
  33              	.LBB4:
  34              	.LBB5:
  35              		.file 2 "src/../h/PCB.hpp"
   1:src/../h/PCB.hpp **** #ifndef PROJECT_BASE_V1_1_PCB_HPP
   2:src/../h/PCB.hpp **** #define PROJECT_BASE_V1_1_PCB_HPP
   3:src/../h/PCB.hpp **** 
   4:src/../h/PCB.hpp **** 
GAS LISTING /tmp/ccTzplhB.s 			page 2


   5:src/../h/PCB.hpp **** #include "Scheduler.hpp"
   6:src/../h/PCB.hpp **** #include "riscv.hpp"
   7:src/../h/PCB.hpp **** #include "../h/syscall_c.hpp"
   8:src/../h/PCB.hpp **** 
   9:src/../h/PCB.hpp **** 
  10:src/../h/PCB.hpp **** class PCB {
  11:src/../h/PCB.hpp **** public:
  12:src/../h/PCB.hpp ****     struct Context {
  13:src/../h/PCB.hpp ****         uint64 ra;
  14:src/../h/PCB.hpp ****         uint64 sp;
  15:src/../h/PCB.hpp ****     };
  16:src/../h/PCB.hpp **** 
  17:src/../h/PCB.hpp ****     enum State {
  18:src/../h/PCB.hpp ****         READY,
  19:src/../h/PCB.hpp ****         RUNNING,
  20:src/../h/PCB.hpp ****         SUSPENDED,
  21:src/../h/PCB.hpp ****         FINISHED
  22:src/../h/PCB.hpp ****     };
  23:src/../h/PCB.hpp **** 
  24:src/../h/PCB.hpp ****     ~PCB() { delete[] stack; }
  25:src/../h/PCB.hpp **** 
  26:src/../h/PCB.hpp ****     bool isFinished() const { return state == FINISHED; }
  36              		.loc 2 26 31
  37              		.loc 2 26 38 is_stmt 0
  38 0024 03A78402 		lw	a4,40(s1)
  39              	.LVL2:
  40              	.LBE5:
  41              	.LBE4:
  42              		.loc 1 17 5
  43 0028 93073000 		li	a5,3
  44 002c 6314F704 		bne	a4,a5,.L4
  45              	.L2:
  18:src/PCB.cpp   ****         old->state = READY;
  19:src/PCB.cpp   ****         Scheduler::put(old);
  20:src/PCB.cpp   ****     }
  21:src/PCB.cpp   ****     running = Scheduler::get();
  46              		.loc 1 21 5 is_stmt 1
  47              		.loc 1 21 29 is_stmt 0
  48 0030 97000000 		call	_ZN9Scheduler3getEv@plt
  48      E7800000 
  49              	.LVL3:
  50              		.loc 1 21 13
  51 0038 97070000 		sd	a0,.LANCHOR0,a5
  51      23B0A700 
  22:src/PCB.cpp   ****     running->state=RUNNING;
  52              		.loc 1 22 5 is_stmt 1
  53              		.loc 1 22 19 is_stmt 0
  54 0040 93071000 		li	a5,1
  55 0044 2324F502 		sw	a5,40(a0)
  23:src/PCB.cpp   **** 
  24:src/PCB.cpp   ****     PCB::contextSwitch(&old->context, &running->context);
  56              		.loc 1 24 5 is_stmt 1
  57              		.loc 1 24 23 is_stmt 0
  58 0048 93058501 		addi	a1,a0,24
  59 004c 13858401 		addi	a0,s1,24
  60 0050 97000000 		call	_ZN3PCB13contextSwitchEPNS_7ContextES1_@plt
  60      E7800000 
GAS LISTING /tmp/ccTzplhB.s 			page 3


  61              	.LVL4:
  25:src/PCB.cpp   **** 
  26:src/PCB.cpp   ****     Riscv::popRegisters();
  62              		.loc 1 26 5 is_stmt 1
  63              		.loc 1 26 24 is_stmt 0
  64 0058 97000000 		call	_ZN5Riscv12popRegistersEv@plt
  64      E7800000 
  65              	.LVL5:
  27:src/PCB.cpp   **** }
  66              		.loc 1 27 1
  67 0060 83308101 		ld	ra,24(sp)
  68              		.cfi_remember_state
  69              		.cfi_restore 1
  70 0064 03340101 		ld	s0,16(sp)
  71              		.cfi_restore 8
  72              		.cfi_def_cfa 2, 32
  73 0068 83348100 		ld	s1,8(sp)
  74              		.cfi_restore 9
  75              	.LVL6:
  76 006c 13010102 		addi	sp,sp,32
  77              		.cfi_def_cfa_offset 0
  78 0070 67800000 		jr	ra
  79              	.LVL7:
  80              	.L4:
  81              		.cfi_restore_state
  18:src/PCB.cpp   ****         Scheduler::put(old);
  82              		.loc 1 18 9 is_stmt 1
  18:src/PCB.cpp   ****         Scheduler::put(old);
  83              		.loc 1 18 20 is_stmt 0
  84 0074 23A40402 		sw	zero,40(s1)
  19:src/PCB.cpp   ****     }
  85              		.loc 1 19 9 is_stmt 1
  19:src/PCB.cpp   ****     }
  86              		.loc 1 19 23 is_stmt 0
  87 0078 13850400 		mv	a0,s1
  88 007c 97000000 		call	_ZN9Scheduler3putEP3PCB@plt
  88      E7800000 
  89              	.LVL8:
  90 0084 6FF0DFFA 		j	.L2
  91              		.cfi_endproc
  92              	.LFE48:
  94              		.align	2
  95              		.globl	_ZN3PCB4exitEv
  97              	_ZN3PCB4exitEv:
  98              	.LFB49:
  28:src/PCB.cpp   **** 
  29:src/PCB.cpp   **** int PCB::exit() {
  99              		.loc 1 29 17 is_stmt 1
 100              		.cfi_startproc
  30:src/PCB.cpp   ****     if(running->state==RUNNING){
 101              		.loc 1 30 5
 102              		.loc 1 30 17 is_stmt 0
 103 0088 97070000 		ld	a5,.LANCHOR0
 103      83B70700 
 104 0090 83A68702 		lw	a3,40(a5)
 105              		.loc 1 30 5
 106 0094 13071000 		li	a4,1
GAS LISTING /tmp/ccTzplhB.s 			page 4


 107 0098 639CE602 		bne	a3,a4,.L7
  29:src/PCB.cpp   ****     if(running->state==RUNNING){
 108              		.loc 1 29 17
 109 009c 130101FF 		addi	sp,sp,-16
 110              		.cfi_def_cfa_offset 16
 111 00a0 23341100 		sd	ra,8(sp)
 112 00a4 23308100 		sd	s0,0(sp)
 113              		.cfi_offset 1, -8
 114              		.cfi_offset 8, -16
 115 00a8 13040101 		addi	s0,sp,16
 116              		.cfi_def_cfa 8, 0
  31:src/PCB.cpp   ****         running->state=FINISHED;
 117              		.loc 1 31 9 is_stmt 1
 118              		.loc 1 31 23 is_stmt 0
 119 00ac 13073000 		li	a4,3
 120 00b0 23A4E702 		sw	a4,40(a5)
  32:src/PCB.cpp   ****         thread_dispatch();
 121              		.loc 1 32 9 is_stmt 1
 122              		.loc 1 32 24 is_stmt 0
 123 00b4 97000000 		call	_Z15thread_dispatchv@plt
 123      E7800000 
 124              	.LVL9:
  33:src/PCB.cpp   ****         return 0;
 125              		.loc 1 33 9 is_stmt 1
 126              		.loc 1 33 16 is_stmt 0
 127 00bc 13050000 		li	a0,0
  34:src/PCB.cpp   ****     }
  35:src/PCB.cpp   ****     return -1;
  36:src/PCB.cpp   **** }
 128              		.loc 1 36 1
 129 00c0 83308100 		ld	ra,8(sp)
 130              		.cfi_restore 1
 131 00c4 03340100 		ld	s0,0(sp)
 132              		.cfi_restore 8
 133              		.cfi_def_cfa 2, 16
 134 00c8 13010101 		addi	sp,sp,16
 135              		.cfi_def_cfa_offset 0
 136 00cc 67800000 		jr	ra
 137              	.L7:
  35:src/PCB.cpp   **** }
 138              		.loc 1 35 13
 139 00d0 1305F0FF 		li	a0,-1
 140              		.loc 1 36 1
 141 00d4 67800000 		ret
 142              		.cfi_endproc
 143              	.LFE49:
 145              		.align	2
 146              		.globl	_ZN3PCB7wrapperEv
 148              	_ZN3PCB7wrapperEv:
 149              	.LFB50:
  37:src/PCB.cpp   **** 
  38:src/PCB.cpp   **** void PCB::wrapper() {
 150              		.loc 1 38 21 is_stmt 1
 151              		.cfi_startproc
 152 00d8 130101FF 		addi	sp,sp,-16
 153              		.cfi_def_cfa_offset 16
 154 00dc 23341100 		sd	ra,8(sp)
GAS LISTING /tmp/ccTzplhB.s 			page 5


 155 00e0 23308100 		sd	s0,0(sp)
 156              		.cfi_offset 1, -8
 157              		.cfi_offset 8, -16
 158 00e4 13040101 		addi	s0,sp,16
 159              		.cfi_def_cfa 8, 0
  39:src/PCB.cpp   ****     Riscv::popSppSpie();
 160              		.loc 1 39 5
 161              		.loc 1 39 22 is_stmt 0
 162 00e8 97000000 		call	_ZN5Riscv10popSppSpieEv@plt
 162      E7800000 
 163              	.LVL10:
  40:src/PCB.cpp   ****     running->body(running->args);
 164              		.loc 1 40 5 is_stmt 1
 165              		.loc 1 40 14 is_stmt 0
 166 00f0 97070000 		ld	a5,.LANCHOR0
 166      83B70700 
 167 00f8 03B70700 		ld	a4,0(a5)
 168              		.loc 1 40 18
 169 00fc 03B50701 		ld	a0,16(a5)
 170 0100 E7000700 		jalr	a4
 171              	.LVL11:
  41:src/PCB.cpp   ****     thread_exit();
 172              		.loc 1 41 5 is_stmt 1
 173              		.loc 1 41 16 is_stmt 0
 174 0104 97000000 		call	_Z11thread_exitv@plt
 174      E7800000 
 175              	.LVL12:
  42:src/PCB.cpp   **** }
 176              		.loc 1 42 1
 177 010c 83308100 		ld	ra,8(sp)
 178              		.cfi_restore 1
 179 0110 03340100 		ld	s0,0(sp)
 180              		.cfi_restore 8
 181              		.cfi_def_cfa 2, 16
 182 0114 13010101 		addi	sp,sp,16
 183              		.cfi_def_cfa_offset 0
 184 0118 67800000 		jr	ra
 185              		.cfi_endproc
 186              	.LFE50:
 188              		.globl	_ZN3PCB7runningE
 189              		.bss
 190              		.align	3
 191              		.set	.LANCHOR0,. + 0
 194              	_ZN3PCB7runningE:
 195 0000 00000000 		.zero	8
 195      00000000 
 196              		.text
 197              	.Letext0:
 198              		.file 3 "src/../h/../lib/hw.h"
 199              		.file 4 "src/../h/Scheduler.hpp"
 200              		.file 5 "src/../h/riscv.hpp"
 201              		.file 6 "src/../h/../h/syscall_c.hpp"
GAS LISTING /tmp/ccTzplhB.s 			page 6


DEFINED SYMBOLS
                            *ABS*:0000000000000000 PCB.cpp
     /tmp/ccTzplhB.s:9      .text:0000000000000000 _ZN3PCB8dispatchEv
     /tmp/ccTzplhB.s:13     .text:0000000000000000 .L0 
     /tmp/ccTzplhB.s:14     .text:0000000000000000 .L0 
     /tmp/ccTzplhB.s:15     .text:0000000000000004 .L0 
     /tmp/ccTzplhB.s:19     .text:0000000000000010 .L0 
     /tmp/ccTzplhB.s:20     .text:0000000000000010 .L0 
     /tmp/ccTzplhB.s:21     .text:0000000000000010 .L0 
     /tmp/ccTzplhB.s:23     .text:0000000000000014 .L0 
     /tmp/ccTzplhB.s:25     .text:0000000000000014 .L0 
     /tmp/ccTzplhB.s:26     .text:0000000000000014 .L0 
     /tmp/ccTzplhB.s:29     .text:000000000000001c .L0 
     /tmp/ccTzplhB.s:30     .text:000000000000001c .L0 
     /tmp/ccTzplhB.s:36     .text:0000000000000024 .L0 
     /tmp/ccTzplhB.s:37     .text:0000000000000024 .L0 
     /tmp/ccTzplhB.s:38     .text:0000000000000024 .L0 
     /tmp/ccTzplhB.s:43     .text:0000000000000028 .L0 
     /tmp/ccTzplhB.s:47     .text:0000000000000030 .L0 
     /tmp/ccTzplhB.s:48     .text:0000000000000030 .L0 
     /tmp/ccTzplhB.s:51     .text:0000000000000038 .L0 
     /tmp/ccTzplhB.s:53     .text:0000000000000040 .L0 
     /tmp/ccTzplhB.s:54     .text:0000000000000040 .L0 
     /tmp/ccTzplhB.s:57     .text:0000000000000048 .L0 
     /tmp/ccTzplhB.s:58     .text:0000000000000048 .L0 
     /tmp/ccTzplhB.s:63     .text:0000000000000058 .L0 
     /tmp/ccTzplhB.s:64     .text:0000000000000058 .L0 
     /tmp/ccTzplhB.s:67     .text:0000000000000060 .L0 
     /tmp/ccTzplhB.s:68     .text:0000000000000064 .L0 
     /tmp/ccTzplhB.s:69     .text:0000000000000064 .L0 
     /tmp/ccTzplhB.s:71     .text:0000000000000068 .L0 
     /tmp/ccTzplhB.s:72     .text:0000000000000068 .L0 
     /tmp/ccTzplhB.s:74     .text:000000000000006c .L0 
     /tmp/ccTzplhB.s:77     .text:0000000000000070 .L0 
     /tmp/ccTzplhB.s:81     .text:0000000000000074 .L0 
     /tmp/ccTzplhB.s:83     .text:0000000000000074 .L0 
     /tmp/ccTzplhB.s:84     .text:0000000000000074 .L0 
     /tmp/ccTzplhB.s:86     .text:0000000000000078 .L0 
     /tmp/ccTzplhB.s:87     .text:0000000000000078 .L0 
     /tmp/ccTzplhB.s:91     .text:0000000000000088 .L0 
     /tmp/ccTzplhB.s:97     .text:0000000000000088 _ZN3PCB4exitEv
     /tmp/ccTzplhB.s:100    .text:0000000000000088 .L0 
     /tmp/ccTzplhB.s:101    .text:0000000000000088 .L0 
     /tmp/ccTzplhB.s:102    .text:0000000000000088 .L0 
     /tmp/ccTzplhB.s:103    .text:0000000000000088 .L0 
     /tmp/ccTzplhB.s:106    .text:0000000000000094 .L0 
     /tmp/ccTzplhB.s:109    .text:000000000000009c .L0 
     /tmp/ccTzplhB.s:110    .text:00000000000000a0 .L0 
     /tmp/ccTzplhB.s:113    .text:00000000000000a8 .L0 
     /tmp/ccTzplhB.s:114    .text:00000000000000a8 .L0 
     /tmp/ccTzplhB.s:116    .text:00000000000000ac .L0 
     /tmp/ccTzplhB.s:118    .text:00000000000000ac .L0 
     /tmp/ccTzplhB.s:119    .text:00000000000000ac .L0 
     /tmp/ccTzplhB.s:122    .text:00000000000000b4 .L0 
     /tmp/ccTzplhB.s:123    .text:00000000000000b4 .L0 
     /tmp/ccTzplhB.s:126    .text:00000000000000bc .L0 
     /tmp/ccTzplhB.s:127    .text:00000000000000bc .L0 
GAS LISTING /tmp/ccTzplhB.s 			page 7


     /tmp/ccTzplhB.s:129    .text:00000000000000c0 .L0 
     /tmp/ccTzplhB.s:130    .text:00000000000000c4 .L0 
     /tmp/ccTzplhB.s:132    .text:00000000000000c8 .L0 
     /tmp/ccTzplhB.s:133    .text:00000000000000c8 .L0 
     /tmp/ccTzplhB.s:135    .text:00000000000000cc .L0 
     /tmp/ccTzplhB.s:139    .text:00000000000000d0 .L0 
     /tmp/ccTzplhB.s:141    .text:00000000000000d4 .L0 
     /tmp/ccTzplhB.s:142    .text:00000000000000d8 .L0 
     /tmp/ccTzplhB.s:148    .text:00000000000000d8 _ZN3PCB7wrapperEv
     /tmp/ccTzplhB.s:151    .text:00000000000000d8 .L0 
     /tmp/ccTzplhB.s:152    .text:00000000000000d8 .L0 
     /tmp/ccTzplhB.s:153    .text:00000000000000dc .L0 
     /tmp/ccTzplhB.s:156    .text:00000000000000e4 .L0 
     /tmp/ccTzplhB.s:157    .text:00000000000000e4 .L0 
     /tmp/ccTzplhB.s:159    .text:00000000000000e8 .L0 
     /tmp/ccTzplhB.s:161    .text:00000000000000e8 .L0 
     /tmp/ccTzplhB.s:162    .text:00000000000000e8 .L0 
     /tmp/ccTzplhB.s:165    .text:00000000000000f0 .L0 
     /tmp/ccTzplhB.s:166    .text:00000000000000f0 .L0 
     /tmp/ccTzplhB.s:169    .text:00000000000000fc .L0 
     /tmp/ccTzplhB.s:173    .text:0000000000000104 .L0 
     /tmp/ccTzplhB.s:174    .text:0000000000000104 .L0 
     /tmp/ccTzplhB.s:177    .text:000000000000010c .L0 
     /tmp/ccTzplhB.s:178    .text:0000000000000110 .L0 
     /tmp/ccTzplhB.s:180    .text:0000000000000114 .L0 
     /tmp/ccTzplhB.s:181    .text:0000000000000114 .L0 
     /tmp/ccTzplhB.s:183    .text:0000000000000118 .L0 
     /tmp/ccTzplhB.s:185    .text:000000000000011c .L0 
     /tmp/ccTzplhB.s:194    .bss:0000000000000000 _ZN3PCB7runningE
     /tmp/ccTzplhB.s:191    .bss:0000000000000000 .LANCHOR0
     /tmp/ccTzplhB.s:202    .text:000000000000011c .L0 
     /tmp/ccTzplhB.s:30     .text:000000000000001c .L0 
     /tmp/ccTzplhB.s:51     .text:0000000000000038 .L0 
     /tmp/ccTzplhB.s:103    .text:0000000000000088 .L0 
     /tmp/ccTzplhB.s:166    .text:00000000000000f0 .L0 
     /tmp/ccTzplhB.s:80     .text:0000000000000074 .L4
     /tmp/ccTzplhB.s:45     .text:0000000000000030 .L2
     /tmp/ccTzplhB.s:137    .text:00000000000000d0 .L7
     /tmp/ccTzplhB.s:1048   .debug_abbrev:0000000000000000 .Ldebug_abbrev0
     /tmp/ccTzplhB.s:2096   .debug_str:00000000000005ea .LASF113
     /tmp/ccTzplhB.s:1986   .debug_str:0000000000000336 .LASF114
     /tmp/ccTzplhB.s:1928   .debug_str:0000000000000175 .LASF115
     /tmp/ccTzplhB.s:5      .text:0000000000000000 .Ltext0
     /tmp/ccTzplhB.s:197    .text:000000000000011c .Letext0
     /tmp/ccTzplhB.s:1872   .debug_line:0000000000000000 .Ldebug_line0
     /tmp/ccTzplhB.s:2020   .debug_str:0000000000000423 .LASF0
     /tmp/ccTzplhB.s:2036   .debug_str:000000000000045c .LASF1
     /tmp/ccTzplhB.s:2002   .debug_str:00000000000003a4 .LASF2
     /tmp/ccTzplhB.s:1974   .debug_str:0000000000000305 .LASF4
     /tmp/ccTzplhB.s:2074   .debug_str:0000000000000563 .LASF3
     /tmp/ccTzplhB.s:1902   .debug_str:00000000000000c2 .LASF5
     /tmp/ccTzplhB.s:2040   .debug_str:0000000000000480 .LASF6
     /tmp/ccTzplhB.s:2018   .debug_str:0000000000000410 .LASF7
     /tmp/ccTzplhB.s:2108   .debug_str:00000000000006f3 .LASF8
     /tmp/ccTzplhB.s:1960   .debug_str:0000000000000293 .LASF9
     /tmp/ccTzplhB.s:2056   .debug_str:00000000000004e3 .LASF10
     /tmp/ccTzplhB.s:2100   .debug_str:00000000000006b3 .LASF11
GAS LISTING /tmp/ccTzplhB.s 			page 8


     /tmp/ccTzplhB.s:1908   .debug_str:00000000000000d3 .LASF12
     /tmp/ccTzplhB.s:1882   .debug_str:0000000000000045 .LASF13
     /tmp/ccTzplhB.s:1922   .debug_str:0000000000000148 .LASF14
     /tmp/ccTzplhB.s:2066   .debug_str:000000000000051a .LASF15
     /tmp/ccTzplhB.s:1930   .debug_str:0000000000000198 .LASF16
     /tmp/ccTzplhB.s:2052   .debug_str:00000000000004d3 .LASF18
     /tmp/ccTzplhB.s:1896   .debug_str:00000000000000a1 .LASF30
     /tmp/ccTzplhB.s:1970   .debug_str:00000000000002e1 .LASF116
     /tmp/ccTzplhB.s:1990   .debug_str:0000000000000347 .LASF117
     /tmp/ccTzplhB.s:2078   .debug_str:000000000000057c .LASF17
     /tmp/ccTzplhB.s:2110   .debug_str:0000000000000703 .LASF28
     /tmp/ccTzplhB.s:1982   .debug_str:0000000000000324 .LASF118
     /tmp/ccTzplhB.s:1888   .debug_str:000000000000006b .LASF119
     /tmp/ccTzplhB.s:1964   .debug_str:00000000000002b7 .LASF120
     /tmp/ccTzplhB.s:2054   .debug_str:00000000000004dd .LASF19
     /tmp/ccTzplhB.s:2050   .debug_str:00000000000004cb .LASF20
     /tmp/ccTzplhB.s:2070   .debug_str:0000000000000541 .LASF21
     /tmp/ccTzplhB.s:2082   .debug_str:0000000000000592 .LASF22
     /tmp/ccTzplhB.s:2062   .debug_str:000000000000050a .LASF23
     /tmp/ccTzplhB.s:1912   .debug_str:00000000000000e8 .LASF25
     /tmp/ccTzplhB.s:2042   .debug_str:0000000000000493 .LASF121
     /tmp/ccTzplhB.s:2048   .debug_str:00000000000004b4 .LASF122
     /tmp/ccTzplhB.s:2010   .debug_str:00000000000003e0 .LASF24
     /tmp/ccTzplhB.s:1890   .debug_str:0000000000000073 .LASF26
     /tmp/ccTzplhB.s:2024   .debug_str:0000000000000437 .LASF38
     /tmp/ccTzplhB.s:1968   .debug_str:00000000000002ce .LASF40
     /tmp/ccTzplhB.s:1994   .debug_str:0000000000000377 .LASF27
     /tmp/ccTzplhB.s:1884   .debug_str:0000000000000055 .LASF29
     /tmp/ccTzplhB.s:1942   .debug_str:000000000000020e .LASF123
     /tmp/ccTzplhB.s:2112   .debug_str:000000000000071a .LASF124
     /tmp/ccTzplhB.s:1918   .debug_str:0000000000000116 .LASF125
     /tmp/ccTzplhB.s:2086   .debug_str:00000000000005b1 .LASF103
     /tmp/ccTzplhB.s:1876   .debug_str:0000000000000008 .LASF105
     /tmp/ccTzplhB.s:2084   .debug_str:000000000000059b .LASF126
     /tmp/ccTzplhB.s:2060   .debug_str:0000000000000505 .LASF127
     /tmp/ccTzplhB.s:1976   .debug_str:000000000000030c .LASF31
     /tmp/ccTzplhB.s:2026   .debug_str:0000000000000440 .LASF32
     /tmp/ccTzplhB.s:2028   .debug_str:0000000000000446 .LASF33
     /tmp/ccTzplhB.s:1980   .debug_str:000000000000031c .LASF34
     /tmp/ccTzplhB.s:1916   .debug_str:0000000000000110 .LASF35
     /tmp/ccTzplhB.s:2034   .debug_str:0000000000000456 .LASF36
     /tmp/ccTzplhB.s:1972   .debug_str:00000000000002f5 .LASF49
     /tmp/ccTzplhB.s:2032   .debug_str:0000000000000450 .LASF37
     /tmp/ccTzplhB.s:2064   .debug_str:000000000000050f .LASF39
     /tmp/ccTzplhB.s:2122   .debug_str:0000000000000759 .LASF41
     /tmp/ccTzplhB.s:1898   .debug_str:00000000000000ac .LASF42
     /tmp/ccTzplhB.s:1940   .debug_str:00000000000001f3 .LASF43
     /tmp/ccTzplhB.s:1950   .debug_str:0000000000000250 .LASF44
     /tmp/ccTzplhB.s:1878   .debug_str:000000000000001a .LASF45
     /tmp/ccTzplhB.s:1998   .debug_str:0000000000000392 .LASF46
     /tmp/ccTzplhB.s:1944   .debug_str:0000000000000216 .LASF47
     /tmp/ccTzplhB.s:1938   .debug_str:00000000000001ea .LASF48
     /tmp/ccTzplhB.s:1936   .debug_str:00000000000001d5 .LASF50
     /tmp/ccTzplhB.s:2076   .debug_str:0000000000000575 .LASF51
     /tmp/ccTzplhB.s:2058   .debug_str:00000000000004f2 .LASF52
     /tmp/ccTzplhB.s:2094   .debug_str:00000000000005e3 .LASF53
     /tmp/ccTzplhB.s:2088   .debug_str:00000000000005b9 .LASF54
GAS LISTING /tmp/ccTzplhB.s 			page 9


     /tmp/ccTzplhB.s:1956   .debug_str:0000000000000285 .LASF55
     /tmp/ccTzplhB.s:1932   .debug_str:00000000000001ae .LASF56
     /tmp/ccTzplhB.s:1874   .debug_str:0000000000000000 .LASF57
     /tmp/ccTzplhB.s:2126   .debug_str:0000000000000782 .LASF58
     /tmp/ccTzplhB.s:1900   .debug_str:00000000000000ba .LASF59
     /tmp/ccTzplhB.s:2114   .debug_str:0000000000000728 .LASF60
     /tmp/ccTzplhB.s:2130   .debug_str:00000000000007a1 .LASF61
     /tmp/ccTzplhB.s:1946   .debug_str:000000000000022b .LASF62
     /tmp/ccTzplhB.s:2022   .debug_str:0000000000000430 .LASF63
     /tmp/ccTzplhB.s:2118   .debug_str:0000000000000741 .LASF64
     /tmp/ccTzplhB.s:2106   .debug_str:00000000000006ec .LASF65
     /tmp/ccTzplhB.s:1954   .debug_str:0000000000000272 .LASF66
     /tmp/ccTzplhB.s:1958   .debug_str:000000000000028d .LASF67
     /tmp/ccTzplhB.s:2092   .debug_str:00000000000005d1 .LASF68
     /tmp/ccTzplhB.s:1894   .debug_str:000000000000009b .LASF69
     /tmp/ccTzplhB.s:2132   .debug_str:00000000000007a9 .LASF70
     /tmp/ccTzplhB.s:2128   .debug_str:0000000000000796 .LASF71
     /tmp/ccTzplhB.s:2072   .debug_str:000000000000054b .LASF72
     /tmp/ccTzplhB.s:1978   .debug_str:0000000000000311 .LASF73
     /tmp/ccTzplhB.s:1992   .debug_str:000000000000035f .LASF74
     /tmp/ccTzplhB.s:1920   .debug_str:000000000000013e .LASF75
     /tmp/ccTzplhB.s:1996   .debug_str:000000000000037c .LASF76
     /tmp/ccTzplhB.s:2006   .debug_str:00000000000003c5 .LASF77
     /tmp/ccTzplhB.s:1962   .debug_str:00000000000002a1 .LASF78
     /tmp/ccTzplhB.s:2016   .debug_str:0000000000000409 .LASF79
     /tmp/ccTzplhB.s:1934   .debug_str:00000000000001c2 .LASF80
     /tmp/ccTzplhB.s:1886   .debug_str:0000000000000064 .LASF81
     /tmp/ccTzplhB.s:2004   .debug_str:00000000000003b2 .LASF82
     /tmp/ccTzplhB.s:2080   .debug_str:0000000000000583 .LASF83
     /tmp/ccTzplhB.s:1914   .debug_str:00000000000000f4 .LASF84
     /tmp/ccTzplhB.s:2090   .debug_str:00000000000005cc .LASF85
     /tmp/ccTzplhB.s:2046   .debug_str:00000000000004a3 .LASF86
     /tmp/ccTzplhB.s:1904   .debug_str:00000000000000c9 .LASF87
     /tmp/ccTzplhB.s:2008   .debug_str:00000000000003cf .LASF88
     /tmp/ccTzplhB.s:1988   .debug_str:0000000000000342 .LASF89
     /tmp/ccTzplhB.s:2124   .debug_str:0000000000000771 .LASF90
     /tmp/ccTzplhB.s:1906   .debug_str:00000000000000ce .LASF91
     /tmp/ccTzplhB.s:1880   .debug_str:0000000000000034 .LASF92
     /tmp/ccTzplhB.s:2044   .debug_str:000000000000049e .LASF93
     /tmp/ccTzplhB.s:2102   .debug_str:00000000000006c2 .LASF94
     /tmp/ccTzplhB.s:2030   .debug_str:000000000000044b .LASF95
     /tmp/ccTzplhB.s:1948   .debug_str:000000000000023f .LASF96
     /tmp/ccTzplhB.s:2116   .debug_str:000000000000073c .LASF97
     /tmp/ccTzplhB.s:2068   .debug_str:0000000000000530 .LASF98
     /tmp/ccTzplhB.s:1910   .debug_str:00000000000000e3 .LASF99
     /tmp/ccTzplhB.s:1924   .debug_str:0000000000000154 .LASF100
     /tmp/ccTzplhB.s:1984   .debug_str:000000000000032e .LASF101
     /tmp/ccTzplhB.s:2014   .debug_str:00000000000003f5 .LASF102
     /tmp/ccTzplhB.s:2012   .debug_str:00000000000003e9 .LASF104
     /tmp/ccTzplhB.s:2104   .debug_str:00000000000006d3 .LASF106
     /tmp/ccTzplhB.s:2000   .debug_str:000000000000039b .LASF107
     /tmp/ccTzplhB.s:2098   .debug_str:00000000000006ae .LASF108
     /tmp/ccTzplhB.s:1966   .debug_str:00000000000002bd .LASF128
     /tmp/ccTzplhB.s:149    .text:00000000000000d8 .LFB50
     /tmp/ccTzplhB.s:186    .text:000000000000011c .LFE50
     /tmp/ccTzplhB.s:163    .text:00000000000000f0 .LVL10
     /tmp/ccTzplhB.s:175    .text:000000000000010c .LVL12
GAS LISTING /tmp/ccTzplhB.s 			page 10


     /tmp/ccTzplhB.s:98     .text:0000000000000088 .LFB49
     /tmp/ccTzplhB.s:143    .text:00000000000000d8 .LFE49
     /tmp/ccTzplhB.s:124    .text:00000000000000bc .LVL9
     /tmp/ccTzplhB.s:10     .text:0000000000000000 .LFB48
     /tmp/ccTzplhB.s:92     .text:0000000000000088 .LFE48
     /tmp/ccTzplhB.s:1841   .debug_loc:0000000000000000 .LLST0
     /tmp/ccTzplhB.s:33     .text:0000000000000024 .LBB4
     /tmp/ccTzplhB.s:41     .text:0000000000000028 .LBE4
     /tmp/ccTzplhB.s:1852   .debug_loc:0000000000000036 .LLST1
     /tmp/ccTzplhB.s:27     .text:000000000000001c .LVL0
     /tmp/ccTzplhB.s:49     .text:0000000000000038 .LVL3
     /tmp/ccTzplhB.s:61     .text:0000000000000058 .LVL4
     /tmp/ccTzplhB.s:65     .text:0000000000000060 .LVL5
     /tmp/ccTzplhB.s:89     .text:0000000000000084 .LVL8
     /tmp/ccTzplhB.s:2120   .debug_str:0000000000000754 .LASF129
     /tmp/ccTzplhB.s:2038   .debug_str:000000000000046f .LASF109
     /tmp/ccTzplhB.s:1892   .debug_str:000000000000008f .LASF111
     /tmp/ccTzplhB.s:1952   .debug_str:000000000000025d .LASF110
     /tmp/ccTzplhB.s:1926   .debug_str:0000000000000165 .LASF112
     /tmp/ccTzplhB.s:31     .text:0000000000000024 .LVL1
     /tmp/ccTzplhB.s:75     .text:000000000000006c .LVL6
     /tmp/ccTzplhB.s:79     .text:0000000000000074 .LVL7
     /tmp/ccTzplhB.s:39     .text:0000000000000028 .LVL2
     /tmp/ccTzplhB.s:203    .debug_info:0000000000000000 .Ldebug_info0

UNDEFINED SYMBOLS
_ZN5Riscv13pushRegistersEv
_ZN9Scheduler3getEv
_ZN3PCB13contextSwitchEPNS_7ContextES1_
_ZN5Riscv12popRegistersEv
_ZN9Scheduler3putEP3PCB
_Z15thread_dispatchv
_ZN5Riscv10popSppSpieEv
_Z11thread_exitv
