GAS LISTING /tmp/cczYiKDy.s 			page 1


   1              		.file	"PCB.cpp"
   2              		.option pic
   3              		.option norelax
   4              		.text
   5              	.Ltext0:
   6              		.align	2
   7              		.globl	_ZN3PCB7wrapperEv
   9              	_ZN3PCB7wrapperEv:
  10              	.LFB57:
  11              		.file 1 "src/PCB.cpp"
   1:src/PCB.cpp   **** //
   2:src/PCB.cpp   **** // Created by os on 7/28/23.
   3:src/PCB.cpp   **** //
   4:src/PCB.cpp   **** 
   5:src/PCB.cpp   **** #include "../h/PCB.hpp"
   6:src/PCB.cpp   **** #include "../h/Sem.hpp"
   7:src/PCB.cpp   **** 
   8:src/PCB.cpp   **** PCB* PCB::running;
   9:src/PCB.cpp   **** 
  10:src/PCB.cpp   **** 
  11:src/PCB.cpp   **** PCB::PCB(PCB::Body body, void *args, uint64 *stack) {
  12:src/PCB.cpp   ****     this->body = body;
  13:src/PCB.cpp   **** 
  14:src/PCB.cpp   ****     this->stack = stack;
  15:src/PCB.cpp   ****     context = {(uint64) &wrapper,
  16:src/PCB.cpp   ****                stack != nullptr ? (uint64) &stack[DEFAULT_STACK_SIZE] : 0
  17:src/PCB.cpp   ****     };
  18:src/PCB.cpp   ****     this->args = args;
  19:src/PCB.cpp   ****     state = READY;
  20:src/PCB.cpp   **** 
  21:src/PCB.cpp   ****     //semaphore = new Sem();
  22:src/PCB.cpp   **** }
  23:src/PCB.cpp   **** 
  24:src/PCB.cpp   **** PCB::~PCB() {
  25:src/PCB.cpp   ****     if(body)delete[] stack;
  26:src/PCB.cpp   ****     //delete semaphore;
  27:src/PCB.cpp   **** }
  28:src/PCB.cpp   **** 
  29:src/PCB.cpp   **** 
  30:src/PCB.cpp   **** void PCB::dispatch() {
  31:src/PCB.cpp   ****     Riscv::pushRegisters();
  32:src/PCB.cpp   **** 
  33:src/PCB.cpp   ****     PCB *old = running;
  34:src/PCB.cpp   ****     if (!old->isFinished()) {
  35:src/PCB.cpp   ****         old->state = READY;
  36:src/PCB.cpp   ****         Scheduler::put(old);
  37:src/PCB.cpp   ****     }
  38:src/PCB.cpp   ****     running = Scheduler::get();
  39:src/PCB.cpp   ****     running->state=RUNNING;
  40:src/PCB.cpp   **** 
  41:src/PCB.cpp   ****     PCB::contextSwitch(&old->context, &running->context);
  42:src/PCB.cpp   **** 
  43:src/PCB.cpp   ****     Riscv::popRegisters();
  44:src/PCB.cpp   **** }
  45:src/PCB.cpp   **** 
  46:src/PCB.cpp   **** void PCB::join() {
  47:src/PCB.cpp   ****     //semaphore->wait();
GAS LISTING /tmp/cczYiKDy.s 			page 2


  48:src/PCB.cpp   **** }
  49:src/PCB.cpp   **** 
  50:src/PCB.cpp   **** int PCB::exit() {
  51:src/PCB.cpp   ****     if(running->state==RUNNING){
  52:src/PCB.cpp   ****         //delete PCB::running->semaphore;
  53:src/PCB.cpp   ****         running->state=FINISHED;
  54:src/PCB.cpp   ****         thread_dispatch();
  55:src/PCB.cpp   ****         return 0;
  56:src/PCB.cpp   ****     }
  57:src/PCB.cpp   ****     return -1;
  58:src/PCB.cpp   **** }
  59:src/PCB.cpp   **** 
  60:src/PCB.cpp   **** void PCB::wrapper() {
  12              		.loc 1 60 21
  13              		.cfi_startproc
  14 0000 130101FF 		addi	sp,sp,-16
  15              		.cfi_def_cfa_offset 16
  16 0004 23341100 		sd	ra,8(sp)
  17 0008 23308100 		sd	s0,0(sp)
  18              		.cfi_offset 1, -8
  19              		.cfi_offset 8, -16
  20 000c 13040101 		addi	s0,sp,16
  21              		.cfi_def_cfa 8, 0
  61:src/PCB.cpp   ****     Riscv::popSppSpie();
  22              		.loc 1 61 5
  23              		.loc 1 61 22 is_stmt 0
  24 0010 97000000 		call	_ZN5Riscv10popSppSpieEv@plt
  24      E7800000 
  25              	.LVL0:
  62:src/PCB.cpp   ****     running->body(running->args);
  26              		.loc 1 62 5 is_stmt 1
  27              		.loc 1 62 14 is_stmt 0
  28 0018 97070000 		ld	a5,.LANCHOR0
  28      83B70700 
  29 0020 03B70700 		ld	a4,0(a5)
  30              		.loc 1 62 18
  31 0024 03B50701 		ld	a0,16(a5)
  32 0028 E7000700 		jalr	a4
  33              	.LVL1:
  63:src/PCB.cpp   ****     thread_exit();
  34              		.loc 1 63 5 is_stmt 1
  35              		.loc 1 63 16 is_stmt 0
  36 002c 97000000 		call	_Z11thread_exitv@plt
  36      E7800000 
  37              	.LVL2:
  64:src/PCB.cpp   **** }
  38              		.loc 1 64 1
  39 0034 83308100 		ld	ra,8(sp)
  40              		.cfi_restore 1
  41 0038 03340100 		ld	s0,0(sp)
  42              		.cfi_restore 8
  43              		.cfi_def_cfa 2, 16
  44 003c 13010101 		addi	sp,sp,16
  45              		.cfi_def_cfa_offset 0
  46 0040 67800000 		jr	ra
  47              		.cfi_endproc
  48              	.LFE57:
GAS LISTING /tmp/cczYiKDy.s 			page 3


  50              		.align	2
  51              		.globl	_ZN3PCBC2EPFvPvES0_Pm
  53              	_ZN3PCBC2EPFvPvES0_Pm:
  54              	.LFB49:
  11:src/PCB.cpp   ****     this->body = body;
  55              		.loc 1 11 1 is_stmt 1
  56              		.cfi_startproc
  57              	.LVL3:
  58 0044 130101FF 		addi	sp,sp,-16
  59              		.cfi_def_cfa_offset 16
  60 0048 23348100 		sd	s0,8(sp)
  61              		.cfi_offset 8, -8
  62 004c 13040101 		addi	s0,sp,16
  63              		.cfi_def_cfa 8, 0
  64              	.LBB4:
  12:src/PCB.cpp   **** 
  65              		.loc 1 12 5
  12:src/PCB.cpp   **** 
  66              		.loc 1 12 16 is_stmt 0
  67 0050 2330B500 		sd	a1,0(a0)
  14:src/PCB.cpp   ****     context = {(uint64) &wrapper,
  68              		.loc 1 14 5 is_stmt 1
  14:src/PCB.cpp   ****     context = {(uint64) &wrapper,
  69              		.loc 1 14 17 is_stmt 0
  70 0054 2334D500 		sd	a3,8(a0)
  15:src/PCB.cpp   ****                stack != nullptr ? (uint64) &stack[DEFAULT_STACK_SIZE] : 0
  71              		.loc 1 15 5 is_stmt 1
  16:src/PCB.cpp   ****     };
  72              		.loc 1 16 33 is_stmt 0
  73 0058 63880602 		beqz	a3,.L5
  16:src/PCB.cpp   ****     };
  74              		.loc 1 16 44 discriminator 1
  75 005c B7870000 		li	a5,32768
  76 0060 B386F600 		add	a3,a3,a5
  77              	.LVL4:
  78              	.L4:
  15:src/PCB.cpp   ****                stack != nullptr ? (uint64) &stack[DEFAULT_STACK_SIZE] : 0
  79              		.loc 1 15 13
  80 0064 97070000 		lla	a5,_ZN3PCB7wrapperEv
  80      93870700 
  81 006c 233CF500 		sd	a5,24(a0)
  82 0070 2330D502 		sd	a3,32(a0)
  18:src/PCB.cpp   ****     state = READY;
  83              		.loc 1 18 5 is_stmt 1
  18:src/PCB.cpp   ****     state = READY;
  84              		.loc 1 18 16 is_stmt 0
  85 0074 2338C500 		sd	a2,16(a0)
  19:src/PCB.cpp   **** 
  86              		.loc 1 19 5 is_stmt 1
  19:src/PCB.cpp   **** 
  87              		.loc 1 19 11 is_stmt 0
  88 0078 23240502 		sw	zero,40(a0)
  89              	.LBE4:
  22:src/PCB.cpp   **** 
  90              		.loc 1 22 1
  91 007c 03348100 		ld	s0,8(sp)
  92              		.cfi_remember_state
GAS LISTING /tmp/cczYiKDy.s 			page 4


  93              		.cfi_restore 8
  94              		.cfi_def_cfa 2, 16
  95 0080 13010101 		addi	sp,sp,16
  96              		.cfi_def_cfa_offset 0
  97 0084 67800000 		jr	ra
  98              	.LVL5:
  99              	.L5:
 100              		.cfi_restore_state
 101              	.LBB5:
  16:src/PCB.cpp   ****     };
 102              		.loc 1 16 33
 103 0088 93060000 		li	a3,0
 104              	.LVL6:
 105 008c 6FF09FFD 		j	.L4
 106              	.LBE5:
 107              		.cfi_endproc
 108              	.LFE49:
 110              		.globl	_ZN3PCBC1EPFvPvES0_Pm
 111              		.set	_ZN3PCBC1EPFvPvES0_Pm,_ZN3PCBC2EPFvPvES0_Pm
 112              		.align	2
 113              		.globl	_ZN3PCBD2Ev
 115              	_ZN3PCBD2Ev:
 116              	.LFB52:
  24:src/PCB.cpp   ****     if(body)delete[] stack;
 117              		.loc 1 24 1 is_stmt 1
 118              		.cfi_startproc
 119              	.LVL7:
 120              	.LBB6:
  25:src/PCB.cpp   ****     //delete semaphore;
 121              		.loc 1 25 5
  25:src/PCB.cpp   ****     //delete semaphore;
 122              		.loc 1 25 8 is_stmt 0
 123 0090 83370500 		ld	a5,0(a0)
  25:src/PCB.cpp   ****     //delete semaphore;
 124              		.loc 1 25 5
 125 0094 638A0702 		beqz	a5,.L10
  25:src/PCB.cpp   ****     //delete semaphore;
 126              		.loc 1 25 13 is_stmt 1 discriminator 1
  25:src/PCB.cpp   ****     //delete semaphore;
 127              		.loc 1 25 22 is_stmt 0 discriminator 1
 128 0098 03358500 		ld	a0,8(a0)
 129              	.LVL8:
  25:src/PCB.cpp   ****     //delete semaphore;
 130              		.loc 1 25 27 discriminator 1
 131 009c 63060502 		beqz	a0,.L10
 132              	.LBE6:
  24:src/PCB.cpp   ****     if(body)delete[] stack;
 133              		.loc 1 24 1 discriminator 2
 134 00a0 130101FF 		addi	sp,sp,-16
 135              		.cfi_def_cfa_offset 16
 136 00a4 23341100 		sd	ra,8(sp)
 137 00a8 23308100 		sd	s0,0(sp)
 138              		.cfi_offset 1, -8
 139              		.cfi_offset 8, -16
 140 00ac 13040101 		addi	s0,sp,16
 141              		.cfi_def_cfa 8, 0
 142              	.LBB7:
GAS LISTING /tmp/cczYiKDy.s 			page 5


  25:src/PCB.cpp   ****     //delete semaphore;
 143              		.loc 1 25 22 discriminator 2
 144 00b0 97000000 		call	_ZdaPv@plt
 144      E7800000 
 145              	.LVL9:
 146              	.LBE7:
  27:src/PCB.cpp   **** 
 147              		.loc 1 27 1 discriminator 2
 148 00b8 83308100 		ld	ra,8(sp)
 149              		.cfi_restore 1
 150 00bc 03340100 		ld	s0,0(sp)
 151              		.cfi_restore 8
 152              		.cfi_def_cfa 2, 16
 153 00c0 13010101 		addi	sp,sp,16
 154              		.cfi_def_cfa_offset 0
 155 00c4 67800000 		jr	ra
 156              	.L10:
 157 00c8 67800000 		ret
 158              		.cfi_endproc
 159              	.LFE52:
 161              		.globl	_ZN3PCBD1Ev
 162              		.set	_ZN3PCBD1Ev,_ZN3PCBD2Ev
 163              		.align	2
 164              		.globl	_ZN3PCB8dispatchEv
 166              	_ZN3PCB8dispatchEv:
 167              	.LFB54:
  30:src/PCB.cpp   ****     Riscv::pushRegisters();
 168              		.loc 1 30 22 is_stmt 1
 169              		.cfi_startproc
 170 00cc 130101FE 		addi	sp,sp,-32
 171              		.cfi_def_cfa_offset 32
 172 00d0 233C1100 		sd	ra,24(sp)
 173 00d4 23388100 		sd	s0,16(sp)
 174 00d8 23349100 		sd	s1,8(sp)
 175              		.cfi_offset 1, -8
 176              		.cfi_offset 8, -16
 177              		.cfi_offset 9, -24
 178 00dc 13040102 		addi	s0,sp,32
 179              		.cfi_def_cfa 8, 0
  31:src/PCB.cpp   **** 
 180              		.loc 1 31 5
  31:src/PCB.cpp   **** 
 181              		.loc 1 31 25 is_stmt 0
 182 00e0 97000000 		call	_ZN5Riscv13pushRegistersEv@plt
 182      E7800000 
 183              	.LVL10:
  33:src/PCB.cpp   ****     if (!old->isFinished()) {
 184              		.loc 1 33 5 is_stmt 1
  33:src/PCB.cpp   ****     if (!old->isFinished()) {
 185              		.loc 1 33 10 is_stmt 0
 186 00e8 97040000 		ld	s1,.LANCHOR0
 186      83B40400 
 187              	.LVL11:
  34:src/PCB.cpp   ****         old->state = READY;
 188              		.loc 1 34 5 is_stmt 1
 189              	.LBB8:
 190              	.LBB9:
GAS LISTING /tmp/cczYiKDy.s 			page 6


 191              		.file 2 "src/../h/PCB.hpp"
   1:src/../h/PCB.hpp **** #ifndef PROJECT_BASE_V1_1_PCB_HPP
   2:src/../h/PCB.hpp **** #define PROJECT_BASE_V1_1_PCB_HPP
   3:src/../h/PCB.hpp **** 
   4:src/../h/PCB.hpp **** 
   5:src/../h/PCB.hpp **** #include "Scheduler.hpp"
   6:src/../h/PCB.hpp **** #include "riscv.hpp"
   7:src/../h/PCB.hpp **** #include "../h/syscall_c.hpp"
   8:src/../h/PCB.hpp **** 
   9:src/../h/PCB.hpp **** class Sem;
  10:src/../h/PCB.hpp **** 
  11:src/../h/PCB.hpp **** class PCB {
  12:src/../h/PCB.hpp **** public:
  13:src/../h/PCB.hpp ****     struct Context {
  14:src/../h/PCB.hpp ****         uint64 ra;
  15:src/../h/PCB.hpp ****         uint64 sp;
  16:src/../h/PCB.hpp ****     };
  17:src/../h/PCB.hpp **** 
  18:src/../h/PCB.hpp ****     enum State {
  19:src/../h/PCB.hpp ****         READY,
  20:src/../h/PCB.hpp ****         RUNNING,
  21:src/../h/PCB.hpp ****         SUSPENDED,
  22:src/../h/PCB.hpp ****         FINISHED
  23:src/../h/PCB.hpp ****     };
  24:src/../h/PCB.hpp **** 
  25:src/../h/PCB.hpp ****     ~PCB();
  26:src/../h/PCB.hpp **** 
  27:src/../h/PCB.hpp ****     bool isFinished() const { return state == FINISHED; }
 192              		.loc 2 27 31
 193              		.loc 2 27 38 is_stmt 0
 194 00f0 03A78402 		lw	a4,40(s1)
 195              	.LVL12:
 196              	.LBE9:
 197              	.LBE8:
  34:src/PCB.cpp   ****         old->state = READY;
 198              		.loc 1 34 5
 199 00f4 93073000 		li	a5,3
 200 00f8 6314F704 		bne	a4,a5,.L16
 201              	.L14:
  38:src/PCB.cpp   ****     running->state=RUNNING;
 202              		.loc 1 38 5 is_stmt 1
  38:src/PCB.cpp   ****     running->state=RUNNING;
 203              		.loc 1 38 29 is_stmt 0
 204 00fc 97000000 		call	_ZN9Scheduler3getEv@plt
 204      E7800000 
 205              	.LVL13:
  38:src/PCB.cpp   ****     running->state=RUNNING;
 206              		.loc 1 38 13
 207 0104 97070000 		sd	a0,.LANCHOR0,a5
 207      23B0A700 
  39:src/PCB.cpp   **** 
 208              		.loc 1 39 5 is_stmt 1
  39:src/PCB.cpp   **** 
 209              		.loc 1 39 19 is_stmt 0
 210 010c 93071000 		li	a5,1
 211 0110 2324F502 		sw	a5,40(a0)
  41:src/PCB.cpp   **** 
GAS LISTING /tmp/cczYiKDy.s 			page 7


 212              		.loc 1 41 5 is_stmt 1
  41:src/PCB.cpp   **** 
 213              		.loc 1 41 23 is_stmt 0
 214 0114 93058501 		addi	a1,a0,24
 215 0118 13858401 		addi	a0,s1,24
 216 011c 97000000 		call	_ZN3PCB13contextSwitchEPNS_7ContextES1_@plt
 216      E7800000 
 217              	.LVL14:
  43:src/PCB.cpp   **** }
 218              		.loc 1 43 5 is_stmt 1
  43:src/PCB.cpp   **** }
 219              		.loc 1 43 24 is_stmt 0
 220 0124 97000000 		call	_ZN5Riscv12popRegistersEv@plt
 220      E7800000 
 221              	.LVL15:
  44:src/PCB.cpp   **** 
 222              		.loc 1 44 1
 223 012c 83308101 		ld	ra,24(sp)
 224              		.cfi_remember_state
 225              		.cfi_restore 1
 226 0130 03340101 		ld	s0,16(sp)
 227              		.cfi_restore 8
 228              		.cfi_def_cfa 2, 32
 229 0134 83348100 		ld	s1,8(sp)
 230              		.cfi_restore 9
 231              	.LVL16:
 232 0138 13010102 		addi	sp,sp,32
 233              		.cfi_def_cfa_offset 0
 234 013c 67800000 		jr	ra
 235              	.LVL17:
 236              	.L16:
 237              		.cfi_restore_state
  35:src/PCB.cpp   ****         Scheduler::put(old);
 238              		.loc 1 35 9 is_stmt 1
  35:src/PCB.cpp   ****         Scheduler::put(old);
 239              		.loc 1 35 20 is_stmt 0
 240 0140 23A40402 		sw	zero,40(s1)
  36:src/PCB.cpp   ****     }
 241              		.loc 1 36 9 is_stmt 1
  36:src/PCB.cpp   ****     }
 242              		.loc 1 36 23 is_stmt 0
 243 0144 13850400 		mv	a0,s1
 244 0148 97000000 		call	_ZN9Scheduler3putEP3PCB@plt
 244      E7800000 
 245              	.LVL18:
 246 0150 6FF0DFFA 		j	.L14
 247              		.cfi_endproc
 248              	.LFE54:
 250              		.align	2
 251              		.globl	_ZN3PCB4joinEv
 253              	_ZN3PCB4joinEv:
 254              	.LFB55:
  46:src/PCB.cpp   ****     //semaphore->wait();
 255              		.loc 1 46 18 is_stmt 1
 256              		.cfi_startproc
 257              	.LVL19:
 258 0154 130101FF 		addi	sp,sp,-16
GAS LISTING /tmp/cczYiKDy.s 			page 8


 259              		.cfi_def_cfa_offset 16
 260 0158 23348100 		sd	s0,8(sp)
 261              		.cfi_offset 8, -8
 262 015c 13040101 		addi	s0,sp,16
 263              		.cfi_def_cfa 8, 0
  48:src/PCB.cpp   **** 
 264              		.loc 1 48 1 is_stmt 0
 265 0160 03348100 		ld	s0,8(sp)
 266              		.cfi_restore 8
 267              		.cfi_def_cfa 2, 16
 268 0164 13010101 		addi	sp,sp,16
 269              		.cfi_def_cfa_offset 0
 270 0168 67800000 		jr	ra
 271              		.cfi_endproc
 272              	.LFE55:
 274              		.align	2
 275              		.globl	_ZN3PCB4exitEv
 277              	_ZN3PCB4exitEv:
 278              	.LFB56:
  50:src/PCB.cpp   ****     if(running->state==RUNNING){
 279              		.loc 1 50 17 is_stmt 1
 280              		.cfi_startproc
  51:src/PCB.cpp   ****         //delete PCB::running->semaphore;
 281              		.loc 1 51 5
  51:src/PCB.cpp   ****         //delete PCB::running->semaphore;
 282              		.loc 1 51 17 is_stmt 0
 283 016c 97070000 		ld	a5,.LANCHOR0
 283      83B70700 
 284 0174 83A68702 		lw	a3,40(a5)
  51:src/PCB.cpp   ****         //delete PCB::running->semaphore;
 285              		.loc 1 51 5
 286 0178 13071000 		li	a4,1
 287 017c 639CE602 		bne	a3,a4,.L21
  50:src/PCB.cpp   ****     if(running->state==RUNNING){
 288              		.loc 1 50 17
 289 0180 130101FF 		addi	sp,sp,-16
 290              		.cfi_def_cfa_offset 16
 291 0184 23341100 		sd	ra,8(sp)
 292 0188 23308100 		sd	s0,0(sp)
 293              		.cfi_offset 1, -8
 294              		.cfi_offset 8, -16
 295 018c 13040101 		addi	s0,sp,16
 296              		.cfi_def_cfa 8, 0
  53:src/PCB.cpp   ****         thread_dispatch();
 297              		.loc 1 53 9 is_stmt 1
  53:src/PCB.cpp   ****         thread_dispatch();
 298              		.loc 1 53 23 is_stmt 0
 299 0190 13073000 		li	a4,3
 300 0194 23A4E702 		sw	a4,40(a5)
  54:src/PCB.cpp   ****         return 0;
 301              		.loc 1 54 9 is_stmt 1
  54:src/PCB.cpp   ****         return 0;
 302              		.loc 1 54 24 is_stmt 0
 303 0198 97000000 		call	_Z15thread_dispatchv@plt
 303      E7800000 
 304              	.LVL20:
  55:src/PCB.cpp   ****     }
GAS LISTING /tmp/cczYiKDy.s 			page 9


 305              		.loc 1 55 9 is_stmt 1
  55:src/PCB.cpp   ****     }
 306              		.loc 1 55 16 is_stmt 0
 307 01a0 13050000 		li	a0,0
  58:src/PCB.cpp   **** 
 308              		.loc 1 58 1
 309 01a4 83308100 		ld	ra,8(sp)
 310              		.cfi_restore 1
 311 01a8 03340100 		ld	s0,0(sp)
 312              		.cfi_restore 8
 313              		.cfi_def_cfa 2, 16
 314 01ac 13010101 		addi	sp,sp,16
 315              		.cfi_def_cfa_offset 0
 316 01b0 67800000 		jr	ra
 317              	.L21:
  57:src/PCB.cpp   **** }
 318              		.loc 1 57 13
 319 01b4 1305F0FF 		li	a0,-1
  58:src/PCB.cpp   **** 
 320              		.loc 1 58 1
 321 01b8 67800000 		ret
 322              		.cfi_endproc
 323              	.LFE56:
 325              		.globl	_ZN3PCB7runningE
 326              		.bss
 327              		.align	3
 328              		.set	.LANCHOR0,. + 0
 331              	_ZN3PCB7runningE:
 332 0000 00000000 		.zero	8
 332      00000000 
 333              		.text
 334              	.Letext0:
 335              		.file 3 "src/../h/../lib/hw.h"
 336              		.file 4 "src/../h/Scheduler.hpp"
 337              		.file 5 "src/../h/list.hpp"
 338              		.file 6 "src/../h/riscv.hpp"
 339              		.file 7 "src/../h/../h/syscall_c.hpp"
GAS LISTING /tmp/cczYiKDy.s 			page 10


DEFINED SYMBOLS
                            *ABS*:0000000000000000 PCB.cpp
     /tmp/cczYiKDy.s:9      .text:0000000000000000 _ZN3PCB7wrapperEv
     /tmp/cczYiKDy.s:13     .text:0000000000000000 .L0 
     /tmp/cczYiKDy.s:14     .text:0000000000000000 .L0 
     /tmp/cczYiKDy.s:15     .text:0000000000000004 .L0 
     /tmp/cczYiKDy.s:18     .text:000000000000000c .L0 
     /tmp/cczYiKDy.s:19     .text:000000000000000c .L0 
     /tmp/cczYiKDy.s:21     .text:0000000000000010 .L0 
     /tmp/cczYiKDy.s:23     .text:0000000000000010 .L0 
     /tmp/cczYiKDy.s:24     .text:0000000000000010 .L0 
     /tmp/cczYiKDy.s:27     .text:0000000000000018 .L0 
     /tmp/cczYiKDy.s:28     .text:0000000000000018 .L0 
     /tmp/cczYiKDy.s:31     .text:0000000000000024 .L0 
     /tmp/cczYiKDy.s:35     .text:000000000000002c .L0 
     /tmp/cczYiKDy.s:36     .text:000000000000002c .L0 
     /tmp/cczYiKDy.s:39     .text:0000000000000034 .L0 
     /tmp/cczYiKDy.s:40     .text:0000000000000038 .L0 
     /tmp/cczYiKDy.s:42     .text:000000000000003c .L0 
     /tmp/cczYiKDy.s:43     .text:000000000000003c .L0 
     /tmp/cczYiKDy.s:45     .text:0000000000000040 .L0 
     /tmp/cczYiKDy.s:47     .text:0000000000000044 .L0 
     /tmp/cczYiKDy.s:53     .text:0000000000000044 _ZN3PCBC2EPFvPvES0_Pm
     /tmp/cczYiKDy.s:56     .text:0000000000000044 .L0 
     /tmp/cczYiKDy.s:58     .text:0000000000000044 .L0 
     /tmp/cczYiKDy.s:59     .text:0000000000000048 .L0 
     /tmp/cczYiKDy.s:61     .text:000000000000004c .L0 
     /tmp/cczYiKDy.s:63     .text:0000000000000050 .L0 
     /tmp/cczYiKDy.s:66     .text:0000000000000050 .L0 
     /tmp/cczYiKDy.s:67     .text:0000000000000050 .L0 
     /tmp/cczYiKDy.s:69     .text:0000000000000054 .L0 
     /tmp/cczYiKDy.s:70     .text:0000000000000054 .L0 
     /tmp/cczYiKDy.s:72     .text:0000000000000058 .L0 
     /tmp/cczYiKDy.s:73     .text:0000000000000058 .L0 
     /tmp/cczYiKDy.s:75     .text:000000000000005c .L0 
     /tmp/cczYiKDy.s:80     .text:0000000000000064 .L0 
     /tmp/cczYiKDy.s:84     .text:0000000000000074 .L0 
     /tmp/cczYiKDy.s:85     .text:0000000000000074 .L0 
     /tmp/cczYiKDy.s:87     .text:0000000000000078 .L0 
     /tmp/cczYiKDy.s:88     .text:0000000000000078 .L0 
     /tmp/cczYiKDy.s:91     .text:000000000000007c .L0 
     /tmp/cczYiKDy.s:92     .text:0000000000000080 .L0 
     /tmp/cczYiKDy.s:93     .text:0000000000000080 .L0 
     /tmp/cczYiKDy.s:94     .text:0000000000000080 .L0 
     /tmp/cczYiKDy.s:96     .text:0000000000000084 .L0 
     /tmp/cczYiKDy.s:100    .text:0000000000000088 .L0 
     /tmp/cczYiKDy.s:103    .text:0000000000000088 .L0 
     /tmp/cczYiKDy.s:107    .text:0000000000000090 .L0 
     /tmp/cczYiKDy.s:53     .text:0000000000000044 _ZN3PCBC1EPFvPvES0_Pm
     /tmp/cczYiKDy.s:115    .text:0000000000000090 _ZN3PCBD2Ev
     /tmp/cczYiKDy.s:118    .text:0000000000000090 .L0 
     /tmp/cczYiKDy.s:121    .text:0000000000000090 .L0 
     /tmp/cczYiKDy.s:122    .text:0000000000000090 .L0 
     /tmp/cczYiKDy.s:123    .text:0000000000000090 .L0 
     /tmp/cczYiKDy.s:125    .text:0000000000000094 .L0 
     /tmp/cczYiKDy.s:127    .text:0000000000000098 .L0 
     /tmp/cczYiKDy.s:128    .text:0000000000000098 .L0 
GAS LISTING /tmp/cczYiKDy.s 			page 11


     /tmp/cczYiKDy.s:131    .text:000000000000009c .L0 
     /tmp/cczYiKDy.s:134    .text:00000000000000a0 .L0 
     /tmp/cczYiKDy.s:135    .text:00000000000000a4 .L0 
     /tmp/cczYiKDy.s:138    .text:00000000000000ac .L0 
     /tmp/cczYiKDy.s:139    .text:00000000000000ac .L0 
     /tmp/cczYiKDy.s:141    .text:00000000000000b0 .L0 
     /tmp/cczYiKDy.s:144    .text:00000000000000b0 .L0 
     /tmp/cczYiKDy.s:148    .text:00000000000000b8 .L0 
     /tmp/cczYiKDy.s:149    .text:00000000000000bc .L0 
     /tmp/cczYiKDy.s:151    .text:00000000000000c0 .L0 
     /tmp/cczYiKDy.s:152    .text:00000000000000c0 .L0 
     /tmp/cczYiKDy.s:154    .text:00000000000000c4 .L0 
     /tmp/cczYiKDy.s:158    .text:00000000000000cc .L0 
     /tmp/cczYiKDy.s:115    .text:0000000000000090 _ZN3PCBD1Ev
     /tmp/cczYiKDy.s:166    .text:00000000000000cc _ZN3PCB8dispatchEv
     /tmp/cczYiKDy.s:169    .text:00000000000000cc .L0 
     /tmp/cczYiKDy.s:170    .text:00000000000000cc .L0 
     /tmp/cczYiKDy.s:171    .text:00000000000000d0 .L0 
     /tmp/cczYiKDy.s:175    .text:00000000000000dc .L0 
     /tmp/cczYiKDy.s:176    .text:00000000000000dc .L0 
     /tmp/cczYiKDy.s:177    .text:00000000000000dc .L0 
     /tmp/cczYiKDy.s:179    .text:00000000000000e0 .L0 
     /tmp/cczYiKDy.s:181    .text:00000000000000e0 .L0 
     /tmp/cczYiKDy.s:182    .text:00000000000000e0 .L0 
     /tmp/cczYiKDy.s:185    .text:00000000000000e8 .L0 
     /tmp/cczYiKDy.s:186    .text:00000000000000e8 .L0 
     /tmp/cczYiKDy.s:192    .text:00000000000000f0 .L0 
     /tmp/cczYiKDy.s:193    .text:00000000000000f0 .L0 
     /tmp/cczYiKDy.s:194    .text:00000000000000f0 .L0 
     /tmp/cczYiKDy.s:199    .text:00000000000000f4 .L0 
     /tmp/cczYiKDy.s:203    .text:00000000000000fc .L0 
     /tmp/cczYiKDy.s:204    .text:00000000000000fc .L0 
     /tmp/cczYiKDy.s:207    .text:0000000000000104 .L0 
     /tmp/cczYiKDy.s:209    .text:000000000000010c .L0 
     /tmp/cczYiKDy.s:210    .text:000000000000010c .L0 
     /tmp/cczYiKDy.s:213    .text:0000000000000114 .L0 
     /tmp/cczYiKDy.s:214    .text:0000000000000114 .L0 
     /tmp/cczYiKDy.s:219    .text:0000000000000124 .L0 
     /tmp/cczYiKDy.s:220    .text:0000000000000124 .L0 
     /tmp/cczYiKDy.s:223    .text:000000000000012c .L0 
     /tmp/cczYiKDy.s:224    .text:0000000000000130 .L0 
     /tmp/cczYiKDy.s:225    .text:0000000000000130 .L0 
     /tmp/cczYiKDy.s:227    .text:0000000000000134 .L0 
     /tmp/cczYiKDy.s:228    .text:0000000000000134 .L0 
     /tmp/cczYiKDy.s:230    .text:0000000000000138 .L0 
     /tmp/cczYiKDy.s:233    .text:000000000000013c .L0 
     /tmp/cczYiKDy.s:237    .text:0000000000000140 .L0 
     /tmp/cczYiKDy.s:239    .text:0000000000000140 .L0 
     /tmp/cczYiKDy.s:240    .text:0000000000000140 .L0 
     /tmp/cczYiKDy.s:242    .text:0000000000000144 .L0 
     /tmp/cczYiKDy.s:243    .text:0000000000000144 .L0 
     /tmp/cczYiKDy.s:247    .text:0000000000000154 .L0 
     /tmp/cczYiKDy.s:253    .text:0000000000000154 _ZN3PCB4joinEv
     /tmp/cczYiKDy.s:256    .text:0000000000000154 .L0 
     /tmp/cczYiKDy.s:258    .text:0000000000000154 .L0 
     /tmp/cczYiKDy.s:259    .text:0000000000000158 .L0 
     /tmp/cczYiKDy.s:261    .text:000000000000015c .L0 
GAS LISTING /tmp/cczYiKDy.s 			page 12


     /tmp/cczYiKDy.s:263    .text:0000000000000160 .L0 
     /tmp/cczYiKDy.s:265    .text:0000000000000160 .L0 
     /tmp/cczYiKDy.s:266    .text:0000000000000164 .L0 
     /tmp/cczYiKDy.s:267    .text:0000000000000164 .L0 
     /tmp/cczYiKDy.s:269    .text:0000000000000168 .L0 
     /tmp/cczYiKDy.s:271    .text:000000000000016c .L0 
     /tmp/cczYiKDy.s:277    .text:000000000000016c _ZN3PCB4exitEv
     /tmp/cczYiKDy.s:280    .text:000000000000016c .L0 
     /tmp/cczYiKDy.s:281    .text:000000000000016c .L0 
     /tmp/cczYiKDy.s:282    .text:000000000000016c .L0 
     /tmp/cczYiKDy.s:283    .text:000000000000016c .L0 
     /tmp/cczYiKDy.s:286    .text:0000000000000178 .L0 
     /tmp/cczYiKDy.s:289    .text:0000000000000180 .L0 
     /tmp/cczYiKDy.s:290    .text:0000000000000184 .L0 
     /tmp/cczYiKDy.s:293    .text:000000000000018c .L0 
     /tmp/cczYiKDy.s:294    .text:000000000000018c .L0 
     /tmp/cczYiKDy.s:296    .text:0000000000000190 .L0 
     /tmp/cczYiKDy.s:298    .text:0000000000000190 .L0 
     /tmp/cczYiKDy.s:299    .text:0000000000000190 .L0 
     /tmp/cczYiKDy.s:302    .text:0000000000000198 .L0 
     /tmp/cczYiKDy.s:303    .text:0000000000000198 .L0 
     /tmp/cczYiKDy.s:306    .text:00000000000001a0 .L0 
     /tmp/cczYiKDy.s:307    .text:00000000000001a0 .L0 
     /tmp/cczYiKDy.s:309    .text:00000000000001a4 .L0 
     /tmp/cczYiKDy.s:310    .text:00000000000001a8 .L0 
     /tmp/cczYiKDy.s:312    .text:00000000000001ac .L0 
     /tmp/cczYiKDy.s:313    .text:00000000000001ac .L0 
     /tmp/cczYiKDy.s:315    .text:00000000000001b0 .L0 
     /tmp/cczYiKDy.s:319    .text:00000000000001b4 .L0 
     /tmp/cczYiKDy.s:321    .text:00000000000001b8 .L0 
     /tmp/cczYiKDy.s:322    .text:00000000000001bc .L0 
     /tmp/cczYiKDy.s:331    .bss:0000000000000000 _ZN3PCB7runningE
     /tmp/cczYiKDy.s:328    .bss:0000000000000000 .LANCHOR0
     /tmp/cczYiKDy.s:340    .text:00000000000001bc .L0 
     /tmp/cczYiKDy.s:28     .text:0000000000000018 .L0 
     /tmp/cczYiKDy.s:80     .text:0000000000000064 .L0 
     /tmp/cczYiKDy.s:186    .text:00000000000000e8 .L0 
     /tmp/cczYiKDy.s:207    .text:0000000000000104 .L0 
     /tmp/cczYiKDy.s:283    .text:000000000000016c .L0 
     /tmp/cczYiKDy.s:99     .text:0000000000000088 .L5
     /tmp/cczYiKDy.s:78     .text:0000000000000064 .L4
     /tmp/cczYiKDy.s:156    .text:00000000000000c8 .L10
     /tmp/cczYiKDy.s:236    .text:0000000000000140 .L16
     /tmp/cczYiKDy.s:201    .text:00000000000000fc .L14
     /tmp/cczYiKDy.s:317    .text:00000000000001b4 .L21
     /tmp/cczYiKDy.s:1471   .debug_abbrev:0000000000000000 .Ldebug_abbrev0
     /tmp/cczYiKDy.s:2757   .debug_str:0000000000000691 .LASF138
     /tmp/cczYiKDy.s:2777   .debug_str:00000000000007fd .LASF139
     /tmp/cczYiKDy.s:2767   .debug_str:00000000000007a9 .LASF140
     /tmp/cczYiKDy.s:5      .text:0000000000000000 .Ltext0
     /tmp/cczYiKDy.s:334    .text:00000000000001bc .Letext0
     /tmp/cczYiKDy.s:2511   .debug_line:0000000000000000 .Ldebug_line0
     /tmp/cczYiKDy.s:2599   .debug_str:0000000000000288 .LASF0
     /tmp/cczYiKDy.s:2629   .debug_str:0000000000000338 .LASF1
     /tmp/cczYiKDy.s:2695   .debug_str:00000000000004f8 .LASF2
     /tmp/cczYiKDy.s:2705   .debug_str:0000000000000540 .LASF4
     /tmp/cczYiKDy.s:2609   .debug_str:00000000000002c1 .LASF3
GAS LISTING /tmp/cczYiKDy.s 			page 13


     /tmp/cczYiKDy.s:2517   .debug_str:0000000000000011 .LASF5
     /tmp/cczYiKDy.s:2675   .debug_str:0000000000000455 .LASF6
     /tmp/cczYiKDy.s:2621   .debug_str:0000000000000304 .LASF7
     /tmp/cczYiKDy.s:2585   .debug_str:0000000000000208 .LASF8
     /tmp/cczYiKDy.s:2591   .debug_str:0000000000000245 .LASF9
     /tmp/cczYiKDy.s:2541   .debug_str:00000000000000e7 .LASF10
     /tmp/cczYiKDy.s:2577   .debug_str:00000000000001e3 .LASF11
     /tmp/cczYiKDy.s:2551   .debug_str:0000000000000139 .LASF12
     /tmp/cczYiKDy.s:2539   .debug_str:00000000000000d7 .LASF13
     /tmp/cczYiKDy.s:2741   .debug_str:0000000000000647 .LASF14
     /tmp/cczYiKDy.s:2573   .debug_str:00000000000001b2 .LASF15
     /tmp/cczYiKDy.s:2729   .debug_str:00000000000005d4 .LASF16
     /tmp/cczYiKDy.s:2583   .debug_str:00000000000001fe .LASF18
     /tmp/cczYiKDy.s:2549   .debug_str:000000000000012e .LASF141
     /tmp/cczYiKDy.s:2813   .debug_str:00000000000008f3 .LASF142
     /tmp/cczYiKDy.s:2521   .debug_str:0000000000000023 .LASF143
     /tmp/cczYiKDy.s:2513   .debug_str:0000000000000000 .LASF17
     /tmp/cczYiKDy.s:2715   .debug_str:0000000000000585 .LASF48
     /tmp/cczYiKDy.s:2537   .debug_str:00000000000000cd .LASF19
     /tmp/cczYiKDy.s:2781   .debug_str:0000000000000812 .LASF144
     /tmp/cczYiKDy.s:2735   .debug_str:0000000000000617 .LASF20
     /tmp/cczYiKDy.s:2653   .debug_str:00000000000003dc .LASF21
     /tmp/cczYiKDy.s:2647   .debug_str:00000000000003c7 .LASF22
     /tmp/cczYiKDy.s:2805   .debug_str:00000000000008b0 .LASF24
     /tmp/cczYiKDy.s:2529   .debug_str:000000000000008b .LASF29
     /tmp/cczYiKDy.s:2697   .debug_str:0000000000000506 .LASF145
     /tmp/cczYiKDy.s:2643   .debug_str:0000000000000395 .LASF146
     /tmp/cczYiKDy.s:2625   .debug_str:000000000000032a .LASF23
     /tmp/cczYiKDy.s:2765   .debug_str:000000000000078c .LASF25
     /tmp/cczYiKDy.s:2635   .debug_str:0000000000000366 .LASF26
     /tmp/cczYiKDy.s:2689   .debug_str:00000000000004c8 .LASF27
     /tmp/cczYiKDy.s:2671   .debug_str:0000000000000438 .LASF28
     /tmp/cczYiKDy.s:2789   .debug_str:000000000000083d .LASF30
     /tmp/cczYiKDy.s:2825   .debug_str:000000000000094e .LASF31
     /tmp/cczYiKDy.s:2645   .debug_str:00000000000003ac .LASF32
     /tmp/cczYiKDy.s:2717   .debug_str:000000000000059c .LASF33
     /tmp/cczYiKDy.s:2545   .debug_str:0000000000000107 .LASF34
     /tmp/cczYiKDy.s:2685   .debug_str:00000000000004af .LASF35
     /tmp/cczYiKDy.s:2737   .debug_str:000000000000061c .LASF36
     /tmp/cczYiKDy.s:2747   .debug_str:000000000000066a .LASF147
     /tmp/cczYiKDy.s:2753   .debug_str:0000000000000683 .LASF148
     /tmp/cczYiKDy.s:2751   .debug_str:000000000000067d .LASF37
     /tmp/cczYiKDy.s:2719   .debug_str:00000000000005a7 .LASF38
     /tmp/cczYiKDy.s:2547   .debug_str:0000000000000124 .LASF39
     /tmp/cczYiKDy.s:2533   .debug_str:00000000000000b3 .LASF40
     /tmp/cczYiKDy.s:2627   .debug_str:0000000000000333 .LASF41
     /tmp/cczYiKDy.s:2817   .debug_str:0000000000000913 .LASF42
     /tmp/cczYiKDy.s:2749   .debug_str:0000000000000672 .LASF43
     /tmp/cczYiKDy.s:2801   .debug_str:000000000000087f .LASF44
     /tmp/cczYiKDy.s:2703   .debug_str:0000000000000537 .LASF45
     /tmp/cczYiKDy.s:2733   .debug_str:00000000000005fb .LASF46
     /tmp/cczYiKDy.s:2563   .debug_str:0000000000000181 .LASF60
     /tmp/cczYiKDy.s:2525   .debug_str:0000000000000050 .LASF62
     /tmp/cczYiKDy.s:2723   .debug_str:00000000000005b5 .LASF47
     /tmp/cczYiKDy.s:2701   .debug_str:0000000000000528 .LASF49
     /tmp/cczYiKDy.s:2711   .debug_str:0000000000000561 .LASF149
     /tmp/cczYiKDy.s:2665   .debug_str:000000000000041d .LASF150
GAS LISTING /tmp/cczYiKDy.s 			page 14


     /tmp/cczYiKDy.s:2811   .debug_str:00000000000008ed .LASF50
     /tmp/cczYiKDy.s:2761   .debug_str:0000000000000768 .LASF51
     /tmp/cczYiKDy.s:2755   .debug_str:0000000000000689 .LASF151
     /tmp/cczYiKDy.s:2607   .debug_str:00000000000002bc .LASF52
     /tmp/cczYiKDy.s:2823   .debug_str:000000000000093f .LASF53
     /tmp/cczYiKDy.s:2553   .debug_str:0000000000000149 .LASF152
     /tmp/cczYiKDy.s:2527   .debug_str:0000000000000063 .LASF153
     /tmp/cczYiKDy.s:2785   .debug_str:000000000000081f .LASF124
     /tmp/cczYiKDy.s:2745   .debug_str:0000000000000658 .LASF126
     /tmp/cczYiKDy.s:2561   .debug_str:000000000000017c .LASF54
     /tmp/cczYiKDy.s:2721   .debug_str:00000000000005af .LASF55
     /tmp/cczYiKDy.s:2743   .debug_str:0000000000000653 .LASF56
     /tmp/cczYiKDy.s:2771   .debug_str:00000000000007d1 .LASF57
     /tmp/cczYiKDy.s:2565   .debug_str:000000000000018a .LASF58
     /tmp/cczYiKDy.s:2793   .debug_str:0000000000000865 .LASF59
     /tmp/cczYiKDy.s:2593   .debug_str:0000000000000253 .LASF61
     /tmp/cczYiKDy.s:2597   .debug_str:0000000000000270 .LASF63
     /tmp/cczYiKDy.s:2713   .debug_str:0000000000000577 .LASF64
     /tmp/cczYiKDy.s:2575   .debug_str:00000000000001c8 .LASF65
     /tmp/cczYiKDy.s:2601   .debug_str:0000000000000295 .LASF66
     /tmp/cczYiKDy.s:2803   .debug_str:0000000000000896 .LASF67
     /tmp/cczYiKDy.s:2779   .debug_str:0000000000000809 .LASF68
     /tmp/cczYiKDy.s:2773   .debug_str:00000000000007d9 .LASF69
     /tmp/cczYiKDy.s:2691   .debug_str:00000000000004e4 .LASF70
     /tmp/cczYiKDy.s:2663   .debug_str:0000000000000408 .LASF74
     /tmp/cczYiKDy.s:2677   .debug_str:0000000000000468 .LASF71
     /tmp/cczYiKDy.s:2681   .debug_str:0000000000000488 .LASF72
     /tmp/cczYiKDy.s:2655   .debug_str:00000000000003e1 .LASF73
     /tmp/cczYiKDy.s:2623   .debug_str:0000000000000317 .LASF75
     /tmp/cczYiKDy.s:2649   .debug_str:00000000000003cc .LASF76
     /tmp/cczYiKDy.s:2763   .debug_str:0000000000000778 .LASF77
     /tmp/cczYiKDy.s:2651   .debug_str:00000000000003d4 .LASF78
     /tmp/cczYiKDy.s:2661   .debug_str:00000000000003f4 .LASF79
     /tmp/cczYiKDy.s:2631   .debug_str:000000000000034b .LASF80
     /tmp/cczYiKDy.s:2683   .debug_str:000000000000049b .LASF81
     /tmp/cczYiKDy.s:2821   .debug_str:0000000000000937 .LASF82
     /tmp/cczYiKDy.s:2605   .debug_str:00000000000002a8 .LASF83
     /tmp/cczYiKDy.s:2557   .debug_str:0000000000000163 .LASF84
     /tmp/cczYiKDy.s:2707   .debug_str:0000000000000547 .LASF85
     /tmp/cczYiKDy.s:2709   .debug_str:000000000000055a .LASF86
     /tmp/cczYiKDy.s:2571   .debug_str:000000000000019f .LASF87
     /tmp/cczYiKDy.s:2567   .debug_str:0000000000000190 .LASF88
     /tmp/cczYiKDy.s:2595   .debug_str:000000000000025e .LASF89
     /tmp/cczYiKDy.s:2603   .debug_str:00000000000002a2 .LASF90
     /tmp/cczYiKDy.s:2559   .debug_str:000000000000016a .LASF91
     /tmp/cczYiKDy.s:2519   .debug_str:0000000000000018 .LASF92
     /tmp/cczYiKDy.s:2699   .debug_str:0000000000000510 .LASF93
     /tmp/cczYiKDy.s:2693   .debug_str:00000000000004ed .LASF94
     /tmp/cczYiKDy.s:2819   .debug_str:000000000000091f .LASF95
     /tmp/cczYiKDy.s:2795   .debug_str:000000000000086b .LASF96
     /tmp/cczYiKDy.s:2807   .debug_str:00000000000008c3 .LASF97
     /tmp/cczYiKDy.s:2791   .debug_str:000000000000085b .LASF98
     /tmp/cczYiKDy.s:2641   .debug_str:000000000000037f .LASF99
     /tmp/cczYiKDy.s:2725   .debug_str:00000000000005ba .LASF100
     /tmp/cczYiKDy.s:2633   .debug_str:0000000000000353 .LASF101
     /tmp/cczYiKDy.s:2581   .debug_str:00000000000001f7 .LASF102
     /tmp/cczYiKDy.s:2759   .debug_str:0000000000000755 .LASF103
GAS LISTING /tmp/cczYiKDy.s 			page 15


     /tmp/cczYiKDy.s:2775   .debug_str:00000000000007ee .LASF104
     /tmp/cczYiKDy.s:2589   .debug_str:0000000000000229 .LASF105
     /tmp/cczYiKDy.s:2797   .debug_str:0000000000000875 .LASF106
     /tmp/cczYiKDy.s:2667   .debug_str:0000000000000422 .LASF107
     /tmp/cczYiKDy.s:2613   .debug_str:00000000000002e4 .LASF108
     /tmp/cczYiKDy.s:2739   .debug_str:0000000000000636 .LASF109
     /tmp/cczYiKDy.s:2799   .debug_str:000000000000087a .LASF110
     /tmp/cczYiKDy.s:2611   .debug_str:00000000000002d3 .LASF111
     /tmp/cczYiKDy.s:2615   .debug_str:00000000000002e9 .LASF112
     /tmp/cczYiKDy.s:2673   .debug_str:0000000000000444 .LASF113
     /tmp/cczYiKDy.s:2659   .debug_str:00000000000003ef .LASF114
     /tmp/cczYiKDy.s:2535   .debug_str:00000000000000bc .LASF115
     /tmp/cczYiKDy.s:2617   .debug_str:00000000000002ee .LASF116
     /tmp/cczYiKDy.s:2619   .debug_str:00000000000002f3 .LASF117
     /tmp/cczYiKDy.s:2669   .debug_str:0000000000000433 .LASF118
     /tmp/cczYiKDy.s:2587   .debug_str:0000000000000218 .LASF119
     /tmp/cczYiKDy.s:2769   .debug_str:00000000000007cc .LASF120
     /tmp/cczYiKDy.s:2543   .debug_str:00000000000000f6 .LASF121
     /tmp/cczYiKDy.s:2783   .debug_str:0000000000000817 .LASF122
     /tmp/cczYiKDy.s:2809   .debug_str:00000000000008d9 .LASF123
     /tmp/cczYiKDy.s:2815   .debug_str:0000000000000907 .LASF125
     /tmp/cczYiKDy.s:2679   .debug_str:000000000000046f .LASF127
     /tmp/cczYiKDy.s:2569   .debug_str:0000000000000196 .LASF128
     /tmp/cczYiKDy.s:2637   .debug_str:000000000000036e .LASF129
     /tmp/cczYiKDy.s:2531   .debug_str:00000000000000a2 .LASF154
     /tmp/cczYiKDy.s:10     .text:0000000000000000 .LFB57
     /tmp/cczYiKDy.s:48     .text:0000000000000044 .LFE57
     /tmp/cczYiKDy.s:25     .text:0000000000000018 .LVL0
     /tmp/cczYiKDy.s:37     .text:0000000000000034 .LVL2
     /tmp/cczYiKDy.s:278    .text:000000000000016c .LFB56
     /tmp/cczYiKDy.s:323    .text:00000000000001bc .LFE56
     /tmp/cczYiKDy.s:304    .text:00000000000001a0 .LVL20
     /tmp/cczYiKDy.s:254    .text:0000000000000154 .LFB55
     /tmp/cczYiKDy.s:272    .text:000000000000016c .LFE55
     /tmp/cczYiKDy.s:2579   .debug_str:00000000000001f2 .LASF130
     /tmp/cczYiKDy.s:167    .text:00000000000000cc .LFB54
     /tmp/cczYiKDy.s:248    .text:0000000000000154 .LFE54
     /tmp/cczYiKDy.s:2445   .debug_loc:0000000000000000 .LLST2
     /tmp/cczYiKDy.s:189    .text:00000000000000f0 .LBB8
     /tmp/cczYiKDy.s:197    .text:00000000000000f4 .LBE8
     /tmp/cczYiKDy.s:2456   .debug_loc:0000000000000036 .LLST3
     /tmp/cczYiKDy.s:183    .text:00000000000000e8 .LVL10
     /tmp/cczYiKDy.s:205    .text:0000000000000104 .LVL13
     /tmp/cczYiKDy.s:217    .text:0000000000000124 .LVL14
     /tmp/cczYiKDy.s:221    .text:000000000000012c .LVL15
     /tmp/cczYiKDy.s:245    .text:0000000000000150 .LVL18
     /tmp/cczYiKDy.s:2515   .debug_str:0000000000000007 .LASF131
     /tmp/cczYiKDy.s:2555   .debug_str:0000000000000157 .LASF132
     /tmp/cczYiKDy.s:116    .text:0000000000000090 .LFB52
     /tmp/cczYiKDy.s:159    .text:00000000000000cc .LFE52
     /tmp/cczYiKDy.s:2463   .debug_loc:0000000000000059 .LLST1
     /tmp/cczYiKDy.s:145    .text:00000000000000b8 .LVL9
     /tmp/cczYiKDy.s:2787   .debug_str:0000000000000827 .LASF133
     /tmp/cczYiKDy.s:54     .text:0000000000000044 .LFB49
     /tmp/cczYiKDy.s:108    .text:0000000000000090 .LFE49
     /tmp/cczYiKDy.s:2477   .debug_loc:0000000000000092 .LLST0
     /tmp/cczYiKDy.s:2731   .debug_str:00000000000005ea .LASF134
GAS LISTING /tmp/cczYiKDy.s 			page 16


     /tmp/cczYiKDy.s:2639   .debug_str:0000000000000373 .LASF136
     /tmp/cczYiKDy.s:2523   .debug_str:000000000000003b .LASF135
     /tmp/cczYiKDy.s:2687   .debug_str:00000000000004b8 .LASF137
     /tmp/cczYiKDy.s:2657   .debug_str:00000000000003e8 .LASF155
     /tmp/cczYiKDy.s:2727   .debug_str:00000000000005c1 .LASF156
     /tmp/cczYiKDy.s:187    .text:00000000000000f0 .LVL11
     /tmp/cczYiKDy.s:231    .text:0000000000000138 .LVL16
     /tmp/cczYiKDy.s:235    .text:0000000000000140 .LVL17
     /tmp/cczYiKDy.s:195    .text:00000000000000f4 .LVL12
     /tmp/cczYiKDy.s:119    .text:0000000000000090 .LVL7
     /tmp/cczYiKDy.s:129    .text:000000000000009c .LVL8
     /tmp/cczYiKDy.s:57     .text:0000000000000044 .LVL3
     /tmp/cczYiKDy.s:77     .text:0000000000000064 .LVL4
     /tmp/cczYiKDy.s:98     .text:0000000000000088 .LVL5
     /tmp/cczYiKDy.s:104    .text:000000000000008c .LVL6
     /tmp/cczYiKDy.s:341    .debug_info:0000000000000000 .Ldebug_info0

UNDEFINED SYMBOLS
_ZN5Riscv10popSppSpieEv
_Z11thread_exitv
_ZdaPv
_ZN5Riscv13pushRegistersEv
_ZN9Scheduler3getEv
_ZN3PCB13contextSwitchEPNS_7ContextES1_
_ZN5Riscv12popRegistersEv
_ZN9Scheduler3putEP3PCB
_Z15thread_dispatchv
