GAS LISTING /tmp/ccn7k0oC.s 			page 1


   1              		.file	"print.cpp"
   2              		.option pic
   3              		.option norelax
   4              		.text
   5              	.Ltext0:
   6              		.align	2
   7              		.globl	_Z4putcc
   9              	_Z4putcc:
  10              	.LFB0:
  11              		.file 1 "src/print.cpp"
   1:src/print.cpp **** #include "../h/print.hpp"
   2:src/print.cpp **** 
   3:src/print.cpp **** //void printString(char const *string)
   4:src/print.cpp **** //{
   5:src/print.cpp **** //    while (*string != '\0')
   6:src/print.cpp **** //    {
   7:src/print.cpp **** //        __putc(*string);
   8:src/print.cpp **** //        string++;
   9:src/print.cpp **** //    }
  10:src/print.cpp **** //}
  11:src/print.cpp **** //
  12:src/print.cpp **** //void printInteger(uint64 integer)
  13:src/print.cpp **** //{
  14:src/print.cpp **** //    static char digits[] = "0123456789";
  15:src/print.cpp **** //    char buf[16];
  16:src/print.cpp **** //    int i, neg;
  17:src/print.cpp **** //    uint x;
  18:src/print.cpp **** //
  19:src/print.cpp **** //    neg = 0;
  20:src/print.cpp **** //    if (integer < 0)
  21:src/print.cpp **** //    {
  22:src/print.cpp **** //        neg = 1;
  23:src/print.cpp **** //        x = -integer;
  24:src/print.cpp **** //    } else
  25:src/print.cpp **** //    {
  26:src/print.cpp **** //        x = integer;
  27:src/print.cpp **** //    }
  28:src/print.cpp **** //
  29:src/print.cpp **** //    i = 0;
  30:src/print.cpp **** //    do
  31:src/print.cpp **** //    {
  32:src/print.cpp **** //        buf[i++] = digits[x % 10];
  33:src/print.cpp **** //    } while ((x /= 10) != 0);
  34:src/print.cpp **** //    if (neg)
  35:src/print.cpp **** //        buf[i++] = '-';
  36:src/print.cpp **** //
  37:src/print.cpp **** //    while (--i >= 0)
  38:src/print.cpp **** //        __putc(buf[i]);
  39:src/print.cpp **** //}
  40:src/print.cpp **** 
  41:src/print.cpp **** void putc(char c){
  12              		.loc 1 41 18
  13              		.cfi_startproc
  14              	.LVL0:
  15 0000 130101FF 		addi	sp,sp,-16
  16              		.cfi_def_cfa_offset 16
  17 0004 23341100 		sd	ra,8(sp)
GAS LISTING /tmp/ccn7k0oC.s 			page 2


  18 0008 23308100 		sd	s0,0(sp)
  19              		.cfi_offset 1, -8
  20              		.cfi_offset 8, -16
  21 000c 13040101 		addi	s0,sp,16
  22              		.cfi_def_cfa 8, 0
  42:src/print.cpp ****     __putc(c);
  23              		.loc 1 42 5
  24              		.loc 1 42 11 is_stmt 0
  25 0010 97000000 		call	__putc@plt
  25      E7800000 
  26              	.LVL1:
  43:src/print.cpp **** }
  27              		.loc 1 43 1
  28 0018 83308100 		ld	ra,8(sp)
  29              		.cfi_restore 1
  30 001c 03340100 		ld	s0,0(sp)
  31              		.cfi_restore 8
  32              		.cfi_def_cfa 2, 16
  33 0020 13010101 		addi	sp,sp,16
  34              		.cfi_def_cfa_offset 0
  35 0024 67800000 		jr	ra
  36              		.cfi_endproc
  37              	.LFE0:
  39              		.align	2
  40              		.globl	_Z4getcv
  42              	_Z4getcv:
  43              	.LFB1:
  44:src/print.cpp **** 
  45:src/print.cpp **** char getc(){
  44              		.loc 1 45 12 is_stmt 1
  45              		.cfi_startproc
  46 0028 130101FF 		addi	sp,sp,-16
  47              		.cfi_def_cfa_offset 16
  48 002c 23341100 		sd	ra,8(sp)
  49 0030 23308100 		sd	s0,0(sp)
  50              		.cfi_offset 1, -8
  51              		.cfi_offset 8, -16
  52 0034 13040101 		addi	s0,sp,16
  53              		.cfi_def_cfa 8, 0
  46:src/print.cpp ****     return __getc();
  54              		.loc 1 46 5
  55              		.loc 1 46 18 is_stmt 0
  56 0038 97000000 		call	__getc@plt
  56      E7800000 
  57              	.LVL2:
  47:src/print.cpp **** }...
  58              		.loc 1 47 1
  59 0040 83308100 		ld	ra,8(sp)
  60              		.cfi_restore 1
  61 0044 03340100 		ld	s0,0(sp)
  62              		.cfi_restore 8
  63              		.cfi_def_cfa 2, 16
  64 0048 13010101 		addi	sp,sp,16
  65              		.cfi_def_cfa_offset 0
  66 004c 67800000 		jr	ra
  67              		.cfi_endproc
  68              	.LFE1:
GAS LISTING /tmp/ccn7k0oC.s 			page 3


  70              	.Letext0:
  71              		.file 2 "src/../h/../lib/hw.h"
  72              		.file 3 "src/../h/../lib/console.h"
GAS LISTING /tmp/ccn7k0oC.s 			page 4

