GAS LISTING /tmp/ccdpn9Gh.s 			page 1


   1              		.file	"riscv.cpp"
   2              		.option pic
   3              		.option norelax
   4              		.text
   5              	.Ltext0:
   6              		.align	2
   7              		.globl	_ZN5Riscv10popSppSpieEv
   9              	_ZN5Riscv10popSppSpieEv:
  10              	.LFB48:
  11              		.file 1 "src/riscv.cpp"
   1:src/riscv.cpp **** #include "../h/riscv.hpp"
   2:src/riscv.cpp **** 
   3:src/riscv.cpp **** 
   4:src/riscv.cpp **** 
   5:src/riscv.cpp **** void Riscv::popSppSpie()
   6:src/riscv.cpp **** {
  12              		.loc 1 6 1
  13              		.cfi_startproc
  14 0000 130101FF 		addi	sp,sp,-16
  15              		.cfi_def_cfa_offset 16
  16 0004 23348100 		sd	s0,8(sp)
  17              		.cfi_offset 8, -8
  18 0008 13040101 		addi	s0,sp,16
  19              		.cfi_def_cfa 8, 0
   7:src/riscv.cpp ****     __asm__ volatile ("csrw sepc, ra");
  20              		.loc 1 7 5
  21              		.loc 1 7 39 is_stmt 0
  22              	#APP
  23              	# 7 "src/riscv.cpp" 1
   8              	    __asm__ volatile ("sret");
  24              		csrw sepc, ra
  25              	# 0 "" 2
  26              		.loc 1 8 5 is_stmt 1
  27              		.loc 1 8 30 is_stmt 0
  28              	# 8 "src/riscv.cpp" 1
   9              	}
  29              		sret
  30              	# 0 "" 2
  31              		.loc 1 9 1
  32              	#NO_APP
  33 0014 03348100 		ld	s0,8(sp)
  34              		.cfi_restore 8
  35              		.cfi_def_cfa 2, 16
  36 0018 13010101 		addi	sp,sp,16
  37              		.cfi_def_cfa_offset 0
  38 001c 67800000 		jr	ra
  39              		.cfi_endproc
  40              	.LFE48:
  42              		.align	2
  43              		.globl	_ZN5Riscv11trapHandlerEv
  45              	_ZN5Riscv11trapHandlerEv:
  46              	.LFB49:
  10:src/riscv.cpp **** 
  11:src/riscv.cpp **** void Riscv::trapHandler() {
  47              		.loc 1 11 27 is_stmt 1
  48              		.cfi_startproc
  49 0020 130101FB 		addi	sp,sp,-80
GAS LISTING /tmp/ccdpn9Gh.s 			page 2


  50              		.cfi_def_cfa_offset 80
  51 0024 23341104 		sd	ra,72(sp)
  52 0028 23308104 		sd	s0,64(sp)
  53 002c 233C9102 		sd	s1,56(sp)
  54 0030 23382103 		sd	s2,48(sp)
  55              		.cfi_offset 1, -8
  56              		.cfi_offset 8, -16
  57              		.cfi_offset 9, -24
  58              		.cfi_offset 18, -32
  59 0034 13040105 		addi	s0,sp,80
  60              		.cfi_def_cfa 8, 0
  12:src/riscv.cpp ****     uint64 scause = r_scause();
  61              		.loc 1 12 5
  62              	.LBB38:
  63              	.LBB39:
  64              		.file 2 "src/../h/riscv.hpp"
   1:src/../h/riscv.hpp **** #ifndef PROJECT_BASE_V1_1_RISCV_HPP
   2:src/../h/riscv.hpp **** #define PROJECT_BASE_V1_1_RISCV_HPP
   3:src/../h/riscv.hpp **** 
   4:src/../h/riscv.hpp **** 
   5:src/../h/riscv.hpp **** #include "../h/MemoryAllocator.hpp"
   6:src/../h/riscv.hpp **** #include "PCB.hpp"
   7:src/../h/riscv.hpp **** 
   8:src/../h/riscv.hpp **** 
   9:src/../h/riscv.hpp **** #define readUsrReg(reg, dst) __asm__ volatile("mv %0,"#reg : "=r" (dst));
  10:src/../h/riscv.hpp **** #define writeUsrReg(reg, src) __asm__ volatile("mv "#reg", %0" : : "r" (src));
  11:src/../h/riscv.hpp **** 
  12:src/../h/riscv.hpp **** 
  13:src/../h/riscv.hpp **** class Riscv
  14:src/../h/riscv.hpp **** {
  15:src/../h/riscv.hpp **** public:
  16:src/../h/riscv.hpp **** 
  17:src/../h/riscv.hpp **** 
  18:src/../h/riscv.hpp **** 
  19:src/../h/riscv.hpp ****     // pop sstatus.spp and sstatus.spie bits (has to be a non inline function)
  20:src/../h/riscv.hpp ****     static void popSppSpie();
  21:src/../h/riscv.hpp **** 
  22:src/../h/riscv.hpp ****     // push x3..x31 registers onto stack
  23:src/../h/riscv.hpp ****     static void pushRegisters();
  24:src/../h/riscv.hpp **** 
  25:src/../h/riscv.hpp ****     // pop x3..x31 registers onto stack
  26:src/../h/riscv.hpp ****     static void popRegisters();
  27:src/../h/riscv.hpp **** 
  28:src/../h/riscv.hpp ****     // read register scause
  29:src/../h/riscv.hpp ****     static uint64 r_scause();
  30:src/../h/riscv.hpp **** 
  31:src/../h/riscv.hpp ****     // write register scause
  32:src/../h/riscv.hpp ****     static void w_scause(uint64 scause);
  33:src/../h/riscv.hpp **** 
  34:src/../h/riscv.hpp ****     // read register sepc
  35:src/../h/riscv.hpp ****     static uint64 r_sepc();
  36:src/../h/riscv.hpp **** 
  37:src/../h/riscv.hpp ****     // write register sepc
  38:src/../h/riscv.hpp ****     static void w_sepc(uint64 sepc);
  39:src/../h/riscv.hpp **** 
  40:src/../h/riscv.hpp ****     // read register stvec
  41:src/../h/riscv.hpp ****     static uint64 r_stvec();
GAS LISTING /tmp/ccdpn9Gh.s 			page 3


  42:src/../h/riscv.hpp **** 
  43:src/../h/riscv.hpp ****     // write register stvec
  44:src/../h/riscv.hpp ****     static void w_stvec(uint64 stvec);
  45:src/../h/riscv.hpp **** 
  46:src/../h/riscv.hpp ****     // read register stval
  47:src/../h/riscv.hpp ****     static uint64 r_stval();
  48:src/../h/riscv.hpp **** 
  49:src/../h/riscv.hpp ****     // write register stval
  50:src/../h/riscv.hpp ****     static void w_stval(uint64 stval);
  51:src/../h/riscv.hpp **** 
  52:src/../h/riscv.hpp ****     enum BitMaskSip
  53:src/../h/riscv.hpp ****     {
  54:src/../h/riscv.hpp **** //        SIP_SSIE = (1 << 1),
  55:src/../h/riscv.hpp **** //        SIP_STIE = (1 << 5),
  56:src/../h/riscv.hpp **** //        SIP_SEIE = (1 << 9),
  57:src/../h/riscv.hpp ****         SIP_SSIP = (1<<1),
  58:src/../h/riscv.hpp ****         SIP_SEIP = (1<<9)
  59:src/../h/riscv.hpp ****     };
  60:src/../h/riscv.hpp **** 
  61:src/../h/riscv.hpp ****     // mask set register sip
  62:src/../h/riscv.hpp ****     static void ms_sip(uint64 mask);
  63:src/../h/riscv.hpp **** 
  64:src/../h/riscv.hpp ****     // mask clear register sip
  65:src/../h/riscv.hpp ****     static void mc_sip(uint64 mask);
  66:src/../h/riscv.hpp **** 
  67:src/../h/riscv.hpp ****     // read register sip
  68:src/../h/riscv.hpp ****     static uint64 r_sip();
  69:src/../h/riscv.hpp **** 
  70:src/../h/riscv.hpp ****     // write register sip
  71:src/../h/riscv.hpp ****     static void w_sip(uint64 sip);
  72:src/../h/riscv.hpp **** 
  73:src/../h/riscv.hpp ****     enum BitMaskSstatus
  74:src/../h/riscv.hpp ****     {
  75:src/../h/riscv.hpp ****         SSTATUS_SIE = (1 << 1),
  76:src/../h/riscv.hpp ****         SSTATUS_SPIE = (1 << 5),
  77:src/../h/riscv.hpp ****         SSTATUS_SPP = (1 << 8),
  78:src/../h/riscv.hpp ****     };
  79:src/../h/riscv.hpp **** 
  80:src/../h/riscv.hpp ****     // mask set register sstatus
  81:src/../h/riscv.hpp ****     static void ms_sstatus(uint64 mask);
  82:src/../h/riscv.hpp **** 
  83:src/../h/riscv.hpp ****     // mask clear register sstatus
  84:src/../h/riscv.hpp ****     static void mc_sstatus(uint64 mask);
  85:src/../h/riscv.hpp **** 
  86:src/../h/riscv.hpp ****     // read register sstatus
  87:src/../h/riscv.hpp ****     static uint64 r_sstatus();
  88:src/../h/riscv.hpp **** 
  89:src/../h/riscv.hpp ****     // write register sstatus
  90:src/../h/riscv.hpp ****     static void w_sstatus(uint64 sstatus);
  91:src/../h/riscv.hpp **** 
  92:src/../h/riscv.hpp ****     // mask set register sie
  93:src/../h/riscv.hpp ****     static void ms_sie(uint64 mask);
  94:src/../h/riscv.hpp **** 
  95:src/../h/riscv.hpp ****     // mask clear register sie
  96:src/../h/riscv.hpp ****     static void mc_sie(uint64 mask);
  97:src/../h/riscv.hpp **** 
  98:src/../h/riscv.hpp ****     static void supervisorTrap();
GAS LISTING /tmp/ccdpn9Gh.s 			page 4


  99:src/../h/riscv.hpp **** 
 100:src/../h/riscv.hpp ****     static long r_a0();
 101:src/../h/riscv.hpp **** 
 102:src/../h/riscv.hpp ****     static void w_a0(long a0);
 103:src/../h/riscv.hpp **** 
 104:src/../h/riscv.hpp ****     static uint64 r_a1();
 105:src/../h/riscv.hpp **** 
 106:src/../h/riscv.hpp ****     static void w_a1(uint64 a1);
 107:src/../h/riscv.hpp **** 
 108:src/../h/riscv.hpp ****     static uint64 r_a2();
 109:src/../h/riscv.hpp **** 
 110:src/../h/riscv.hpp ****     static void w_a2(uint64 a1);
 111:src/../h/riscv.hpp **** 
 112:src/../h/riscv.hpp ****     static uint64 r_a3();
 113:src/../h/riscv.hpp **** 
 114:src/../h/riscv.hpp ****     static void w_a3(uint64 a1);
 115:src/../h/riscv.hpp **** 
 116:src/../h/riscv.hpp ****     static void push_a0(long a0);
 117:src/../h/riscv.hpp **** 
 118:src/../h/riscv.hpp **** private:
 119:src/../h/riscv.hpp ****     static void trapHandler();
 120:src/../h/riscv.hpp **** 
 121:src/../h/riscv.hpp **** 
 122:src/../h/riscv.hpp **** };
 123:src/../h/riscv.hpp **** 
 124:src/../h/riscv.hpp **** inline uint64 Riscv::r_scause()
 125:src/../h/riscv.hpp **** {
 126:src/../h/riscv.hpp ****     uint64 volatile scause;
  65              		.loc 2 126 5
 127:src/../h/riscv.hpp ****     __asm__ volatile ("csrr %[scause], scause" : [scause] "=r"(scause));
  66              		.loc 2 127 5
  67              		.loc 2 127 72 is_stmt 0
  68              	#APP
  69              	# 127 "src/../h/riscv.hpp" 1
 128              	    return scause;
  70              		csrr a5, scause
  71              	# 0 "" 2
  72              	#NO_APP
  73 003c 2334F4FC 		sd	a5,-56(s0)
  74              		.loc 2 128 5 is_stmt 1
  75              		.loc 2 128 12 is_stmt 0
  76 0040 833784FC 		ld	a5,-56(s0)
  77              	.LVL0:
  78              	.LBE39:
  79              	.LBE38:
  13:src/riscv.cpp ****     uint64 a0 = r_a0();
  80              		.loc 1 13 5 is_stmt 1
  81              	.LBB40:
  82              	.LBB41:
 129:src/../h/riscv.hpp **** }
 130:src/../h/riscv.hpp **** 
 131:src/../h/riscv.hpp **** inline void Riscv::w_scause(uint64 scause)
 132:src/../h/riscv.hpp **** {
 133:src/../h/riscv.hpp ****     __asm__ volatile ("csrw scause, %[scause]" : : [scause] "r"(scause));
 134:src/../h/riscv.hpp **** }
 135:src/../h/riscv.hpp **** 
 136:src/../h/riscv.hpp **** inline uint64 Riscv::r_sepc()
GAS LISTING /tmp/ccdpn9Gh.s 			page 5


 137:src/../h/riscv.hpp **** {
 138:src/../h/riscv.hpp ****     uint64 volatile sepc;
 139:src/../h/riscv.hpp ****     __asm__ volatile ("csrr %[sepc], sepc" : [sepc] "=r"(sepc));
 140:src/../h/riscv.hpp ****     return sepc;
 141:src/../h/riscv.hpp **** }
 142:src/../h/riscv.hpp **** 
 143:src/../h/riscv.hpp **** inline void Riscv::w_sepc(uint64 sepc)
 144:src/../h/riscv.hpp **** {
 145:src/../h/riscv.hpp ****     __asm__ volatile ("csrw sepc, %[sepc]" : : [sepc] "r"(sepc));
 146:src/../h/riscv.hpp **** }
 147:src/../h/riscv.hpp **** 
 148:src/../h/riscv.hpp **** inline uint64 Riscv::r_stvec()
 149:src/../h/riscv.hpp **** {
 150:src/../h/riscv.hpp ****     uint64 volatile stvec;
 151:src/../h/riscv.hpp ****     __asm__ volatile ("csrr %[stvec], stvec" : [stvec] "=r"(stvec));
 152:src/../h/riscv.hpp ****     return stvec;
 153:src/../h/riscv.hpp **** }
 154:src/../h/riscv.hpp **** 
 155:src/../h/riscv.hpp **** inline void Riscv::w_stvec(uint64 stvec)
 156:src/../h/riscv.hpp **** {
 157:src/../h/riscv.hpp ****     __asm__ volatile ("csrw stvec, %[stvec]" : : [stvec] "r"(stvec));
 158:src/../h/riscv.hpp **** }
 159:src/../h/riscv.hpp **** 
 160:src/../h/riscv.hpp **** inline uint64 Riscv::r_stval()
 161:src/../h/riscv.hpp **** {
 162:src/../h/riscv.hpp ****     uint64 volatile stval;
 163:src/../h/riscv.hpp ****     __asm__ volatile ("csrr %[stval], stval" : [stval] "=r"(stval));
 164:src/../h/riscv.hpp ****     return stval;
 165:src/../h/riscv.hpp **** }
 166:src/../h/riscv.hpp **** 
 167:src/../h/riscv.hpp **** inline void Riscv::w_stval(uint64 stval)
 168:src/../h/riscv.hpp **** {
 169:src/../h/riscv.hpp ****     __asm__ volatile ("csrw stval, %[stval]" : : [stval] "r"(stval));
 170:src/../h/riscv.hpp **** }
 171:src/../h/riscv.hpp **** 
 172:src/../h/riscv.hpp **** inline void Riscv::ms_sip(uint64 mask)
 173:src/../h/riscv.hpp **** {
 174:src/../h/riscv.hpp ****     __asm__ volatile ("csrs sip, %[mask]" : : [mask] "r"(mask));
 175:src/../h/riscv.hpp **** }
 176:src/../h/riscv.hpp **** 
 177:src/../h/riscv.hpp **** inline void Riscv::mc_sip(uint64 mask)
 178:src/../h/riscv.hpp **** {
 179:src/../h/riscv.hpp ****     __asm__ volatile ("csrc sip, %[mask]" : : [mask] "r"(mask));
 180:src/../h/riscv.hpp **** }
 181:src/../h/riscv.hpp **** 
 182:src/../h/riscv.hpp **** inline uint64 Riscv::r_sip()
 183:src/../h/riscv.hpp **** {
 184:src/../h/riscv.hpp ****     uint64 volatile sip;
 185:src/../h/riscv.hpp ****     __asm__ volatile ("csrr %[sip], sip" : [sip] "=r"(sip));
 186:src/../h/riscv.hpp ****     return sip;
 187:src/../h/riscv.hpp **** }
 188:src/../h/riscv.hpp **** 
 189:src/../h/riscv.hpp **** inline void Riscv::w_sip(uint64 sip)
 190:src/../h/riscv.hpp **** {
 191:src/../h/riscv.hpp ****     __asm__ volatile ("csrw sip, %[sip]" : : [sip] "r"(sip));
 192:src/../h/riscv.hpp **** }
 193:src/../h/riscv.hpp **** 
GAS LISTING /tmp/ccdpn9Gh.s 			page 6


 194:src/../h/riscv.hpp **** inline void Riscv::ms_sstatus(uint64 mask)
 195:src/../h/riscv.hpp **** {
 196:src/../h/riscv.hpp ****     __asm__ volatile ("csrs sstatus, %[mask]" : : [mask] "r"(mask));
 197:src/../h/riscv.hpp **** }
 198:src/../h/riscv.hpp **** 
 199:src/../h/riscv.hpp **** inline void Riscv::mc_sstatus(uint64 mask)
 200:src/../h/riscv.hpp **** {
 201:src/../h/riscv.hpp ****     __asm__ volatile ("csrc sstatus, %[mask]" : : [mask] "r"(mask));
 202:src/../h/riscv.hpp **** }
 203:src/../h/riscv.hpp **** 
 204:src/../h/riscv.hpp **** inline uint64 Riscv::r_sstatus()
 205:src/../h/riscv.hpp **** {
 206:src/../h/riscv.hpp ****     uint64 volatile sstatus;
 207:src/../h/riscv.hpp ****     __asm__ volatile ("csrr %[sstatus], sstatus" : [sstatus] "=r"(sstatus));
 208:src/../h/riscv.hpp ****     return sstatus;
 209:src/../h/riscv.hpp **** }
 210:src/../h/riscv.hpp **** 
 211:src/../h/riscv.hpp **** inline void Riscv::w_sstatus(uint64 sstatus)
 212:src/../h/riscv.hpp **** {
 213:src/../h/riscv.hpp ****     __asm__ volatile ("csrw sstatus, %[sstatus]" : : [sstatus] "r"(sstatus));
 214:src/../h/riscv.hpp **** }
 215:src/../h/riscv.hpp **** 
 216:src/../h/riscv.hpp **** inline void Riscv::ms_sie(uint64 mask)
 217:src/../h/riscv.hpp **** {
 218:src/../h/riscv.hpp ****     __asm__ volatile ("csrs sie, %[mask]" : : [mask] "r"(mask));
 219:src/../h/riscv.hpp **** }
 220:src/../h/riscv.hpp **** 
 221:src/../h/riscv.hpp **** inline void Riscv::mc_sie(uint64 mask)
 222:src/../h/riscv.hpp **** {
 223:src/../h/riscv.hpp ****     __asm__ volatile ("csrc sie, %[mask]" : : [mask] "r"(mask));
 224:src/../h/riscv.hpp **** }
 225:src/../h/riscv.hpp **** 
 226:src/../h/riscv.hpp **** inline long Riscv::r_a0() {
 227:src/../h/riscv.hpp ****     long volatile a0;
  83              		.loc 2 227 5
 228:src/../h/riscv.hpp ****     __asm__ volatile ("ld %0, 10*8(fp)" : "=r"(a0));
  84              		.loc 2 228 5
  85              		.loc 2 228 52 is_stmt 0
  86              	#APP
  87              	# 228 "src/../h/riscv.hpp" 1
 229              	    return a0;
  88              		ld a4, 10*8(fp)
  89              	# 0 "" 2
  90              	#NO_APP
  91 0048 2330E4FC 		sd	a4,-64(s0)
  92              		.loc 2 229 5 is_stmt 1
  93              		.loc 2 229 12 is_stmt 0
  94 004c 833604FC 		ld	a3,-64(s0)
  95              	.LVL1:
  96              	.LBE41:
  97              	.LBE40:
  14:src/riscv.cpp ****     uint64 a1 = r_a1();
  98              		.loc 1 14 5 is_stmt 1
  99              	.LBB42:
 100              	.LBB43:
 230:src/../h/riscv.hpp **** }
 231:src/../h/riscv.hpp **** 
GAS LISTING /tmp/ccdpn9Gh.s 			page 7


 232:src/../h/riscv.hpp **** inline void Riscv::w_a0(long a0) {
 233:src/../h/riscv.hpp ****     __asm__ volatile ("mv a0, %0" : : "r"(a0));
 234:src/../h/riscv.hpp **** }
 235:src/../h/riscv.hpp **** 
 236:src/../h/riscv.hpp **** inline uint64 Riscv::r_a1() {
 237:src/../h/riscv.hpp ****     uint64 volatile a1;
 101              		.loc 2 237 5
 238:src/../h/riscv.hpp ****     __asm__ volatile ("ld %0, 11*8(fp)" : "=r"(a1));
 102              		.loc 2 238 5
 103              		.loc 2 238 52 is_stmt 0
 104              	#APP
 105              	# 238 "src/../h/riscv.hpp" 1
 239              	    return a1;
 106              		ld a4, 11*8(fp)
 107              	# 0 "" 2
 108              	#NO_APP
 109 0054 233CE4FA 		sd	a4,-72(s0)
 110              		.loc 2 239 5 is_stmt 1
 111              		.loc 2 239 12 is_stmt 0
 112 0058 033584FB 		ld	a0,-72(s0)
 113              	.LVL2:
 114              	.LBE43:
 115              	.LBE42:
  15:src/riscv.cpp ****     uint64 a2 = r_a2();
 116              		.loc 1 15 5 is_stmt 1
 117              	.LBB44:
 118              	.LBB45:
 240:src/../h/riscv.hpp **** }
 241:src/../h/riscv.hpp **** 
 242:src/../h/riscv.hpp **** inline void Riscv::w_a1(uint64 a1) {
 243:src/../h/riscv.hpp ****     __asm__ volatile ("mv a1, %0" : : "r"(a1));
 244:src/../h/riscv.hpp **** }
 245:src/../h/riscv.hpp **** 
 246:src/../h/riscv.hpp **** inline uint64 Riscv::r_a2() {
 247:src/../h/riscv.hpp ****     uint64 volatile a2;
 119              		.loc 2 247 5
 248:src/../h/riscv.hpp ****     __asm__ volatile ("ld %0, 12*8(fp)" : "=r"(a2));
 120              		.loc 2 248 5
 121              		.loc 2 248 52 is_stmt 0
 122              	#APP
 123              	# 248 "src/../h/riscv.hpp" 1
 249              	    return a2;
 124              		ld a4, 12*8(fp)
 125              	# 0 "" 2
 126              	#NO_APP
 127 0060 2338E4FA 		sd	a4,-80(s0)
 128              		.loc 2 249 5 is_stmt 1
 129              		.loc 2 249 12 is_stmt 0
 130 0064 833504FB 		ld	a1,-80(s0)
 131              	.LVL3:
 132              	.LBE45:
 133              	.LBE44:
  16:src/riscv.cpp ****     uint64 sepc;
 134              		.loc 1 16 5 is_stmt 1
  17:src/riscv.cpp ****     uint64 sstatus;
 135              		.loc 1 17 5
  18:src/riscv.cpp **** 
GAS LISTING /tmp/ccdpn9Gh.s 			page 8


  19:src/riscv.cpp ****     switch (scause) {
 136              		.loc 1 19 5
 137              	.LBB46:
 138 0068 1307F0FF 		li	a4,-1
 139 006c 1317F703 		slli	a4,a4,63
 140 0070 13071700 		addi	a4,a4,1
 141 0074 638AE710 		beq	a5,a4,.L4
 142 0078 1307F0FF 		li	a4,-1
 143 007c 1317F703 		slli	a4,a4,63
 144 0080 13071700 		addi	a4,a4,1
 145 0084 6368F704 		bgtu	a5,a4,.L5
 146 0088 938787FF 		addi	a5,a5,-8
 147              	.LVL4:
 148 008c 13071000 		li	a4,1
 149 0090 6366F708 		bgtu	a5,a4,.L3
 150              	.LBB47:
  20:src/riscv.cpp ****         case 0x08:
 151              		.loc 1 20 9
  21:src/riscv.cpp ****         case 0x09:
 152              		.loc 1 21 9
  22:src/riscv.cpp ****             //ecall: software interrupt
  23:src/riscv.cpp ****             sepc = r_sepc() + 4;
 153              		.loc 1 23 13
 154              	.LBB48:
 155              	.LBB49:
 138:src/../h/riscv.hpp ****     __asm__ volatile ("csrr %[sepc], sepc" : [sepc] "=r"(sepc));
 156              		.loc 2 138 5
 139:src/../h/riscv.hpp ****     return sepc;
 157              		.loc 2 139 5
 139:src/../h/riscv.hpp ****     return sepc;
 158              		.loc 2 139 64 is_stmt 0
 159              	#APP
 160              	# 139 "src/../h/riscv.hpp" 1
 161              		csrr a5, sepc
 162              	# 0 "" 2
 163              	.LVL5:
 164              	#NO_APP
 165 0098 233CF4FC 		sd	a5,-40(s0)
 140:src/../h/riscv.hpp **** }
 166              		.loc 2 140 5 is_stmt 1
 140:src/../h/riscv.hpp **** }
 167              		.loc 2 140 12 is_stmt 0
 168 009c 833484FD 		ld	s1,-40(s0)
 169              	.LBE49:
 170              	.LBE48:
 171              		.loc 1 23 18
 172 00a0 93844400 		addi	s1,s1,4
 173              	.LVL6:
  24:src/riscv.cpp ****             sstatus = r_sstatus();
 174              		.loc 1 24 13 is_stmt 1
 175              	.LBB50:
 176              	.LBB51:
 206:src/../h/riscv.hpp ****     __asm__ volatile ("csrr %[sstatus], sstatus" : [sstatus] "=r"(sstatus));
 177              		.loc 2 206 5
 207:src/../h/riscv.hpp ****     return sstatus;
 178              		.loc 2 207 5
 207:src/../h/riscv.hpp ****     return sstatus;
GAS LISTING /tmp/ccdpn9Gh.s 			page 9


 179              		.loc 2 207 76 is_stmt 0
 180              	#APP
 181              	# 207 "src/../h/riscv.hpp" 1
 182              		csrr a5, sstatus
 183              	# 0 "" 2
 184              	#NO_APP
 185 00a8 2338F4FC 		sd	a5,-48(s0)
 208:src/../h/riscv.hpp **** }
 186              		.loc 2 208 5 is_stmt 1
 208:src/../h/riscv.hpp **** }
 187              		.loc 2 208 12 is_stmt 0
 188 00ac 033904FD 		ld	s2,-48(s0)
 189              	.LVL7:
 190              	.LBE51:
 191              	.LBE50:
  25:src/riscv.cpp ****             void* mem;
 192              		.loc 1 25 13 is_stmt 1
  26:src/riscv.cpp **** 
  27:src/riscv.cpp ****             switch(a0){
 193              		.loc 1 27 13
 194 00b0 93073001 		li	a5,19
 195 00b4 63E0D706 		bgtu	a3,a5,.L9
 196 00b8 93962600 		slli	a3,a3,2
 197              	.LVL8:
 198 00bc 17070000 		lla	a4,.L11
 198      13070700 
 199 00c4 B386E600 		add	a3,a3,a4
 200 00c8 83A70600 		lw	a5,0(a3)
 201 00cc B387E700 		add	a5,a5,a4
 202 00d0 67800700 		jr	a5
 203              		.section	.rodata
 204              		.align	2
 205              		.align	2
 206              	.L11:
 207 0000 00000000 		.word	.L9-.L11
 208 0004 00000000 		.word	.L15-.L11
 209 0008 00000000 		.word	.L14-.L11
 210 000c 00000000 		.word	.L9-.L11
 211 0010 00000000 		.word	.L9-.L11
 212 0014 00000000 		.word	.L9-.L11
 213 0018 00000000 		.word	.L9-.L11
 214 001c 00000000 		.word	.L9-.L11
 215 0020 00000000 		.word	.L9-.L11
 216 0024 00000000 		.word	.L9-.L11
 217 0028 00000000 		.word	.L9-.L11
 218 002c 00000000 		.word	.L9-.L11
 219 0030 00000000 		.word	.L9-.L11
 220 0034 00000000 		.word	.L9-.L11
 221 0038 00000000 		.word	.L9-.L11
 222 003c 00000000 		.word	.L9-.L11
 223 0040 00000000 		.word	.L9-.L11
 224 0044 00000000 		.word	.L13-.L11
 225 0048 00000000 		.word	.L12-.L11
 226 004c 00000000 		.word	.L10-.L11
 227              		.text
 228              	.LVL9:
 229              	.L5:
GAS LISTING /tmp/ccdpn9Gh.s 			page 10


 230              	.LBE47:
  19:src/riscv.cpp ****         case 0x08:
 231              		.loc 1 19 5 is_stmt 0
 232 00d4 1307F0FF 		li	a4,-1
 233 00d8 1317F703 		slli	a4,a4,63
 234 00dc 13079700 		addi	a4,a4,9
 235 00e0 639EE702 		bne	a5,a4,.L3
 236              	.LBB70:
  28:src/riscv.cpp ****                 case 0x01: // allocate
  29:src/riscv.cpp ****                     mem = MemoryAllocator::getInstance().allocate((size_t) a1);
  30:src/riscv.cpp ****                     push_a0((long) mem);
  31:src/riscv.cpp ****                     break;
  32:src/riscv.cpp ****                 case 0x02: // deallocate
  33:src/riscv.cpp ****                     push_a0(MemoryAllocator::getInstance().deallocate((void *)a1));
  34:src/riscv.cpp ****                     break;
  35:src/riscv.cpp ****                 case 0x11: //thread_create
  36:src/riscv.cpp ****                     push_a0((uint64)PCB::createThread((PCB::Body)a1, (void*)a2));
  37:src/riscv.cpp ****                     break;
  38:src/riscv.cpp ****                 case 0x12: // thread_exit
  39:src/riscv.cpp ****                     push_a0(PCB::exit());
  40:src/riscv.cpp ****                     break;
  41:src/riscv.cpp ****                 case 0x13:
  42:src/riscv.cpp ****                     PCB::dispatch();
  43:src/riscv.cpp ****                     break;
  44:src/riscv.cpp ****                 case 0x14:
  45:src/riscv.cpp ****                     break;
  46:src/riscv.cpp ****                 default:
  47:src/riscv.cpp ****                     //printString("Unknown interrupt!");
  48:src/riscv.cpp ****                     break;
  49:src/riscv.cpp **** 
  50:src/riscv.cpp ****             }
  51:src/riscv.cpp **** 
  52:src/riscv.cpp ****             w_sstatus(sstatus);
  53:src/riscv.cpp ****             w_sepc(sepc);
  54:src/riscv.cpp ****             break;
  55:src/riscv.cpp ****         case 0x8000000000000001UL:
  56:src/riscv.cpp ****             //timer interrupt
  57:src/riscv.cpp ****             mc_sip(SIP_SSIP);
  58:src/riscv.cpp ****             break;
  59:src/riscv.cpp ****         case 0x8000000000000009UL:
 237              		.loc 1 59 9 is_stmt 1
  60:src/riscv.cpp ****             //external hardware interrupt
  61:src/riscv.cpp ****             console_handler();
 238              		.loc 1 61 13
 239              		.loc 1 61 28 is_stmt 0
 240 00e4 97000000 		call	console_handler@plt
 240      E7800000 
 241              	.LVL10:
  62:src/riscv.cpp ****             break;
 242              		.loc 1 62 13 is_stmt 1
 243              	.LBE70:
 244              	.LBE46:
  63:src/riscv.cpp ****         default:
  64:src/riscv.cpp ****             break;
  65:src/riscv.cpp ****             //printString("ERROR: Unexpected interrupt!");
  66:src/riscv.cpp ****     }
  67:src/riscv.cpp **** 
GAS LISTING /tmp/ccdpn9Gh.s 			page 11


  68:src/riscv.cpp **** }...
 245              		.loc 1 68 1 is_stmt 0
 246 00ec 6F000003 		j	.L3
 247              	.LVL11:
 248              	.L15:
 249              	.LBB73:
 250              	.LBB71:
  28:src/riscv.cpp ****                 case 0x01: // allocate
 251              		.loc 1 28 17 is_stmt 1
  29:src/riscv.cpp ****                     mem = MemoryAllocator::getInstance().allocate((size_t) a1);
 252              		.loc 1 29 21
 253              	.LBB52:
 254              	.LBB53:
 255              		.file 3 "src/../h/../h/MemoryAllocator.hpp"
   1:src/../h/../h/MemoryAllocator.hpp **** #ifndef PROJECT_BASE_V1_1_MEMORYALLOCATOR_HPP
   2:src/../h/../h/MemoryAllocator.hpp **** #define PROJECT_BASE_V1_1_MEMORYALLOCATOR_HPP
   3:src/../h/../h/MemoryAllocator.hpp **** #include "print.hpp"
   4:src/../h/../h/MemoryAllocator.hpp **** 
   5:src/../h/../h/MemoryAllocator.hpp **** struct Block {
   6:src/../h/../h/MemoryAllocator.hpp ****     size_t size;
   7:src/../h/../h/MemoryAllocator.hpp ****     Block *next;
   8:src/../h/../h/MemoryAllocator.hpp **** };
   9:src/../h/../h/MemoryAllocator.hpp **** 
  10:src/../h/../h/MemoryAllocator.hpp **** class MemoryAllocator {
  11:src/../h/../h/MemoryAllocator.hpp **** 
  12:src/../h/../h/MemoryAllocator.hpp **** private:
  13:src/../h/../h/MemoryAllocator.hpp **** 
  14:src/../h/../h/MemoryAllocator.hpp **** 
  15:src/../h/../h/MemoryAllocator.hpp ****     MemoryAllocator() {}
  16:src/../h/../h/MemoryAllocator.hpp **** 
  17:src/../h/../h/MemoryAllocator.hpp ****     static Block *free_list;
  18:src/../h/../h/MemoryAllocator.hpp ****     static Block *allocated_list;
  19:src/../h/../h/MemoryAllocator.hpp **** 
  20:src/../h/../h/MemoryAllocator.hpp **** 
  21:src/../h/../h/MemoryAllocator.hpp **** public:
  22:src/../h/../h/MemoryAllocator.hpp **** 
  23:src/../h/../h/MemoryAllocator.hpp **** 
  24:src/../h/../h/MemoryAllocator.hpp ****     // Get the singleton instance
  25:src/../h/../h/MemoryAllocator.hpp ****     static MemoryAllocator &getInstance() {
  26:src/../h/../h/MemoryAllocator.hpp ****         static MemoryAllocator instance;
 256              		.loc 3 26 9
 257              		.loc 3 26 32 is_stmt 0
 258 00f0 97070000 		lbu	a5,_ZGVZN15MemoryAllocator11getInstanceEvE8instance
 258      83C70700 
 259 00f8 63980700 		bnez	a5,.L16
 260              	.LVL12:
 261 00fc 93071000 		li	a5,1
 262 0100 17070000 		sb	a5,_ZGVZN15MemoryAllocator11getInstanceEvE8instance,a4
 262      2300F700 
 263              	.LVL13:
 264              	.L16:
  27:src/../h/../h/MemoryAllocator.hpp ****         return instance;
 265              		.loc 3 27 9 is_stmt 1
 266              	.LBE53:
 267              	.LBE52:
  29:src/riscv.cpp ****                     mem = MemoryAllocator::getInstance().allocate((size_t) a1);
 268              		.loc 1 29 78 is_stmt 0
GAS LISTING /tmp/ccdpn9Gh.s 			page 12


 269 0108 97000000 		call	_ZN15MemoryAllocator8allocateEm@plt
 269      E7800000 
 270              	.LVL14:
  30:src/riscv.cpp ****                     push_a0((long) mem);
 271              		.loc 1 30 21 is_stmt 1
 272              	.LBB54:
 273              	.LBB55:
 250:src/../h/riscv.hpp **** }
 251:src/../h/riscv.hpp **** 
 252:src/../h/riscv.hpp **** inline void Riscv::w_a2(uint64 a2) {
 253:src/../h/riscv.hpp ****     __asm__ volatile ("mv a2, %0" : : "r"(a2));
 254:src/../h/riscv.hpp **** }
 255:src/../h/riscv.hpp **** 
 256:src/../h/riscv.hpp **** inline uint64 Riscv::r_a3() {
 257:src/../h/riscv.hpp ****     uint64 volatile a3;
 258:src/../h/riscv.hpp ****     __asm__ volatile ("ld %0, 13*8(fp)" : "=r"(a3));
 259:src/../h/riscv.hpp ****     return a3;
 260:src/../h/riscv.hpp **** }
 261:src/../h/riscv.hpp **** 
 262:src/../h/riscv.hpp **** inline void Riscv::w_a3(uint64 a3) {
 263:src/../h/riscv.hpp ****     __asm__ volatile ("mv a3, %0" : : "r"(a3));
 264:src/../h/riscv.hpp **** }
 265:src/../h/riscv.hpp **** 
 266:src/../h/riscv.hpp **** inline void Riscv::push_a0(long a0) {
 267:src/../h/riscv.hpp ****     __asm__ volatile ("sd %0, 10*8(fp)" : : "r"(a0));
 274              		.loc 2 267 5
 275              		.loc 2 267 53 is_stmt 0
 276              	#APP
 277              	# 267 "src/../h/riscv.hpp" 1
 268              	}
 278              		sd a0, 10*8(fp)
 279              	# 0 "" 2
 280              	.LVL15:
 281              	#NO_APP
 282              	.L9:
 283              	.LBE55:
 284              	.LBE54:
  52:src/riscv.cpp ****             w_sstatus(sstatus);
 285              		.loc 1 52 13 is_stmt 1
 286              	.LBB56:
 287              	.LBB57:
 213:src/../h/riscv.hpp **** }
 288              		.loc 2 213 5
 213:src/../h/riscv.hpp **** }
 289              		.loc 2 213 77 is_stmt 0
 290              	#APP
 291              	# 213 "src/../h/riscv.hpp" 1
 292              		csrw sstatus, s2
 293              	# 0 "" 2
 294              	.LVL16:
 295              	#NO_APP
 296              	.LBE57:
 297              	.LBE56:
  53:src/riscv.cpp ****             w_sepc(sepc);
 298              		.loc 1 53 13 is_stmt 1
 299              	.LBB58:
 300              	.LBB59:
GAS LISTING /tmp/ccdpn9Gh.s 			page 13


 145:src/../h/riscv.hpp **** }
 301              		.loc 2 145 5
 145:src/../h/riscv.hpp **** }
 302              		.loc 2 145 65 is_stmt 0
 303              	#APP
 304              	# 145 "src/../h/riscv.hpp" 1
 305              		csrw sepc, s1
 306              	# 0 "" 2
 307              	.LVL17:
 308              	#NO_APP
 309              	.L3:
 310              	.LBE59:
 311              	.LBE58:
 312              	.LBE71:
 313              	.LBE73:
 314              		.loc 1 68 1
 315 011c 83308104 		ld	ra,72(sp)
 316              		.cfi_remember_state
 317              		.cfi_restore 1
 318 0120 03340104 		ld	s0,64(sp)
 319              		.cfi_restore 8
 320              		.cfi_def_cfa 2, 80
 321 0124 83348103 		ld	s1,56(sp)
 322              		.cfi_restore 9
 323 0128 03390103 		ld	s2,48(sp)
 324              		.cfi_restore 18
 325 012c 13010105 		addi	sp,sp,80
 326              		.cfi_def_cfa_offset 0
 327 0130 67800000 		jr	ra
 328              	.LVL18:
 329              	.L14:
 330              		.cfi_restore_state
 331              	.LBB74:
 332              	.LBB72:
  32:src/riscv.cpp ****                 case 0x02: // deallocate
 333              		.loc 1 32 17 is_stmt 1
  33:src/riscv.cpp ****                     push_a0(MemoryAllocator::getInstance().deallocate((void *)a1));
 334              		.loc 1 33 21
 335              	.LBB60:
 336              	.LBB61:
  26:src/../h/../h/MemoryAllocator.hpp ****         return instance;
 337              		.loc 3 26 9
  26:src/../h/../h/MemoryAllocator.hpp ****         return instance;
 338              		.loc 3 26 32 is_stmt 0
 339 0134 97070000 		lbu	a5,_ZGVZN15MemoryAllocator11getInstanceEvE8instance
 339      83C70700 
 340 013c 63980700 		bnez	a5,.L17
 341              	.LVL19:
 342 0140 93071000 		li	a5,1
 343 0144 17070000 		sb	a5,_ZGVZN15MemoryAllocator11getInstanceEvE8instance,a4
 343      2300F700 
 344              	.LVL20:
 345              	.L17:
 346              		.loc 3 27 9 is_stmt 1
 347              	.LBE61:
 348              	.LBE60:
  33:src/riscv.cpp ****                     push_a0(MemoryAllocator::getInstance().deallocate((void *)a1));
GAS LISTING /tmp/ccdpn9Gh.s 			page 14


 349              		.loc 1 33 81 is_stmt 0
 350 014c 97000000 		call	_ZN15MemoryAllocator10deallocateEPv@plt
 350      E7800000 
 351              	.LVL21:
 352              	.LBB62:
 353              	.LBB63:
 267:src/../h/riscv.hpp **** }
 354              		.loc 2 267 5 is_stmt 1
 267:src/../h/riscv.hpp **** }
 355              		.loc 2 267 53 is_stmt 0
 356              	#APP
 357              	# 267 "src/../h/riscv.hpp" 1
 358              		sd a0, 10*8(fp)
 359              	# 0 "" 2
 360              		.loc 2 268 1
 361              	#NO_APP
 362 0158 6FF0DFFB 		j	.L9
 363              	.LVL22:
 364              	.L13:
 365              	.LBE63:
 366              	.LBE62:
  35:src/riscv.cpp ****                 case 0x11: //thread_create
 367              		.loc 1 35 17 is_stmt 1
  36:src/riscv.cpp ****                     push_a0((uint64)PCB::createThread((PCB::Body)a1, (void*)a2));
 368              		.loc 1 36 21
  36:src/riscv.cpp ****                     push_a0((uint64)PCB::createThread((PCB::Body)a1, (void*)a2));
 369              		.loc 1 36 54 is_stmt 0
 370 015c 97000000 		call	_ZN3PCB12createThreadEPFvPvES0_@plt
 370      E7800000 
 371              	.LVL23:
 372              	.LBB64:
 373              	.LBB65:
 267:src/../h/riscv.hpp **** }
 374              		.loc 2 267 5 is_stmt 1
 267:src/../h/riscv.hpp **** }
 375              		.loc 2 267 53 is_stmt 0
 376              	#APP
 377              	# 267 "src/../h/riscv.hpp" 1
 378              		sd a0, 10*8(fp)
 379              	# 0 "" 2
 380              		.loc 2 268 1
 381              	#NO_APP
 382 0168 6FF0DFFA 		j	.L9
 383              	.LVL24:
 384              	.L12:
 385              	.LBE65:
 386              	.LBE64:
  38:src/riscv.cpp ****                 case 0x12: // thread_exit
 387              		.loc 1 38 17 is_stmt 1
  39:src/riscv.cpp ****                     push_a0(PCB::exit());
 388              		.loc 1 39 21
  39:src/riscv.cpp ****                     push_a0(PCB::exit());
 389              		.loc 1 39 38 is_stmt 0
 390 016c 97000000 		call	_ZN3PCB4exitEv@plt
 390      E7800000 
 391              	.LVL25:
 392              	.LBB66:
GAS LISTING /tmp/ccdpn9Gh.s 			page 15


 393              	.LBB67:
 267:src/../h/riscv.hpp **** }
 394              		.loc 2 267 5 is_stmt 1
 267:src/../h/riscv.hpp **** }
 395              		.loc 2 267 53 is_stmt 0
 396              	#APP
 397              	# 267 "src/../h/riscv.hpp" 1
 398              		sd a0, 10*8(fp)
 399              	# 0 "" 2
 400              		.loc 2 268 1
 401              	#NO_APP
 402 0178 6FF0DFF9 		j	.L9
 403              	.LVL26:
 404              	.L10:
 405              	.LBE67:
 406              	.LBE66:
  41:src/riscv.cpp ****                 case 0x13:
 407              		.loc 1 41 17 is_stmt 1
  42:src/riscv.cpp ****                     PCB::dispatch();
 408              		.loc 1 42 21
  42:src/riscv.cpp ****                     PCB::dispatch();
 409              		.loc 1 42 34 is_stmt 0
 410 017c 97000000 		call	_ZN3PCB8dispatchEv@plt
 410      E7800000 
 411              	.LVL27:
  43:src/riscv.cpp ****                     break;
 412              		.loc 1 43 21 is_stmt 1
 413 0184 6FF01FF9 		j	.L9
 414              	.LVL28:
 415              	.L4:
  55:src/riscv.cpp ****         case 0x8000000000000001UL:
 416              		.loc 1 55 9
  57:src/riscv.cpp ****             mc_sip(SIP_SSIP);
 417              		.loc 1 57 13
 418              	.LBB68:
 419              	.LBB69:
 179:src/../h/riscv.hpp **** }
 420              		.loc 2 179 5
 179:src/../h/riscv.hpp **** }
 421              		.loc 2 179 64 is_stmt 0
 422 0188 93072000 		li	a5,2
 423              	.LVL29:
 424              	#APP
 425              	# 179 "src/../h/riscv.hpp" 1
 180:src/../h/riscv.hpp **** 
 426              		csrc sip, a5
 427              	# 0 "" 2
 428              		.loc 2 180 1
 429              	#NO_APP
 430 0190 6FF0DFF8 		j	.L3
 431              	.LBE69:
 432              	.LBE68:
 433              	.LBE72:
 434              	.LBE74:
 435              		.cfi_endproc
 436              	.LFE49:
 438              		.weak	_ZGVZN15MemoryAllocator11getInstanceEvE8instance
GAS LISTING /tmp/ccdpn9Gh.s 			page 16


 439              		.section	.bss._ZGVZN15MemoryAllocator11getInstanceEvE8instance,"awG",@nobits,_ZGVZN15MemoryAllocat
 440              		.align	3
 443              	_ZGVZN15MemoryAllocator11getInstanceEvE8instance:
 444 0000 00000000 		.zero	8
 444      00000000 
 445              		.text
 446              	.Letext0:
 447              		.file 4 "src/../h/../h/../lib/hw.h"
 448              		.file 5 "src/../h/PCB.hpp"
 449              		.file 6 "src/../h/../h/../lib/console.h"
GAS LISTING /tmp/ccdpn9Gh.s 			page 17


DEFINED SYMBOLS
                            *ABS*:0000000000000000 riscv.cpp
     /tmp/ccdpn9Gh.s:9      .text:0000000000000000 _ZN5Riscv10popSppSpieEv
     /tmp/ccdpn9Gh.s:13     .text:0000000000000000 .L0 
     /tmp/ccdpn9Gh.s:14     .text:0000000000000000 .L0 
     /tmp/ccdpn9Gh.s:15     .text:0000000000000004 .L0 
     /tmp/ccdpn9Gh.s:17     .text:0000000000000008 .L0 
     /tmp/ccdpn9Gh.s:19     .text:000000000000000c .L0 
     /tmp/ccdpn9Gh.s:21     .text:000000000000000c .L0 
       src/riscv.cpp:7      .text:000000000000000c .L0 
     /tmp/ccdpn9Gh.s:27     .text:0000000000000010 .L0 
       src/riscv.cpp:8      .text:0000000000000010 .L0 
     /tmp/ccdpn9Gh.s:33     .text:0000000000000014 .L0 
     /tmp/ccdpn9Gh.s:34     .text:0000000000000018 .L0 
     /tmp/ccdpn9Gh.s:35     .text:0000000000000018 .L0 
     /tmp/ccdpn9Gh.s:37     .text:000000000000001c .L0 
     /tmp/ccdpn9Gh.s:39     .text:0000000000000020 .L0 
     /tmp/ccdpn9Gh.s:45     .text:0000000000000020 _ZN5Riscv11trapHandlerEv
     /tmp/ccdpn9Gh.s:48     .text:0000000000000020 .L0 
     /tmp/ccdpn9Gh.s:49     .text:0000000000000020 .L0 
     /tmp/ccdpn9Gh.s:50     .text:0000000000000024 .L0 
     /tmp/ccdpn9Gh.s:55     .text:0000000000000034 .L0 
     /tmp/ccdpn9Gh.s:56     .text:0000000000000034 .L0 
     /tmp/ccdpn9Gh.s:57     .text:0000000000000034 .L0 
     /tmp/ccdpn9Gh.s:58     .text:0000000000000034 .L0 
     /tmp/ccdpn9Gh.s:60     .text:0000000000000038 .L0 
     /tmp/ccdpn9Gh.s:65     .text:0000000000000038 .L0 
     /tmp/ccdpn9Gh.s:66     .text:0000000000000038 .L0 
     /tmp/ccdpn9Gh.s:67     .text:0000000000000038 .L0 
  src/../h/riscv.hpp:127    .text:0000000000000038 .L0 
     /tmp/ccdpn9Gh.s:75     .text:0000000000000040 .L0 
     /tmp/ccdpn9Gh.s:76     .text:0000000000000040 .L0 
     /tmp/ccdpn9Gh.s:83     .text:0000000000000044 .L0 
     /tmp/ccdpn9Gh.s:84     .text:0000000000000044 .L0 
     /tmp/ccdpn9Gh.s:85     .text:0000000000000044 .L0 
  src/../h/riscv.hpp:228    .text:0000000000000044 .L0 
     /tmp/ccdpn9Gh.s:93     .text:000000000000004c .L0 
     /tmp/ccdpn9Gh.s:94     .text:000000000000004c .L0 
     /tmp/ccdpn9Gh.s:101    .text:0000000000000050 .L0 
     /tmp/ccdpn9Gh.s:102    .text:0000000000000050 .L0 
     /tmp/ccdpn9Gh.s:103    .text:0000000000000050 .L0 
  src/../h/riscv.hpp:238    .text:0000000000000050 .L0 
     /tmp/ccdpn9Gh.s:111    .text:0000000000000058 .L0 
     /tmp/ccdpn9Gh.s:112    .text:0000000000000058 .L0 
     /tmp/ccdpn9Gh.s:119    .text:000000000000005c .L0 
     /tmp/ccdpn9Gh.s:120    .text:000000000000005c .L0 
     /tmp/ccdpn9Gh.s:121    .text:000000000000005c .L0 
  src/../h/riscv.hpp:248    .text:000000000000005c .L0 
     /tmp/ccdpn9Gh.s:129    .text:0000000000000064 .L0 
     /tmp/ccdpn9Gh.s:130    .text:0000000000000064 .L0 
     /tmp/ccdpn9Gh.s:135    .text:0000000000000068 .L0 
     /tmp/ccdpn9Gh.s:136    .text:0000000000000068 .L0 
     /tmp/ccdpn9Gh.s:138    .text:0000000000000068 .L0 
     /tmp/ccdpn9Gh.s:152    .text:0000000000000094 .L0 
     /tmp/ccdpn9Gh.s:153    .text:0000000000000094 .L0 
     /tmp/ccdpn9Gh.s:156    .text:0000000000000094 .L0 
     /tmp/ccdpn9Gh.s:157    .text:0000000000000094 .L0 
GAS LISTING /tmp/ccdpn9Gh.s 			page 18


     /tmp/ccdpn9Gh.s:158    .text:0000000000000094 .L0 
  src/../h/riscv.hpp:139    .text:0000000000000094 .L0 
     /tmp/ccdpn9Gh.s:167    .text:000000000000009c .L0 
     /tmp/ccdpn9Gh.s:168    .text:000000000000009c .L0 
     /tmp/ccdpn9Gh.s:172    .text:00000000000000a0 .L0 
     /tmp/ccdpn9Gh.s:177    .text:00000000000000a4 .L0 
     /tmp/ccdpn9Gh.s:178    .text:00000000000000a4 .L0 
     /tmp/ccdpn9Gh.s:179    .text:00000000000000a4 .L0 
  src/../h/riscv.hpp:207    .text:00000000000000a4 .L0 
     /tmp/ccdpn9Gh.s:187    .text:00000000000000ac .L0 
     /tmp/ccdpn9Gh.s:188    .text:00000000000000ac .L0 
     /tmp/ccdpn9Gh.s:193    .text:00000000000000b0 .L0 
     /tmp/ccdpn9Gh.s:194    .text:00000000000000b0 .L0 
     /tmp/ccdpn9Gh.s:232    .text:00000000000000d4 .L0 
     /tmp/ccdpn9Gh.s:238    .text:00000000000000e4 .L0 
     /tmp/ccdpn9Gh.s:239    .text:00000000000000e4 .L0 
     /tmp/ccdpn9Gh.s:240    .text:00000000000000e4 .L0 
     /tmp/ccdpn9Gh.s:245    .text:00000000000000ec .L0 
     /tmp/ccdpn9Gh.s:246    .text:00000000000000ec .L0 
     /tmp/ccdpn9Gh.s:252    .text:00000000000000f0 .L0 
     /tmp/ccdpn9Gh.s:256    .text:00000000000000f0 .L0 
     /tmp/ccdpn9Gh.s:257    .text:00000000000000f0 .L0 
     /tmp/ccdpn9Gh.s:443    .bss._ZGVZN15MemoryAllocator11getInstanceEvE8instance:0000000000000000 _ZGVZN15MemoryAllocator11getInstanceEvE8instance
     /tmp/ccdpn9Gh.s:258    .text:00000000000000f0 .L0 
     /tmp/ccdpn9Gh.s:268    .text:0000000000000108 .L0 
     /tmp/ccdpn9Gh.s:269    .text:0000000000000108 .L0 
     /tmp/ccdpn9Gh.s:274    .text:0000000000000110 .L0 
     /tmp/ccdpn9Gh.s:275    .text:0000000000000110 .L0 
  src/../h/riscv.hpp:267    .text:0000000000000110 .L0 
     /tmp/ccdpn9Gh.s:288    .text:0000000000000114 .L0 
     /tmp/ccdpn9Gh.s:289    .text:0000000000000114 .L0 
  src/../h/riscv.hpp:213    .text:0000000000000114 .L0 
     /tmp/ccdpn9Gh.s:301    .text:0000000000000118 .L0 
     /tmp/ccdpn9Gh.s:302    .text:0000000000000118 .L0 
  src/../h/riscv.hpp:145    .text:0000000000000118 .L0 
     /tmp/ccdpn9Gh.s:315    .text:000000000000011c .L0 
     /tmp/ccdpn9Gh.s:316    .text:0000000000000120 .L0 
     /tmp/ccdpn9Gh.s:317    .text:0000000000000120 .L0 
     /tmp/ccdpn9Gh.s:319    .text:0000000000000124 .L0 
     /tmp/ccdpn9Gh.s:320    .text:0000000000000124 .L0 
     /tmp/ccdpn9Gh.s:322    .text:0000000000000128 .L0 
     /tmp/ccdpn9Gh.s:324    .text:000000000000012c .L0 
     /tmp/ccdpn9Gh.s:326    .text:0000000000000130 .L0 
     /tmp/ccdpn9Gh.s:330    .text:0000000000000134 .L0 
     /tmp/ccdpn9Gh.s:334    .text:0000000000000134 .L0 
     /tmp/ccdpn9Gh.s:337    .text:0000000000000134 .L0 
     /tmp/ccdpn9Gh.s:338    .text:0000000000000134 .L0 
     /tmp/ccdpn9Gh.s:339    .text:0000000000000134 .L0 
     /tmp/ccdpn9Gh.s:349    .text:000000000000014c .L0 
     /tmp/ccdpn9Gh.s:350    .text:000000000000014c .L0 
     /tmp/ccdpn9Gh.s:355    .text:0000000000000154 .L0 
  src/../h/riscv.hpp:267    .text:0000000000000154 .L0 
     /tmp/ccdpn9Gh.s:362    .text:0000000000000158 .L0 
     /tmp/ccdpn9Gh.s:368    .text:000000000000015c .L0 
     /tmp/ccdpn9Gh.s:369    .text:000000000000015c .L0 
     /tmp/ccdpn9Gh.s:370    .text:000000000000015c .L0 
     /tmp/ccdpn9Gh.s:375    .text:0000000000000164 .L0 
GAS LISTING /tmp/ccdpn9Gh.s 			page 19


  src/../h/riscv.hpp:267    .text:0000000000000164 .L0 
     /tmp/ccdpn9Gh.s:382    .text:0000000000000168 .L0 
     /tmp/ccdpn9Gh.s:388    .text:000000000000016c .L0 
     /tmp/ccdpn9Gh.s:389    .text:000000000000016c .L0 
     /tmp/ccdpn9Gh.s:390    .text:000000000000016c .L0 
     /tmp/ccdpn9Gh.s:395    .text:0000000000000174 .L0 
  src/../h/riscv.hpp:267    .text:0000000000000174 .L0 
     /tmp/ccdpn9Gh.s:402    .text:0000000000000178 .L0 
     /tmp/ccdpn9Gh.s:408    .text:000000000000017c .L0 
     /tmp/ccdpn9Gh.s:409    .text:000000000000017c .L0 
     /tmp/ccdpn9Gh.s:410    .text:000000000000017c .L0 
     /tmp/ccdpn9Gh.s:413    .text:0000000000000184 .L0 
     /tmp/ccdpn9Gh.s:417    .text:0000000000000188 .L0 
     /tmp/ccdpn9Gh.s:420    .text:0000000000000188 .L0 
     /tmp/ccdpn9Gh.s:421    .text:0000000000000188 .L0 
     /tmp/ccdpn9Gh.s:422    .text:0000000000000188 .L0 
     /tmp/ccdpn9Gh.s:430    .text:0000000000000190 .L0 
     /tmp/ccdpn9Gh.s:435    .text:0000000000000194 .L0 
     /tmp/ccdpn9Gh.s:450    .text:0000000000000194 .L0 
     /tmp/ccdpn9Gh.s:206    .rodata:0000000000000000 .L11
     /tmp/ccdpn9Gh.s:198    .text:00000000000000bc .L0 
     /tmp/ccdpn9Gh.s:258    .text:00000000000000f0 .L0 
     /tmp/ccdpn9Gh.s:262    .text:0000000000000100 .L0 
     /tmp/ccdpn9Gh.s:339    .text:0000000000000134 .L0 
     /tmp/ccdpn9Gh.s:343    .text:0000000000000144 .L0 
     /tmp/ccdpn9Gh.s:415    .text:0000000000000188 .L4
     /tmp/ccdpn9Gh.s:229    .text:00000000000000d4 .L5
     /tmp/ccdpn9Gh.s:309    .text:000000000000011c .L3
     /tmp/ccdpn9Gh.s:282    .text:0000000000000114 .L9
     /tmp/ccdpn9Gh.s:264    .text:0000000000000108 .L16
     /tmp/ccdpn9Gh.s:345    .text:000000000000014c .L17
     /tmp/ccdpn9Gh.s:248    .text:00000000000000f0 .L15
     /tmp/ccdpn9Gh.s:329    .text:0000000000000134 .L14
     /tmp/ccdpn9Gh.s:364    .text:000000000000015c .L13
     /tmp/ccdpn9Gh.s:384    .text:000000000000016c .L12
     /tmp/ccdpn9Gh.s:404    .text:000000000000017c .L10
     /tmp/ccdpn9Gh.s:1716   .debug_abbrev:0000000000000000 .Ldebug_abbrev0
     /tmp/ccdpn9Gh.s:3188   .debug_str:00000000000006ff .LASF133
     /tmp/ccdpn9Gh.s:3130   .debug_str:0000000000000592 .LASF134
     /tmp/ccdpn9Gh.s:2994   .debug_str:00000000000001a1 .LASF135
     /tmp/ccdpn9Gh.s:5      .text:0000000000000000 .Ltext0
     /tmp/ccdpn9Gh.s:446    .text:0000000000000194 .Letext0
     /tmp/ccdpn9Gh.s:2934   .debug_line:0000000000000000 .Ldebug_line0
     /tmp/ccdpn9Gh.s:3104   .debug_str:0000000000000517 .LASF0
     /tmp/ccdpn9Gh.s:3126   .debug_str:000000000000056c .LASF1
     /tmp/ccdpn9Gh.s:3086   .debug_str:0000000000000497 .LASF2
     /tmp/ccdpn9Gh.s:3050   .debug_str:00000000000003a0 .LASF4
     /tmp/ccdpn9Gh.s:3164   .debug_str:0000000000000662 .LASF3
     /tmp/ccdpn9Gh.s:2962   .debug_str:00000000000000c7 .LASF5
     /tmp/ccdpn9Gh.s:3128   .debug_str:000000000000057f .LASF6
     /tmp/ccdpn9Gh.s:3102   .debug_str:0000000000000504 .LASF7
     /tmp/ccdpn9Gh.s:3200   .debug_str:000000000000081a .LASF8
     /tmp/ccdpn9Gh.s:3036   .debug_str:000000000000033d .LASF9
     /tmp/ccdpn9Gh.s:3144   .debug_str:00000000000005da .LASF10
     /tmp/ccdpn9Gh.s:3192   .debug_str:00000000000007cf .LASF11
     /tmp/ccdpn9Gh.s:2968   .debug_str:00000000000000d8 .LASF12
     /tmp/ccdpn9Gh.s:2944   .debug_str:000000000000004a .LASF13
GAS LISTING /tmp/ccdpn9Gh.s 			page 20


     /tmp/ccdpn9Gh.s:2986   .debug_str:0000000000000176 .LASF14
     /tmp/ccdpn9Gh.s:3156   .debug_str:0000000000000619 .LASF15
     /tmp/ccdpn9Gh.s:2996   .debug_str:00000000000001c4 .LASF16
     /tmp/ccdpn9Gh.s:2992   .debug_str:000000000000019b .LASF136
     /tmp/ccdpn9Gh.s:3180   .debug_str:00000000000006c7 .LASF17
     /tmp/ccdpn9Gh.s:3224   .debug_str:00000000000008cc .LASF18
     /tmp/ccdpn9Gh.s:3082   .debug_str:000000000000047e .LASF27
     /tmp/ccdpn9Gh.s:3008   .debug_str:0000000000000260 .LASF69
     /tmp/ccdpn9Gh.s:3202   .debug_str:000000000000082a .LASF19
     /tmp/ccdpn9Gh.s:3178   .debug_str:00000000000006b8 .LASF20
     /tmp/ccdpn9Gh.s:3190   .debug_str:00000000000007c3 .LASF45
     /tmp/ccdpn9Gh.s:2960   .debug_str:00000000000000a3 .LASF47
     /tmp/ccdpn9Gh.s:3136   .debug_str:00000000000005b0 .LASF41
     /tmp/ccdpn9Gh.s:3186   .debug_str:00000000000006e3 .LASF43
     /tmp/ccdpn9Gh.s:3120   .debug_str:0000000000000552 .LASF21
     /tmp/ccdpn9Gh.s:3002   .debug_str:0000000000000201 .LASF23
     /tmp/ccdpn9Gh.s:3072   .debug_str:0000000000000440 .LASF22
     /tmp/ccdpn9Gh.s:3062   .debug_str:00000000000003e9 .LASF24
     /tmp/ccdpn9Gh.s:3198   .debug_str:00000000000007fe .LASF35
     /tmp/ccdpn9Gh.s:3096   .debug_str:00000000000004df .LASF25
     /tmp/ccdpn9Gh.s:3066   .debug_str:0000000000000418 .LASF26
     /tmp/ccdpn9Gh.s:2950   .debug_str:0000000000000070 .LASF137
     /tmp/ccdpn9Gh.s:3040   .debug_str:0000000000000361 .LASF56
     /tmp/ccdpn9Gh.s:3142   .debug_str:00000000000005d4 .LASF28
     /tmp/ccdpn9Gh.s:3140   .debug_str:00000000000005cc .LASF29
     /tmp/ccdpn9Gh.s:3160   .debug_str:0000000000000640 .LASF30
     /tmp/ccdpn9Gh.s:3172   .debug_str:000000000000069e .LASF31
     /tmp/ccdpn9Gh.s:3152   .debug_str:0000000000000609 .LASF32
     /tmp/ccdpn9Gh.s:2976   .debug_str:0000000000000105 .LASF33
     /tmp/ccdpn9Gh.s:3132   .debug_str:00000000000005a0 .LASF34
     /tmp/ccdpn9Gh.s:3138   .debug_str:00000000000005b5 .LASF36
     /tmp/ccdpn9Gh.s:3088   .debug_str:00000000000004a5 .LASF37
     /tmp/ccdpn9Gh.s:2980   .debug_str:000000000000012d .LASF38
     /tmp/ccdpn9Gh.s:2936   .debug_str:0000000000000000 .LASF39
     /tmp/ccdpn9Gh.s:3052   .debug_str:00000000000003a7 .LASF40
     /tmp/ccdpn9Gh.s:3150   .debug_str:0000000000000604 .LASF138
     /tmp/ccdpn9Gh.s:3108   .debug_str:000000000000052b .LASF42
     /tmp/ccdpn9Gh.s:3044   .debug_str:000000000000036f .LASF44
     /tmp/ccdpn9Gh.s:3076   .debug_str:0000000000000463 .LASF46
     /tmp/ccdpn9Gh.s:2946   .debug_str:000000000000005a .LASF48
     /tmp/ccdpn9Gh.s:3016   .debug_str:00000000000002b2 .LASF139
     /tmp/ccdpn9Gh.s:3206   .debug_str:000000000000084d .LASF140
     /tmp/ccdpn9Gh.s:2982   .debug_str:0000000000000144 .LASF141
     /tmp/ccdpn9Gh.s:3176   .debug_str:00000000000006b0 .LASF123
     /tmp/ccdpn9Gh.s:2938   .debug_str:000000000000000d .LASF125
     /tmp/ccdpn9Gh.s:3030   .debug_str:0000000000000310 .LASF142
     /tmp/ccdpn9Gh.s:3056   .debug_str:00000000000003d3 .LASF49
     /tmp/ccdpn9Gh.s:3110   .debug_str:0000000000000534 .LASF50
     /tmp/ccdpn9Gh.s:3112   .debug_str:000000000000053a .LASF51
     /tmp/ccdpn9Gh.s:3060   .debug_str:00000000000003e1 .LASF52
     /tmp/ccdpn9Gh.s:2954   .debug_str:000000000000007e .LASF53
     /tmp/ccdpn9Gh.s:3022   .debug_str:00000000000002e3 .LASF54
     /tmp/ccdpn9Gh.s:3122   .debug_str:000000000000055b .LASF55
     /tmp/ccdpn9Gh.s:3064   .debug_str:000000000000040d .LASF57
     /tmp/ccdpn9Gh.s:3174   .debug_str:00000000000006a7 .LASF58
     /tmp/ccdpn9Gh.s:3058   .debug_str:00000000000003d8 .LASF59
     /tmp/ccdpn9Gh.s:3154   .debug_str:000000000000060e .LASF60
GAS LISTING /tmp/ccdpn9Gh.s 			page 21


     /tmp/ccdpn9Gh.s:3218   .debug_str:0000000000000898 .LASF61
     /tmp/ccdpn9Gh.s:2956   .debug_str:0000000000000084 .LASF62
     /tmp/ccdpn9Gh.s:3014   .debug_str:0000000000000297 .LASF63
     /tmp/ccdpn9Gh.s:3024   .debug_str:00000000000002e8 .LASF64
     /tmp/ccdpn9Gh.s:2940   .debug_str:000000000000001f .LASF65
     /tmp/ccdpn9Gh.s:3084   .debug_str:000000000000048e .LASF66
     /tmp/ccdpn9Gh.s:3018   .debug_str:00000000000002ba .LASF67
     /tmp/ccdpn9Gh.s:3012   .debug_str:000000000000028e .LASF68
     /tmp/ccdpn9Gh.s:3010   .debug_str:0000000000000279 .LASF70
     /tmp/ccdpn9Gh.s:3166   .debug_str:0000000000000674 .LASF71
     /tmp/ccdpn9Gh.s:3146   .debug_str:00000000000005e9 .LASF72
     /tmp/ccdpn9Gh.s:3194   .debug_str:00000000000007de .LASF73
     /tmp/ccdpn9Gh.s:3034   .debug_str:000000000000032a .LASF74
     /tmp/ccdpn9Gh.s:3028   .debug_str:0000000000000308 .LASF75
     /tmp/ccdpn9Gh.s:2998   .debug_str:00000000000001da .LASF76
     /tmp/ccdpn9Gh.s:3212   .debug_str:0000000000000878 .LASF77
     /tmp/ccdpn9Gh.s:3168   .debug_str:000000000000067b .LASF78
     /tmp/ccdpn9Gh.s:3048   .debug_str:0000000000000398 .LASF79
     /tmp/ccdpn9Gh.s:3208   .debug_str:000000000000085b .LASF80
     /tmp/ccdpn9Gh.s:3042   .debug_str:0000000000000367 .LASF81
     /tmp/ccdpn9Gh.s:3020   .debug_str:00000000000002cf .LASF82
     /tmp/ccdpn9Gh.s:3106   .debug_str:0000000000000524 .LASF83
     /tmp/ccdpn9Gh.s:3214   .debug_str:0000000000000880 .LASF84
     /tmp/ccdpn9Gh.s:3068   .debug_str:0000000000000434 .LASF85
     /tmp/ccdpn9Gh.s:3026   .debug_str:00000000000002f5 .LASF86
     /tmp/ccdpn9Gh.s:3032   .debug_str:0000000000000324 .LASF87
     /tmp/ccdpn9Gh.s:3184   .debug_str:00000000000006d1 .LASF88
     /tmp/ccdpn9Gh.s:2952   .debug_str:0000000000000078 .LASF89
     /tmp/ccdpn9Gh.s:3228   .debug_str:00000000000008d6 .LASF90
     /tmp/ccdpn9Gh.s:3222   .debug_str:00000000000008c1 .LASF91
     /tmp/ccdpn9Gh.s:3162   .debug_str:000000000000064a .LASF92
     /tmp/ccdpn9Gh.s:3124   .debug_str:0000000000000561 .LASF93
     /tmp/ccdpn9Gh.s:3074   .debug_str:000000000000044b .LASF94
     /tmp/ccdpn9Gh.s:2984   .debug_str:000000000000016c .LASF95
     /tmp/ccdpn9Gh.s:3046   .debug_str:0000000000000382 .LASF96
     /tmp/ccdpn9Gh.s:3092   .debug_str:00000000000004c4 .LASF97
     /tmp/ccdpn9Gh.s:3038   .debug_str:000000000000034b .LASF98
     /tmp/ccdpn9Gh.s:3100   .debug_str:00000000000004fd .LASF99
     /tmp/ccdpn9Gh.s:3000   .debug_str:00000000000001ee .LASF100
     /tmp/ccdpn9Gh.s:2948   .debug_str:0000000000000069 .LASF101
     /tmp/ccdpn9Gh.s:3090   .debug_str:00000000000004b1 .LASF102
     /tmp/ccdpn9Gh.s:3170   .debug_str:000000000000068f .LASF103
     /tmp/ccdpn9Gh.s:2978   .debug_str:0000000000000111 .LASF104
     /tmp/ccdpn9Gh.s:3182   .debug_str:00000000000006cc .LASF105
     /tmp/ccdpn9Gh.s:3078   .debug_str:0000000000000468 .LASF106
     /tmp/ccdpn9Gh.s:2964   .debug_str:00000000000000ce .LASF107
     /tmp/ccdpn9Gh.s:3094   .debug_str:00000000000004ce .LASF108
     /tmp/ccdpn9Gh.s:3070   .debug_str:000000000000043b .LASF109
     /tmp/ccdpn9Gh.s:3220   .debug_str:00000000000008b0 .LASF110
     /tmp/ccdpn9Gh.s:2966   .debug_str:00000000000000d3 .LASF111
     /tmp/ccdpn9Gh.s:2942   .debug_str:0000000000000039 .LASF112
     /tmp/ccdpn9Gh.s:3134   .debug_str:00000000000005ab .LASF113
     /tmp/ccdpn9Gh.s:2958   .debug_str:0000000000000092 .LASF114
     /tmp/ccdpn9Gh.s:3118   .debug_str:000000000000054d .LASF115
     /tmp/ccdpn9Gh.s:2974   .debug_str:00000000000000f4 .LASF116
     /tmp/ccdpn9Gh.s:3080   .debug_str:0000000000000479 .LASF117
     /tmp/ccdpn9Gh.s:3158   .debug_str:000000000000062f .LASF118
GAS LISTING /tmp/ccdpn9Gh.s 			page 22


     /tmp/ccdpn9Gh.s:2970   .debug_str:00000000000000e8 .LASF119
     /tmp/ccdpn9Gh.s:2988   .debug_str:0000000000000182 .LASF120
     /tmp/ccdpn9Gh.s:2990   .debug_str:0000000000000193 .LASF121
     /tmp/ccdpn9Gh.s:3098   .debug_str:00000000000004e9 .LASF122
     /tmp/ccdpn9Gh.s:3054   .debug_str:00000000000003c7 .LASF124
     /tmp/ccdpn9Gh.s:3196   .debug_str:00000000000007e5 .LASF126
     /tmp/ccdpn9Gh.s:3210   .debug_str:000000000000086f .LASF127
     /tmp/ccdpn9Gh.s:46     .text:0000000000000020 .LFB49
     /tmp/ccdpn9Gh.s:436    .text:0000000000000194 .LFE49
     /tmp/ccdpn9Gh.s:2972   .debug_str:00000000000000ed .LASF128
     /tmp/ccdpn9Gh.s:2739   .debug_loc:0000000000000000 .LLST0
     /tmp/ccdpn9Gh.s:2760   .debug_loc:000000000000005e .LLST1
     /tmp/ccdpn9Gh.s:2775   .debug_loc:00000000000000a7 .LLST2
     /tmp/ccdpn9Gh.s:2806   .debug_loc:000000000000013c .LLST3
     /tmp/ccdpn9Gh.s:3116   .debug_str:0000000000000548 .LASF129
     /tmp/ccdpn9Gh.s:2837   .debug_loc:00000000000001d1 .LLST4
     /tmp/ccdpn9Gh.s:3148   .debug_str:00000000000005fc .LASF130
     /tmp/ccdpn9Gh.s:2852   .debug_loc:000000000000021a .LLST5
     /tmp/ccdpn9Gh.s:2922   .debug_ranges:0000000000000000 .Ldebug_ranges0
     /tmp/ccdpn9Gh.s:2867   .debug_loc:0000000000000263 .LLST6
     /tmp/ccdpn9Gh.s:154    .text:0000000000000094 .LBB48
     /tmp/ccdpn9Gh.s:170    .text:00000000000000a0 .LBE48
     /tmp/ccdpn9Gh.s:175    .text:00000000000000a4 .LBB50
     /tmp/ccdpn9Gh.s:191    .text:00000000000000b0 .LBE50
     /tmp/ccdpn9Gh.s:253    .text:00000000000000f0 .LBB52
     /tmp/ccdpn9Gh.s:267    .text:0000000000000108 .LBE52
     /tmp/ccdpn9Gh.s:272    .text:0000000000000110 .LBB54
     /tmp/ccdpn9Gh.s:284    .text:0000000000000114 .LBE54
     /tmp/ccdpn9Gh.s:286    .text:0000000000000114 .LBB56
     /tmp/ccdpn9Gh.s:297    .text:0000000000000118 .LBE56
     /tmp/ccdpn9Gh.s:2874   .debug_loc:0000000000000286 .LLST8
     /tmp/ccdpn9Gh.s:299    .text:0000000000000118 .LBB58
     /tmp/ccdpn9Gh.s:311    .text:000000000000011c .LBE58
     /tmp/ccdpn9Gh.s:2881   .debug_loc:00000000000002a9 .LLST9
     /tmp/ccdpn9Gh.s:335    .text:0000000000000134 .LBB60
     /tmp/ccdpn9Gh.s:348    .text:000000000000014c .LBE60
     /tmp/ccdpn9Gh.s:352    .text:0000000000000154 .LBB62
     /tmp/ccdpn9Gh.s:366    .text:000000000000015c .LBE62
     /tmp/ccdpn9Gh.s:2888   .debug_loc:00000000000002cc .LLST10
     /tmp/ccdpn9Gh.s:372    .text:0000000000000164 .LBB64
     /tmp/ccdpn9Gh.s:386    .text:000000000000016c .LBE64
     /tmp/ccdpn9Gh.s:2895   .debug_loc:00000000000002ef .LLST11
     /tmp/ccdpn9Gh.s:392    .text:0000000000000174 .LBB66
     /tmp/ccdpn9Gh.s:406    .text:000000000000017c .LBE66
     /tmp/ccdpn9Gh.s:2902   .debug_loc:0000000000000312 .LLST12
     /tmp/ccdpn9Gh.s:418    .text:0000000000000188 .LBB68
     /tmp/ccdpn9Gh.s:432    .text:0000000000000194 .LBE68
     /tmp/ccdpn9Gh.s:241    .text:00000000000000ec .LVL10
     /tmp/ccdpn9Gh.s:270    .text:0000000000000110 .LVL14
     /tmp/ccdpn9Gh.s:351    .text:0000000000000154 .LVL21
     /tmp/ccdpn9Gh.s:371    .text:0000000000000164 .LVL23
     /tmp/ccdpn9Gh.s:391    .text:0000000000000174 .LVL25
     /tmp/ccdpn9Gh.s:411    .text:0000000000000184 .LVL27
     /tmp/ccdpn9Gh.s:62     .text:0000000000000038 .LBB38
     /tmp/ccdpn9Gh.s:79     .text:0000000000000044 .LBE38
     /tmp/ccdpn9Gh.s:81     .text:0000000000000044 .LBB40
     /tmp/ccdpn9Gh.s:97     .text:0000000000000050 .LBE40
GAS LISTING /tmp/ccdpn9Gh.s 			page 23


     /tmp/ccdpn9Gh.s:99     .text:0000000000000050 .LBB42
     /tmp/ccdpn9Gh.s:115    .text:000000000000005c .LBE42
     /tmp/ccdpn9Gh.s:117    .text:000000000000005c .LBB44
     /tmp/ccdpn9Gh.s:133    .text:0000000000000068 .LBE44
     /tmp/ccdpn9Gh.s:10     .text:0000000000000000 .LFB48
     /tmp/ccdpn9Gh.s:40     .text:0000000000000020 .LFE48
     /tmp/ccdpn9Gh.s:3226   .debug_str:00000000000008d1 .LASF131
     /tmp/ccdpn9Gh.s:3114   .debug_str:000000000000053f .LASF132
     /tmp/ccdpn9Gh.s:3004   .debug_str:0000000000000221 .LASF143
     /tmp/ccdpn9Gh.s:3216   .debug_str:0000000000000893 .LASF144
     /tmp/ccdpn9Gh.s:3204   .debug_str:0000000000000834 .LASF145
     /tmp/ccdpn9Gh.s:3006   .debug_str:0000000000000250 .LASF146
     /tmp/ccdpn9Gh.s:77     .text:0000000000000044 .LVL0
     /tmp/ccdpn9Gh.s:147    .text:000000000000008c .LVL4
     /tmp/ccdpn9Gh.s:163    .text:0000000000000098 .LVL5
     /tmp/ccdpn9Gh.s:228    .text:00000000000000d4 .LVL9
     /tmp/ccdpn9Gh.s:414    .text:0000000000000188 .LVL28
     /tmp/ccdpn9Gh.s:423    .text:000000000000018c .LVL29
     /tmp/ccdpn9Gh.s:95     .text:0000000000000050 .LVL1
     /tmp/ccdpn9Gh.s:197    .text:00000000000000bc .LVL8
     /tmp/ccdpn9Gh.s:113    .text:000000000000005c .LVL2
     /tmp/ccdpn9Gh.s:247    .text:00000000000000f0 .LVL11
     /tmp/ccdpn9Gh.s:328    .text:0000000000000134 .LVL18
     /tmp/ccdpn9Gh.s:363    .text:000000000000015c .LVL22
     /tmp/ccdpn9Gh.s:383    .text:000000000000016c .LVL24
     /tmp/ccdpn9Gh.s:403    .text:000000000000017c .LVL26
     /tmp/ccdpn9Gh.s:131    .text:0000000000000068 .LVL3
     /tmp/ccdpn9Gh.s:173    .text:00000000000000a4 .LVL6
     /tmp/ccdpn9Gh.s:307    .text:000000000000011c .LVL17
     /tmp/ccdpn9Gh.s:189    .text:00000000000000b0 .LVL7
     /tmp/ccdpn9Gh.s:280    .text:0000000000000114 .LVL15
     /tmp/ccdpn9Gh.s:294    .text:0000000000000118 .LVL16
     /tmp/ccdpn9Gh.s:451    .debug_info:0000000000000000 .Ldebug_info0
     /tmp/ccdpn9Gh.s:150    .text:0000000000000094 .LBB47
     /tmp/ccdpn9Gh.s:230    .text:00000000000000d4 .LBE47
     /tmp/ccdpn9Gh.s:236    .text:00000000000000e4 .LBB70
     /tmp/ccdpn9Gh.s:243    .text:00000000000000ec .LBE70
     /tmp/ccdpn9Gh.s:250    .text:00000000000000f0 .LBB71
     /tmp/ccdpn9Gh.s:312    .text:000000000000011c .LBE71
     /tmp/ccdpn9Gh.s:332    .text:0000000000000134 .LBB72
     /tmp/ccdpn9Gh.s:433    .text:0000000000000194 .LBE72

UNDEFINED SYMBOLS
console_handler
_ZN15MemoryAllocator8allocateEm
_ZN15MemoryAllocator10deallocateEPv
_ZN3PCB12createThreadEPFvPvES0_
_ZN3PCB4exitEv
_ZN3PCB8dispatchEv
