GAS LISTING /tmp/ccs9Di6y.s 			page 1


   1              		.file	"riscv.cpp"
   2              		.option pic
   3              		.option norelax
   4              		.text
   5              	.Ltext0:
   6              		.align	2
   7              		.globl	_ZN5Riscv10popSppSpieEv
   9              	_ZN5Riscv10popSppSpieEv:
  10              	.LFB48:
  11              		.file 1 "src/riscv.cpp"
   1:src/riscv.cpp **** #include "../h/riscv.hpp"
   2:src/riscv.cpp **** 
   3:src/riscv.cpp **** 
   4:src/riscv.cpp **** 
   5:src/riscv.cpp **** void Riscv::popSppSpie()
   6:src/riscv.cpp **** {
  12              		.loc 1 6 1
  13              		.cfi_startproc
  14 0000 130101FF 		addi	sp,sp,-16
  15              		.cfi_def_cfa_offset 16
  16 0004 23348100 		sd	s0,8(sp)
  17              		.cfi_offset 8, -8
  18 0008 13040101 		addi	s0,sp,16
  19              		.cfi_def_cfa 8, 0
   7:src/riscv.cpp ****     __asm__ volatile ("csrw sepc, ra");
  20              		.loc 1 7 5
  21              		.loc 1 7 39 is_stmt 0
  22              	#APP
  23              	# 7 "src/riscv.cpp" 1
   8              	    __asm__ volatile ("sret");
  24              		csrw sepc, ra
  25              	# 0 "" 2
  26              		.loc 1 8 5 is_stmt 1
  27              		.loc 1 8 30 is_stmt 0
  28              	# 8 "src/riscv.cpp" 1
   9              	}
  29              		sret
  30              	# 0 "" 2
  31              		.loc 1 9 1
  32              	#NO_APP
  33 0014 03348100 		ld	s0,8(sp)
  34              		.cfi_restore 8
  35              		.cfi_def_cfa 2, 16
  36 0018 13010101 		addi	sp,sp,16
  37              		.cfi_def_cfa_offset 0
  38 001c 67800000 		jr	ra
  39              		.cfi_endproc
  40              	.LFE48:
  42              		.align	2
  43              		.globl	_ZN5Riscv11trapHandlerEv
  45              	_ZN5Riscv11trapHandlerEv:
  46              	.LFB49:
  10:src/riscv.cpp **** 
  11:src/riscv.cpp **** void Riscv::trapHandler() {
  47              		.loc 1 11 27 is_stmt 1
  48              		.cfi_startproc
  49              		.cfi_personality 0x9b,DW.ref.__gxx_personality_v0
GAS LISTING /tmp/ccs9Di6y.s 			page 2


  50              		.cfi_lsda 0x1b,.LLSDA49
  51 0020 130101F7 		addi	sp,sp,-144
  52              		.cfi_def_cfa_offset 144
  53 0024 23341108 		sd	ra,136(sp)
  54 0028 23308108 		sd	s0,128(sp)
  55 002c 233C9106 		sd	s1,120(sp)
  56 0030 23382107 		sd	s2,112(sp)
  57 0034 23343107 		sd	s3,104(sp)
  58 0038 23304107 		sd	s4,96(sp)
  59 003c 233C5105 		sd	s5,88(sp)
  60 0040 23386105 		sd	s6,80(sp)
  61 0044 23347105 		sd	s7,72(sp)
  62 0048 23308105 		sd	s8,64(sp)
  63              		.cfi_offset 1, -8
  64              		.cfi_offset 8, -16
  65              		.cfi_offset 9, -24
  66              		.cfi_offset 18, -32
  67              		.cfi_offset 19, -40
  68              		.cfi_offset 20, -48
  69              		.cfi_offset 21, -56
  70              		.cfi_offset 22, -64
  71              		.cfi_offset 23, -72
  72              		.cfi_offset 24, -80
  73 004c 13040109 		addi	s0,sp,144
  74              		.cfi_def_cfa 8, 0
  12:src/riscv.cpp ****     uint64 scause = r_scause();
  75              		.loc 1 12 5
  76              	.LBB73:
  77              	.LBB74:
  78              		.file 2 "src/../h/riscv.hpp"
   1:src/../h/riscv.hpp **** #ifndef PROJECT_BASE_V1_1_RISCV_HPP
   2:src/../h/riscv.hpp **** #define PROJECT_BASE_V1_1_RISCV_HPP
   3:src/../h/riscv.hpp **** 
   4:src/../h/riscv.hpp **** 
   5:src/../h/riscv.hpp **** #include "../h/MemoryAllocator.hpp"
   6:src/../h/riscv.hpp **** #include "PCB.hpp"
   7:src/../h/riscv.hpp **** 
   8:src/../h/riscv.hpp **** 
   9:src/../h/riscv.hpp **** #define readUsrReg(reg, dst) __asm__ volatile("mv %0,"#reg : "=r" (dst));
  10:src/../h/riscv.hpp **** #define writeUsrReg(reg, src) __asm__ volatile("mv "#reg", %0" : : "r" (src));
  11:src/../h/riscv.hpp **** 
  12:src/../h/riscv.hpp **** 
  13:src/../h/riscv.hpp **** class Riscv
  14:src/../h/riscv.hpp **** {
  15:src/../h/riscv.hpp **** public:
  16:src/../h/riscv.hpp **** 
  17:src/../h/riscv.hpp **** 
  18:src/../h/riscv.hpp **** 
  19:src/../h/riscv.hpp ****     // pop sstatus.spp and sstatus.spie bits (has to be a non inline function)
  20:src/../h/riscv.hpp ****     static void popSppSpie();
  21:src/../h/riscv.hpp **** 
  22:src/../h/riscv.hpp ****     // push x3..x31 registers onto stack
  23:src/../h/riscv.hpp ****     static void pushRegisters();
  24:src/../h/riscv.hpp **** 
  25:src/../h/riscv.hpp ****     // pop x3..x31 registers onto stack
  26:src/../h/riscv.hpp ****     static void popRegisters();
  27:src/../h/riscv.hpp **** 
GAS LISTING /tmp/ccs9Di6y.s 			page 3


  28:src/../h/riscv.hpp ****     // read register scause
  29:src/../h/riscv.hpp ****     static uint64 r_scause();
  30:src/../h/riscv.hpp **** 
  31:src/../h/riscv.hpp ****     // write register scause
  32:src/../h/riscv.hpp ****     static void w_scause(uint64 scause);
  33:src/../h/riscv.hpp **** 
  34:src/../h/riscv.hpp ****     // read register sepc
  35:src/../h/riscv.hpp ****     static uint64 r_sepc();
  36:src/../h/riscv.hpp **** 
  37:src/../h/riscv.hpp ****     // write register sepc
  38:src/../h/riscv.hpp ****     static void w_sepc(uint64 sepc);
  39:src/../h/riscv.hpp **** 
  40:src/../h/riscv.hpp ****     // read register stvec
  41:src/../h/riscv.hpp ****     static uint64 r_stvec();
  42:src/../h/riscv.hpp **** 
  43:src/../h/riscv.hpp ****     // write register stvec
  44:src/../h/riscv.hpp ****     static void w_stvec(uint64 stvec);
  45:src/../h/riscv.hpp **** 
  46:src/../h/riscv.hpp ****     // read register stval
  47:src/../h/riscv.hpp ****     static uint64 r_stval();
  48:src/../h/riscv.hpp **** 
  49:src/../h/riscv.hpp ****     // write register stval
  50:src/../h/riscv.hpp ****     static void w_stval(uint64 stval);
  51:src/../h/riscv.hpp **** 
  52:src/../h/riscv.hpp ****     enum BitMaskSip
  53:src/../h/riscv.hpp ****     {
  54:src/../h/riscv.hpp **** //        SIP_SSIE = (1 << 1),
  55:src/../h/riscv.hpp **** //        SIP_STIE = (1 << 5),
  56:src/../h/riscv.hpp **** //        SIP_SEIE = (1 << 9),
  57:src/../h/riscv.hpp ****         SIP_SSIP = (1<<1),
  58:src/../h/riscv.hpp ****         SIP_SEIP = (1<<9)
  59:src/../h/riscv.hpp ****     };
  60:src/../h/riscv.hpp **** 
  61:src/../h/riscv.hpp ****     // mask set register sip
  62:src/../h/riscv.hpp ****     static void ms_sip(uint64 mask);
  63:src/../h/riscv.hpp **** 
  64:src/../h/riscv.hpp ****     // mask clear register sip
  65:src/../h/riscv.hpp ****     static void mc_sip(uint64 mask);
  66:src/../h/riscv.hpp **** 
  67:src/../h/riscv.hpp ****     // read register sip
  68:src/../h/riscv.hpp ****     static uint64 r_sip();
  69:src/../h/riscv.hpp **** 
  70:src/../h/riscv.hpp ****     // write register sip
  71:src/../h/riscv.hpp ****     static void w_sip(uint64 sip);
  72:src/../h/riscv.hpp **** 
  73:src/../h/riscv.hpp ****     enum BitMaskSstatus
  74:src/../h/riscv.hpp ****     {
  75:src/../h/riscv.hpp ****         SSTATUS_SIE = (1 << 1),
  76:src/../h/riscv.hpp ****         SSTATUS_SPIE = (1 << 5),
  77:src/../h/riscv.hpp ****         SSTATUS_SPP = (1 << 8),
  78:src/../h/riscv.hpp ****     };
  79:src/../h/riscv.hpp **** 
  80:src/../h/riscv.hpp ****     // mask set register sstatus
  81:src/../h/riscv.hpp ****     static void ms_sstatus(uint64 mask);
  82:src/../h/riscv.hpp **** 
  83:src/../h/riscv.hpp ****     // mask clear register sstatus
  84:src/../h/riscv.hpp ****     static void mc_sstatus(uint64 mask);
GAS LISTING /tmp/ccs9Di6y.s 			page 4


  85:src/../h/riscv.hpp **** 
  86:src/../h/riscv.hpp ****     // read register sstatus
  87:src/../h/riscv.hpp ****     static uint64 r_sstatus();
  88:src/../h/riscv.hpp **** 
  89:src/../h/riscv.hpp ****     // write register sstatus
  90:src/../h/riscv.hpp ****     static void w_sstatus(uint64 sstatus);
  91:src/../h/riscv.hpp **** 
  92:src/../h/riscv.hpp ****     // mask set register sie
  93:src/../h/riscv.hpp ****     static void ms_sie(uint64 mask);
  94:src/../h/riscv.hpp **** 
  95:src/../h/riscv.hpp ****     // mask clear register sie
  96:src/../h/riscv.hpp ****     static void mc_sie(uint64 mask);
  97:src/../h/riscv.hpp **** 
  98:src/../h/riscv.hpp ****     static void supervisorTrap();
  99:src/../h/riscv.hpp **** 
 100:src/../h/riscv.hpp ****     static long r_a0();
 101:src/../h/riscv.hpp **** 
 102:src/../h/riscv.hpp ****     static void w_a0(long a0);
 103:src/../h/riscv.hpp **** 
 104:src/../h/riscv.hpp ****     static uint64 r_a1();
 105:src/../h/riscv.hpp **** 
 106:src/../h/riscv.hpp ****     static void w_a1(uint64 a1);
 107:src/../h/riscv.hpp **** 
 108:src/../h/riscv.hpp ****     static uint64 r_a2();
 109:src/../h/riscv.hpp **** 
 110:src/../h/riscv.hpp ****     static void w_a2(uint64 a1);
 111:src/../h/riscv.hpp **** 
 112:src/../h/riscv.hpp ****     static uint64 r_a7();
 113:src/../h/riscv.hpp **** 
 114:src/../h/riscv.hpp ****     static void w_a7(uint64 a7);
 115:src/../h/riscv.hpp **** 
 116:src/../h/riscv.hpp ****     static void push_a0(long a0);
 117:src/../h/riscv.hpp **** 
 118:src/../h/riscv.hpp **** private:
 119:src/../h/riscv.hpp ****     static void trapHandler();
 120:src/../h/riscv.hpp **** 
 121:src/../h/riscv.hpp **** 
 122:src/../h/riscv.hpp **** };
 123:src/../h/riscv.hpp **** 
 124:src/../h/riscv.hpp **** inline uint64 Riscv::r_scause()
 125:src/../h/riscv.hpp **** {
 126:src/../h/riscv.hpp ****     uint64 volatile scause;
  79              		.loc 2 126 5
 127:src/../h/riscv.hpp ****     __asm__ volatile ("csrr %[scause], scause" : [scause] "=r"(scause));
  80              		.loc 2 127 5
  81              		.loc 2 127 72 is_stmt 0
  82              	#APP
  83              	# 127 "src/../h/riscv.hpp" 1
 128              	    return scause;
  84              		csrr a5, scause
  85              	# 0 "" 2
  86              	#NO_APP
  87 0054 233CF4F8 		sd	a5,-104(s0)
  88              		.loc 2 128 5 is_stmt 1
  89              		.loc 2 128 12 is_stmt 0
  90 0058 833784F9 		ld	a5,-104(s0)
  91              	.LVL0:
GAS LISTING /tmp/ccs9Di6y.s 			page 5


  92              	.LBE74:
  93              	.LBE73:
  13:src/riscv.cpp ****     uint64 a0 = r_a0();
  94              		.loc 1 13 5 is_stmt 1
  95              	.LBB75:
  96              	.LBB76:
 129:src/../h/riscv.hpp **** }
 130:src/../h/riscv.hpp **** 
 131:src/../h/riscv.hpp **** inline void Riscv::w_scause(uint64 scause)
 132:src/../h/riscv.hpp **** {
 133:src/../h/riscv.hpp ****     __asm__ volatile ("csrw scause, %[scause]" : : [scause] "r"(scause));
 134:src/../h/riscv.hpp **** }
 135:src/../h/riscv.hpp **** 
 136:src/../h/riscv.hpp **** inline uint64 Riscv::r_sepc()
 137:src/../h/riscv.hpp **** {
 138:src/../h/riscv.hpp ****     uint64 volatile sepc;
 139:src/../h/riscv.hpp ****     __asm__ volatile ("csrr %[sepc], sepc" : [sepc] "=r"(sepc));
 140:src/../h/riscv.hpp ****     return sepc;
 141:src/../h/riscv.hpp **** }
 142:src/../h/riscv.hpp **** 
 143:src/../h/riscv.hpp **** inline void Riscv::w_sepc(uint64 sepc)
 144:src/../h/riscv.hpp **** {
 145:src/../h/riscv.hpp ****     __asm__ volatile ("csrw sepc, %[sepc]" : : [sepc] "r"(sepc));
 146:src/../h/riscv.hpp **** }
 147:src/../h/riscv.hpp **** 
 148:src/../h/riscv.hpp **** inline uint64 Riscv::r_stvec()
 149:src/../h/riscv.hpp **** {
 150:src/../h/riscv.hpp ****     uint64 volatile stvec;
 151:src/../h/riscv.hpp ****     __asm__ volatile ("csrr %[stvec], stvec" : [stvec] "=r"(stvec));
 152:src/../h/riscv.hpp ****     return stvec;
 153:src/../h/riscv.hpp **** }
 154:src/../h/riscv.hpp **** 
 155:src/../h/riscv.hpp **** inline void Riscv::w_stvec(uint64 stvec)
 156:src/../h/riscv.hpp **** {
 157:src/../h/riscv.hpp ****     __asm__ volatile ("csrw stvec, %[stvec]" : : [stvec] "r"(stvec));
 158:src/../h/riscv.hpp **** }
 159:src/../h/riscv.hpp **** 
 160:src/../h/riscv.hpp **** inline uint64 Riscv::r_stval()
 161:src/../h/riscv.hpp **** {
 162:src/../h/riscv.hpp ****     uint64 volatile stval;
 163:src/../h/riscv.hpp ****     __asm__ volatile ("csrr %[stval], stval" : [stval] "=r"(stval));
 164:src/../h/riscv.hpp ****     return stval;
 165:src/../h/riscv.hpp **** }
 166:src/../h/riscv.hpp **** 
 167:src/../h/riscv.hpp **** inline void Riscv::w_stval(uint64 stval)
 168:src/../h/riscv.hpp **** {
 169:src/../h/riscv.hpp ****     __asm__ volatile ("csrw stval, %[stval]" : : [stval] "r"(stval));
 170:src/../h/riscv.hpp **** }
 171:src/../h/riscv.hpp **** 
 172:src/../h/riscv.hpp **** inline void Riscv::ms_sip(uint64 mask)
 173:src/../h/riscv.hpp **** {
 174:src/../h/riscv.hpp ****     __asm__ volatile ("csrs sip, %[mask]" : : [mask] "r"(mask));
 175:src/../h/riscv.hpp **** }
 176:src/../h/riscv.hpp **** 
 177:src/../h/riscv.hpp **** inline void Riscv::mc_sip(uint64 mask)
 178:src/../h/riscv.hpp **** {
 179:src/../h/riscv.hpp ****     __asm__ volatile ("csrc sip, %[mask]" : : [mask] "r"(mask));
GAS LISTING /tmp/ccs9Di6y.s 			page 6


 180:src/../h/riscv.hpp **** }
 181:src/../h/riscv.hpp **** 
 182:src/../h/riscv.hpp **** inline uint64 Riscv::r_sip()
 183:src/../h/riscv.hpp **** {
 184:src/../h/riscv.hpp ****     uint64 volatile sip;
 185:src/../h/riscv.hpp ****     __asm__ volatile ("csrr %[sip], sip" : [sip] "=r"(sip));
 186:src/../h/riscv.hpp ****     return sip;
 187:src/../h/riscv.hpp **** }
 188:src/../h/riscv.hpp **** 
 189:src/../h/riscv.hpp **** inline void Riscv::w_sip(uint64 sip)
 190:src/../h/riscv.hpp **** {
 191:src/../h/riscv.hpp ****     __asm__ volatile ("csrw sip, %[sip]" : : [sip] "r"(sip));
 192:src/../h/riscv.hpp **** }
 193:src/../h/riscv.hpp **** 
 194:src/../h/riscv.hpp **** inline void Riscv::ms_sstatus(uint64 mask)
 195:src/../h/riscv.hpp **** {
 196:src/../h/riscv.hpp ****     __asm__ volatile ("csrs sstatus, %[mask]" : : [mask] "r"(mask));
 197:src/../h/riscv.hpp **** }
 198:src/../h/riscv.hpp **** 
 199:src/../h/riscv.hpp **** inline void Riscv::mc_sstatus(uint64 mask)
 200:src/../h/riscv.hpp **** {
 201:src/../h/riscv.hpp ****     __asm__ volatile ("csrc sstatus, %[mask]" : : [mask] "r"(mask));
 202:src/../h/riscv.hpp **** }
 203:src/../h/riscv.hpp **** 
 204:src/../h/riscv.hpp **** inline uint64 Riscv::r_sstatus()
 205:src/../h/riscv.hpp **** {
 206:src/../h/riscv.hpp ****     uint64 volatile sstatus;
 207:src/../h/riscv.hpp ****     __asm__ volatile ("csrr %[sstatus], sstatus" : [sstatus] "=r"(sstatus));
 208:src/../h/riscv.hpp ****     return sstatus;
 209:src/../h/riscv.hpp **** }
 210:src/../h/riscv.hpp **** 
 211:src/../h/riscv.hpp **** inline void Riscv::w_sstatus(uint64 sstatus)
 212:src/../h/riscv.hpp **** {
 213:src/../h/riscv.hpp ****     __asm__ volatile ("csrw sstatus, %[sstatus]" : : [sstatus] "r"(sstatus));
 214:src/../h/riscv.hpp **** }
 215:src/../h/riscv.hpp **** 
 216:src/../h/riscv.hpp **** inline void Riscv::ms_sie(uint64 mask)
 217:src/../h/riscv.hpp **** {
 218:src/../h/riscv.hpp ****     __asm__ volatile ("csrs sie, %[mask]" : : [mask] "r"(mask));
 219:src/../h/riscv.hpp **** }
 220:src/../h/riscv.hpp **** 
 221:src/../h/riscv.hpp **** inline void Riscv::mc_sie(uint64 mask)
 222:src/../h/riscv.hpp **** {
 223:src/../h/riscv.hpp ****     __asm__ volatile ("csrc sie, %[mask]" : : [mask] "r"(mask));
 224:src/../h/riscv.hpp **** }
 225:src/../h/riscv.hpp **** 
 226:src/../h/riscv.hpp **** inline long Riscv::r_a0() {
 227:src/../h/riscv.hpp ****     long volatile a0;
  97              		.loc 2 227 5
 228:src/../h/riscv.hpp ****     __asm__ volatile("mv %0, a0" : "=r"(a0));
  98              		.loc 2 228 5
  99              		.loc 2 228 45 is_stmt 0
 100              	#APP
 101              	# 228 "src/../h/riscv.hpp" 1
 229              	    return a0;
 102              		mv a4, a0
 103              	# 0 "" 2
GAS LISTING /tmp/ccs9Di6y.s 			page 7


 104              	#NO_APP
 105 0060 2338E4F8 		sd	a4,-112(s0)
 106              		.loc 2 229 5 is_stmt 1
 107              		.loc 2 229 12 is_stmt 0
 108 0064 833604F9 		ld	a3,-112(s0)
 109              	.LVL1:
 110              	.LBE76:
 111              	.LBE75:
  14:src/riscv.cpp ****     uint64 a1 = r_a1();
 112              		.loc 1 14 5 is_stmt 1
 113              	.LBB77:
 114              	.LBB78:
 230:src/../h/riscv.hpp **** }
 231:src/../h/riscv.hpp **** 
 232:src/../h/riscv.hpp **** inline void Riscv::w_a0(long a0) {
 233:src/../h/riscv.hpp ****     __asm__ volatile ("mv a0, %0" : : "r"(a0));
 234:src/../h/riscv.hpp **** }
 235:src/../h/riscv.hpp **** 
 236:src/../h/riscv.hpp **** inline uint64 Riscv::r_a1() {
 237:src/../h/riscv.hpp ****     uint64 volatile a1;
 115              		.loc 2 237 5
 238:src/../h/riscv.hpp ****     __asm__ volatile("mv %0, a1" : "=r"(a1));
 116              		.loc 2 238 5
 117              		.loc 2 238 45 is_stmt 0
 118              	#APP
 119              	# 238 "src/../h/riscv.hpp" 1
 239              	    return a1;
 120              		mv a4, a1
 121              	# 0 "" 2
 122              	#NO_APP
 123 006c 2334E4F8 		sd	a4,-120(s0)
 124              		.loc 2 239 5 is_stmt 1
 125              		.loc 2 239 12 is_stmt 0
 126 0070 833484F8 		ld	s1,-120(s0)
 127              	.LVL2:
 128              	.LBE78:
 129              	.LBE77:
  15:src/riscv.cpp ****     uint64 a2 = r_a2();
 130              		.loc 1 15 5 is_stmt 1
 131              	.LBB79:
 132              	.LBB80:
 240:src/../h/riscv.hpp **** }
 241:src/../h/riscv.hpp **** 
 242:src/../h/riscv.hpp **** inline void Riscv::w_a1(uint64 a1) {
 243:src/../h/riscv.hpp ****     __asm__ volatile ("mv a1, %0" : : "r"(a1));
 244:src/../h/riscv.hpp **** }
 245:src/../h/riscv.hpp **** 
 246:src/../h/riscv.hpp **** inline uint64 Riscv::r_a2() {
 247:src/../h/riscv.hpp ****     uint64 volatile a2;
 133              		.loc 2 247 5
 248:src/../h/riscv.hpp ****     __asm__ volatile("mv %0, a2" : "=r"(a2));
 134              		.loc 2 248 5
 135              		.loc 2 248 45 is_stmt 0
 136              	#APP
 137              	# 248 "src/../h/riscv.hpp" 1
 249              	    return a2;
 138              		mv a4, a2
GAS LISTING /tmp/ccs9Di6y.s 			page 8


 139              	# 0 "" 2
 140              	#NO_APP
 141 0078 2330E4F8 		sd	a4,-128(s0)
 142              		.loc 2 249 5 is_stmt 1
 143              		.loc 2 249 12 is_stmt 0
 144 007c 033904F8 		ld	s2,-128(s0)
 145              	.LVL3:
 146              	.LBE80:
 147              	.LBE79:
  16:src/riscv.cpp ****     uint64 a3 = r_a7();
 148              		.loc 1 16 5 is_stmt 1
 149              	.LBB81:
 150              	.LBB82:
 250:src/../h/riscv.hpp **** }
 251:src/../h/riscv.hpp **** 
 252:src/../h/riscv.hpp **** inline void Riscv::w_a2(uint64 a2) {
 253:src/../h/riscv.hpp ****     __asm__ volatile ("mv a2, %0" : : "r"(a2));
 254:src/../h/riscv.hpp **** }
 255:src/../h/riscv.hpp **** 
 256:src/../h/riscv.hpp **** inline uint64 Riscv::r_a7() {
 257:src/../h/riscv.hpp ****     uint64 volatile a7;
 151              		.loc 2 257 5
 258:src/../h/riscv.hpp ****     __asm__ volatile("mv %0, a7" : "=r"(a7));
 152              		.loc 2 258 5
 153              		.loc 2 258 45 is_stmt 0
 154              	#APP
 155              	# 258 "src/../h/riscv.hpp" 1
 259              	    return a7;
 156              		mv a4, a7
 157              	# 0 "" 2
 158              	#NO_APP
 159 0084 233CE4F6 		sd	a4,-136(s0)
 160              		.loc 2 259 5 is_stmt 1
 161              		.loc 2 259 12 is_stmt 0
 162 0088 833984F7 		ld	s3,-136(s0)
 163              	.LVL4:
 164              	.LBE82:
 165              	.LBE81:
  17:src/riscv.cpp **** 
  18:src/riscv.cpp ****     uint64 sepc;
 166              		.loc 1 18 5 is_stmt 1
  19:src/riscv.cpp ****     uint64 sstatus;
 167              		.loc 1 19 5
  20:src/riscv.cpp **** 
  21:src/riscv.cpp ****     switch (scause) {
 168              		.loc 1 21 5
 169              	.LBB83:
 170 008c 1307F0FF 		li	a4,-1
 171 0090 1317F703 		slli	a4,a4,63
 172 0094 13071700 		addi	a4,a4,1
 173 0098 6386E724 		beq	a5,a4,.L4
 174 009c 1307F0FF 		li	a4,-1
 175 00a0 1317F703 		slli	a4,a4,63
 176 00a4 13071700 		addi	a4,a4,1
 177 00a8 6368F704 		bgtu	a5,a4,.L5
 178 00ac 938787FF 		addi	a5,a5,-8
 179              	.LVL5:
GAS LISTING /tmp/ccs9Di6y.s 			page 9


 180 00b0 13071000 		li	a4,1
 181 00b4 636CF722 		bgtu	a5,a4,.L3
 182              	.LBB84:
  22:src/riscv.cpp ****         case 0x08:
 183              		.loc 1 22 9
  23:src/riscv.cpp ****         case 0x09:
 184              		.loc 1 23 9
  24:src/riscv.cpp ****             //ecall: software interrupt
  25:src/riscv.cpp ****             sepc = r_sepc() + 4;
 185              		.loc 1 25 13
 186              	.LBB85:
 187              	.LBB86:
 138:src/../h/riscv.hpp ****     __asm__ volatile ("csrr %[sepc], sepc" : [sepc] "=r"(sepc));
 188              		.loc 2 138 5
 139:src/../h/riscv.hpp ****     return sepc;
 189              		.loc 2 139 5
 139:src/../h/riscv.hpp ****     return sepc;
 190              		.loc 2 139 64 is_stmt 0
 191              	#APP
 192              	# 139 "src/../h/riscv.hpp" 1
 193              		csrr a5, sepc
 194              	# 0 "" 2
 195              	.LVL6:
 196              	#NO_APP
 197 00bc 2334F4FA 		sd	a5,-88(s0)
 140:src/../h/riscv.hpp **** }
 198              		.loc 2 140 5 is_stmt 1
 140:src/../h/riscv.hpp **** }
 199              		.loc 2 140 12 is_stmt 0
 200 00c0 033A84FA 		ld	s4,-88(s0)
 201              	.LBE86:
 202              	.LBE85:
 203              		.loc 1 25 18
 204 00c4 130B4A00 		addi	s6,s4,4
 205              	.LVL7:
  26:src/riscv.cpp ****             sstatus = r_sstatus();
 206              		.loc 1 26 13 is_stmt 1
 207              	.LBB87:
 208              	.LBB88:
 206:src/../h/riscv.hpp ****     __asm__ volatile ("csrr %[sstatus], sstatus" : [sstatus] "=r"(sstatus));
 209              		.loc 2 206 5
 207:src/../h/riscv.hpp ****     return sstatus;
 210              		.loc 2 207 5
 207:src/../h/riscv.hpp ****     return sstatus;
 211              		.loc 2 207 76 is_stmt 0
 212              	#APP
 213              	# 207 "src/../h/riscv.hpp" 1
 214              		csrr a5, sstatus
 215              	# 0 "" 2
 216              	#NO_APP
 217 00cc 2330F4FA 		sd	a5,-96(s0)
 208:src/../h/riscv.hpp **** }
 218              		.loc 2 208 5 is_stmt 1
 208:src/../h/riscv.hpp **** }
 219              		.loc 2 208 12 is_stmt 0
 220 00d0 833A04FA 		ld	s5,-96(s0)
 221              	.LVL8:
GAS LISTING /tmp/ccs9Di6y.s 			page 10


 222              	.LBE88:
 223              	.LBE87:
  27:src/riscv.cpp ****             void* mem;
 224              		.loc 1 27 13 is_stmt 1
  28:src/riscv.cpp ****             uint64* stack;
 225              		.loc 1 28 13
  29:src/riscv.cpp ****             PCB** handleAddr;
 226              		.loc 1 29 13
  30:src/riscv.cpp ****             Sem** semAddr;
 227              		.loc 1 30 13
  31:src/riscv.cpp ****             Sem* sem;
 228              		.loc 1 31 13
  32:src/riscv.cpp ****             int value;
 229              		.loc 1 32 13
  33:src/riscv.cpp ****             char c;
 230              		.loc 1 33 13
  34:src/riscv.cpp ****             switch(a0){
 231              		.loc 1 34 13
 232 00d4 93071005 		li	a5,81
 233 00d8 63E2D706 		bgtu	a3,a5,.L9
 234 00dc 93962600 		slli	a3,a3,2
 235              	.LVL9:
 236 00e0 17070000 		lla	a4,.L11
 236      13070700 
 237 00e8 B386E600 		add	a3,a3,a4
 238 00ec 83A70600 		lw	a5,0(a3)
 239 00f0 B387E700 		add	a5,a5,a4
 240 00f4 67800700 		jr	a5
 241              		.section	.rodata
 242              		.align	2
 243              		.align	2
 244              	.L11:
 245 0000 00000000 		.word	.L9-.L11
 246 0004 00000000 		.word	.L23-.L11
 247 0008 00000000 		.word	.L22-.L11
 248 000c 00000000 		.word	.L9-.L11
 249 0010 00000000 		.word	.L9-.L11
 250 0014 00000000 		.word	.L9-.L11
 251 0018 00000000 		.word	.L9-.L11
 252 001c 00000000 		.word	.L9-.L11
 253 0020 00000000 		.word	.L9-.L11
 254 0024 00000000 		.word	.L9-.L11
 255 0028 00000000 		.word	.L9-.L11
 256 002c 00000000 		.word	.L9-.L11
 257 0030 00000000 		.word	.L9-.L11
 258 0034 00000000 		.word	.L9-.L11
 259 0038 00000000 		.word	.L9-.L11
 260 003c 00000000 		.word	.L9-.L11
 261 0040 00000000 		.word	.L9-.L11
 262 0044 00000000 		.word	.L21-.L11
 263 0048 00000000 		.word	.L20-.L11
 264 004c 00000000 		.word	.L19-.L11
 265 0050 00000000 		.word	.L18-.L11
 266 0054 00000000 		.word	.L9-.L11
 267 0058 00000000 		.word	.L9-.L11
 268 005c 00000000 		.word	.L9-.L11
 269 0060 00000000 		.word	.L9-.L11
GAS LISTING /tmp/ccs9Di6y.s 			page 11


 270 0064 00000000 		.word	.L9-.L11
 271 0068 00000000 		.word	.L9-.L11
 272 006c 00000000 		.word	.L9-.L11
 273 0070 00000000 		.word	.L9-.L11
 274 0074 00000000 		.word	.L9-.L11
 275 0078 00000000 		.word	.L9-.L11
 276 007c 00000000 		.word	.L9-.L11
 277 0080 00000000 		.word	.L9-.L11
 278 0084 00000000 		.word	.L17-.L11
 279 0088 00000000 		.word	.L16-.L11
 280 008c 00000000 		.word	.L15-.L11
 281 0090 00000000 		.word	.L14-.L11
 282 0094 00000000 		.word	.L9-.L11
 283 0098 00000000 		.word	.L9-.L11
 284 009c 00000000 		.word	.L9-.L11
 285 00a0 00000000 		.word	.L9-.L11
 286 00a4 00000000 		.word	.L9-.L11
 287 00a8 00000000 		.word	.L9-.L11
 288 00ac 00000000 		.word	.L9-.L11
 289 00b0 00000000 		.word	.L9-.L11
 290 00b4 00000000 		.word	.L9-.L11
 291 00b8 00000000 		.word	.L9-.L11
 292 00bc 00000000 		.word	.L9-.L11
 293 00c0 00000000 		.word	.L9-.L11
 294 00c4 00000000 		.word	.L9-.L11
 295 00c8 00000000 		.word	.L9-.L11
 296 00cc 00000000 		.word	.L9-.L11
 297 00d0 00000000 		.word	.L9-.L11
 298 00d4 00000000 		.word	.L9-.L11
 299 00d8 00000000 		.word	.L9-.L11
 300 00dc 00000000 		.word	.L9-.L11
 301 00e0 00000000 		.word	.L9-.L11
 302 00e4 00000000 		.word	.L9-.L11
 303 00e8 00000000 		.word	.L9-.L11
 304 00ec 00000000 		.word	.L9-.L11
 305 00f0 00000000 		.word	.L9-.L11
 306 00f4 00000000 		.word	.L9-.L11
 307 00f8 00000000 		.word	.L9-.L11
 308 00fc 00000000 		.word	.L9-.L11
 309 0100 00000000 		.word	.L9-.L11
 310 0104 00000000 		.word	.L13-.L11
 311 0108 00000000 		.word	.L12-.L11
 312 010c 00000000 		.word	.L9-.L11
 313 0110 00000000 		.word	.L9-.L11
 314 0114 00000000 		.word	.L9-.L11
 315 0118 00000000 		.word	.L9-.L11
 316 011c 00000000 		.word	.L9-.L11
 317 0120 00000000 		.word	.L9-.L11
 318 0124 00000000 		.word	.L9-.L11
 319 0128 00000000 		.word	.L9-.L11
 320 012c 00000000 		.word	.L9-.L11
 321 0130 00000000 		.word	.L9-.L11
 322 0134 00000000 		.word	.L9-.L11
 323 0138 00000000 		.word	.L9-.L11
 324 013c 00000000 		.word	.L9-.L11
 325 0140 00000000 		.word	.L9-.L11
 326 0144 00000000 		.word	.L10-.L11
GAS LISTING /tmp/ccs9Di6y.s 			page 12


 327              		.text
 328              	.LVL10:
 329              	.L5:
 330              	.LBE84:
  21:src/riscv.cpp ****         case 0x08:
 331              		.loc 1 21 5 is_stmt 0
 332 00f8 1307F0FF 		li	a4,-1
 333 00fc 1317F703 		slli	a4,a4,63
 334 0100 13079700 		addi	a4,a4,9
 335 0104 6394E71E 		bne	a5,a4,.L3
 336              	.LBB133:
  35:src/riscv.cpp ****                 case 0x01: // allocate
  36:src/riscv.cpp ****                     mem = MemoryAllocator::getInstance().allocate((size_t) a1);
  37:src/riscv.cpp ****                     push_a0((uint64) mem);
  38:src/riscv.cpp ****                     break;
  39:src/riscv.cpp ****                 case 0x02: // deallocate
  40:src/riscv.cpp ****                     push_a0(MemoryAllocator::getInstance().deallocate((void *)a1));
  41:src/riscv.cpp ****                     break;
  42:src/riscv.cpp ****                 case 0x11: //thread_create
  43:src/riscv.cpp ****                     if(a1 != 0) stack = (uint64*)MemoryAllocator::getInstance().allocate(((DEFAULT_
  44:src/riscv.cpp ****                     else stack = nullptr;
  45:src/riscv.cpp ****                     handleAddr = (PCB**) a3;
  46:src/riscv.cpp ****                     (*handleAddr) = new PCB((PCB::Body)a1, (void*)a2, stack);
  47:src/riscv.cpp ****                     if((PCB::Body)a1)Scheduler::put(*handleAddr);
  48:src/riscv.cpp **** 
  49:src/riscv.cpp ****                     if(!(*handleAddr))push_a0(-1);
  50:src/riscv.cpp ****                     push_a0(0);
  51:src/riscv.cpp ****                     break;
  52:src/riscv.cpp ****                 case 0x12: // thread_exit
  53:src/riscv.cpp ****                     push_a0(PCB::exit());
  54:src/riscv.cpp ****                     break;
  55:src/riscv.cpp ****                 case 0x13:
  56:src/riscv.cpp ****                     PCB::dispatch();
  57:src/riscv.cpp ****                     break;
  58:src/riscv.cpp ****                 case 0x14:
  59:src/riscv.cpp ****                     ((PCB*)a1)->join();
  60:src/riscv.cpp ****                     break;
  61:src/riscv.cpp ****                 case 0x21: //sem_open
  62:src/riscv.cpp ****                     value = a2;
  63:src/riscv.cpp ****                     semAddr = (Sem**) a1;
  64:src/riscv.cpp ****                     *semAddr = new Sem(value);
  65:src/riscv.cpp ****                     if(!(*semAddr))push_a0(-1);
  66:src/riscv.cpp ****                     push_a0(0);
  67:src/riscv.cpp ****                     break;
  68:src/riscv.cpp ****                 case 0x22: //sem_close
  69:src/riscv.cpp ****                     push_a0(((Sem*)a1)->close());
  70:src/riscv.cpp ****                     break;
  71:src/riscv.cpp ****                 case 0x23: //sem_wait
  72:src/riscv.cpp ****                     sem = (Sem*)a1;
  73:src/riscv.cpp ****                     push_a0(sem->wait());
  74:src/riscv.cpp ****                     break;
  75:src/riscv.cpp ****                 case 0x24: //sem_signal
  76:src/riscv.cpp ****                     push_a0(((Sem*)a1)->signal());
  77:src/riscv.cpp ****                     break;
  78:src/riscv.cpp ****                 case 0x41: //getc
  79:src/riscv.cpp ****                     c = __getc();
  80:src/riscv.cpp ****                     push_a0((char)c);
GAS LISTING /tmp/ccs9Di6y.s 			page 13


  81:src/riscv.cpp ****                     break;
  82:src/riscv.cpp ****                 case 0x42:
  83:src/riscv.cpp ****                     __putc(a1);
  84:src/riscv.cpp ****                 case 0x51:
  85:src/riscv.cpp ****                     w_sstatus(sstatus);
  86:src/riscv.cpp ****                     mc_sstatus(1<<8);
  87:src/riscv.cpp ****                     w_sepc(sepc+4);
  88:src/riscv.cpp ****                     return;
  89:src/riscv.cpp ****                 default:
  90:src/riscv.cpp ****                     //printString("Unknown interrupt!");
  91:src/riscv.cpp ****                     break;
  92:src/riscv.cpp **** 
  93:src/riscv.cpp ****             }
  94:src/riscv.cpp **** 
  95:src/riscv.cpp ****             w_sstatus(sstatus);
  96:src/riscv.cpp ****             w_sepc(sepc);
  97:src/riscv.cpp ****             break;
  98:src/riscv.cpp ****         case 0x8000000000000001UL:
  99:src/riscv.cpp ****             //timer interrupt
 100:src/riscv.cpp ****             mc_sip(SIP_SSIP);
 101:src/riscv.cpp ****             break;
 102:src/riscv.cpp ****         case 0x8000000000000009UL:
 337              		.loc 1 102 9 is_stmt 1
 103:src/riscv.cpp ****             //external hardware interrupt
 104:src/riscv.cpp ****             console_handler();
 338              		.loc 1 104 13
 339              	.LEHB0:
 340              		.loc 1 104 28 is_stmt 0
 341 0108 97000000 		call	console_handler@plt
 341      E7800000 
 342              	.LVL11:
 105:src/riscv.cpp ****             break;
 343              		.loc 1 105 13 is_stmt 1
 344 0110 6F00C01D 		j	.L3
 345              	.LVL12:
 346              	.L23:
  35:src/riscv.cpp ****                 case 0x01: // allocate
 347              		.loc 1 35 17
  36:src/riscv.cpp ****                     push_a0((uint64) mem);
 348              		.loc 1 36 21
 349              	.LBB89:
 350              	.LBB90:
 351              		.file 3 "src/../h/../h/MemoryAllocator.hpp"
   1:src/../h/../h/MemoryAllocator.hpp **** #ifndef PROJECT_BASE_V1_1_MEMORYALLOCATOR_HPP
   2:src/../h/../h/MemoryAllocator.hpp **** #define PROJECT_BASE_V1_1_MEMORYALLOCATOR_HPP
   3:src/../h/../h/MemoryAllocator.hpp **** #include "print.hpp"
   4:src/../h/../h/MemoryAllocator.hpp **** 
   5:src/../h/../h/MemoryAllocator.hpp **** struct Block {
   6:src/../h/../h/MemoryAllocator.hpp ****     size_t size;
   7:src/../h/../h/MemoryAllocator.hpp ****     Block *next;
   8:src/../h/../h/MemoryAllocator.hpp **** };
   9:src/../h/../h/MemoryAllocator.hpp **** 
  10:src/../h/../h/MemoryAllocator.hpp **** class MemoryAllocator {
  11:src/../h/../h/MemoryAllocator.hpp **** 
  12:src/../h/../h/MemoryAllocator.hpp **** private:
  13:src/../h/../h/MemoryAllocator.hpp **** 
  14:src/../h/../h/MemoryAllocator.hpp **** 
GAS LISTING /tmp/ccs9Di6y.s 			page 14


  15:src/../h/../h/MemoryAllocator.hpp ****     MemoryAllocator() {}
  16:src/../h/../h/MemoryAllocator.hpp **** 
  17:src/../h/../h/MemoryAllocator.hpp ****     static Block *free_list;
  18:src/../h/../h/MemoryAllocator.hpp ****     static Block *allocated_list;
  19:src/../h/../h/MemoryAllocator.hpp **** 
  20:src/../h/../h/MemoryAllocator.hpp **** 
  21:src/../h/../h/MemoryAllocator.hpp **** public:
  22:src/../h/../h/MemoryAllocator.hpp **** 
  23:src/../h/../h/MemoryAllocator.hpp **** 
  24:src/../h/../h/MemoryAllocator.hpp ****     // Get the singleton instance
  25:src/../h/../h/MemoryAllocator.hpp ****     static MemoryAllocator &getInstance() {
  26:src/../h/../h/MemoryAllocator.hpp ****         static MemoryAllocator instance;
 352              		.loc 3 26 9
 353              		.loc 3 26 32 is_stmt 0
 354 0114 97070000 		lbu	a5,_ZGVZN15MemoryAllocator11getInstanceEvE8instance
 354      83C70700 
 355 011c 63980700 		bnez	a5,.L24
 356              	.LVL13:
 357 0120 93071000 		li	a5,1
 358 0124 17070000 		sb	a5,_ZGVZN15MemoryAllocator11getInstanceEvE8instance,a4
 358      2300F700 
 359              	.LVL14:
 360              	.L24:
  27:src/../h/../h/MemoryAllocator.hpp ****         return instance;
 361              		.loc 3 27 9 is_stmt 1
 362              	.LBE90:
 363              	.LBE89:
  36:src/riscv.cpp ****                     push_a0((uint64) mem);
 364              		.loc 1 36 78 is_stmt 0
 365 012c 13850400 		mv	a0,s1
 366 0130 97000000 		call	_ZN15MemoryAllocator8allocateEm@plt
 366      E7800000 
 367              	.LVL15:
  37:src/riscv.cpp ****                     break;
 368              		.loc 1 37 21 is_stmt 1
 369              	.LBB91:
 370              	.LBB92:
 260:src/../h/riscv.hpp **** }
 261:src/../h/riscv.hpp **** 
 262:src/../h/riscv.hpp **** inline void Riscv::w_a7(uint64 a7) {
 263:src/../h/riscv.hpp ****     __asm__ volatile ("mv a7, %0" : : "r"(a7));
 264:src/../h/riscv.hpp **** }
 265:src/../h/riscv.hpp **** 
 266:src/../h/riscv.hpp **** inline void Riscv::push_a0(long a0) {
 267:src/../h/riscv.hpp ****     __asm__ volatile ("sd %0, 10*8(fp)" : : "r"(a0));
 371              		.loc 2 267 5
 372              		.loc 2 267 53 is_stmt 0
 373              	#APP
 374              	# 267 "src/../h/riscv.hpp" 1
 268              	}
 375              		sd a0, 10*8(fp)
 376              	# 0 "" 2
 377              	.LVL16:
 378              	#NO_APP
 379              	.L9:
 380              	.LBE92:
 381              	.LBE91:
GAS LISTING /tmp/ccs9Di6y.s 			page 15


  95:src/riscv.cpp ****             w_sepc(sepc);
 382              		.loc 1 95 13 is_stmt 1
 383              	.LBB93:
 384              	.LBB94:
 213:src/../h/riscv.hpp **** }
 385              		.loc 2 213 5
 213:src/../h/riscv.hpp **** }
 386              		.loc 2 213 77 is_stmt 0
 387              	#APP
 388              	# 213 "src/../h/riscv.hpp" 1
 389              		csrw sstatus, s5
 390              	# 0 "" 2
 391              	.LVL17:
 392              	#NO_APP
 393              	.LBE94:
 394              	.LBE93:
  96:src/riscv.cpp ****             break;
 395              		.loc 1 96 13 is_stmt 1
 396              	.LBB95:
 397              	.LBB96:
 145:src/../h/riscv.hpp **** }
 398              		.loc 2 145 5
 145:src/../h/riscv.hpp **** }
 399              		.loc 2 145 65 is_stmt 0
 400              	#APP
 401              	# 145 "src/../h/riscv.hpp" 1
 146:src/../h/riscv.hpp **** 
 402              		csrw sepc, s6
 403              	# 0 "" 2
 404              		.loc 2 146 1
 405              	#NO_APP
 406 0144 6F00801A 		j	.L3
 407              	.LVL18:
 408              	.L22:
 409              	.LBE96:
 410              	.LBE95:
  39:src/riscv.cpp ****                     push_a0(MemoryAllocator::getInstance().deallocate((void *)a1));
 411              		.loc 1 39 17 is_stmt 1
  40:src/riscv.cpp ****                     break;
 412              		.loc 1 40 21
 413              	.LBB97:
 414              	.LBB98:
  26:src/../h/../h/MemoryAllocator.hpp ****         return instance;
 415              		.loc 3 26 9
  26:src/../h/../h/MemoryAllocator.hpp ****         return instance;
 416              		.loc 3 26 32 is_stmt 0
 417 0148 97070000 		lbu	a5,_ZGVZN15MemoryAllocator11getInstanceEvE8instance
 417      83C70700 
 418 0150 63980700 		bnez	a5,.L25
 419              	.LVL19:
 420 0154 93071000 		li	a5,1
 421 0158 17070000 		sb	a5,_ZGVZN15MemoryAllocator11getInstanceEvE8instance,a4
 421      2300F700 
 422              	.LVL20:
 423              	.L25:
 424              		.loc 3 27 9 is_stmt 1
 425              	.LBE98:
GAS LISTING /tmp/ccs9Di6y.s 			page 16


 426              	.LBE97:
  40:src/riscv.cpp ****                     break;
 427              		.loc 1 40 81 is_stmt 0
 428 0160 13850400 		mv	a0,s1
 429 0164 97000000 		call	_ZN15MemoryAllocator10deallocateEPv@plt
 429      E7800000 
 430              	.LVL21:
 431              	.LBB99:
 432              	.LBB100:
 267:src/../h/riscv.hpp **** }
 433              		.loc 2 267 5 is_stmt 1
 267:src/../h/riscv.hpp **** }
 434              		.loc 2 267 53 is_stmt 0
 435              	#APP
 436              	# 267 "src/../h/riscv.hpp" 1
 437              		sd a0, 10*8(fp)
 438              	# 0 "" 2
 439              		.loc 2 268 1
 440              	#NO_APP
 441 0170 6FF0DFFC 		j	.L9
 442              	.LVL22:
 443              	.L21:
 444              	.LBE100:
 445              	.LBE99:
  42:src/riscv.cpp ****                     if(a1 != 0) stack = (uint64*)MemoryAllocator::getInstance().allocate(((DEFAULT_
 446              		.loc 1 42 17 is_stmt 1
  43:src/riscv.cpp ****                     else stack = nullptr;
 447              		.loc 1 43 21
 448 0174 638A0404 		beqz	s1,.L32
  43:src/riscv.cpp ****                     else stack = nullptr;
 449              		.loc 1 43 33
 450              	.LBB101:
 451              	.LBB102:
  26:src/../h/../h/MemoryAllocator.hpp ****         return instance;
 452              		.loc 3 26 9
  26:src/../h/../h/MemoryAllocator.hpp ****         return instance;
 453              		.loc 3 26 32 is_stmt 0
 454 0178 97070000 		lbu	a5,_ZGVZN15MemoryAllocator11getInstanceEvE8instance
 454      83C70700 
 455 0180 63980700 		bnez	a5,.L27
 456              	.LVL23:
 457 0184 93071000 		li	a5,1
 458 0188 17070000 		sb	a5,_ZGVZN15MemoryAllocator11getInstanceEvE8instance,a4
 458      2300F700 
 459              	.LVL24:
 460              	.L27:
 461              		.loc 3 27 9 is_stmt 1
 462              	.LBE102:
 463              	.LBE101:
  43:src/riscv.cpp ****                     else stack = nullptr;
 464              		.loc 1 43 154 is_stmt 0
 465 0190 13051004 		li	a0,65
 466 0194 97000000 		call	_ZN15MemoryAllocator8allocateEm@plt
 466      E7800000 
 467              	.LVL25:
 468 019c 930B0500 		mv	s7,a0
 469              	.LVL26:
GAS LISTING /tmp/ccs9Di6y.s 			page 17


 470              	.L26:
  45:src/riscv.cpp ****                     (*handleAddr) = new PCB((PCB::Body)a1, (void*)a2, stack);
 471              		.loc 1 45 21 is_stmt 1
  46:src/riscv.cpp ****                     if((PCB::Body)a1)Scheduler::put(*handleAddr);
 472              		.loc 1 46 21
  46:src/riscv.cpp ****                     if((PCB::Body)a1)Scheduler::put(*handleAddr);
 473              		.loc 1 46 76 is_stmt 0
 474 01a0 13050003 		li	a0,48
 475 01a4 97000000 		call	_Znwm@plt
 475      E7800000 
 476              	.LVL27:
 477              	.LEHE0:
 478 01ac 130A0500 		mv	s4,a0
 479 01b0 93860B00 		mv	a3,s7
 480 01b4 13060900 		mv	a2,s2
 481 01b8 93850400 		mv	a1,s1
 482              	.LEHB1:
 483 01bc 97000000 		call	_ZN3PCBC1EPFvPvES0_Pm@plt
 483      E7800000 
 484              	.LVL28:
 485              	.LEHE1:
 486 01c4 6F00C000 		j	.L36
 487              	.LVL29:
 488              	.L32:
  44:src/riscv.cpp ****                     handleAddr = (PCB**) a3;
 489              		.loc 1 44 32
 490 01c8 930B0000 		li	s7,0
 491 01cc 6FF05FFD 		j	.L26
 492              	.LVL30:
 493              	.L36:
  46:src/riscv.cpp ****                     if((PCB::Body)a1)Scheduler::put(*handleAddr);
 494              		.loc 1 46 35 discriminator 2
 495 01d0 23B04901 		sd	s4,0(s3)
  47:src/riscv.cpp **** 
 496              		.loc 1 47 21 is_stmt 1 discriminator 2
 497 01d4 63880400 		beqz	s1,.L28
  47:src/riscv.cpp **** 
 498              		.loc 1 47 38 discriminator 1
  47:src/riscv.cpp **** 
 499              		.loc 1 47 52 is_stmt 0 discriminator 1
 500 01d8 13050A00 		mv	a0,s4
 501              	.LEHB2:
 502 01dc 97000000 		call	_ZN9Scheduler3putEP3PCB@plt
 502      E7800000 
 503              	.LVL31:
 504              	.L28:
  49:src/riscv.cpp ****                     push_a0(0);
 505              		.loc 1 49 21 is_stmt 1
  49:src/riscv.cpp ****                     push_a0(0);
 506              		.loc 1 49 26 is_stmt 0
 507 01e4 83B70900 		ld	a5,0(s3)
  49:src/riscv.cpp ****                     push_a0(0);
 508              		.loc 1 49 21
 509 01e8 63880700 		beqz	a5,.L37
 510              	.L29:
  50:src/riscv.cpp ****                     break;
 511              		.loc 1 50 21 is_stmt 1
GAS LISTING /tmp/ccs9Di6y.s 			page 18


 512              	.LVL32:
 513              	.LBB103:
 514              	.LBB104:
 267:src/../h/riscv.hpp **** }
 515              		.loc 2 267 5
 267:src/../h/riscv.hpp **** }
 516              		.loc 2 267 53 is_stmt 0
 517 01ec 93070000 		li	a5,0
 518              	#APP
 519              	# 267 "src/../h/riscv.hpp" 1
 520              		sd a5, 10*8(fp)
 521              	# 0 "" 2
 522              		.loc 2 268 1
 523              	#NO_APP
 524 01f4 6FF09FF4 		j	.L9
 525              	.LVL33:
 526              	.L37:
 527              	.LBE104:
 528              	.LBE103:
  49:src/riscv.cpp ****                     push_a0(0);
 529              		.loc 1 49 39 is_stmt 1
 530              	.LBB105:
 531              	.LBB106:
 267:src/../h/riscv.hpp **** }
 532              		.loc 2 267 5
 267:src/../h/riscv.hpp **** }
 533              		.loc 2 267 53 is_stmt 0
 534 01f8 9307F0FF 		li	a5,-1
 535              	#APP
 536              	# 267 "src/../h/riscv.hpp" 1
 537              		sd a5, 10*8(fp)
 538              	# 0 "" 2
 539              		.loc 2 268 1
 540              	#NO_APP
 541 0200 6FF0DFFE 		j	.L29
 542              	.LVL34:
 543              	.L20:
 544              	.LBE106:
 545              	.LBE105:
  52:src/riscv.cpp ****                     push_a0(PCB::exit());
 546              		.loc 1 52 17 is_stmt 1
  53:src/riscv.cpp ****                     break;
 547              		.loc 1 53 21
  53:src/riscv.cpp ****                     break;
 548              		.loc 1 53 38 is_stmt 0
 549 0204 97000000 		call	_ZN3PCB4exitEv@plt
 549      E7800000 
 550              	.LVL35:
 551              	.LBB107:
 552              	.LBB108:
 267:src/../h/riscv.hpp **** }
 553              		.loc 2 267 5 is_stmt 1
 267:src/../h/riscv.hpp **** }
 554              		.loc 2 267 53 is_stmt 0
 555              	#APP
 556              	# 267 "src/../h/riscv.hpp" 1
 557              		sd a0, 10*8(fp)
GAS LISTING /tmp/ccs9Di6y.s 			page 19


 558              	# 0 "" 2
 559              		.loc 2 268 1
 560              	#NO_APP
 561 0210 6FF0DFF2 		j	.L9
 562              	.LVL36:
 563              	.L19:
 564              	.LBE108:
 565              	.LBE107:
  55:src/riscv.cpp ****                     PCB::dispatch();
 566              		.loc 1 55 17 is_stmt 1
  56:src/riscv.cpp ****                     break;
 567              		.loc 1 56 21
  56:src/riscv.cpp ****                     break;
 568              		.loc 1 56 34 is_stmt 0
 569 0214 97000000 		call	_ZN3PCB8dispatchEv@plt
 569      E7800000 
 570              	.LVL37:
  57:src/riscv.cpp ****                 case 0x14:
 571              		.loc 1 57 21 is_stmt 1
 572 021c 6FF01FF2 		j	.L9
 573              	.L18:
  58:src/riscv.cpp ****                     ((PCB*)a1)->join();
 574              		.loc 1 58 17
  59:src/riscv.cpp ****                     break;
 575              		.loc 1 59 21
  59:src/riscv.cpp ****                     break;
 576              		.loc 1 59 37 is_stmt 0
 577 0220 13850400 		mv	a0,s1
 578 0224 97000000 		call	_ZN3PCB4joinEv@plt
 578      E7800000 
 579              	.LVL38:
  60:src/riscv.cpp ****                 case 0x21: //sem_open
 580              		.loc 1 60 21 is_stmt 1
 581 022c 6FF01FF1 		j	.L9
 582              	.L17:
  61:src/riscv.cpp ****                     value = a2;
 583              		.loc 1 61 17
  62:src/riscv.cpp ****                     semAddr = (Sem**) a1;
 584              		.loc 1 62 21
  62:src/riscv.cpp ****                     semAddr = (Sem**) a1;
 585              		.loc 1 62 27 is_stmt 0
 586 0230 1B090900 		sext.w	s2,s2
 587              	.LVL39:
  63:src/riscv.cpp ****                     *semAddr = new Sem(value);
 588              		.loc 1 63 21 is_stmt 1
  64:src/riscv.cpp ****                     if(!(*semAddr))push_a0(-1);
 589              		.loc 1 64 21
  64:src/riscv.cpp ****                     if(!(*semAddr))push_a0(-1);
 590              		.loc 1 64 45 is_stmt 0
 591 0234 13050002 		li	a0,32
 592 0238 97000000 		call	_Znwm@plt
 592      E7800000 
 593              	.LVL40:
 594              	.LBB109:
 595              	.LBB110:
 596              	.LBB111:
 597              	.LBB112:
GAS LISTING /tmp/ccs9Di6y.s 			page 20


 598              		.file 4 "src/../h/list.hpp"
   1:src/../h/list.hpp **** #ifndef PROJECT_BASE_V1_1_LIST_HPP
   2:src/../h/list.hpp **** #define PROJECT_BASE_V1_1_LIST_HPP
   3:src/../h/list.hpp **** 
   4:src/../h/list.hpp **** template<typename T>
   5:src/../h/list.hpp **** class List
   6:src/../h/list.hpp **** {
   7:src/../h/list.hpp **** private:
   8:src/../h/list.hpp ****     struct Elem
   9:src/../h/list.hpp ****     {
  10:src/../h/list.hpp ****         T *data;
  11:src/../h/list.hpp ****         Elem *next;
  12:src/../h/list.hpp **** 
  13:src/../h/list.hpp ****         Elem(T *data, Elem *next) : data(data), next(next) {}
  14:src/../h/list.hpp ****     };
  15:src/../h/list.hpp **** 
  16:src/../h/list.hpp ****     Elem *head, *tail;
  17:src/../h/list.hpp **** 
  18:src/../h/list.hpp **** public:
  19:src/../h/list.hpp ****     List() : head(0), tail(0) {}
 599              		.loc 4 19 29
 600 0240 23340500 		sd	zero,8(a0)
 601 0244 23380500 		sd	zero,16(a0)
 602              	.LVL41:
 603              	.LBE112:
 604              	.LBE111:
 605              		.file 5 "src/../h/../h/Sem.hpp"
   1:src/../h/../h/Sem.hpp **** //
   2:src/../h/../h/Sem.hpp **** // Created by os on 8/17/23.
   3:src/../h/../h/Sem.hpp **** //
   4:src/../h/../h/Sem.hpp **** 
   5:src/../h/../h/Sem.hpp **** #ifndef PROJECT_BASE_V1_1_SEM_HPP
   6:src/../h/../h/Sem.hpp **** #define PROJECT_BASE_V1_1_SEM_HPP
   7:src/../h/../h/Sem.hpp **** 
   8:src/../h/../h/Sem.hpp **** #include "PCB.hpp"
   9:src/../h/../h/Sem.hpp **** class Sem {
  10:src/../h/../h/Sem.hpp **** private:
  11:src/../h/../h/Sem.hpp ****     int value;
  12:src/../h/../h/Sem.hpp ****     List<PCB> waitQueue;
  13:src/../h/../h/Sem.hpp ****     bool valid;
  14:src/../h/../h/Sem.hpp **** 
  15:src/../h/../h/Sem.hpp **** public:
  16:src/../h/../h/Sem.hpp ****     Sem(int initial_value) {
  17:src/../h/../h/Sem.hpp ****         value = initial_value;
 606              		.loc 5 17 9 is_stmt 1
 607              		.loc 5 17 15 is_stmt 0
 608 0248 23202501 		sw	s2,0(a0)
  18:src/../h/../h/Sem.hpp ****         valid = true;
 609              		.loc 5 18 9 is_stmt 1
 610              		.loc 5 18 15 is_stmt 0
 611 024c 93071000 		li	a5,1
 612 0250 230CF500 		sb	a5,24(a0)
 613              	.LVL42:
 614              	.LBE110:
 615              	.LBE109:
  64:src/riscv.cpp ****                     if(!(*semAddr))push_a0(-1);
 616              		.loc 1 64 30
GAS LISTING /tmp/ccs9Di6y.s 			page 21


 617 0254 23B0A400 		sd	a0,0(s1)
  65:src/riscv.cpp ****                     push_a0(0);
 618              		.loc 1 65 21 is_stmt 1
 619 0258 63080500 		beqz	a0,.L38
 620              	.L30:
  66:src/riscv.cpp ****                     break;
 621              		.loc 1 66 21
 622              	.LVL43:
 623              	.LBB113:
 624              	.LBB114:
 267:src/../h/riscv.hpp **** }
 625              		.loc 2 267 5
 267:src/../h/riscv.hpp **** }
 626              		.loc 2 267 53 is_stmt 0
 627 025c 93070000 		li	a5,0
 628              	#APP
 629              	# 267 "src/../h/riscv.hpp" 1
 630              		sd a5, 10*8(fp)
 631              	# 0 "" 2
 632              		.loc 2 268 1
 633              	#NO_APP
 634 0264 6FF09FED 		j	.L9
 635              	.LVL44:
 636              	.L38:
 637              	.LBE114:
 638              	.LBE113:
  65:src/riscv.cpp ****                     push_a0(0);
 639              		.loc 1 65 36 is_stmt 1
 640              	.LBB115:
 641              	.LBB116:
 267:src/../h/riscv.hpp **** }
 642              		.loc 2 267 5
 267:src/../h/riscv.hpp **** }
 643              		.loc 2 267 53 is_stmt 0
 644 0268 9307F0FF 		li	a5,-1
 645              	#APP
 646              	# 267 "src/../h/riscv.hpp" 1
 647              		sd a5, 10*8(fp)
 648              	# 0 "" 2
 649              		.loc 2 268 1
 650              	#NO_APP
 651 0270 6FF0DFFE 		j	.L30
 652              	.LVL45:
 653              	.L16:
 654              	.LBE116:
 655              	.LBE115:
  68:src/riscv.cpp ****                     push_a0(((Sem*)a1)->close());
 656              		.loc 1 68 17 is_stmt 1
  69:src/riscv.cpp ****                     break;
 657              		.loc 1 69 21
  69:src/riscv.cpp ****                     break;
 658              		.loc 1 69 46 is_stmt 0
 659 0274 13850400 		mv	a0,s1
 660 0278 97000000 		call	_ZN3Sem5closeEv@plt
 660      E7800000 
 661              	.LVL46:
 662              	.LBB117:
GAS LISTING /tmp/ccs9Di6y.s 			page 22


 663              	.LBB118:
 267:src/../h/riscv.hpp **** }
 664              		.loc 2 267 5 is_stmt 1
 267:src/../h/riscv.hpp **** }
 665              		.loc 2 267 53 is_stmt 0
 666              	#APP
 667              	# 267 "src/../h/riscv.hpp" 1
 668              		sd a0, 10*8(fp)
 669              	# 0 "" 2
 670              		.loc 2 268 1
 671              	#NO_APP
 672 0284 6FF09FEB 		j	.L9
 673              	.LVL47:
 674              	.L15:
 675              	.LBE118:
 676              	.LBE117:
  71:src/riscv.cpp ****                     sem = (Sem*)a1;
 677              		.loc 1 71 17 is_stmt 1
  72:src/riscv.cpp ****                     push_a0(sem->wait());
 678              		.loc 1 72 21
  73:src/riscv.cpp ****                     break;
 679              		.loc 1 73 21
  73:src/riscv.cpp ****                     break;
 680              		.loc 1 73 38 is_stmt 0
 681 0288 13850400 		mv	a0,s1
 682 028c 97000000 		call	_ZN3Sem4waitEv@plt
 682      E7800000 
 683              	.LVL48:
 684              	.LBB119:
 685              	.LBB120:
 267:src/../h/riscv.hpp **** }
 686              		.loc 2 267 5 is_stmt 1
 267:src/../h/riscv.hpp **** }
 687              		.loc 2 267 53 is_stmt 0
 688              	#APP
 689              	# 267 "src/../h/riscv.hpp" 1
 690              		sd a0, 10*8(fp)
 691              	# 0 "" 2
 692              		.loc 2 268 1
 693              	#NO_APP
 694 0298 6FF05FEA 		j	.L9
 695              	.LVL49:
 696              	.L14:
 697              	.LBE120:
 698              	.LBE119:
  75:src/riscv.cpp ****                     push_a0(((Sem*)a1)->signal());
 699              		.loc 1 75 17 is_stmt 1
  76:src/riscv.cpp ****                     break;
 700              		.loc 1 76 21
  76:src/riscv.cpp ****                     break;
 701              		.loc 1 76 47 is_stmt 0
 702 029c 13850400 		mv	a0,s1
 703 02a0 97000000 		call	_ZN3Sem6signalEv@plt
 703      E7800000 
 704              	.LVL50:
 705              	.LBB121:
 706              	.LBB122:
GAS LISTING /tmp/ccs9Di6y.s 			page 23


 267:src/../h/riscv.hpp **** }
 707              		.loc 2 267 5 is_stmt 1
 267:src/../h/riscv.hpp **** }
 708              		.loc 2 267 53 is_stmt 0
 709              	#APP
 710              	# 267 "src/../h/riscv.hpp" 1
 711              		sd a0, 10*8(fp)
 712              	# 0 "" 2
 713              		.loc 2 268 1
 714              	#NO_APP
 715 02ac 6FF01FE9 		j	.L9
 716              	.LVL51:
 717              	.L13:
 718              	.LBE122:
 719              	.LBE121:
  78:src/riscv.cpp ****                     c = __getc();
 720              		.loc 1 78 17 is_stmt 1
  79:src/riscv.cpp ****                     push_a0((char)c);
 721              		.loc 1 79 21
  79:src/riscv.cpp ****                     push_a0((char)c);
 722              		.loc 1 79 31 is_stmt 0
 723 02b0 97000000 		call	__getc@plt
 723      E7800000 
 724              	.LVL52:
  80:src/riscv.cpp ****                     break;
 725              		.loc 1 80 21 is_stmt 1
 726              	.LBB123:
 727              	.LBB124:
 267:src/../h/riscv.hpp **** }
 728              		.loc 2 267 5
 267:src/../h/riscv.hpp **** }
 729              		.loc 2 267 53 is_stmt 0
 730              	#APP
 731              	# 267 "src/../h/riscv.hpp" 1
 732              		sd a0, 10*8(fp)
 733              	# 0 "" 2
 734              		.loc 2 268 1
 735              	#NO_APP
 736 02bc 6FF01FE8 		j	.L9
 737              	.LVL53:
 738              	.L12:
 739              	.LBE124:
 740              	.LBE123:
  82:src/riscv.cpp ****                     __putc(a1);
 741              		.loc 1 82 17 is_stmt 1
  83:src/riscv.cpp ****                 case 0x51:
 742              		.loc 1 83 21
  83:src/riscv.cpp ****                 case 0x51:
 743              		.loc 1 83 27 is_stmt 0
 744 02c0 13F5F40F 		andi	a0,s1,0xff
 745 02c4 97000000 		call	__putc@plt
 745      E7800000 
 746              	.LVL54:
 747              	.L10:
  84:src/riscv.cpp ****                     w_sstatus(sstatus);
 748              		.loc 1 84 17 is_stmt 1
  85:src/riscv.cpp ****                     mc_sstatus(1<<8);
GAS LISTING /tmp/ccs9Di6y.s 			page 24


 749              		.loc 1 85 21
 750              	.LBB125:
 751              	.LBB126:
 213:src/../h/riscv.hpp **** }
 752              		.loc 2 213 5
 213:src/../h/riscv.hpp **** }
 753              		.loc 2 213 77 is_stmt 0
 754              	#APP
 755              	# 213 "src/../h/riscv.hpp" 1
 756              		csrw sstatus, s5
 757              	# 0 "" 2
 758              	.LVL55:
 759              	#NO_APP
 760              	.LBE126:
 761              	.LBE125:
  86:src/riscv.cpp ****                     w_sepc(sepc+4);
 762              		.loc 1 86 21 is_stmt 1
 763              	.LBB127:
 764              	.LBB128:
 201:src/../h/riscv.hpp **** }
 765              		.loc 2 201 5
 201:src/../h/riscv.hpp **** }
 766              		.loc 2 201 68 is_stmt 0
 767 02d0 93070010 		li	a5,256
 768              	#APP
 769              	# 201 "src/../h/riscv.hpp" 1
 770              		csrc sstatus, a5
 771              	# 0 "" 2
 772              	.LVL56:
 773              	#NO_APP
 774              	.LBE128:
 775              	.LBE127:
  87:src/riscv.cpp ****                     return;
 776              		.loc 1 87 21 is_stmt 1
  87:src/riscv.cpp ****                     return;
 777              		.loc 1 87 27 is_stmt 0
 778 02d8 130A8A00 		addi	s4,s4,8
 779              	.LVL57:
 780              	.LBB129:
 781              	.LBB130:
 145:src/../h/riscv.hpp **** }
 782              		.loc 2 145 5 is_stmt 1
 145:src/../h/riscv.hpp **** }
 783              		.loc 2 145 65 is_stmt 0
 784              	#APP
 785              	# 145 "src/../h/riscv.hpp" 1
 146:src/../h/riscv.hpp **** 
 786              		csrw sepc, s4
 787              	# 0 "" 2
 788              		.loc 2 146 1
 789              	#NO_APP
 790 02e0 6F00C000 		j	.L3
 791              	.LVL58:
 792              	.L4:
 793              	.LBE130:
 794              	.LBE129:
  98:src/riscv.cpp ****             //timer interrupt
GAS LISTING /tmp/ccs9Di6y.s 			page 25


 795              		.loc 1 98 9 is_stmt 1
 100:src/riscv.cpp ****             break;
 796              		.loc 1 100 13
 797              	.LBB131:
 798              	.LBB132:
 179:src/../h/riscv.hpp **** }
 799              		.loc 2 179 5
 179:src/../h/riscv.hpp **** }
 800              		.loc 2 179 64 is_stmt 0
 801 02e4 93072000 		li	a5,2
 802              	.LVL59:
 803              	#APP
 804              	# 179 "src/../h/riscv.hpp" 1
 805              		csrc sip, a5
 806              	# 0 "" 2
 807              	.LVL60:
 808              	#NO_APP
 809              	.L3:
 810              	.LBE132:
 811              	.LBE131:
 812              	.LBE133:
 813              	.LBE83:
 106:src/riscv.cpp ****         default:
 107:src/riscv.cpp ****             return;
 108:src/riscv.cpp ****             //printString("ERROR: Unexpected interrupt!");
 109:src/riscv.cpp ****     }
 110:src/riscv.cpp **** 
 111:src/riscv.cpp **** }...
 814              		.loc 1 111 1
 815 02ec 83308108 		ld	ra,136(sp)
 816              		.cfi_remember_state
 817              		.cfi_restore 1
 818 02f0 03340108 		ld	s0,128(sp)
 819              		.cfi_restore 8
 820              		.cfi_def_cfa 2, 144
 821 02f4 83348107 		ld	s1,120(sp)
 822              		.cfi_restore 9
 823              	.LVL61:
 824 02f8 03390107 		ld	s2,112(sp)
 825              		.cfi_restore 18
 826 02fc 83398106 		ld	s3,104(sp)
 827              		.cfi_restore 19
 828              	.LVL62:
 829 0300 033A0106 		ld	s4,96(sp)
 830              		.cfi_restore 20
 831 0304 833A8105 		ld	s5,88(sp)
 832              		.cfi_restore 21
 833 0308 033B0105 		ld	s6,80(sp)
 834              		.cfi_restore 22
 835 030c 833B8104 		ld	s7,72(sp)
 836              		.cfi_restore 23
 837 0310 033C0104 		ld	s8,64(sp)
 838              		.cfi_restore 24
 839 0314 13010109 		addi	sp,sp,144
 840              		.cfi_def_cfa_offset 0
 841 0318 67800000 		jr	ra
 842              	.LVL63:
GAS LISTING /tmp/ccs9Di6y.s 			page 26


 843              	.L33:
 844              		.cfi_restore_state
 845 031c 93040500 		mv	s1,a0
 846              	.LVL64:
 847              	.LBB135:
 848              	.LBB134:
  46:src/riscv.cpp ****                     (*handleAddr) = new PCB((PCB::Body)a1, (void*)a2, stack);
 849              		.loc 1 46 76
 850 0320 13050A00 		mv	a0,s4
 851 0324 97000000 		call	_ZdlPv@plt
 851      E7800000 
 852              	.LVL65:
 853 032c 13850400 		mv	a0,s1
 854 0330 97000000 		call	_Unwind_Resume@plt
 854      E7800000 
 855              	.LVL66:
 856              	.LEHE2:
 857              	.LBE134:
 858              	.LBE135:
 859              		.cfi_endproc
 860              	.LFE49:
 861              		.globl	__gxx_personality_v0
 862              		.section	.gcc_except_table,"a",@progbits
 863              	.LLSDA49:
 864 0000 FF       		.byte	0xff
 865 0001 FF       		.byte	0xff
 866 0002 03       		.byte	0x3
 867 0003 27       		.byte	0x27
 868 0004 00000000 		.4byte	.LEHB0-.LFB49
 869 0008 00000000 		.4byte	.LEHE0-.LEHB0
 870 000c 00000000 		.4byte	0
 871 0010 00       		.byte	0
 872 0011 00000000 		.4byte	.LEHB1-.LFB49
 873 0015 00000000 		.4byte	.LEHE1-.LEHB1
 874 0019 00000000 		.4byte	.L33-.LFB49
 875 001d 00       		.byte	0
 876 001e 00000000 		.4byte	.LEHB2-.LFB49
 877 0022 00000000 		.4byte	.LEHE2-.LEHB2
 878 0026 00000000 		.4byte	0
 879 002a 00       		.byte	0
 880              		.text
 882              		.weak	_ZGVZN15MemoryAllocator11getInstanceEvE8instance
 883              		.section	.bss._ZGVZN15MemoryAllocator11getInstanceEvE8instance,"awG",@nobits,_ZGVZN15MemoryAllocat
 884              		.align	3
 887              	_ZGVZN15MemoryAllocator11getInstanceEvE8instance:
 888 0000 00000000 		.zero	8
 888      00000000 
 889              		.text
 890              	.Letext0:
 891              		.file 6 "src/../h/../h/../lib/hw.h"
 892              		.file 7 "src/../h/Scheduler.hpp"
 893              		.file 8 "src/../h/PCB.hpp"
 894              		.file 9 "src/../h/../h/syscall_c.hpp"
 895              		.file 10 "src/../h/../h/../lib/console.h"
 4957              		.align	3
 4960              	DW.ref.__gxx_personality_v0:
 4961 0000 00000000 		.dword	__gxx_personality_v0
GAS LISTING /tmp/ccs9Di6y.s 			page 27


 4961      00000000 
 4962              		.ident	"GCC: (Ubuntu 9.4.0-1ubuntu1~20.04) 9.4.0"
 4963              		.section	.note.GNU-stack,"",@progbits
GAS LISTING /tmp/ccs9Di6y.s 			page 28


DEFINED SYMBOLS
                            *ABS*:0000000000000000 riscv.cpp
     /tmp/ccs9Di6y.s:9      .text:0000000000000000 _ZN5Riscv10popSppSpieEv
     /tmp/ccs9Di6y.s:13     .text:0000000000000000 .L0 
     /tmp/ccs9Di6y.s:14     .text:0000000000000000 .L0 
     /tmp/ccs9Di6y.s:15     .text:0000000000000004 .L0 
     /tmp/ccs9Di6y.s:17     .text:0000000000000008 .L0 
     /tmp/ccs9Di6y.s:19     .text:000000000000000c .L0 
     /tmp/ccs9Di6y.s:21     .text:000000000000000c .L0 
       src/riscv.cpp:7      .text:000000000000000c .L0 
     /tmp/ccs9Di6y.s:27     .text:0000000000000010 .L0 
       src/riscv.cpp:8      .text:0000000000000010 .L0 
     /tmp/ccs9Di6y.s:33     .text:0000000000000014 .L0 
     /tmp/ccs9Di6y.s:34     .text:0000000000000018 .L0 
     /tmp/ccs9Di6y.s:35     .text:0000000000000018 .L0 
     /tmp/ccs9Di6y.s:37     .text:000000000000001c .L0 
     /tmp/ccs9Di6y.s:39     .text:0000000000000020 .L0 
     /tmp/ccs9Di6y.s:45     .text:0000000000000020 _ZN5Riscv11trapHandlerEv
     /tmp/ccs9Di6y.s:48     .text:0000000000000020 .L0 
     /tmp/ccs9Di6y.s:4960   .data.rel.local.DW.ref.__gxx_personality_v0:0000000000000000 DW.ref.__gxx_personality_v0
     /tmp/ccs9Di6y.s:51     .text:0000000000000020 .L0 
     /tmp/ccs9Di6y.s:52     .text:0000000000000024 .L0 
     /tmp/ccs9Di6y.s:63     .text:000000000000004c .L0 
     /tmp/ccs9Di6y.s:64     .text:000000000000004c .L0 
     /tmp/ccs9Di6y.s:65     .text:000000000000004c .L0 
     /tmp/ccs9Di6y.s:66     .text:000000000000004c .L0 
     /tmp/ccs9Di6y.s:67     .text:000000000000004c .L0 
     /tmp/ccs9Di6y.s:68     .text:000000000000004c .L0 
     /tmp/ccs9Di6y.s:69     .text:000000000000004c .L0 
     /tmp/ccs9Di6y.s:70     .text:000000000000004c .L0 
     /tmp/ccs9Di6y.s:71     .text:000000000000004c .L0 
     /tmp/ccs9Di6y.s:72     .text:000000000000004c .L0 
     /tmp/ccs9Di6y.s:74     .text:0000000000000050 .L0 
     /tmp/ccs9Di6y.s:79     .text:0000000000000050 .L0 
     /tmp/ccs9Di6y.s:80     .text:0000000000000050 .L0 
     /tmp/ccs9Di6y.s:81     .text:0000000000000050 .L0 
  src/../h/riscv.hpp:127    .text:0000000000000050 .L0 
     /tmp/ccs9Di6y.s:89     .text:0000000000000058 .L0 
     /tmp/ccs9Di6y.s:90     .text:0000000000000058 .L0 
     /tmp/ccs9Di6y.s:97     .text:000000000000005c .L0 
     /tmp/ccs9Di6y.s:98     .text:000000000000005c .L0 
     /tmp/ccs9Di6y.s:99     .text:000000000000005c .L0 
  src/../h/riscv.hpp:228    .text:000000000000005c .L0 
     /tmp/ccs9Di6y.s:107    .text:0000000000000064 .L0 
     /tmp/ccs9Di6y.s:108    .text:0000000000000064 .L0 
     /tmp/ccs9Di6y.s:115    .text:0000000000000068 .L0 
     /tmp/ccs9Di6y.s:116    .text:0000000000000068 .L0 
     /tmp/ccs9Di6y.s:117    .text:0000000000000068 .L0 
  src/../h/riscv.hpp:238    .text:0000000000000068 .L0 
     /tmp/ccs9Di6y.s:125    .text:0000000000000070 .L0 
     /tmp/ccs9Di6y.s:126    .text:0000000000000070 .L0 
     /tmp/ccs9Di6y.s:133    .text:0000000000000074 .L0 
     /tmp/ccs9Di6y.s:134    .text:0000000000000074 .L0 
     /tmp/ccs9Di6y.s:135    .text:0000000000000074 .L0 
  src/../h/riscv.hpp:248    .text:0000000000000074 .L0 
     /tmp/ccs9Di6y.s:143    .text:000000000000007c .L0 
     /tmp/ccs9Di6y.s:144    .text:000000000000007c .L0 
GAS LISTING /tmp/ccs9Di6y.s 			page 29


     /tmp/ccs9Di6y.s:151    .text:0000000000000080 .L0 
     /tmp/ccs9Di6y.s:152    .text:0000000000000080 .L0 
     /tmp/ccs9Di6y.s:153    .text:0000000000000080 .L0 
  src/../h/riscv.hpp:258    .text:0000000000000080 .L0 
     /tmp/ccs9Di6y.s:161    .text:0000000000000088 .L0 
     /tmp/ccs9Di6y.s:162    .text:0000000000000088 .L0 
     /tmp/ccs9Di6y.s:167    .text:000000000000008c .L0 
     /tmp/ccs9Di6y.s:168    .text:000000000000008c .L0 
     /tmp/ccs9Di6y.s:170    .text:000000000000008c .L0 
     /tmp/ccs9Di6y.s:184    .text:00000000000000b8 .L0 
     /tmp/ccs9Di6y.s:185    .text:00000000000000b8 .L0 
     /tmp/ccs9Di6y.s:188    .text:00000000000000b8 .L0 
     /tmp/ccs9Di6y.s:189    .text:00000000000000b8 .L0 
     /tmp/ccs9Di6y.s:190    .text:00000000000000b8 .L0 
  src/../h/riscv.hpp:139    .text:00000000000000b8 .L0 
     /tmp/ccs9Di6y.s:199    .text:00000000000000c0 .L0 
     /tmp/ccs9Di6y.s:200    .text:00000000000000c0 .L0 
     /tmp/ccs9Di6y.s:204    .text:00000000000000c4 .L0 
     /tmp/ccs9Di6y.s:209    .text:00000000000000c8 .L0 
     /tmp/ccs9Di6y.s:210    .text:00000000000000c8 .L0 
     /tmp/ccs9Di6y.s:211    .text:00000000000000c8 .L0 
  src/../h/riscv.hpp:207    .text:00000000000000c8 .L0 
     /tmp/ccs9Di6y.s:219    .text:00000000000000d0 .L0 
     /tmp/ccs9Di6y.s:220    .text:00000000000000d0 .L0 
     /tmp/ccs9Di6y.s:225    .text:00000000000000d4 .L0 
     /tmp/ccs9Di6y.s:226    .text:00000000000000d4 .L0 
     /tmp/ccs9Di6y.s:227    .text:00000000000000d4 .L0 
     /tmp/ccs9Di6y.s:228    .text:00000000000000d4 .L0 
     /tmp/ccs9Di6y.s:229    .text:00000000000000d4 .L0 
     /tmp/ccs9Di6y.s:230    .text:00000000000000d4 .L0 
     /tmp/ccs9Di6y.s:231    .text:00000000000000d4 .L0 
     /tmp/ccs9Di6y.s:232    .text:00000000000000d4 .L0 
     /tmp/ccs9Di6y.s:332    .text:00000000000000f8 .L0 
     /tmp/ccs9Di6y.s:338    .text:0000000000000108 .L0 
     /tmp/ccs9Di6y.s:340    .text:0000000000000108 .L0 
     /tmp/ccs9Di6y.s:341    .text:0000000000000108 .L0 
     /tmp/ccs9Di6y.s:344    .text:0000000000000110 .L0 
     /tmp/ccs9Di6y.s:348    .text:0000000000000114 .L0 
     /tmp/ccs9Di6y.s:352    .text:0000000000000114 .L0 
     /tmp/ccs9Di6y.s:353    .text:0000000000000114 .L0 
     /tmp/ccs9Di6y.s:887    .bss._ZGVZN15MemoryAllocator11getInstanceEvE8instance:0000000000000000 _ZGVZN15MemoryAllocator11getInstanceEvE8instance
     /tmp/ccs9Di6y.s:354    .text:0000000000000114 .L0 
     /tmp/ccs9Di6y.s:364    .text:000000000000012c .L0 
     /tmp/ccs9Di6y.s:365    .text:000000000000012c .L0 
     /tmp/ccs9Di6y.s:371    .text:0000000000000138 .L0 
     /tmp/ccs9Di6y.s:372    .text:0000000000000138 .L0 
  src/../h/riscv.hpp:267    .text:0000000000000138 .L0 
     /tmp/ccs9Di6y.s:385    .text:000000000000013c .L0 
     /tmp/ccs9Di6y.s:386    .text:000000000000013c .L0 
  src/../h/riscv.hpp:213    .text:000000000000013c .L0 
     /tmp/ccs9Di6y.s:398    .text:0000000000000140 .L0 
     /tmp/ccs9Di6y.s:399    .text:0000000000000140 .L0 
  src/../h/riscv.hpp:145    .text:0000000000000140 .L0 
     /tmp/ccs9Di6y.s:406    .text:0000000000000144 .L0 
     /tmp/ccs9Di6y.s:412    .text:0000000000000148 .L0 
     /tmp/ccs9Di6y.s:415    .text:0000000000000148 .L0 
     /tmp/ccs9Di6y.s:416    .text:0000000000000148 .L0 
GAS LISTING /tmp/ccs9Di6y.s 			page 30


     /tmp/ccs9Di6y.s:417    .text:0000000000000148 .L0 
     /tmp/ccs9Di6y.s:427    .text:0000000000000160 .L0 
     /tmp/ccs9Di6y.s:428    .text:0000000000000160 .L0 
     /tmp/ccs9Di6y.s:434    .text:000000000000016c .L0 
  src/../h/riscv.hpp:267    .text:000000000000016c .L0 
     /tmp/ccs9Di6y.s:441    .text:0000000000000170 .L0 
     /tmp/ccs9Di6y.s:447    .text:0000000000000174 .L0 
     /tmp/ccs9Di6y.s:448    .text:0000000000000174 .L0 
     /tmp/ccs9Di6y.s:452    .text:0000000000000178 .L0 
     /tmp/ccs9Di6y.s:453    .text:0000000000000178 .L0 
     /tmp/ccs9Di6y.s:454    .text:0000000000000178 .L0 
     /tmp/ccs9Di6y.s:464    .text:0000000000000190 .L0 
     /tmp/ccs9Di6y.s:465    .text:0000000000000190 .L0 
     /tmp/ccs9Di6y.s:472    .text:00000000000001a0 .L0 
     /tmp/ccs9Di6y.s:473    .text:00000000000001a0 .L0 
     /tmp/ccs9Di6y.s:474    .text:00000000000001a0 .L0 
     /tmp/ccs9Di6y.s:490    .text:00000000000001c8 .L0 
     /tmp/ccs9Di6y.s:495    .text:00000000000001d0 .L0 
     /tmp/ccs9Di6y.s:497    .text:00000000000001d4 .L0 
     /tmp/ccs9Di6y.s:499    .text:00000000000001d8 .L0 
     /tmp/ccs9Di6y.s:500    .text:00000000000001d8 .L0 
     /tmp/ccs9Di6y.s:506    .text:00000000000001e4 .L0 
     /tmp/ccs9Di6y.s:507    .text:00000000000001e4 .L0 
     /tmp/ccs9Di6y.s:509    .text:00000000000001e8 .L0 
     /tmp/ccs9Di6y.s:515    .text:00000000000001ec .L0 
     /tmp/ccs9Di6y.s:516    .text:00000000000001ec .L0 
     /tmp/ccs9Di6y.s:517    .text:00000000000001ec .L0 
     /tmp/ccs9Di6y.s:524    .text:00000000000001f4 .L0 
     /tmp/ccs9Di6y.s:532    .text:00000000000001f8 .L0 
     /tmp/ccs9Di6y.s:533    .text:00000000000001f8 .L0 
     /tmp/ccs9Di6y.s:534    .text:00000000000001f8 .L0 
     /tmp/ccs9Di6y.s:541    .text:0000000000000200 .L0 
     /tmp/ccs9Di6y.s:547    .text:0000000000000204 .L0 
     /tmp/ccs9Di6y.s:548    .text:0000000000000204 .L0 
     /tmp/ccs9Di6y.s:549    .text:0000000000000204 .L0 
     /tmp/ccs9Di6y.s:554    .text:000000000000020c .L0 
  src/../h/riscv.hpp:267    .text:000000000000020c .L0 
     /tmp/ccs9Di6y.s:561    .text:0000000000000210 .L0 
     /tmp/ccs9Di6y.s:567    .text:0000000000000214 .L0 
     /tmp/ccs9Di6y.s:568    .text:0000000000000214 .L0 
     /tmp/ccs9Di6y.s:569    .text:0000000000000214 .L0 
     /tmp/ccs9Di6y.s:572    .text:000000000000021c .L0 
     /tmp/ccs9Di6y.s:575    .text:0000000000000220 .L0 
     /tmp/ccs9Di6y.s:576    .text:0000000000000220 .L0 
     /tmp/ccs9Di6y.s:577    .text:0000000000000220 .L0 
     /tmp/ccs9Di6y.s:581    .text:000000000000022c .L0 
     /tmp/ccs9Di6y.s:584    .text:0000000000000230 .L0 
     /tmp/ccs9Di6y.s:585    .text:0000000000000230 .L0 
     /tmp/ccs9Di6y.s:586    .text:0000000000000230 .L0 
     /tmp/ccs9Di6y.s:589    .text:0000000000000234 .L0 
     /tmp/ccs9Di6y.s:590    .text:0000000000000234 .L0 
     /tmp/ccs9Di6y.s:591    .text:0000000000000234 .L0 
     /tmp/ccs9Di6y.s:600    .text:0000000000000240 .L0 
     /tmp/ccs9Di6y.s:607    .text:0000000000000248 .L0 
     /tmp/ccs9Di6y.s:608    .text:0000000000000248 .L0 
     /tmp/ccs9Di6y.s:610    .text:000000000000024c .L0 
     /tmp/ccs9Di6y.s:611    .text:000000000000024c .L0 
GAS LISTING /tmp/ccs9Di6y.s 			page 31


     /tmp/ccs9Di6y.s:617    .text:0000000000000254 .L0 
     /tmp/ccs9Di6y.s:619    .text:0000000000000258 .L0 
     /tmp/ccs9Di6y.s:625    .text:000000000000025c .L0 
     /tmp/ccs9Di6y.s:626    .text:000000000000025c .L0 
     /tmp/ccs9Di6y.s:627    .text:000000000000025c .L0 
     /tmp/ccs9Di6y.s:634    .text:0000000000000264 .L0 
     /tmp/ccs9Di6y.s:642    .text:0000000000000268 .L0 
     /tmp/ccs9Di6y.s:643    .text:0000000000000268 .L0 
     /tmp/ccs9Di6y.s:644    .text:0000000000000268 .L0 
     /tmp/ccs9Di6y.s:651    .text:0000000000000270 .L0 
     /tmp/ccs9Di6y.s:657    .text:0000000000000274 .L0 
     /tmp/ccs9Di6y.s:658    .text:0000000000000274 .L0 
     /tmp/ccs9Di6y.s:659    .text:0000000000000274 .L0 
     /tmp/ccs9Di6y.s:665    .text:0000000000000280 .L0 
  src/../h/riscv.hpp:267    .text:0000000000000280 .L0 
     /tmp/ccs9Di6y.s:672    .text:0000000000000284 .L0 
     /tmp/ccs9Di6y.s:678    .text:0000000000000288 .L0 
     /tmp/ccs9Di6y.s:679    .text:0000000000000288 .L0 
     /tmp/ccs9Di6y.s:680    .text:0000000000000288 .L0 
     /tmp/ccs9Di6y.s:681    .text:0000000000000288 .L0 
     /tmp/ccs9Di6y.s:687    .text:0000000000000294 .L0 
  src/../h/riscv.hpp:267    .text:0000000000000294 .L0 
     /tmp/ccs9Di6y.s:694    .text:0000000000000298 .L0 
     /tmp/ccs9Di6y.s:700    .text:000000000000029c .L0 
     /tmp/ccs9Di6y.s:701    .text:000000000000029c .L0 
     /tmp/ccs9Di6y.s:702    .text:000000000000029c .L0 
     /tmp/ccs9Di6y.s:708    .text:00000000000002a8 .L0 
  src/../h/riscv.hpp:267    .text:00000000000002a8 .L0 
     /tmp/ccs9Di6y.s:715    .text:00000000000002ac .L0 
     /tmp/ccs9Di6y.s:721    .text:00000000000002b0 .L0 
     /tmp/ccs9Di6y.s:722    .text:00000000000002b0 .L0 
     /tmp/ccs9Di6y.s:723    .text:00000000000002b0 .L0 
     /tmp/ccs9Di6y.s:728    .text:00000000000002b8 .L0 
     /tmp/ccs9Di6y.s:729    .text:00000000000002b8 .L0 
  src/../h/riscv.hpp:267    .text:00000000000002b8 .L0 
     /tmp/ccs9Di6y.s:736    .text:00000000000002bc .L0 
     /tmp/ccs9Di6y.s:742    .text:00000000000002c0 .L0 
     /tmp/ccs9Di6y.s:743    .text:00000000000002c0 .L0 
     /tmp/ccs9Di6y.s:744    .text:00000000000002c0 .L0 
     /tmp/ccs9Di6y.s:749    .text:00000000000002cc .L0 
     /tmp/ccs9Di6y.s:752    .text:00000000000002cc .L0 
     /tmp/ccs9Di6y.s:753    .text:00000000000002cc .L0 
  src/../h/riscv.hpp:213    .text:00000000000002cc .L0 
     /tmp/ccs9Di6y.s:765    .text:00000000000002d0 .L0 
     /tmp/ccs9Di6y.s:766    .text:00000000000002d0 .L0 
     /tmp/ccs9Di6y.s:767    .text:00000000000002d0 .L0 
     /tmp/ccs9Di6y.s:777    .text:00000000000002d8 .L0 
     /tmp/ccs9Di6y.s:778    .text:00000000000002d8 .L0 
     /tmp/ccs9Di6y.s:783    .text:00000000000002dc .L0 
  src/../h/riscv.hpp:145    .text:00000000000002dc .L0 
     /tmp/ccs9Di6y.s:790    .text:00000000000002e0 .L0 
     /tmp/ccs9Di6y.s:796    .text:00000000000002e4 .L0 
     /tmp/ccs9Di6y.s:799    .text:00000000000002e4 .L0 
     /tmp/ccs9Di6y.s:800    .text:00000000000002e4 .L0 
     /tmp/ccs9Di6y.s:801    .text:00000000000002e4 .L0 
     /tmp/ccs9Di6y.s:815    .text:00000000000002ec .L0 
     /tmp/ccs9Di6y.s:816    .text:00000000000002f0 .L0 
GAS LISTING /tmp/ccs9Di6y.s 			page 32


     /tmp/ccs9Di6y.s:817    .text:00000000000002f0 .L0 
     /tmp/ccs9Di6y.s:819    .text:00000000000002f4 .L0 
     /tmp/ccs9Di6y.s:820    .text:00000000000002f4 .L0 
     /tmp/ccs9Di6y.s:822    .text:00000000000002f8 .L0 
     /tmp/ccs9Di6y.s:825    .text:00000000000002fc .L0 
     /tmp/ccs9Di6y.s:827    .text:0000000000000300 .L0 
     /tmp/ccs9Di6y.s:830    .text:0000000000000304 .L0 
     /tmp/ccs9Di6y.s:832    .text:0000000000000308 .L0 
     /tmp/ccs9Di6y.s:834    .text:000000000000030c .L0 
     /tmp/ccs9Di6y.s:836    .text:0000000000000310 .L0 
     /tmp/ccs9Di6y.s:838    .text:0000000000000314 .L0 
     /tmp/ccs9Di6y.s:840    .text:0000000000000318 .L0 
     /tmp/ccs9Di6y.s:844    .text:000000000000031c .L0 
     /tmp/ccs9Di6y.s:850    .text:0000000000000320 .L0 
     /tmp/ccs9Di6y.s:859    .text:0000000000000338 .L0 
     /tmp/ccs9Di6y.s:896    .text:0000000000000338 .L0 
     /tmp/ccs9Di6y.s:244    .rodata:0000000000000000 .L11
     /tmp/ccs9Di6y.s:236    .text:00000000000000e0 .L0 
     /tmp/ccs9Di6y.s:354    .text:0000000000000114 .L0 
     /tmp/ccs9Di6y.s:358    .text:0000000000000124 .L0 
     /tmp/ccs9Di6y.s:417    .text:0000000000000148 .L0 
     /tmp/ccs9Di6y.s:421    .text:0000000000000158 .L0 
     /tmp/ccs9Di6y.s:454    .text:0000000000000178 .L0 
     /tmp/ccs9Di6y.s:458    .text:0000000000000188 .L0 
     /tmp/ccs9Di6y.s:792    .text:00000000000002e4 .L4
     /tmp/ccs9Di6y.s:329    .text:00000000000000f8 .L5
     /tmp/ccs9Di6y.s:809    .text:00000000000002ec .L3
     /tmp/ccs9Di6y.s:379    .text:000000000000013c .L9
     /tmp/ccs9Di6y.s:360    .text:000000000000012c .L24
     /tmp/ccs9Di6y.s:423    .text:0000000000000160 .L25
     /tmp/ccs9Di6y.s:488    .text:00000000000001c8 .L32
     /tmp/ccs9Di6y.s:460    .text:0000000000000190 .L27
     /tmp/ccs9Di6y.s:493    .text:00000000000001d0 .L36
     /tmp/ccs9Di6y.s:470    .text:00000000000001a0 .L26
     /tmp/ccs9Di6y.s:504    .text:00000000000001e4 .L28
     /tmp/ccs9Di6y.s:526    .text:00000000000001f8 .L37
     /tmp/ccs9Di6y.s:510    .text:00000000000001ec .L29
     /tmp/ccs9Di6y.s:636    .text:0000000000000268 .L38
     /tmp/ccs9Di6y.s:620    .text:000000000000025c .L30
     /tmp/ccs9Di6y.s:346    .text:0000000000000114 .L23
     /tmp/ccs9Di6y.s:408    .text:0000000000000148 .L22
     /tmp/ccs9Di6y.s:443    .text:0000000000000174 .L21
     /tmp/ccs9Di6y.s:543    .text:0000000000000204 .L20
     /tmp/ccs9Di6y.s:563    .text:0000000000000214 .L19
     /tmp/ccs9Di6y.s:573    .text:0000000000000220 .L18
     /tmp/ccs9Di6y.s:582    .text:0000000000000230 .L17
     /tmp/ccs9Di6y.s:653    .text:0000000000000274 .L16
     /tmp/ccs9Di6y.s:674    .text:0000000000000288 .L15
     /tmp/ccs9Di6y.s:696    .text:000000000000029c .L14
     /tmp/ccs9Di6y.s:717    .text:00000000000002b0 .L13
     /tmp/ccs9Di6y.s:738    .text:00000000000002c0 .L12
     /tmp/ccs9Di6y.s:747    .text:00000000000002cc .L10
     /tmp/ccs9Di6y.s:339    .text:0000000000000108 .LEHB0
     /tmp/ccs9Di6y.s:46     .text:0000000000000020 .LFB49
     /tmp/ccs9Di6y.s:477    .text:00000000000001ac .LEHE0
     /tmp/ccs9Di6y.s:482    .text:00000000000001bc .LEHB1
     /tmp/ccs9Di6y.s:485    .text:00000000000001c4 .LEHE1
GAS LISTING /tmp/ccs9Di6y.s 			page 33


     /tmp/ccs9Di6y.s:843    .text:000000000000031c .L33
     /tmp/ccs9Di6y.s:501    .text:00000000000001dc .LEHB2
     /tmp/ccs9Di6y.s:856    .text:0000000000000338 .LEHE2
     /tmp/ccs9Di6y.s:2995   .debug_abbrev:0000000000000000 .Ldebug_abbrev0
     /tmp/ccs9Di6y.s:4856   .debug_str:000000000000087b .LASF190
     /tmp/ccs9Di6y.s:4922   .debug_str:0000000000000aee .LASF191
     /tmp/ccs9Di6y.s:4870   .debug_str:00000000000009a2 .LASF192
     /tmp/ccs9Di6y.s:5      .text:0000000000000000 .Ltext0
     /tmp/ccs9Di6y.s:890    .text:0000000000000338 .Letext0
     /tmp/ccs9Di6y.s:4544   .debug_line:0000000000000000 .Ldebug_line0
     /tmp/ccs9Di6y.s:4668   .debug_str:0000000000000385 .LASF0
     /tmp/ccs9Di6y.s:4704   .debug_str:0000000000000479 .LASF1
     /tmp/ccs9Di6y.s:4788   .debug_str:00000000000006d4 .LASF2
     /tmp/ccs9Di6y.s:4798   .debug_str:000000000000071c .LASF4
     /tmp/ccs9Di6y.s:4680   .debug_str:00000000000003da .LASF3
     /tmp/ccs9Di6y.s:4554   .debug_str:0000000000000034 .LASF5
     /tmp/ccs9Di6y.s:4770   .debug_str:0000000000000642 .LASF6
     /tmp/ccs9Di6y.s:4694   .debug_str:000000000000043a .LASF7
     /tmp/ccs9Di6y.s:4646   .debug_str:00000000000002d1 .LASF8
     /tmp/ccs9Di6y.s:4654   .debug_str:0000000000000322 .LASF9
     /tmp/ccs9Di6y.s:4588   .debug_str:0000000000000140 .LASF10
     /tmp/ccs9Di6y.s:4638   .debug_str:00000000000002ac .LASF11
     /tmp/ccs9Di6y.s:4602   .debug_str:00000000000001a0 .LASF12
     /tmp/ccs9Di6y.s:4586   .debug_str:0000000000000130 .LASF13
     /tmp/ccs9Di6y.s:4836   .debug_str:0000000000000823 .LASF14
     /tmp/ccs9Di6y.s:4632   .debug_str:0000000000000275 .LASF15
     /tmp/ccs9Di6y.s:4822   .debug_str:00000000000007b6 .LASF16
     /tmp/ccs9Di6y.s:4688   .debug_str:000000000000041e .LASF193
     /tmp/ccs9Di6y.s:4702   .debug_str:0000000000000474 .LASF17
     /tmp/ccs9Di6y.s:4590   .debug_str:000000000000014f .LASF18
     /tmp/ccs9Di6y.s:4764   .debug_str:0000000000000615 .LASF27
     /tmp/ccs9Di6y.s:4568   .debug_str:000000000000009e .LASF109
     /tmp/ccs9Di6y.s:4884   .debug_str:0000000000000a05 .LASF19
     /tmp/ccs9Di6y.s:4826   .debug_str:00000000000007d3 .LASF20
     /tmp/ccs9Di6y.s:4924   .debug_str:0000000000000afc .LASF30
     /tmp/ccs9Di6y.s:4728   .debug_str:000000000000050f .LASF32
     /tmp/ccs9Di6y.s:4574   .debug_str:00000000000000ef .LASF63
     /tmp/ccs9Di6y.s:4942   .debug_str:0000000000000b7b .LASF65
     /tmp/ccs9Di6y.s:4950   .debug_str:0000000000000bbb .LASF21
     /tmp/ccs9Di6y.s:4652   .debug_str:0000000000000302 .LASF23
     /tmp/ccs9Di6y.s:4722   .debug_str:00000000000004e2 .LASF22
     /tmp/ccs9Di6y.s:4760   .debug_str:00000000000005dd .LASF24
     /tmp/ccs9Di6y.s:4684   .debug_str:00000000000003fd .LASF39
     /tmp/ccs9Di6y.s:4790   .debug_str:00000000000006e2 .LASF25
     /tmp/ccs9Di6y.s:4890   .debug_str:0000000000000a1c .LASF26
     /tmp/ccs9Di6y.s:4644   .debug_str:00000000000002c7 .LASF28
     /tmp/ccs9Di6y.s:4600   .debug_str:0000000000000195 .LASF29
     /tmp/ccs9Di6y.s:4936   .debug_str:0000000000000b4f .LASF194
     /tmp/ccs9Di6y.s:4560   .debug_str:0000000000000051 .LASF195
     /tmp/ccs9Di6y.s:4548   .debug_str:000000000000000c .LASF31
     /tmp/ccs9Di6y.s:4808   .debug_str:0000000000000761 .LASF33
     /tmp/ccs9Di6y.s:4584   .debug_str:0000000000000126 .LASF34
     /tmp/ccs9Di6y.s:4886   .debug_str:0000000000000a0f .LASF196
     /tmp/ccs9Di6y.s:4828   .debug_str:00000000000007e2 .LASF35
     /tmp/ccs9Di6y.s:4746   .debug_str:000000000000058d .LASF36
     /tmp/ccs9Di6y.s:4734   .debug_str:000000000000055a .LASF37
     /tmp/ccs9Di6y.s:4920   .debug_str:0000000000000adb .LASF38
GAS LISTING /tmp/ccs9Di6y.s 			page 34


     /tmp/ccs9Di6y.s:4576   .debug_str:00000000000000f4 .LASF40
     /tmp/ccs9Di6y.s:4604   .debug_str:00000000000001b0 .LASF197
     /tmp/ccs9Di6y.s:4700   .debug_str:000000000000046b .LASF41
     /tmp/ccs9Di6y.s:4868   .debug_str:0000000000000985 .LASF42
     /tmp/ccs9Di6y.s:4716   .debug_str:00000000000004ce .LASF43
     /tmp/ccs9Di6y.s:4782   .debug_str:00000000000006a4 .LASF44
     /tmp/ccs9Di6y.s:4766   .debug_str:0000000000000625 .LASF45
     /tmp/ccs9Di6y.s:4900   .debug_str:0000000000000a5b .LASF46
     /tmp/ccs9Di6y.s:4952   .debug_str:0000000000000bc4 .LASF47
     /tmp/ccs9Di6y.s:4730   .debug_str:0000000000000533 .LASF48
     /tmp/ccs9Di6y.s:4810   .debug_str:0000000000000778 .LASF49
     /tmp/ccs9Di6y.s:4594   .debug_str:0000000000000165 .LASF50
     /tmp/ccs9Di6y.s:4780   .debug_str:000000000000069b .LASF51
     /tmp/ccs9Di6y.s:4832   .debug_str:00000000000007f8 .LASF52
     /tmp/ccs9Di6y.s:4844   .debug_str:000000000000084d .LASF198
     /tmp/ccs9Di6y.s:4852   .debug_str:000000000000086d .LASF96
     /tmp/ccs9Di6y.s:4582   .debug_str:0000000000000120 .LASF53
     /tmp/ccs9Di6y.s:4812   .debug_str:0000000000000783 .LASF54
     /tmp/ccs9Di6y.s:4596   .debug_str:0000000000000182 .LASF55
     /tmp/ccs9Di6y.s:4578   .debug_str:000000000000010b .LASF56
     /tmp/ccs9Di6y.s:4908   .debug_str:0000000000000a93 .LASF57
     /tmp/ccs9Di6y.s:4940   .debug_str:0000000000000b6f .LASF58
     /tmp/ccs9Di6y.s:4846   .debug_str:0000000000000855 .LASF59
     /tmp/ccs9Di6y.s:4916   .debug_str:0000000000000aaa .LASF60
     /tmp/ccs9Di6y.s:4796   .debug_str:0000000000000713 .LASF61
     /tmp/ccs9Di6y.s:4678   .debug_str:00000000000003be .LASF62
     /tmp/ccs9Di6y.s:4620   .debug_str:000000000000023f .LASF64
     /tmp/ccs9Di6y.s:4566   .debug_str:000000000000008b .LASF66
     /tmp/ccs9Di6y.s:4816   .debug_str:0000000000000791 .LASF67
     /tmp/ccs9Di6y.s:4794   .debug_str:0000000000000704 .LASF68
     /tmp/ccs9Di6y.s:4804   .debug_str:000000000000073d .LASF81
     /tmp/ccs9Di6y.s:4756   .debug_str:00000000000005c7 .LASF199
     /tmp/ccs9Di6y.s:4934   .debug_str:0000000000000b49 .LASF69
     /tmp/ccs9Di6y.s:4862   .debug_str:0000000000000957 .LASF70
     /tmp/ccs9Di6y.s:4854   .debug_str:0000000000000873 .LASF200
     /tmp/ccs9Di6y.s:4676   .debug_str:00000000000003b9 .LASF71
     /tmp/ccs9Di6y.s:4948   .debug_str:0000000000000bac .LASF72
     /tmp/ccs9Di6y.s:4608   .debug_str:00000000000001cc .LASF201
     /tmp/ccs9Di6y.s:4570   .debug_str:00000000000000b7 .LASF202
     /tmp/ccs9Di6y.s:4894   .debug_str:0000000000000a47 .LASF163
     /tmp/ccs9Di6y.s:4842   .debug_str:000000000000083b .LASF165
     /tmp/ccs9Di6y.s:4618   .debug_str:000000000000023a .LASF73
     /tmp/ccs9Di6y.s:4814   .debug_str:000000000000078b .LASF74
     /tmp/ccs9Di6y.s:4840   .debug_str:0000000000000836 .LASF75
     /tmp/ccs9Di6y.s:4874   .debug_str:00000000000009ca .LASF76
     /tmp/ccs9Di6y.s:4624   .debug_str:000000000000024d .LASF77
     /tmp/ccs9Di6y.s:4660   .debug_str:000000000000034e .LASF78
     /tmp/ccs9Di6y.s:4740   .debug_str:0000000000000576 .LASF79
     /tmp/ccs9Di6y.s:4880   .debug_str:00000000000009f6 .LASF80
     /tmp/ccs9Di6y.s:4580   .debug_str:0000000000000114 .LASF82
     /tmp/ccs9Di6y.s:4732   .debug_str:000000000000054e .LASF83
     /tmp/ccs9Di6y.s:4710   .debug_str:00000000000004ae .LASF84
     /tmp/ccs9Di6y.s:4546   .debug_str:0000000000000000 .LASF85
     /tmp/ccs9Di6y.s:4622   .debug_str:0000000000000248 .LASF86
     /tmp/ccs9Di6y.s:4736   .debug_str:000000000000055f .LASF87
     /tmp/ccs9Di6y.s:4838   .debug_str:000000000000082f .LASF88
     /tmp/ccs9Di6y.s:4830   .debug_str:00000000000007e7 .LASF89
GAS LISTING /tmp/ccs9Di6y.s 			page 35


     /tmp/ccs9Di6y.s:4564   .debug_str:0000000000000085 .LASF90
     /tmp/ccs9Di6y.s:4572   .debug_str:00000000000000df .LASF91
     /tmp/ccs9Di6y.s:4866   .debug_str:000000000000097b .LASF92
     /tmp/ccs9Di6y.s:4762   .debug_str:0000000000000601 .LASF93
     /tmp/ccs9Di6y.s:4720   .debug_str:00000000000004dd .LASF94
     /tmp/ccs9Di6y.s:4904   .debug_str:0000000000000a83 .LASF95
     /tmp/ccs9Di6y.s:4698   .debug_str:0000000000000460 .LASF97
     /tmp/ccs9Di6y.s:4708   .debug_str:00000000000004a5 .LASF98
     /tmp/ccs9Di6y.s:4928   .debug_str:0000000000000b1e .LASF99
     /tmp/ccs9Di6y.s:4658   .debug_str:0000000000000343 .LASF100
     /tmp/ccs9Di6y.s:4666   .debug_str:000000000000036d .LASF101
     /tmp/ccs9Di6y.s:4806   .debug_str:0000000000000753 .LASF102
     /tmp/ccs9Di6y.s:4634   .debug_str:000000000000028b .LASF103
     /tmp/ccs9Di6y.s:4670   .debug_str:0000000000000392 .LASF104
     /tmp/ccs9Di6y.s:4918   .debug_str:0000000000000ac1 .LASF105
     /tmp/ccs9Di6y.s:4882   .debug_str:00000000000009fc .LASF106
     /tmp/ccs9Di6y.s:4876   .debug_str:00000000000009d2 .LASF107
     /tmp/ccs9Di6y.s:4784   .debug_str:00000000000006c0 .LASF108
     /tmp/ccs9Di6y.s:4754   .debug_str:00000000000005b2 .LASF110
     /tmp/ccs9Di6y.s:4772   .debug_str:0000000000000655 .LASF111
     /tmp/ccs9Di6y.s:4776   .debug_str:0000000000000674 .LASF112
     /tmp/ccs9Di6y.s:4748   .debug_str:0000000000000592 .LASF113
     /tmp/ccs9Di6y.s:4696   .debug_str:000000000000044d .LASF114
     /tmp/ccs9Di6y.s:4738   .debug_str:000000000000056e .LASF115
     /tmp/ccs9Di6y.s:4864   .debug_str:0000000000000967 .LASF116
     /tmp/ccs9Di6y.s:4744   .debug_str:0000000000000585 .LASF117
     /tmp/ccs9Di6y.s:4752   .debug_str:000000000000059e .LASF118
     /tmp/ccs9Di6y.s:4712   .debug_str:00000000000004b3 .LASF119
     /tmp/ccs9Di6y.s:4778   .debug_str:0000000000000687 .LASF120
     /tmp/ccs9Di6y.s:4946   .debug_str:0000000000000ba4 .LASF121
     /tmp/ccs9Di6y.s:4674   .debug_str:00000000000003a5 .LASF122
     /tmp/ccs9Di6y.s:4612   .debug_str:0000000000000209 .LASF123
     /tmp/ccs9Di6y.s:4800   .debug_str:0000000000000723 .LASF124
     /tmp/ccs9Di6y.s:4802   .debug_str:0000000000000736 .LASF125
     /tmp/ccs9Di6y.s:4630   .debug_str:0000000000000262 .LASF126
     /tmp/ccs9Di6y.s:4626   .debug_str:0000000000000253 .LASF127
     /tmp/ccs9Di6y.s:4664   .debug_str:000000000000035b .LASF128
     /tmp/ccs9Di6y.s:4672   .debug_str:000000000000039f .LASF129
     /tmp/ccs9Di6y.s:4616   .debug_str:0000000000000228 .LASF130
     /tmp/ccs9Di6y.s:4556   .debug_str:000000000000003b .LASF131
     /tmp/ccs9Di6y.s:4792   .debug_str:00000000000006ec .LASF132
     /tmp/ccs9Di6y.s:4786   .debug_str:00000000000006c9 .LASF133
     /tmp/ccs9Di6y.s:4774   .debug_str:000000000000065c .LASF134
     /tmp/ccs9Di6y.s:4906   .debug_str:0000000000000a89 .LASF135
     /tmp/ccs9Di6y.s:4926   .debug_str:0000000000000b08 .LASF136
     /tmp/ccs9Di6y.s:4902   .debug_str:0000000000000a79 .LASF137
     /tmp/ccs9Di6y.s:4726   .debug_str:00000000000004f9 .LASF138
     /tmp/ccs9Di6y.s:4818   .debug_str:0000000000000796 .LASF139
     /tmp/ccs9Di6y.s:4714   .debug_str:00000000000004bb .LASF140
     /tmp/ccs9Di6y.s:4642   .debug_str:00000000000002c0 .LASF141
     /tmp/ccs9Di6y.s:4860   .debug_str:0000000000000944 .LASF142
     /tmp/ccs9Di6y.s:4878   .debug_str:00000000000009e7 .LASF143
     /tmp/ccs9Di6y.s:4562   .debug_str:0000000000000069 .LASF144
     /tmp/ccs9Di6y.s:4912   .debug_str:0000000000000aa0 .LASF145
     /tmp/ccs9Di6y.s:4758   .debug_str:00000000000005cc .LASF146
     /tmp/ccs9Di6y.s:4686   .debug_str:0000000000000419 .LASF147
     /tmp/ccs9Di6y.s:4834   .debug_str:0000000000000812 .LASF148
GAS LISTING /tmp/ccs9Di6y.s 			page 36


     /tmp/ccs9Di6y.s:4914   .debug_str:0000000000000aa5 .LASF149
     /tmp/ccs9Di6y.s:4682   .debug_str:00000000000003ec .LASF150
     /tmp/ccs9Di6y.s:4742   .debug_str:0000000000000580 .LASF151
     /tmp/ccs9Di6y.s:4768   .debug_str:0000000000000631 .LASF152
     /tmp/ccs9Di6y.s:4750   .debug_str:0000000000000599 .LASF153
     /tmp/ccs9Di6y.s:4552   .debug_str:0000000000000023 .LASF154
     /tmp/ccs9Di6y.s:4690   .debug_str:0000000000000424 .LASF155
     /tmp/ccs9Di6y.s:4692   .debug_str:0000000000000429 .LASF156
     /tmp/ccs9Di6y.s:4606   .debug_str:00000000000001c7 .LASF157
     /tmp/ccs9Di6y.s:4650   .debug_str:00000000000002f1 .LASF158
     /tmp/ccs9Di6y.s:4872   .debug_str:00000000000009c5 .LASF159
     /tmp/ccs9Di6y.s:4592   .debug_str:0000000000000154 .LASF160
     /tmp/ccs9Di6y.s:4888   .debug_str:0000000000000a14 .LASF161
     /tmp/ccs9Di6y.s:4932   .debug_str:0000000000000b35 .LASF162
     /tmp/ccs9Di6y.s:4938   .debug_str:0000000000000b63 .LASF164
     /tmp/ccs9Di6y.s:4706   .debug_str:000000000000048c .LASF166
     /tmp/ccs9Di6y.s:4628   .debug_str:0000000000000259 .LASF167
     /tmp/ccs9Di6y.s:4640   .debug_str:00000000000002bb .LASF175
     /tmp/ccs9Di6y.s:4656   .debug_str:0000000000000330 .LASF177
     /tmp/ccs9Di6y.s:860    .text:0000000000000338 .LFE49
     /tmp/ccs9Di6y.s:4824   .debug_str:00000000000007cc .LASF168
     /tmp/ccs9Di6y.s:4212   .debug_loc:0000000000000000 .LLST0
     /tmp/ccs9Di6y.s:4233   .debug_loc:000000000000005e .LLST1
     /tmp/ccs9Di6y.s:4248   .debug_loc:00000000000000a7 .LLST2
     /tmp/ccs9Di6y.s:4259   .debug_loc:00000000000000dd .LLST3
     /tmp/ccs9Di6y.s:4278   .debug_loc:0000000000000139 .LLST4
     /tmp/ccs9Di6y.s:4858   .debug_str:000000000000093f .LASF169
     /tmp/ccs9Di6y.s:4289   .debug_loc:000000000000016f .LLST5
     /tmp/ccs9Di6y.s:4910   .debug_str:0000000000000a98 .LASF170
     /tmp/ccs9Di6y.s:4304   .debug_loc:00000000000001b8 .LLST6
     /tmp/ccs9Di6y.s:4534   .debug_ranges:0000000000000000 .Ldebug_ranges0
     /tmp/ccs9Di6y.s:4319   .debug_loc:0000000000000201 .LLST7
     /tmp/ccs9Di6y.s:4326   .debug_loc:0000000000000224 .LLST8
     /tmp/ccs9Di6y.s:4558   .debug_str:0000000000000046 .LASF171
     /tmp/ccs9Di6y.s:4341   .debug_loc:000000000000026d .LLST9
     /tmp/ccs9Di6y.s:4850   .debug_str:0000000000000865 .LASF172
     /tmp/ccs9Di6y.s:4356   .debug_loc:00000000000002b6 .LLST10
     /tmp/ccs9Di6y.s:4363   .debug_loc:00000000000002d9 .LLST11
     /tmp/ccs9Di6y.s:4370   .debug_loc:00000000000002fc .LLST12
     /tmp/ccs9Di6y.s:4377   .debug_loc:000000000000031f .LLST13
     /tmp/ccs9Di6y.s:186    .text:00000000000000b8 .LBB85
     /tmp/ccs9Di6y.s:202    .text:00000000000000c4 .LBE85
     /tmp/ccs9Di6y.s:207    .text:00000000000000c8 .LBB87
     /tmp/ccs9Di6y.s:223    .text:00000000000000d4 .LBE87
     /tmp/ccs9Di6y.s:349    .text:0000000000000114 .LBB89
     /tmp/ccs9Di6y.s:363    .text:000000000000012c .LBE89
     /tmp/ccs9Di6y.s:369    .text:0000000000000138 .LBB91
     /tmp/ccs9Di6y.s:381    .text:000000000000013c .LBE91
     /tmp/ccs9Di6y.s:383    .text:000000000000013c .LBB93
     /tmp/ccs9Di6y.s:394    .text:0000000000000140 .LBE93
     /tmp/ccs9Di6y.s:4384   .debug_loc:0000000000000342 .LLST15
     /tmp/ccs9Di6y.s:396    .text:0000000000000140 .LBB95
     /tmp/ccs9Di6y.s:410    .text:0000000000000148 .LBE95
     /tmp/ccs9Di6y.s:4391   .debug_loc:0000000000000365 .LLST16
     /tmp/ccs9Di6y.s:413    .text:0000000000000148 .LBB97
     /tmp/ccs9Di6y.s:426    .text:0000000000000160 .LBE97
     /tmp/ccs9Di6y.s:431    .text:000000000000016c .LBB99
GAS LISTING /tmp/ccs9Di6y.s 			page 37


     /tmp/ccs9Di6y.s:445    .text:0000000000000174 .LBE99
     /tmp/ccs9Di6y.s:4398   .debug_loc:0000000000000388 .LLST17
     /tmp/ccs9Di6y.s:450    .text:0000000000000178 .LBB101
     /tmp/ccs9Di6y.s:463    .text:0000000000000190 .LBE101
     /tmp/ccs9Di6y.s:513    .text:00000000000001ec .LBB103
     /tmp/ccs9Di6y.s:528    .text:00000000000001f8 .LBE103
     /tmp/ccs9Di6y.s:4405   .debug_loc:00000000000003ab .LLST18
     /tmp/ccs9Di6y.s:530    .text:00000000000001f8 .LBB105
     /tmp/ccs9Di6y.s:545    .text:0000000000000204 .LBE105
     /tmp/ccs9Di6y.s:4413   .debug_loc:00000000000003cf .LLST19
     /tmp/ccs9Di6y.s:551    .text:000000000000020c .LBB107
     /tmp/ccs9Di6y.s:565    .text:0000000000000214 .LBE107
     /tmp/ccs9Di6y.s:4422   .debug_loc:00000000000003f4 .LLST20
     /tmp/ccs9Di6y.s:594    .text:0000000000000240 .LBB109
     /tmp/ccs9Di6y.s:615    .text:0000000000000254 .LBE109
     /tmp/ccs9Di6y.s:4429   .debug_loc:0000000000000417 .LLST21
     /tmp/ccs9Di6y.s:4436   .debug_loc:000000000000043a .LLST22
     /tmp/ccs9Di6y.s:596    .text:0000000000000240 .LBB111
     /tmp/ccs9Di6y.s:604    .text:0000000000000248 .LBE111
     /tmp/ccs9Di6y.s:4443   .debug_loc:000000000000045d .LLST23
     /tmp/ccs9Di6y.s:623    .text:000000000000025c .LBB113
     /tmp/ccs9Di6y.s:638    .text:0000000000000268 .LBE113
     /tmp/ccs9Di6y.s:4452   .debug_loc:0000000000000482 .LLST24
     /tmp/ccs9Di6y.s:640    .text:0000000000000268 .LBB115
     /tmp/ccs9Di6y.s:655    .text:0000000000000274 .LBE115
     /tmp/ccs9Di6y.s:4460   .debug_loc:00000000000004a6 .LLST25
     /tmp/ccs9Di6y.s:662    .text:0000000000000280 .LBB117
     /tmp/ccs9Di6y.s:676    .text:0000000000000288 .LBE117
     /tmp/ccs9Di6y.s:4469   .debug_loc:00000000000004cb .LLST26
     /tmp/ccs9Di6y.s:684    .text:0000000000000294 .LBB119
     /tmp/ccs9Di6y.s:698    .text:000000000000029c .LBE119
     /tmp/ccs9Di6y.s:4476   .debug_loc:00000000000004ee .LLST27
     /tmp/ccs9Di6y.s:705    .text:00000000000002a8 .LBB121
     /tmp/ccs9Di6y.s:719    .text:00000000000002b0 .LBE121
     /tmp/ccs9Di6y.s:4483   .debug_loc:0000000000000511 .LLST28
     /tmp/ccs9Di6y.s:726    .text:00000000000002b8 .LBB123
     /tmp/ccs9Di6y.s:740    .text:00000000000002c0 .LBE123
     /tmp/ccs9Di6y.s:750    .text:00000000000002cc .LBB125
     /tmp/ccs9Di6y.s:761    .text:00000000000002d0 .LBE125
     /tmp/ccs9Di6y.s:4490   .debug_loc:0000000000000534 .LLST30
     /tmp/ccs9Di6y.s:763    .text:00000000000002d0 .LBB127
     /tmp/ccs9Di6y.s:775    .text:00000000000002d8 .LBE127
     /tmp/ccs9Di6y.s:4497   .debug_loc:0000000000000557 .LLST31
     /tmp/ccs9Di6y.s:780    .text:00000000000002dc .LBB129
     /tmp/ccs9Di6y.s:794    .text:00000000000002e4 .LBE129
     /tmp/ccs9Di6y.s:4506   .debug_loc:000000000000057d .LLST32
     /tmp/ccs9Di6y.s:797    .text:00000000000002e4 .LBB131
     /tmp/ccs9Di6y.s:811    .text:00000000000002ec .LBE131
     /tmp/ccs9Di6y.s:4513   .debug_loc:00000000000005a0 .LLST33
     /tmp/ccs9Di6y.s:342    .text:0000000000000110 .LVL11
     /tmp/ccs9Di6y.s:367    .text:0000000000000138 .LVL15
     /tmp/ccs9Di6y.s:430    .text:000000000000016c .LVL21
     /tmp/ccs9Di6y.s:467    .text:000000000000019c .LVL25
     /tmp/ccs9Di6y.s:476    .text:00000000000001ac .LVL27
     /tmp/ccs9Di6y.s:484    .text:00000000000001c4 .LVL28
     /tmp/ccs9Di6y.s:503    .text:00000000000001e4 .LVL31
     /tmp/ccs9Di6y.s:550    .text:000000000000020c .LVL35
GAS LISTING /tmp/ccs9Di6y.s 			page 38


     /tmp/ccs9Di6y.s:570    .text:000000000000021c .LVL37
     /tmp/ccs9Di6y.s:579    .text:000000000000022c .LVL38
     /tmp/ccs9Di6y.s:593    .text:0000000000000240 .LVL40
     /tmp/ccs9Di6y.s:661    .text:0000000000000280 .LVL46
     /tmp/ccs9Di6y.s:683    .text:0000000000000294 .LVL48
     /tmp/ccs9Di6y.s:704    .text:00000000000002a8 .LVL50
     /tmp/ccs9Di6y.s:724    .text:00000000000002b8 .LVL52
     /tmp/ccs9Di6y.s:746    .text:00000000000002cc .LVL54
     /tmp/ccs9Di6y.s:852    .text:000000000000032c .LVL65
     /tmp/ccs9Di6y.s:76     .text:0000000000000050 .LBB73
     /tmp/ccs9Di6y.s:93     .text:000000000000005c .LBE73
     /tmp/ccs9Di6y.s:95     .text:000000000000005c .LBB75
     /tmp/ccs9Di6y.s:111    .text:0000000000000068 .LBE75
     /tmp/ccs9Di6y.s:113    .text:0000000000000068 .LBB77
     /tmp/ccs9Di6y.s:129    .text:0000000000000074 .LBE77
     /tmp/ccs9Di6y.s:131    .text:0000000000000074 .LBB79
     /tmp/ccs9Di6y.s:147    .text:0000000000000080 .LBE79
     /tmp/ccs9Di6y.s:149    .text:0000000000000080 .LBB81
     /tmp/ccs9Di6y.s:165    .text:000000000000008c .LBE81
     /tmp/ccs9Di6y.s:855    .text:0000000000000338 .LVL66
     /tmp/ccs9Di6y.s:4848   .debug_str:0000000000000860 .LASF173
     /tmp/ccs9Di6y.s:10     .text:0000000000000000 .LFB48
     /tmp/ccs9Di6y.s:40     .text:0000000000000020 .LFE48
     /tmp/ccs9Di6y.s:4896   .debug_str:0000000000000a4f .LASF174
     /tmp/ccs9Di6y.s:4930   .debug_str:0000000000000b27 .LASF176
     /tmp/ccs9Di6y.s:4724   .debug_str:00000000000004ed .LASF178
     /tmp/ccs9Di6y.s:4598   .debug_str:000000000000018c .LASF179
     /tmp/ccs9Di6y.s:4610   .debug_str:00000000000001da .LASF203
     /tmp/ccs9Di6y.s:4820   .debug_str:000000000000079d .LASF180
     /tmp/ccs9Di6y.s:4648   .debug_str:00000000000002e1 .LASF181
     /tmp/ccs9Di6y.s:4636   .debug_str:00000000000002a6 .LASF184
     /tmp/ccs9Di6y.s:4944   .debug_str:0000000000000b97 .LASF186
     /tmp/ccs9Di6y.s:4662   .debug_str:0000000000000354 .LASF182
     /tmp/ccs9Di6y.s:4718   .debug_str:00000000000004d6 .LASF183
     /tmp/ccs9Di6y.s:4898   .debug_str:0000000000000a54 .LASF185
     /tmp/ccs9Di6y.s:4550   .debug_str:0000000000000013 .LASF187
     /tmp/ccs9Di6y.s:4892   .debug_str:0000000000000a38 .LASF188
     /tmp/ccs9Di6y.s:4614   .debug_str:0000000000000210 .LASF189
     /tmp/ccs9Di6y.s:91     .text:000000000000005c .LVL0
     /tmp/ccs9Di6y.s:179    .text:00000000000000b0 .LVL5
     /tmp/ccs9Di6y.s:195    .text:00000000000000bc .LVL6
     /tmp/ccs9Di6y.s:328    .text:00000000000000f8 .LVL10
     /tmp/ccs9Di6y.s:791    .text:00000000000002e4 .LVL58
     /tmp/ccs9Di6y.s:802    .text:00000000000002e8 .LVL59
     /tmp/ccs9Di6y.s:109    .text:0000000000000068 .LVL1
     /tmp/ccs9Di6y.s:235    .text:00000000000000e0 .LVL9
     /tmp/ccs9Di6y.s:807    .text:00000000000002ec .LVL60
     /tmp/ccs9Di6y.s:127    .text:0000000000000074 .LVL2
     /tmp/ccs9Di6y.s:823    .text:00000000000002f8 .LVL61
     /tmp/ccs9Di6y.s:842    .text:000000000000031c .LVL63
     /tmp/ccs9Di6y.s:846    .text:0000000000000320 .LVL64
     /tmp/ccs9Di6y.s:145    .text:0000000000000080 .LVL3
     /tmp/ccs9Di6y.s:377    .text:000000000000013c .LVL16
     /tmp/ccs9Di6y.s:407    .text:0000000000000148 .LVL18
     /tmp/ccs9Di6y.s:587    .text:0000000000000234 .LVL39
     /tmp/ccs9Di6y.s:652    .text:0000000000000274 .LVL45
     /tmp/ccs9Di6y.s:163    .text:000000000000008c .LVL4
GAS LISTING /tmp/ccs9Di6y.s 			page 39


     /tmp/ccs9Di6y.s:828    .text:0000000000000300 .LVL62
     /tmp/ccs9Di6y.s:205    .text:00000000000000c8 .LVL7
     /tmp/ccs9Di6y.s:345    .text:0000000000000114 .LVL12
     /tmp/ccs9Di6y.s:221    .text:00000000000000d4 .LVL8
     /tmp/ccs9Di6y.s:469    .text:00000000000001a0 .LVL26
     /tmp/ccs9Di6y.s:487    .text:00000000000001c8 .LVL29
     /tmp/ccs9Di6y.s:492    .text:00000000000001d0 .LVL30
     /tmp/ccs9Di6y.s:542    .text:0000000000000204 .LVL34
     /tmp/ccs9Di6y.s:673    .text:0000000000000288 .LVL47
     /tmp/ccs9Di6y.s:695    .text:000000000000029c .LVL49
     /tmp/ccs9Di6y.s:737    .text:00000000000002c0 .LVL53
     /tmp/ccs9Di6y.s:391    .text:0000000000000140 .LVL17
     /tmp/ccs9Di6y.s:442    .text:0000000000000174 .LVL22
     /tmp/ccs9Di6y.s:512    .text:00000000000001ec .LVL32
     /tmp/ccs9Di6y.s:525    .text:00000000000001f8 .LVL33
     /tmp/ccs9Di6y.s:562    .text:0000000000000214 .LVL36
     /tmp/ccs9Di6y.s:613    .text:0000000000000254 .LVL42
     /tmp/ccs9Di6y.s:602    .text:0000000000000248 .LVL41
     /tmp/ccs9Di6y.s:622    .text:000000000000025c .LVL43
     /tmp/ccs9Di6y.s:635    .text:0000000000000268 .LVL44
     /tmp/ccs9Di6y.s:716    .text:00000000000002b0 .LVL51
     /tmp/ccs9Di6y.s:758    .text:00000000000002d0 .LVL55
     /tmp/ccs9Di6y.s:772    .text:00000000000002d8 .LVL56
     /tmp/ccs9Di6y.s:779    .text:00000000000002dc .LVL57
     /tmp/ccs9Di6y.s:897    .debug_info:0000000000000000 .Ldebug_info0
     /tmp/ccs9Di6y.s:182    .text:00000000000000b8 .LBB84
     /tmp/ccs9Di6y.s:330    .text:00000000000000f8 .LBE84
     /tmp/ccs9Di6y.s:336    .text:0000000000000108 .LBB133
     /tmp/ccs9Di6y.s:812    .text:00000000000002ec .LBE133
     /tmp/ccs9Di6y.s:848    .text:0000000000000320 .LBB134
     /tmp/ccs9Di6y.s:857    .text:0000000000000338 .LBE134
     /tmp/ccs9Di6y.s:863    .gcc_except_table:0000000000000000 .LLSDA49

UNDEFINED SYMBOLS
console_handler
_ZN15MemoryAllocator8allocateEm
_ZN15MemoryAllocator10deallocateEPv
_Znwm
_ZN3PCBC1EPFvPvES0_Pm
_ZN9Scheduler3putEP3PCB
_ZN3PCB4exitEv
_ZN3PCB8dispatchEv
_ZN3PCB4joinEv
_ZN3Sem5closeEv
_ZN3Sem4waitEv
_ZN3Sem6signalEv
__getc
__putc
_ZdlPv
_Unwind_Resume
__gxx_personality_v0
