GAS LISTING /tmp/ccI3uC4q.s 			page 1


   1              		.file	"riscv.cpp"
   2              		.option pic
   3              		.option norelax
   4              		.text
   5              	.Ltext0:
   6              		.align	2
   7              		.globl	_ZN5Riscv10popSppSpieEv
   9              	_ZN5Riscv10popSppSpieEv:
  10              	.LFB48:
  11              		.file 1 "src/riscv.cpp"
   1:src/riscv.cpp **** #include "../h/riscv.hpp"
   2:src/riscv.cpp **** 
   3:src/riscv.cpp **** 
   4:src/riscv.cpp **** 
   5:src/riscv.cpp **** void Riscv::popSppSpie()
   6:src/riscv.cpp **** {
  12              		.loc 1 6 1
  13              		.cfi_startproc
  14 0000 130101FF 		addi	sp,sp,-16
  15              		.cfi_def_cfa_offset 16
  16 0004 23348100 		sd	s0,8(sp)
  17              		.cfi_offset 8, -8
  18 0008 13040101 		addi	s0,sp,16
  19              		.cfi_def_cfa 8, 0
   7:src/riscv.cpp ****     __asm__ volatile ("csrw sepc, ra");
  20              		.loc 1 7 5
  21              		.loc 1 7 39 is_stmt 0
  22              	#APP
  23              	# 7 "src/riscv.cpp" 1
   8              	    __asm__ volatile ("sret");
  24              		csrw sepc, ra
  25              	# 0 "" 2
  26              		.loc 1 8 5 is_stmt 1
  27              		.loc 1 8 30 is_stmt 0
  28              	# 8 "src/riscv.cpp" 1
   9              	}
  29              		sret
  30              	# 0 "" 2
  31              		.loc 1 9 1
  32              	#NO_APP
  33 0014 03348100 		ld	s0,8(sp)
  34              		.cfi_restore 8
  35              		.cfi_def_cfa 2, 16
  36 0018 13010101 		addi	sp,sp,16
  37              		.cfi_def_cfa_offset 0
  38 001c 67800000 		jr	ra
  39              		.cfi_endproc
  40              	.LFE48:
  42              		.align	2
  43              		.globl	_ZN5Riscv11trapHandlerEv
  45              	_ZN5Riscv11trapHandlerEv:
  46              	.LFB49:
  10:src/riscv.cpp **** 
  11:src/riscv.cpp **** void Riscv::trapHandler() {
  47              		.loc 1 11 27 is_stmt 1
  48              		.cfi_startproc
  49 0020 130101F8 		addi	sp,sp,-128
GAS LISTING /tmp/ccI3uC4q.s 			page 2


  50              		.cfi_def_cfa_offset 128
  51 0024 233C1106 		sd	ra,120(sp)
  52 0028 23388106 		sd	s0,112(sp)
  53 002c 23349106 		sd	s1,104(sp)
  54 0030 23302107 		sd	s2,96(sp)
  55 0034 233C3105 		sd	s3,88(sp)
  56 0038 23384105 		sd	s4,80(sp)
  57 003c 23345105 		sd	s5,72(sp)
  58 0040 23306105 		sd	s6,64(sp)
  59              		.cfi_offset 1, -8
  60              		.cfi_offset 8, -16
  61              		.cfi_offset 9, -24
  62              		.cfi_offset 18, -32
  63              		.cfi_offset 19, -40
  64              		.cfi_offset 20, -48
  65              		.cfi_offset 21, -56
  66              		.cfi_offset 22, -64
  67 0044 13040108 		addi	s0,sp,128
  68              		.cfi_def_cfa 8, 0
  12:src/riscv.cpp ****     uint64 scause = r_scause();
  69              		.loc 1 12 5
  70              	.LBB56:
  71              	.LBB57:
  72              		.file 2 "src/../h/riscv.hpp"
   1:src/../h/riscv.hpp **** #ifndef PROJECT_BASE_V1_1_RISCV_HPP
   2:src/../h/riscv.hpp **** #define PROJECT_BASE_V1_1_RISCV_HPP
   3:src/../h/riscv.hpp **** 
   4:src/../h/riscv.hpp **** 
   5:src/../h/riscv.hpp **** #include "../h/MemoryAllocator.hpp"
   6:src/../h/riscv.hpp **** #include "PCB.hpp"
   7:src/../h/riscv.hpp **** 
   8:src/../h/riscv.hpp **** 
   9:src/../h/riscv.hpp **** #define readUsrReg(reg, dst) __asm__ volatile("mv %0,"#reg : "=r" (dst));
  10:src/../h/riscv.hpp **** #define writeUsrReg(reg, src) __asm__ volatile("mv "#reg", %0" : : "r" (src));
  11:src/../h/riscv.hpp **** 
  12:src/../h/riscv.hpp **** 
  13:src/../h/riscv.hpp **** class Riscv
  14:src/../h/riscv.hpp **** {
  15:src/../h/riscv.hpp **** public:
  16:src/../h/riscv.hpp **** 
  17:src/../h/riscv.hpp **** 
  18:src/../h/riscv.hpp **** 
  19:src/../h/riscv.hpp ****     // pop sstatus.spp and sstatus.spie bits (has to be a non inline function)
  20:src/../h/riscv.hpp ****     static void popSppSpie();
  21:src/../h/riscv.hpp **** 
  22:src/../h/riscv.hpp ****     // push x3..x31 registers onto stack
  23:src/../h/riscv.hpp ****     static void pushRegisters();
  24:src/../h/riscv.hpp **** 
  25:src/../h/riscv.hpp ****     // pop x3..x31 registers onto stack
  26:src/../h/riscv.hpp ****     static void popRegisters();
  27:src/../h/riscv.hpp **** 
  28:src/../h/riscv.hpp ****     // read register scause
  29:src/../h/riscv.hpp ****     static uint64 r_scause();
  30:src/../h/riscv.hpp **** 
  31:src/../h/riscv.hpp ****     // write register scause
  32:src/../h/riscv.hpp ****     static void w_scause(uint64 scause);
  33:src/../h/riscv.hpp **** 
GAS LISTING /tmp/ccI3uC4q.s 			page 3


  34:src/../h/riscv.hpp ****     // read register sepc
  35:src/../h/riscv.hpp ****     static uint64 r_sepc();
  36:src/../h/riscv.hpp **** 
  37:src/../h/riscv.hpp ****     // write register sepc
  38:src/../h/riscv.hpp ****     static void w_sepc(uint64 sepc);
  39:src/../h/riscv.hpp **** 
  40:src/../h/riscv.hpp ****     // read register stvec
  41:src/../h/riscv.hpp ****     static uint64 r_stvec();
  42:src/../h/riscv.hpp **** 
  43:src/../h/riscv.hpp ****     // write register stvec
  44:src/../h/riscv.hpp ****     static void w_stvec(uint64 stvec);
  45:src/../h/riscv.hpp **** 
  46:src/../h/riscv.hpp ****     // read register stval
  47:src/../h/riscv.hpp ****     static uint64 r_stval();
  48:src/../h/riscv.hpp **** 
  49:src/../h/riscv.hpp ****     // write register stval
  50:src/../h/riscv.hpp ****     static void w_stval(uint64 stval);
  51:src/../h/riscv.hpp **** 
  52:src/../h/riscv.hpp ****     enum BitMaskSip
  53:src/../h/riscv.hpp ****     {
  54:src/../h/riscv.hpp **** //        SIP_SSIE = (1 << 1),
  55:src/../h/riscv.hpp **** //        SIP_STIE = (1 << 5),
  56:src/../h/riscv.hpp **** //        SIP_SEIE = (1 << 9),
  57:src/../h/riscv.hpp ****         SIP_SSIP = (1<<1),
  58:src/../h/riscv.hpp ****         SIP_SEIP = (1<<9)
  59:src/../h/riscv.hpp ****     };
  60:src/../h/riscv.hpp **** 
  61:src/../h/riscv.hpp ****     // mask set register sip
  62:src/../h/riscv.hpp ****     static void ms_sip(uint64 mask);
  63:src/../h/riscv.hpp **** 
  64:src/../h/riscv.hpp ****     // mask clear register sip
  65:src/../h/riscv.hpp ****     static void mc_sip(uint64 mask);
  66:src/../h/riscv.hpp **** 
  67:src/../h/riscv.hpp ****     // read register sip
  68:src/../h/riscv.hpp ****     static uint64 r_sip();
  69:src/../h/riscv.hpp **** 
  70:src/../h/riscv.hpp ****     // write register sip
  71:src/../h/riscv.hpp ****     static void w_sip(uint64 sip);
  72:src/../h/riscv.hpp **** 
  73:src/../h/riscv.hpp ****     enum BitMaskSstatus
  74:src/../h/riscv.hpp ****     {
  75:src/../h/riscv.hpp ****         SSTATUS_SIE = (1 << 1),
  76:src/../h/riscv.hpp ****         SSTATUS_SPIE = (1 << 5),
  77:src/../h/riscv.hpp ****         SSTATUS_SPP = (1 << 8),
  78:src/../h/riscv.hpp ****     };
  79:src/../h/riscv.hpp **** 
  80:src/../h/riscv.hpp ****     // mask set register sstatus
  81:src/../h/riscv.hpp ****     static void ms_sstatus(uint64 mask);
  82:src/../h/riscv.hpp **** 
  83:src/../h/riscv.hpp ****     // mask clear register sstatus
  84:src/../h/riscv.hpp ****     static void mc_sstatus(uint64 mask);
  85:src/../h/riscv.hpp **** 
  86:src/../h/riscv.hpp ****     // read register sstatus
  87:src/../h/riscv.hpp ****     static uint64 r_sstatus();
  88:src/../h/riscv.hpp **** 
  89:src/../h/riscv.hpp ****     // write register sstatus
  90:src/../h/riscv.hpp ****     static void w_sstatus(uint64 sstatus);
GAS LISTING /tmp/ccI3uC4q.s 			page 4


  91:src/../h/riscv.hpp **** 
  92:src/../h/riscv.hpp ****     // mask set register sie
  93:src/../h/riscv.hpp ****     static void ms_sie(uint64 mask);
  94:src/../h/riscv.hpp **** 
  95:src/../h/riscv.hpp ****     // mask clear register sie
  96:src/../h/riscv.hpp ****     static void mc_sie(uint64 mask);
  97:src/../h/riscv.hpp **** 
  98:src/../h/riscv.hpp ****     static void supervisorTrap();
  99:src/../h/riscv.hpp **** 
 100:src/../h/riscv.hpp ****     static long r_a0();
 101:src/../h/riscv.hpp **** 
 102:src/../h/riscv.hpp ****     static void w_a0(long a0);
 103:src/../h/riscv.hpp **** 
 104:src/../h/riscv.hpp ****     static uint64 r_a1();
 105:src/../h/riscv.hpp **** 
 106:src/../h/riscv.hpp ****     static void w_a1(uint64 a1);
 107:src/../h/riscv.hpp **** 
 108:src/../h/riscv.hpp ****     static uint64 r_a2();
 109:src/../h/riscv.hpp **** 
 110:src/../h/riscv.hpp ****     static void w_a2(uint64 a1);
 111:src/../h/riscv.hpp **** 
 112:src/../h/riscv.hpp ****     static uint64 r_a3();
 113:src/../h/riscv.hpp **** 
 114:src/../h/riscv.hpp ****     static void w_a3(uint64 a1);
 115:src/../h/riscv.hpp **** 
 116:src/../h/riscv.hpp ****     static void push_a0(long a0);
 117:src/../h/riscv.hpp **** 
 118:src/../h/riscv.hpp **** private:
 119:src/../h/riscv.hpp ****     static void trapHandler();
 120:src/../h/riscv.hpp **** 
 121:src/../h/riscv.hpp **** 
 122:src/../h/riscv.hpp **** };
 123:src/../h/riscv.hpp **** 
 124:src/../h/riscv.hpp **** inline uint64 Riscv::r_scause()
 125:src/../h/riscv.hpp **** {
 126:src/../h/riscv.hpp ****     uint64 volatile scause;
  73              		.loc 2 126 5
 127:src/../h/riscv.hpp ****     __asm__ volatile ("csrr %[scause], scause" : [scause] "=r"(scause));
  74              		.loc 2 127 5
  75              		.loc 2 127 72 is_stmt 0
  76              	#APP
  77              	# 127 "src/../h/riscv.hpp" 1
 128              	    return scause;
  78              		csrr a5, scause
  79              	# 0 "" 2
  80              	#NO_APP
  81 004c 2334F4FA 		sd	a5,-88(s0)
  82              		.loc 2 128 5 is_stmt 1
  83              		.loc 2 128 12 is_stmt 0
  84 0050 033784FA 		ld	a4,-88(s0)
  85              	.LVL0:
  86              	.LBE57:
  87              	.LBE56:
  13:src/riscv.cpp ****     uint64 a0 = r_a0();
  88              		.loc 1 13 5 is_stmt 1
  89              	.LBB58:
  90              	.LBB59:
GAS LISTING /tmp/ccI3uC4q.s 			page 5


 129:src/../h/riscv.hpp **** }
 130:src/../h/riscv.hpp **** 
 131:src/../h/riscv.hpp **** inline void Riscv::w_scause(uint64 scause)
 132:src/../h/riscv.hpp **** {
 133:src/../h/riscv.hpp ****     __asm__ volatile ("csrw scause, %[scause]" : : [scause] "r"(scause));
 134:src/../h/riscv.hpp **** }
 135:src/../h/riscv.hpp **** 
 136:src/../h/riscv.hpp **** inline uint64 Riscv::r_sepc()
 137:src/../h/riscv.hpp **** {
 138:src/../h/riscv.hpp ****     uint64 volatile sepc;
 139:src/../h/riscv.hpp ****     __asm__ volatile ("csrr %[sepc], sepc" : [sepc] "=r"(sepc));
 140:src/../h/riscv.hpp ****     return sepc;
 141:src/../h/riscv.hpp **** }
 142:src/../h/riscv.hpp **** 
 143:src/../h/riscv.hpp **** inline void Riscv::w_sepc(uint64 sepc)
 144:src/../h/riscv.hpp **** {
 145:src/../h/riscv.hpp ****     __asm__ volatile ("csrw sepc, %[sepc]" : : [sepc] "r"(sepc));
 146:src/../h/riscv.hpp **** }
 147:src/../h/riscv.hpp **** 
 148:src/../h/riscv.hpp **** inline uint64 Riscv::r_stvec()
 149:src/../h/riscv.hpp **** {
 150:src/../h/riscv.hpp ****     uint64 volatile stvec;
 151:src/../h/riscv.hpp ****     __asm__ volatile ("csrr %[stvec], stvec" : [stvec] "=r"(stvec));
 152:src/../h/riscv.hpp ****     return stvec;
 153:src/../h/riscv.hpp **** }
 154:src/../h/riscv.hpp **** 
 155:src/../h/riscv.hpp **** inline void Riscv::w_stvec(uint64 stvec)
 156:src/../h/riscv.hpp **** {
 157:src/../h/riscv.hpp ****     __asm__ volatile ("csrw stvec, %[stvec]" : : [stvec] "r"(stvec));
 158:src/../h/riscv.hpp **** }
 159:src/../h/riscv.hpp **** 
 160:src/../h/riscv.hpp **** inline uint64 Riscv::r_stval()
 161:src/../h/riscv.hpp **** {
 162:src/../h/riscv.hpp ****     uint64 volatile stval;
 163:src/../h/riscv.hpp ****     __asm__ volatile ("csrr %[stval], stval" : [stval] "=r"(stval));
 164:src/../h/riscv.hpp ****     return stval;
 165:src/../h/riscv.hpp **** }
 166:src/../h/riscv.hpp **** 
 167:src/../h/riscv.hpp **** inline void Riscv::w_stval(uint64 stval)
 168:src/../h/riscv.hpp **** {
 169:src/../h/riscv.hpp ****     __asm__ volatile ("csrw stval, %[stval]" : : [stval] "r"(stval));
 170:src/../h/riscv.hpp **** }
 171:src/../h/riscv.hpp **** 
 172:src/../h/riscv.hpp **** inline void Riscv::ms_sip(uint64 mask)
 173:src/../h/riscv.hpp **** {
 174:src/../h/riscv.hpp ****     __asm__ volatile ("csrs sip, %[mask]" : : [mask] "r"(mask));
 175:src/../h/riscv.hpp **** }
 176:src/../h/riscv.hpp **** 
 177:src/../h/riscv.hpp **** inline void Riscv::mc_sip(uint64 mask)
 178:src/../h/riscv.hpp **** {
 179:src/../h/riscv.hpp ****     __asm__ volatile ("csrc sip, %[mask]" : : [mask] "r"(mask));
 180:src/../h/riscv.hpp **** }
 181:src/../h/riscv.hpp **** 
 182:src/../h/riscv.hpp **** inline uint64 Riscv::r_sip()
 183:src/../h/riscv.hpp **** {
 184:src/../h/riscv.hpp ****     uint64 volatile sip;
 185:src/../h/riscv.hpp ****     __asm__ volatile ("csrr %[sip], sip" : [sip] "=r"(sip));
GAS LISTING /tmp/ccI3uC4q.s 			page 6


 186:src/../h/riscv.hpp ****     return sip;
 187:src/../h/riscv.hpp **** }
 188:src/../h/riscv.hpp **** 
 189:src/../h/riscv.hpp **** inline void Riscv::w_sip(uint64 sip)
 190:src/../h/riscv.hpp **** {
 191:src/../h/riscv.hpp ****     __asm__ volatile ("csrw sip, %[sip]" : : [sip] "r"(sip));
 192:src/../h/riscv.hpp **** }
 193:src/../h/riscv.hpp **** 
 194:src/../h/riscv.hpp **** inline void Riscv::ms_sstatus(uint64 mask)
 195:src/../h/riscv.hpp **** {
 196:src/../h/riscv.hpp ****     __asm__ volatile ("csrs sstatus, %[mask]" : : [mask] "r"(mask));
 197:src/../h/riscv.hpp **** }
 198:src/../h/riscv.hpp **** 
 199:src/../h/riscv.hpp **** inline void Riscv::mc_sstatus(uint64 mask)
 200:src/../h/riscv.hpp **** {
 201:src/../h/riscv.hpp ****     __asm__ volatile ("csrc sstatus, %[mask]" : : [mask] "r"(mask));
 202:src/../h/riscv.hpp **** }
 203:src/../h/riscv.hpp **** 
 204:src/../h/riscv.hpp **** inline uint64 Riscv::r_sstatus()
 205:src/../h/riscv.hpp **** {
 206:src/../h/riscv.hpp ****     uint64 volatile sstatus;
 207:src/../h/riscv.hpp ****     __asm__ volatile ("csrr %[sstatus], sstatus" : [sstatus] "=r"(sstatus));
 208:src/../h/riscv.hpp ****     return sstatus;
 209:src/../h/riscv.hpp **** }
 210:src/../h/riscv.hpp **** 
 211:src/../h/riscv.hpp **** inline void Riscv::w_sstatus(uint64 sstatus)
 212:src/../h/riscv.hpp **** {
 213:src/../h/riscv.hpp ****     __asm__ volatile ("csrw sstatus, %[sstatus]" : : [sstatus] "r"(sstatus));
 214:src/../h/riscv.hpp **** }
 215:src/../h/riscv.hpp **** 
 216:src/../h/riscv.hpp **** inline void Riscv::ms_sie(uint64 mask)
 217:src/../h/riscv.hpp **** {
 218:src/../h/riscv.hpp ****     __asm__ volatile ("csrs sie, %[mask]" : : [mask] "r"(mask));
 219:src/../h/riscv.hpp **** }
 220:src/../h/riscv.hpp **** 
 221:src/../h/riscv.hpp **** inline void Riscv::mc_sie(uint64 mask)
 222:src/../h/riscv.hpp **** {
 223:src/../h/riscv.hpp ****     __asm__ volatile ("csrc sie, %[mask]" : : [mask] "r"(mask));
 224:src/../h/riscv.hpp **** }
 225:src/../h/riscv.hpp **** 
 226:src/../h/riscv.hpp **** inline long Riscv::r_a0() {
 227:src/../h/riscv.hpp ****     long volatile a0;
  91              		.loc 2 227 5
 228:src/../h/riscv.hpp ****     __asm__ volatile ("ld %0, 10*8(fp)" : "=r"(a0));
  92              		.loc 2 228 5
  93              		.loc 2 228 52 is_stmt 0
  94              	#APP
  95              	# 228 "src/../h/riscv.hpp" 1
 229              	    return a0;
  96              		ld a5, 10*8(fp)
  97              	# 0 "" 2
  98              	#NO_APP
  99 0058 2330F4FA 		sd	a5,-96(s0)
 100              		.loc 2 229 5 is_stmt 1
 101              		.loc 2 229 12 is_stmt 0
 102 005c 833704FA 		ld	a5,-96(s0)
 103              	.LVL1:
GAS LISTING /tmp/ccI3uC4q.s 			page 7


 104              	.LBE59:
 105              	.LBE58:
  14:src/riscv.cpp ****     uint64 a1 = r_a1();
 106              		.loc 1 14 5 is_stmt 1
 107              	.LBB60:
 108              	.LBB61:
 230:src/../h/riscv.hpp **** }
 231:src/../h/riscv.hpp **** 
 232:src/../h/riscv.hpp **** inline void Riscv::w_a0(long a0) {
 233:src/../h/riscv.hpp ****     __asm__ volatile ("mv a0, %0" : : "r"(a0));
 234:src/../h/riscv.hpp **** }
 235:src/../h/riscv.hpp **** 
 236:src/../h/riscv.hpp **** inline uint64 Riscv::r_a1() {
 237:src/../h/riscv.hpp ****     uint64 volatile a1;
 109              		.loc 2 237 5
 238:src/../h/riscv.hpp ****     __asm__ volatile ("ld %0, 11*8(fp)" : "=r"(a1));
 110              		.loc 2 238 5
 111              		.loc 2 238 52 is_stmt 0
 112              	#APP
 113              	# 238 "src/../h/riscv.hpp" 1
 239              	    return a1;
 114              		ld a3, 11*8(fp)
 115              	# 0 "" 2
 116              	#NO_APP
 117 0064 233CD4F8 		sd	a3,-104(s0)
 118              		.loc 2 239 5 is_stmt 1
 119              		.loc 2 239 12 is_stmt 0
 120 0068 833484F9 		ld	s1,-104(s0)
 121              	.LVL2:
 122              	.LBE61:
 123              	.LBE60:
  15:src/riscv.cpp ****     uint64 a2 = r_a2();
 124              		.loc 1 15 5 is_stmt 1
 125              	.LBB62:
 126              	.LBB63:
 240:src/../h/riscv.hpp **** }
 241:src/../h/riscv.hpp **** 
 242:src/../h/riscv.hpp **** inline void Riscv::w_a1(uint64 a1) {
 243:src/../h/riscv.hpp ****     __asm__ volatile ("mv a1, %0" : : "r"(a1));
 244:src/../h/riscv.hpp **** }
 245:src/../h/riscv.hpp **** 
 246:src/../h/riscv.hpp **** inline uint64 Riscv::r_a2() {
 247:src/../h/riscv.hpp ****     uint64 volatile a2;
 127              		.loc 2 247 5
 248:src/../h/riscv.hpp ****     __asm__ volatile ("ld %0, 12*8(fp)" : "=r"(a2));
 128              		.loc 2 248 5
 129              		.loc 2 248 52 is_stmt 0
 130              	#APP
 131              	# 248 "src/../h/riscv.hpp" 1
 249              	    return a2;
 132              		ld a3, 12*8(fp)
 133              	# 0 "" 2
 134              	#NO_APP
 135 0070 2338D4F8 		sd	a3,-112(s0)
 136              		.loc 2 249 5 is_stmt 1
 137              		.loc 2 249 12 is_stmt 0
 138 0074 833904F9 		ld	s3,-112(s0)
GAS LISTING /tmp/ccI3uC4q.s 			page 8


 139              	.LVL3:
 140              	.LBE63:
 141              	.LBE62:
  16:src/riscv.cpp ****     uint64 a3 = r_a3();
 142              		.loc 1 16 5 is_stmt 1
 143              	.LBB64:
 144              	.LBB65:
 250:src/../h/riscv.hpp **** }
 251:src/../h/riscv.hpp **** 
 252:src/../h/riscv.hpp **** inline void Riscv::w_a2(uint64 a2) {
 253:src/../h/riscv.hpp ****     __asm__ volatile ("mv a2, %0" : : "r"(a2));
 254:src/../h/riscv.hpp **** }
 255:src/../h/riscv.hpp **** 
 256:src/../h/riscv.hpp **** inline uint64 Riscv::r_a3() {
 257:src/../h/riscv.hpp ****     uint64 volatile a3;
 145              		.loc 2 257 5
 258:src/../h/riscv.hpp ****     __asm__ volatile ("ld %0, 13*8(fp)" : "=r"(a3));
 146              		.loc 2 258 5
 147              		.loc 2 258 52 is_stmt 0
 148              	#APP
 149              	# 258 "src/../h/riscv.hpp" 1
 259              	    return a3;
 150              		ld a3, 13*8(fp)
 151              	# 0 "" 2
 152              	#NO_APP
 153 007c 2334D4F8 		sd	a3,-120(s0)
 154              		.loc 2 259 5 is_stmt 1
 155              		.loc 2 259 12 is_stmt 0
 156 0080 033984F8 		ld	s2,-120(s0)
 157              	.LVL4:
 158              	.LBE65:
 159              	.LBE64:
  17:src/riscv.cpp **** 
  18:src/riscv.cpp ****     uint64 sepc;
 160              		.loc 1 18 5 is_stmt 1
  19:src/riscv.cpp ****     uint64 sstatus;
 161              		.loc 1 19 5
  20:src/riscv.cpp **** 
  21:src/riscv.cpp ****     switch (scause) {
 162              		.loc 1 21 5
 163              	.LBB66:
 164 0084 9306F0FF 		li	a3,-1
 165 0088 9396F603 		slli	a3,a3,63
 166 008c 93861600 		addi	a3,a3,1
 167 0090 630CD71A 		beq	a4,a3,.L4
 168 0094 9306F0FF 		li	a3,-1
 169 0098 9396F603 		slli	a3,a3,63
 170 009c 93861600 		addi	a3,a3,1
 171 00a0 63EEE604 		bgtu	a4,a3,.L5
 172 00a4 130787FF 		addi	a4,a4,-8
 173              	.LVL5:
 174 00a8 93061000 		li	a3,1
 175 00ac 63E2E61A 		bgtu	a4,a3,.L3
 176              	.LBB67:
  22:src/riscv.cpp ****         case 0x08:
 177              		.loc 1 22 9
  23:src/riscv.cpp ****         case 0x09:
GAS LISTING /tmp/ccI3uC4q.s 			page 9


 178              		.loc 1 23 9
  24:src/riscv.cpp ****             //ecall: software interrupt
  25:src/riscv.cpp ****             sepc = r_sepc() + 4;
 179              		.loc 1 25 13
 180              	.LBB68:
 181              	.LBB69:
 138:src/../h/riscv.hpp ****     __asm__ volatile ("csrr %[sepc], sepc" : [sepc] "=r"(sepc));
 182              		.loc 2 138 5
 139:src/../h/riscv.hpp ****     return sepc;
 183              		.loc 2 139 5
 139:src/../h/riscv.hpp ****     return sepc;
 184              		.loc 2 139 64 is_stmt 0
 185              	#APP
 186              	# 139 "src/../h/riscv.hpp" 1
 187              		csrr a4, sepc
 188              	# 0 "" 2
 189              	.LVL6:
 190              	#NO_APP
 191 00b4 233CE4FA 		sd	a4,-72(s0)
 140:src/../h/riscv.hpp **** }
 192              		.loc 2 140 5 is_stmt 1
 140:src/../h/riscv.hpp **** }
 193              		.loc 2 140 12 is_stmt 0
 194 00b8 033784FB 		ld	a4,-72(s0)
 195              	.LBE69:
 196              	.LBE68:
 197              		.loc 1 25 18
 198 00bc 930A4700 		addi	s5,a4,4
 199              	.LVL7:
  26:src/riscv.cpp ****             sstatus = r_sstatus();
 200              		.loc 1 26 13 is_stmt 1
 201              	.LBB70:
 202              	.LBB71:
 206:src/../h/riscv.hpp ****     __asm__ volatile ("csrr %[sstatus], sstatus" : [sstatus] "=r"(sstatus));
 203              		.loc 2 206 5
 207:src/../h/riscv.hpp ****     return sstatus;
 204              		.loc 2 207 5
 207:src/../h/riscv.hpp ****     return sstatus;
 205              		.loc 2 207 76 is_stmt 0
 206              	#APP
 207              	# 207 "src/../h/riscv.hpp" 1
 208              		csrr a3, sstatus
 209              	# 0 "" 2
 210              	#NO_APP
 211 00c4 2338D4FA 		sd	a3,-80(s0)
 208:src/../h/riscv.hpp **** }
 212              		.loc 2 208 5 is_stmt 1
 208:src/../h/riscv.hpp **** }
 213              		.loc 2 208 12 is_stmt 0
 214 00c8 033A04FB 		ld	s4,-80(s0)
 215              	.LVL8:
 216              	.LBE71:
 217              	.LBE70:
  27:src/riscv.cpp ****             void* mem;
 218              		.loc 1 27 13 is_stmt 1
  28:src/riscv.cpp ****             uint64* stack;
 219              		.loc 1 28 13
GAS LISTING /tmp/ccI3uC4q.s 			page 10


  29:src/riscv.cpp ****             PCB** handle;
 220              		.loc 1 29 13
  30:src/riscv.cpp ****             switch(a0){
 221              		.loc 1 30 13
 222 00cc 93063001 		li	a3,19
 223 00d0 63C4F604 		bgt	a5,a3,.L9
 224 00d4 635AF008 		blez	a5,.L10
 225 00d8 13073001 		li	a4,19
 226 00dc 6366F708 		bgtu	a5,a4,.L10
 227 00e0 93972700 		slli	a5,a5,2
 228              	.LVL9:
 229 00e4 17070000 		lla	a4,.L12
 229      13070700 
 230 00ec B387E700 		add	a5,a5,a4
 231 00f0 83A70700 		lw	a5,0(a5)
 232 00f4 B387E700 		add	a5,a5,a4
 233 00f8 67800700 		jr	a5
 234              		.section	.rodata
 235              		.align	2
 236              		.align	2
 237              	.L12:
 238 0000 00000000 		.word	.L10-.L12
 239 0004 00000000 		.word	.L16-.L12
 240 0008 00000000 		.word	.L15-.L12
 241 000c 00000000 		.word	.L10-.L12
 242 0010 00000000 		.word	.L10-.L12
 243 0014 00000000 		.word	.L10-.L12
 244 0018 00000000 		.word	.L10-.L12
 245 001c 00000000 		.word	.L10-.L12
 246 0020 00000000 		.word	.L10-.L12
 247 0024 00000000 		.word	.L10-.L12
 248 0028 00000000 		.word	.L10-.L12
 249 002c 00000000 		.word	.L10-.L12
 250 0030 00000000 		.word	.L10-.L12
 251 0034 00000000 		.word	.L10-.L12
 252 0038 00000000 		.word	.L10-.L12
 253 003c 00000000 		.word	.L10-.L12
 254 0040 00000000 		.word	.L10-.L12
 255 0044 00000000 		.word	.L14-.L12
 256 0048 00000000 		.word	.L13-.L12
 257 004c 00000000 		.word	.L11-.L12
 258              		.text
 259              	.LVL10:
 260              	.L5:
 261              	.LBE67:
  21:src/riscv.cpp ****         case 0x08:
 262              		.loc 1 21 5 is_stmt 0
 263 00fc 9307F0FF 		li	a5,-1
 264              	.LVL11:
 265 0100 9397F703 		slli	a5,a5,63
 266 0104 93879700 		addi	a5,a5,9
 267 0108 6314F714 		bne	a4,a5,.L3
 268              	.LBB106:
  31:src/riscv.cpp ****                 case 0x01: // allocate
  32:src/riscv.cpp ****                     mem = MemoryAllocator::getInstance().allocate((size_t) a1);
  33:src/riscv.cpp ****                     push_a0((uint64) mem);
  34:src/riscv.cpp ****                     break;
GAS LISTING /tmp/ccI3uC4q.s 			page 11


  35:src/riscv.cpp ****                 case 0x02: // deallocate
  36:src/riscv.cpp ****                     push_a0(MemoryAllocator::getInstance().deallocate((void *)a1));
  37:src/riscv.cpp ****                     break;
  38:src/riscv.cpp ****                 case 0x11: //thread_create
  39:src/riscv.cpp ****                     if((uint64*)a1!= nullptr) stack = (uint64*)MemoryAllocator::getInstance().alloc
  40:src/riscv.cpp ****                     else stack = nullptr;
  41:src/riscv.cpp ****                     handle = (PCB**) a3;
  42:src/riscv.cpp ****                     *handle = new PCB((PCB::Body)a1, (void*)a2, stack);
  43:src/riscv.cpp ****                     //if(!handle)push_a0(-1);
  44:src/riscv.cpp **** 
  45:src/riscv.cpp ****                     push_a0(0);
  46:src/riscv.cpp **** 
  47:src/riscv.cpp **** 
  48:src/riscv.cpp ****                     break;
  49:src/riscv.cpp ****                 case 0x12: // thread_exit
  50:src/riscv.cpp ****                     push_a0(PCB::exit());
  51:src/riscv.cpp ****                     break;
  52:src/riscv.cpp ****                 case 0x13:
  53:src/riscv.cpp ****                     PCB::dispatch();
  54:src/riscv.cpp ****                     break;
  55:src/riscv.cpp ****                 case 0x14:
  56:src/riscv.cpp ****                     break;
  57:src/riscv.cpp ****                 case 0x51:
  58:src/riscv.cpp ****                     w_sstatus(sstatus);
  59:src/riscv.cpp ****                     mc_sstatus(1<<8);
  60:src/riscv.cpp ****                     w_sepc(sepc+4);
  61:src/riscv.cpp ****                     mc_sip(SIP_SSIP);
  62:src/riscv.cpp ****                     return;
  63:src/riscv.cpp ****                 default:
  64:src/riscv.cpp ****                     //printString("Unknown interrupt!");
  65:src/riscv.cpp ****                     break;
  66:src/riscv.cpp **** 
  67:src/riscv.cpp ****             }
  68:src/riscv.cpp **** 
  69:src/riscv.cpp ****             w_sstatus(sstatus);
  70:src/riscv.cpp ****             w_sepc(sepc);
  71:src/riscv.cpp ****             mc_sip(SIP_SSIP);
  72:src/riscv.cpp ****             break;
  73:src/riscv.cpp ****         case 0x8000000000000001UL:
  74:src/riscv.cpp ****             //timer interrupt
  75:src/riscv.cpp ****             mc_sip(SIP_SSIP);
  76:src/riscv.cpp ****             break;
  77:src/riscv.cpp ****         case 0x8000000000000009UL:
 269              		.loc 1 77 9 is_stmt 1
  78:src/riscv.cpp ****             //external hardware interrupt
  79:src/riscv.cpp ****             console_handler();
 270              		.loc 1 79 13
 271              		.loc 1 79 28 is_stmt 0
 272 010c 97000000 		call	console_handler@plt
 272      E7800000 
 273              	.LVL12:
  80:src/riscv.cpp ****             break;
 274              		.loc 1 80 13 is_stmt 1
 275 0114 6F00C013 		j	.L3
 276              	.LVL13:
 277              	.L9:
 278 0118 93061005 		li	a3,81
GAS LISTING /tmp/ccI3uC4q.s 			page 12


 279 011c 6396D704 		bne	a5,a3,.L10
  57:src/riscv.cpp ****                     w_sstatus(sstatus);
 280              		.loc 1 57 17
  58:src/riscv.cpp ****                     mc_sstatus(1<<8);
 281              		.loc 1 58 21
 282              	.LVL14:
 283              	.LBB72:
 284              	.LBB73:
 213:src/../h/riscv.hpp **** }
 285              		.loc 2 213 5
 213:src/../h/riscv.hpp **** }
 286              		.loc 2 213 77 is_stmt 0
 287              	#APP
 288              	# 213 "src/../h/riscv.hpp" 1
 289              		csrw sstatus, s4
 290              	# 0 "" 2
 291              	.LVL15:
 292              	#NO_APP
 293              	.LBE73:
 294              	.LBE72:
  59:src/riscv.cpp ****                     w_sepc(sepc+4);
 295              		.loc 1 59 21 is_stmt 1
 296              	.LBB74:
 297              	.LBB75:
 201:src/../h/riscv.hpp **** }
 298              		.loc 2 201 5
 201:src/../h/riscv.hpp **** }
 299              		.loc 2 201 68 is_stmt 0
 300 0124 93070010 		li	a5,256
 301              	.LVL16:
 302              	#APP
 303              	# 201 "src/../h/riscv.hpp" 1
 304              		csrc sstatus, a5
 305              	# 0 "" 2
 306              	.LVL17:
 307              	#NO_APP
 308              	.LBE75:
 309              	.LBE74:
  60:src/riscv.cpp ****                     mc_sip(SIP_SSIP);
 310              		.loc 1 60 21 is_stmt 1
  60:src/riscv.cpp ****                     mc_sip(SIP_SSIP);
 311              		.loc 1 60 27 is_stmt 0
 312 012c 13078700 		addi	a4,a4,8
 313              	.LVL18:
 314              	.LBB76:
 315              	.LBB77:
 145:src/../h/riscv.hpp **** }
 316              		.loc 2 145 5 is_stmt 1
 145:src/../h/riscv.hpp **** }
 317              		.loc 2 145 65 is_stmt 0
 318              	#APP
 319              	# 145 "src/../h/riscv.hpp" 1
 320              		csrw sepc, a4
 321              	# 0 "" 2
 322              	.LVL19:
 323              	#NO_APP
 324              	.LBE77:
GAS LISTING /tmp/ccI3uC4q.s 			page 13


 325              	.LBE76:
  61:src/riscv.cpp ****                     return;
 326              		.loc 1 61 21 is_stmt 1
 327              	.LBB78:
 328              	.LBB79:
 179:src/../h/riscv.hpp **** }
 329              		.loc 2 179 5
 179:src/../h/riscv.hpp **** }
 330              		.loc 2 179 64 is_stmt 0
 331 0134 93072000 		li	a5,2
 332              	#APP
 333              	# 179 "src/../h/riscv.hpp" 1
 180:src/../h/riscv.hpp **** 
 334              		csrc sip, a5
 335              	# 0 "" 2
 336              		.loc 2 180 1
 337              	#NO_APP
 338 013c 6F004011 		j	.L3
 339              	.LVL20:
 340              	.L16:
 341              	.LBE79:
 342              	.LBE78:
  31:src/riscv.cpp ****                     mem = MemoryAllocator::getInstance().allocate((size_t) a1);
 343              		.loc 1 31 17 is_stmt 1
  32:src/riscv.cpp ****                     push_a0((uint64) mem);
 344              		.loc 1 32 21
 345              	.LBB80:
 346              	.LBB81:
 347              		.file 3 "src/../h/../h/MemoryAllocator.hpp"
   1:src/../h/../h/MemoryAllocator.hpp **** #ifndef PROJECT_BASE_V1_1_MEMORYALLOCATOR_HPP
   2:src/../h/../h/MemoryAllocator.hpp **** #define PROJECT_BASE_V1_1_MEMORYALLOCATOR_HPP
   3:src/../h/../h/MemoryAllocator.hpp **** #include "print.hpp"
   4:src/../h/../h/MemoryAllocator.hpp **** 
   5:src/../h/../h/MemoryAllocator.hpp **** struct Block {
   6:src/../h/../h/MemoryAllocator.hpp ****     size_t size;
   7:src/../h/../h/MemoryAllocator.hpp ****     Block *next;
   8:src/../h/../h/MemoryAllocator.hpp **** };
   9:src/../h/../h/MemoryAllocator.hpp **** 
  10:src/../h/../h/MemoryAllocator.hpp **** class MemoryAllocator {
  11:src/../h/../h/MemoryAllocator.hpp **** 
  12:src/../h/../h/MemoryAllocator.hpp **** private:
  13:src/../h/../h/MemoryAllocator.hpp **** 
  14:src/../h/../h/MemoryAllocator.hpp **** 
  15:src/../h/../h/MemoryAllocator.hpp ****     MemoryAllocator() {}
  16:src/../h/../h/MemoryAllocator.hpp **** 
  17:src/../h/../h/MemoryAllocator.hpp ****     static Block *free_list;
  18:src/../h/../h/MemoryAllocator.hpp ****     static Block *allocated_list;
  19:src/../h/../h/MemoryAllocator.hpp **** 
  20:src/../h/../h/MemoryAllocator.hpp **** 
  21:src/../h/../h/MemoryAllocator.hpp **** public:
  22:src/../h/../h/MemoryAllocator.hpp **** 
  23:src/../h/../h/MemoryAllocator.hpp **** 
  24:src/../h/../h/MemoryAllocator.hpp ****     // Get the singleton instance
  25:src/../h/../h/MemoryAllocator.hpp ****     static MemoryAllocator &getInstance() {
  26:src/../h/../h/MemoryAllocator.hpp ****         static MemoryAllocator instance;
 348              		.loc 3 26 9
 349              		.loc 3 26 32 is_stmt 0
GAS LISTING /tmp/ccI3uC4q.s 			page 14


 350 0140 97070000 		lbu	a5,_ZGVZN15MemoryAllocator11getInstanceEvE8instance
 350      83C70700 
 351 0148 63980700 		bnez	a5,.L18
 352              	.LVL21:
 353 014c 93071000 		li	a5,1
 354 0150 17070000 		sb	a5,_ZGVZN15MemoryAllocator11getInstanceEvE8instance,a4
 354      2300F700 
 355              	.LVL22:
 356              	.L18:
  27:src/../h/../h/MemoryAllocator.hpp ****         return instance;
 357              		.loc 3 27 9 is_stmt 1
 358              	.LBE81:
 359              	.LBE80:
  32:src/riscv.cpp ****                     push_a0((uint64) mem);
 360              		.loc 1 32 78 is_stmt 0
 361 0158 13850400 		mv	a0,s1
 362 015c 97000000 		call	_ZN15MemoryAllocator8allocateEm@plt
 362      E7800000 
 363              	.LVL23:
  33:src/riscv.cpp ****                     break;
 364              		.loc 1 33 21 is_stmt 1
 365              	.LBB82:
 366              	.LBB83:
 260:src/../h/riscv.hpp **** }
 261:src/../h/riscv.hpp **** 
 262:src/../h/riscv.hpp **** inline void Riscv::w_a3(uint64 a3) {
 263:src/../h/riscv.hpp ****     __asm__ volatile ("mv a3, %0" : : "r"(a3));
 264:src/../h/riscv.hpp **** }
 265:src/../h/riscv.hpp **** 
 266:src/../h/riscv.hpp **** inline void Riscv::push_a0(long a0) {
 267:src/../h/riscv.hpp ****     __asm__ volatile ("sd %0, 10*8(fp)" : : "r"(a0));
 367              		.loc 2 267 5
 368              		.loc 2 267 53 is_stmt 0
 369              	#APP
 370              	# 267 "src/../h/riscv.hpp" 1
 268              	}
 371              		sd a0, 10*8(fp)
 372              	# 0 "" 2
 373              	.LVL24:
 374              	#NO_APP
 375              	.L10:
 376              	.LBE83:
 377              	.LBE82:
  69:src/riscv.cpp ****             w_sepc(sepc);
 378              		.loc 1 69 13 is_stmt 1
 379              	.LBB84:
 380              	.LBB85:
 213:src/../h/riscv.hpp **** }
 381              		.loc 2 213 5
 213:src/../h/riscv.hpp **** }
 382              		.loc 2 213 77 is_stmt 0
 383              	#APP
 384              	# 213 "src/../h/riscv.hpp" 1
 385              		csrw sstatus, s4
 386              	# 0 "" 2
 387              	.LVL25:
 388              	#NO_APP
GAS LISTING /tmp/ccI3uC4q.s 			page 15


 389              	.LBE85:
 390              	.LBE84:
  70:src/riscv.cpp ****             mc_sip(SIP_SSIP);
 391              		.loc 1 70 13 is_stmt 1
 392              	.LBB86:
 393              	.LBB87:
 145:src/../h/riscv.hpp **** }
 394              		.loc 2 145 5
 145:src/../h/riscv.hpp **** }
 395              		.loc 2 145 65 is_stmt 0
 396              	#APP
 397              	# 145 "src/../h/riscv.hpp" 1
 398              		csrw sepc, s5
 399              	# 0 "" 2
 400              	.LVL26:
 401              	#NO_APP
 402              	.LBE87:
 403              	.LBE86:
  71:src/riscv.cpp ****             break;
 404              		.loc 1 71 13 is_stmt 1
 405              	.LBB88:
 406              	.LBB89:
 179:src/../h/riscv.hpp **** }
 407              		.loc 2 179 5
 179:src/../h/riscv.hpp **** }
 408              		.loc 2 179 64 is_stmt 0
 409 0170 93072000 		li	a5,2
 410              	#APP
 411              	# 179 "src/../h/riscv.hpp" 1
 180:src/../h/riscv.hpp **** 
 412              		csrc sip, a5
 413              	# 0 "" 2
 414              		.loc 2 180 1
 415              	#NO_APP
 416 0178 6F00800D 		j	.L3
 417              	.LVL27:
 418              	.L15:
 419              	.LBE89:
 420              	.LBE88:
  35:src/riscv.cpp ****                     push_a0(MemoryAllocator::getInstance().deallocate((void *)a1));
 421              		.loc 1 35 17 is_stmt 1
  36:src/riscv.cpp ****                     break;
 422              		.loc 1 36 21
 423              	.LBB90:
 424              	.LBB91:
  26:src/../h/../h/MemoryAllocator.hpp ****         return instance;
 425              		.loc 3 26 9
  26:src/../h/../h/MemoryAllocator.hpp ****         return instance;
 426              		.loc 3 26 32 is_stmt 0
 427 017c 97070000 		lbu	a5,_ZGVZN15MemoryAllocator11getInstanceEvE8instance
 427      83C70700 
 428 0184 63980700 		bnez	a5,.L19
 429              	.LVL28:
 430 0188 93071000 		li	a5,1
 431 018c 17070000 		sb	a5,_ZGVZN15MemoryAllocator11getInstanceEvE8instance,a4
 431      2300F700 
 432              	.LVL29:
GAS LISTING /tmp/ccI3uC4q.s 			page 16


 433              	.L19:
 434              		.loc 3 27 9 is_stmt 1
 435              	.LBE91:
 436              	.LBE90:
  36:src/riscv.cpp ****                     break;
 437              		.loc 1 36 81 is_stmt 0
 438 0194 13850400 		mv	a0,s1
 439 0198 97000000 		call	_ZN15MemoryAllocator10deallocateEPv@plt
 439      E7800000 
 440              	.LVL30:
 441              	.LBB92:
 442              	.LBB93:
 267:src/../h/riscv.hpp **** }
 443              		.loc 2 267 5 is_stmt 1
 267:src/../h/riscv.hpp **** }
 444              		.loc 2 267 53 is_stmt 0
 445              	#APP
 446              	# 267 "src/../h/riscv.hpp" 1
 447              		sd a0, 10*8(fp)
 448              	# 0 "" 2
 449              		.loc 2 268 1
 450              	#NO_APP
 451 01a4 6FF05FFC 		j	.L10
 452              	.LVL31:
 453              	.L14:
 454              	.LBE93:
 455              	.LBE92:
  38:src/riscv.cpp ****                     if((uint64*)a1!= nullptr) stack = (uint64*)MemoryAllocator::getInstance().alloc
 456              		.loc 1 38 17 is_stmt 1
  39:src/riscv.cpp ****                     else stack = nullptr;
 457              		.loc 1 39 21
 458 01a8 638A0406 		beqz	s1,.L23
  39:src/riscv.cpp ****                     else stack = nullptr;
 459              		.loc 1 39 47
 460              	.LBB94:
 461              	.LBB95:
  26:src/../h/../h/MemoryAllocator.hpp ****         return instance;
 462              		.loc 3 26 9
  26:src/../h/../h/MemoryAllocator.hpp ****         return instance;
 463              		.loc 3 26 32 is_stmt 0
 464 01ac 97070000 		lbu	a5,_ZGVZN15MemoryAllocator11getInstanceEvE8instance
 464      83C70700 
 465 01b4 63980700 		bnez	a5,.L21
 466              	.LVL32:
 467 01b8 93071000 		li	a5,1
 468 01bc 17070000 		sb	a5,_ZGVZN15MemoryAllocator11getInstanceEvE8instance,a4
 468      2300F700 
 469              	.LVL33:
 470              	.L21:
 471              		.loc 3 27 9 is_stmt 1
 472              	.LBE95:
 473              	.LBE94:
  39:src/riscv.cpp ****                     else stack = nullptr;
 474              		.loc 1 39 168 is_stmt 0
 475 01c4 13051004 		li	a0,65
 476 01c8 97000000 		call	_ZN15MemoryAllocator8allocateEm@plt
 476      E7800000 
GAS LISTING /tmp/ccI3uC4q.s 			page 17


 477              	.LVL34:
 478 01d0 130B0500 		mv	s6,a0
 479              	.LVL35:
 480              	.L20:
  41:src/riscv.cpp ****                     *handle = new PCB((PCB::Body)a1, (void*)a2, stack);
 481              		.loc 1 41 21 is_stmt 1
  42:src/riscv.cpp ****                     //if(!handle)push_a0(-1);
 482              		.loc 1 42 21
  42:src/riscv.cpp ****                     //if(!handle)push_a0(-1);
 483              		.loc 1 42 70 is_stmt 0
 484 01d4 13050003 		li	a0,48
 485 01d8 97000000 		call	_Znwm@plt
 485      E7800000 
 486              	.LVL36:
 487              	.LBB96:
 488              	.LBB97:
 489              		.file 4 "src/../h/PCB.hpp"
   1:src/../h/PCB.hpp **** #ifndef PROJECT_BASE_V1_1_PCB_HPP
   2:src/../h/PCB.hpp **** #define PROJECT_BASE_V1_1_PCB_HPP
   3:src/../h/PCB.hpp **** 
   4:src/../h/PCB.hpp **** 
   5:src/../h/PCB.hpp **** #include "Scheduler.hpp"
   6:src/../h/PCB.hpp **** #include "riscv.hpp"
   7:src/../h/PCB.hpp **** #include "../h/syscall_c.hpp"
   8:src/../h/PCB.hpp **** 
   9:src/../h/PCB.hpp **** 
  10:src/../h/PCB.hpp **** class PCB {
  11:src/../h/PCB.hpp **** public:
  12:src/../h/PCB.hpp ****     struct Context {
  13:src/../h/PCB.hpp ****         uint64 ra;
  14:src/../h/PCB.hpp ****         uint64 sp;
  15:src/../h/PCB.hpp ****     };
  16:src/../h/PCB.hpp **** 
  17:src/../h/PCB.hpp ****     enum State {
  18:src/../h/PCB.hpp ****         READY,
  19:src/../h/PCB.hpp ****         RUNNING,
  20:src/../h/PCB.hpp ****         SUSPENDED,
  21:src/../h/PCB.hpp ****         FINISHED
  22:src/../h/PCB.hpp ****     };
  23:src/../h/PCB.hpp **** 
  24:src/../h/PCB.hpp ****     ~PCB() { delete[] stack; }
  25:src/../h/PCB.hpp **** 
  26:src/../h/PCB.hpp ****     bool isFinished() const { return state == FINISHED; }
  27:src/../h/PCB.hpp **** 
  28:src/../h/PCB.hpp ****     void setState(State s) { state = s; }
  29:src/../h/PCB.hpp **** 
  30:src/../h/PCB.hpp ****     using Body = void (*)(void *);
  31:src/../h/PCB.hpp **** 
  32:src/../h/PCB.hpp **** 
  33:src/../h/PCB.hpp ****     static void dispatch();
  34:src/../h/PCB.hpp **** 
  35:src/../h/PCB.hpp ****     static int exit();
  36:src/../h/PCB.hpp **** 
  37:src/../h/PCB.hpp **** 
  38:src/../h/PCB.hpp ****     static PCB *running;
  39:src/../h/PCB.hpp **** 
  40:src/../h/PCB.hpp **** private:
GAS LISTING /tmp/ccI3uC4q.s 			page 18


  41:src/../h/PCB.hpp **** 
  42:src/../h/PCB.hpp ****     static void contextSwitch(Context *old, Context *running);
  43:src/../h/PCB.hpp **** 
  44:src/../h/PCB.hpp ****     static void wrapper();
  45:src/../h/PCB.hpp **** 
  46:src/../h/PCB.hpp **** public:
  47:src/../h/PCB.hpp ****     PCB(Body body, void *args, uint64 *stack) {
  48:src/../h/PCB.hpp ****         this->body = body;
 490              		.loc 4 48 9 is_stmt 1
 491              		.loc 4 48 20 is_stmt 0
 492 01e0 23309500 		sd	s1,0(a0)
  49:src/../h/PCB.hpp ****         this->stack = stack;
 493              		.loc 4 49 9 is_stmt 1
 494              		.loc 4 49 21 is_stmt 0
 495 01e4 23346501 		sd	s6,8(a0)
  50:src/../h/PCB.hpp ****         context = {(uint64) &wrapper,
 496              		.loc 4 50 9 is_stmt 1
  51:src/../h/PCB.hpp ****                    stack != nullptr ? (uint64) &stack[DEFAULT_STACK_SIZE] : 0
 497              		.loc 4 51 37 is_stmt 0
 498 01e8 630E0B02 		beqz	s6,.L24
 499              		.loc 4 51 48
 500 01ec B7870000 		li	a5,32768
 501 01f0 330BFB00 		add	s6,s6,a5
 502              	.LVL37:
 503              	.L22:
  50:src/../h/PCB.hpp ****         context = {(uint64) &wrapper,
 504              		.loc 4 50 17
 505 01f4 97070000 		la	a5,_ZN3PCB7wrapperEv
 505      83B70700 
 506 01fc 233CF500 		sd	a5,24(a0)
 507 0200 23306503 		sd	s6,32(a0)
  52:src/../h/PCB.hpp ****         };
  53:src/../h/PCB.hpp ****         this->args = args;
 508              		.loc 4 53 9 is_stmt 1
 509              		.loc 4 53 20 is_stmt 0
 510 0204 23383501 		sd	s3,16(a0)
  54:src/../h/PCB.hpp ****         state = READY;
 511              		.loc 4 54 9 is_stmt 1
 512              		.loc 4 54 15 is_stmt 0
 513 0208 23240502 		sw	zero,40(a0)
 514              	.LVL38:
 515              	.LBE97:
 516              	.LBE96:
  42:src/riscv.cpp ****                     //if(!handle)push_a0(-1);
 517              		.loc 1 42 29
 518 020c 2330A900 		sd	a0,0(s2)
 519              	.LVL39:
  45:src/riscv.cpp **** 
 520              		.loc 1 45 21 is_stmt 1
 521              	.LBB99:
 522              	.LBB100:
 267:src/../h/riscv.hpp **** }
 523              		.loc 2 267 5
 267:src/../h/riscv.hpp **** }
 524              		.loc 2 267 53 is_stmt 0
 525 0210 93070000 		li	a5,0
 526              	#APP
GAS LISTING /tmp/ccI3uC4q.s 			page 19


 527              	# 267 "src/../h/riscv.hpp" 1
 528              		sd a5, 10*8(fp)
 529              	# 0 "" 2
 530              		.loc 2 268 1
 531              	#NO_APP
 532 0218 6FF01FF5 		j	.L10
 533              	.LVL40:
 534              	.L23:
 535              	.LBE100:
 536              	.LBE99:
  40:src/riscv.cpp ****                     handle = (PCB**) a3;
 537              		.loc 1 40 32
 538 021c 130B0000 		li	s6,0
 539 0220 6FF05FFB 		j	.L20
 540              	.LVL41:
 541              	.L24:
 542              	.LBB101:
 543              	.LBB98:
  51:src/../h/PCB.hpp ****         };
 544              		.loc 4 51 37
 545 0224 130B0000 		li	s6,0
 546              	.LVL42:
 547 0228 6FF0DFFC 		j	.L22
 548              	.LVL43:
 549              	.L13:
 550              	.LBE98:
 551              	.LBE101:
  49:src/riscv.cpp ****                     push_a0(PCB::exit());
 552              		.loc 1 49 17 is_stmt 1
  50:src/riscv.cpp ****                     break;
 553              		.loc 1 50 21
  50:src/riscv.cpp ****                     break;
 554              		.loc 1 50 38 is_stmt 0
 555 022c 97000000 		call	_ZN3PCB4exitEv@plt
 555      E7800000 
 556              	.LVL44:
 557              	.LBB102:
 558              	.LBB103:
 267:src/../h/riscv.hpp **** }
 559              		.loc 2 267 5 is_stmt 1
 267:src/../h/riscv.hpp **** }
 560              		.loc 2 267 53 is_stmt 0
 561              	#APP
 562              	# 267 "src/../h/riscv.hpp" 1
 563              		sd a0, 10*8(fp)
 564              	# 0 "" 2
 565              		.loc 2 268 1
 566              	#NO_APP
 567 0238 6FF01FF3 		j	.L10
 568              	.LVL45:
 569              	.L11:
 570              	.LBE103:
 571              	.LBE102:
  52:src/riscv.cpp ****                     PCB::dispatch();
 572              		.loc 1 52 17 is_stmt 1
  53:src/riscv.cpp ****                     break;
 573              		.loc 1 53 21
GAS LISTING /tmp/ccI3uC4q.s 			page 20


  53:src/riscv.cpp ****                     break;
 574              		.loc 1 53 34 is_stmt 0
 575 023c 97000000 		call	_ZN3PCB8dispatchEv@plt
 575      E7800000 
 576              	.LVL46:
  54:src/riscv.cpp ****                 case 0x14:
 577              		.loc 1 54 21 is_stmt 1
 578 0244 6FF05FF2 		j	.L10
 579              	.LVL47:
 580              	.L4:
  73:src/riscv.cpp ****             //timer interrupt
 581              		.loc 1 73 9
  75:src/riscv.cpp ****             break;
 582              		.loc 1 75 13
 583              	.LBB104:
 584              	.LBB105:
 179:src/../h/riscv.hpp **** }
 585              		.loc 2 179 5
 179:src/../h/riscv.hpp **** }
 586              		.loc 2 179 64 is_stmt 0
 587 0248 93072000 		li	a5,2
 588              	.LVL48:
 589              	#APP
 590              	# 179 "src/../h/riscv.hpp" 1
 591              		csrc sip, a5
 592              	# 0 "" 2
 593              	.LVL49:
 594              	#NO_APP
 595              	.L3:
 596              	.LBE105:
 597              	.LBE104:
 598              	.LBE106:
 599              	.LBE66:
  81:src/riscv.cpp ****         default:
  82:src/riscv.cpp ****             return;
  83:src/riscv.cpp ****             //printString("ERROR: Unexpected interrupt!");
  84:src/riscv.cpp ****     }
  85:src/riscv.cpp **** 
  86:src/riscv.cpp **** }...
 600              		.loc 1 86 1
 601 0250 83308107 		ld	ra,120(sp)
 602              		.cfi_restore 1
 603 0254 03340107 		ld	s0,112(sp)
 604              		.cfi_restore 8
 605              		.cfi_def_cfa 2, 128
 606 0258 83348106 		ld	s1,104(sp)
 607              		.cfi_restore 9
 608              	.LVL50:
 609 025c 03390106 		ld	s2,96(sp)
 610              		.cfi_restore 18
 611              	.LVL51:
 612 0260 83398105 		ld	s3,88(sp)
 613              		.cfi_restore 19
 614              	.LVL52:
 615 0264 033A0105 		ld	s4,80(sp)
 616              		.cfi_restore 20
 617 0268 833A8104 		ld	s5,72(sp)
GAS LISTING /tmp/ccI3uC4q.s 			page 21


 618              		.cfi_restore 21
 619 026c 033B0104 		ld	s6,64(sp)
 620              		.cfi_restore 22
 621 0270 13010108 		addi	sp,sp,128
 622              		.cfi_def_cfa_offset 0
 623 0274 67800000 		jr	ra
 624              		.cfi_endproc
 625              	.LFE49:
 627              		.weak	_ZGVZN15MemoryAllocator11getInstanceEvE8instance
 628              		.section	.bss._ZGVZN15MemoryAllocator11getInstanceEvE8instance,"awG",@nobits,_ZGVZN15MemoryAllocat
 629              		.align	3
 632              	_ZGVZN15MemoryAllocator11getInstanceEvE8instance:
 633 0000 00000000 		.zero	8
 633      00000000 
 634              		.text
 635              	.Letext0:
 636              		.file 5 "src/../h/../h/../lib/hw.h"
 637              		.file 6 "src/../h/../h/../lib/console.h"
GAS LISTING /tmp/ccI3uC4q.s 			page 22

