GAS LISTING /tmp/cc3itBW5.s 			page 1


   1              		.file	"riscv.cpp"
   2              		.option pic
   3              		.option norelax
   4              		.text
   5              	.Ltext0:
   6              		.align	2
   7              		.globl	_ZN5Riscv10popSppSpieEv
   9              	_ZN5Riscv10popSppSpieEv:
  10              	.LFB48:
  11              		.file 1 "src/riscv.cpp"
   1:src/riscv.cpp **** #include "../h/riscv.hpp"
   2:src/riscv.cpp **** 
   3:src/riscv.cpp **** 
   4:src/riscv.cpp **** void Riscv::popSppSpie() {
  12              		.loc 1 4 26
  13              		.cfi_startproc
  14 0000 130101FF 		addi	sp,sp,-16
  15              		.cfi_def_cfa_offset 16
  16 0004 23348100 		sd	s0,8(sp)
  17              		.cfi_offset 8, -8
  18 0008 13040101 		addi	s0,sp,16
  19              		.cfi_def_cfa 8, 0
   5:src/riscv.cpp ****     __asm__ volatile ("csrw sepc, ra");
  20              		.loc 1 5 5
  21              		.loc 1 5 39 is_stmt 0
  22              	#APP
  23              	# 5 "src/riscv.cpp" 1
   6              	    __asm__ volatile ("sret");
  24              		csrw sepc, ra
  25              	# 0 "" 2
  26              		.loc 1 6 5 is_stmt 1
  27              		.loc 1 6 30 is_stmt 0
  28              	# 6 "src/riscv.cpp" 1
   7              	}
  29              		sret
  30              	# 0 "" 2
  31              		.loc 1 7 1
  32              	#NO_APP
  33 0014 03348100 		ld	s0,8(sp)
  34              		.cfi_restore 8
  35              		.cfi_def_cfa 2, 16
  36 0018 13010101 		addi	sp,sp,16
  37              		.cfi_def_cfa_offset 0
  38 001c 67800000 		jr	ra
  39              		.cfi_endproc
  40              	.LFE48:
  42              		.align	2
  43              		.globl	_ZN5Riscv11trapHandlerEv
  45              	_ZN5Riscv11trapHandlerEv:
  46              	.LFB49:
   8:src/riscv.cpp **** 
   9:src/riscv.cpp **** void Riscv::trapHandler() {
  47              		.loc 1 9 27 is_stmt 1
  48              		.cfi_startproc
  49              		.cfi_personality 0x9b,DW.ref.__gxx_personality_v0
  50              		.cfi_lsda 0x1b,.LLSDA49
  51 0020 130101F7 		addi	sp,sp,-144
GAS LISTING /tmp/cc3itBW5.s 			page 2


  52              		.cfi_def_cfa_offset 144
  53 0024 23341108 		sd	ra,136(sp)
  54 0028 23308108 		sd	s0,128(sp)
  55 002c 233C9106 		sd	s1,120(sp)
  56 0030 23382107 		sd	s2,112(sp)
  57 0034 23343107 		sd	s3,104(sp)
  58 0038 23304107 		sd	s4,96(sp)
  59 003c 233C5105 		sd	s5,88(sp)
  60 0040 23386105 		sd	s6,80(sp)
  61 0044 23347105 		sd	s7,72(sp)
  62 0048 23308105 		sd	s8,64(sp)
  63              		.cfi_offset 1, -8
  64              		.cfi_offset 8, -16
  65              		.cfi_offset 9, -24
  66              		.cfi_offset 18, -32
  67              		.cfi_offset 19, -40
  68              		.cfi_offset 20, -48
  69              		.cfi_offset 21, -56
  70              		.cfi_offset 22, -64
  71              		.cfi_offset 23, -72
  72              		.cfi_offset 24, -80
  73 004c 13040109 		addi	s0,sp,144
  74              		.cfi_def_cfa 8, 0
  10:src/riscv.cpp ****     uint64 scause = r_scause();
  75              		.loc 1 10 5
  76              	.LBB73:
  77              	.LBB74:
  78              		.file 2 "src/../h/riscv.hpp"
   1:src/../h/riscv.hpp **** #ifndef PROJECT_BASE_V1_1_RISCV_HPP
   2:src/../h/riscv.hpp **** #define PROJECT_BASE_V1_1_RISCV_HPP
   3:src/../h/riscv.hpp **** 
   4:src/../h/riscv.hpp **** 
   5:src/../h/riscv.hpp **** #include "../h/MemoryAllocator.hpp"
   6:src/../h/riscv.hpp **** #include "_thread.hpp"
   7:src/../h/riscv.hpp **** 
   8:src/../h/riscv.hpp **** 
   9:src/../h/riscv.hpp **** #define readUsrReg(reg, dst) __asm__ volatile("mv %0,"#reg : "=r" (dst));
  10:src/../h/riscv.hpp **** #define writeUsrReg(reg, src) __asm__ volatile("mv "#reg", %0" : : "r" (src));
  11:src/../h/riscv.hpp **** 
  12:src/../h/riscv.hpp **** 
  13:src/../h/riscv.hpp **** class Riscv {
  14:src/../h/riscv.hpp **** public:
  15:src/../h/riscv.hpp **** 
  16:src/../h/riscv.hpp **** 
  17:src/../h/riscv.hpp ****     // pop sstatus.spp and sstatus.spie bits (has to be a non inline function)
  18:src/../h/riscv.hpp ****     static void popSppSpie();
  19:src/../h/riscv.hpp **** 
  20:src/../h/riscv.hpp ****     // push x3..x31 registers onto stack
  21:src/../h/riscv.hpp ****     static void pushRegisters();
  22:src/../h/riscv.hpp **** 
  23:src/../h/riscv.hpp ****     // pop x3..x31 registers onto stack
  24:src/../h/riscv.hpp ****     static void popRegisters();
  25:src/../h/riscv.hpp **** 
  26:src/../h/riscv.hpp ****     // read register scause
  27:src/../h/riscv.hpp ****     static uint64 r_scause();
  28:src/../h/riscv.hpp **** 
  29:src/../h/riscv.hpp ****     // write register scause
GAS LISTING /tmp/cc3itBW5.s 			page 3


  30:src/../h/riscv.hpp ****     static void w_scause(uint64 scause);
  31:src/../h/riscv.hpp **** 
  32:src/../h/riscv.hpp ****     // read register sepc
  33:src/../h/riscv.hpp ****     static uint64 r_sepc();
  34:src/../h/riscv.hpp **** 
  35:src/../h/riscv.hpp ****     // write register sepc
  36:src/../h/riscv.hpp ****     static void w_sepc(uint64 sepc);
  37:src/../h/riscv.hpp **** 
  38:src/../h/riscv.hpp ****     // read register stvec
  39:src/../h/riscv.hpp ****     static uint64 r_stvec();
  40:src/../h/riscv.hpp **** 
  41:src/../h/riscv.hpp ****     // write register stvec
  42:src/../h/riscv.hpp ****     static void w_stvec(uint64 stvec);
  43:src/../h/riscv.hpp **** 
  44:src/../h/riscv.hpp ****     // read register stval
  45:src/../h/riscv.hpp ****     static uint64 r_stval();
  46:src/../h/riscv.hpp **** 
  47:src/../h/riscv.hpp ****     // write register stval
  48:src/../h/riscv.hpp ****     static void w_stval(uint64 stval);
  49:src/../h/riscv.hpp **** 
  50:src/../h/riscv.hpp ****     enum BitMaskSip {
  51:src/../h/riscv.hpp **** 
  52:src/../h/riscv.hpp ****         SIP_SSIP = (1 << 1),
  53:src/../h/riscv.hpp ****         SIP_SEIP = (1 << 9)
  54:src/../h/riscv.hpp ****     };
  55:src/../h/riscv.hpp **** 
  56:src/../h/riscv.hpp ****     // mask set register sip
  57:src/../h/riscv.hpp ****     static void ms_sip(uint64 mask);
  58:src/../h/riscv.hpp **** 
  59:src/../h/riscv.hpp ****     // mask clear register sip
  60:src/../h/riscv.hpp ****     static void mc_sip(uint64 mask);
  61:src/../h/riscv.hpp **** 
  62:src/../h/riscv.hpp ****     // read register sip
  63:src/../h/riscv.hpp ****     static uint64 r_sip();
  64:src/../h/riscv.hpp **** 
  65:src/../h/riscv.hpp ****     // write register sip
  66:src/../h/riscv.hpp ****     static void w_sip(uint64 sip);
  67:src/../h/riscv.hpp **** 
  68:src/../h/riscv.hpp ****     enum BitMaskSstatus {
  69:src/../h/riscv.hpp ****         SSTATUS_SIE = (1 << 1),
  70:src/../h/riscv.hpp ****         SSTATUS_SPIE = (1 << 5),
  71:src/../h/riscv.hpp ****         SSTATUS_SPP = (1 << 8),
  72:src/../h/riscv.hpp ****     };
  73:src/../h/riscv.hpp **** 
  74:src/../h/riscv.hpp ****     // mask set register sstatus
  75:src/../h/riscv.hpp ****     static void ms_sstatus(uint64 mask);
  76:src/../h/riscv.hpp **** 
  77:src/../h/riscv.hpp ****     // mask clear register sstatus
  78:src/../h/riscv.hpp ****     static void mc_sstatus(uint64 mask);
  79:src/../h/riscv.hpp **** 
  80:src/../h/riscv.hpp ****     // read register sstatus
  81:src/../h/riscv.hpp ****     static uint64 r_sstatus();
  82:src/../h/riscv.hpp **** 
  83:src/../h/riscv.hpp ****     // write register sstatus
  84:src/../h/riscv.hpp ****     static void w_sstatus(uint64 sstatus);
  85:src/../h/riscv.hpp **** 
  86:src/../h/riscv.hpp ****     // mask set register sie
GAS LISTING /tmp/cc3itBW5.s 			page 4


  87:src/../h/riscv.hpp ****     static void ms_sie(uint64 mask);
  88:src/../h/riscv.hpp **** 
  89:src/../h/riscv.hpp ****     // mask clear register sie
  90:src/../h/riscv.hpp ****     static void mc_sie(uint64 mask);
  91:src/../h/riscv.hpp **** 
  92:src/../h/riscv.hpp ****     static void supervisorTrap();
  93:src/../h/riscv.hpp **** 
  94:src/../h/riscv.hpp ****     static long r_a0();
  95:src/../h/riscv.hpp **** 
  96:src/../h/riscv.hpp ****     static void w_a0(long a0);
  97:src/../h/riscv.hpp **** 
  98:src/../h/riscv.hpp ****     static uint64 r_a1();
  99:src/../h/riscv.hpp **** 
 100:src/../h/riscv.hpp ****     static void w_a1(uint64 a1);
 101:src/../h/riscv.hpp **** 
 102:src/../h/riscv.hpp ****     static uint64 r_a2();
 103:src/../h/riscv.hpp **** 
 104:src/../h/riscv.hpp ****     static void w_a2(uint64 a1);
 105:src/../h/riscv.hpp **** 
 106:src/../h/riscv.hpp ****     static uint64 r_a7();
 107:src/../h/riscv.hpp **** 
 108:src/../h/riscv.hpp ****     static void w_a7(uint64 a7);
 109:src/../h/riscv.hpp **** 
 110:src/../h/riscv.hpp ****     static void push_a0(long a0);
 111:src/../h/riscv.hpp **** 
 112:src/../h/riscv.hpp **** private:
 113:src/../h/riscv.hpp ****     static void trapHandler();
 114:src/../h/riscv.hpp **** 
 115:src/../h/riscv.hpp **** 
 116:src/../h/riscv.hpp **** };
 117:src/../h/riscv.hpp **** 
 118:src/../h/riscv.hpp **** inline uint64 Riscv::r_scause() {
 119:src/../h/riscv.hpp ****     uint64 volatile scause;
  79              		.loc 2 119 5
 120:src/../h/riscv.hpp ****     __asm__ volatile ("csrr %[scause], scause" : [scause] "=r"(scause));
  80              		.loc 2 120 5
  81              		.loc 2 120 72 is_stmt 0
  82              	#APP
  83              	# 120 "src/../h/riscv.hpp" 1
 121              	    return scause;
  84              		csrr a5, scause
  85              	# 0 "" 2
  86              	#NO_APP
  87 0054 233CF4F8 		sd	a5,-104(s0)
  88              		.loc 2 121 5 is_stmt 1
  89              		.loc 2 121 12 is_stmt 0
  90 0058 833784F9 		ld	a5,-104(s0)
  91              	.LVL0:
  92              	.LBE74:
  93              	.LBE73:
  11:src/riscv.cpp ****     uint64 a0 = r_a0();
  94              		.loc 1 11 5 is_stmt 1
  95              	.LBB75:
  96              	.LBB76:
 122:src/../h/riscv.hpp **** }
 123:src/../h/riscv.hpp **** 
 124:src/../h/riscv.hpp **** inline void Riscv::w_scause(uint64 scause) {
GAS LISTING /tmp/cc3itBW5.s 			page 5


 125:src/../h/riscv.hpp ****     __asm__ volatile ("csrw scause, %[scause]" : : [scause] "r"(scause));
 126:src/../h/riscv.hpp **** }
 127:src/../h/riscv.hpp **** 
 128:src/../h/riscv.hpp **** inline uint64 Riscv::r_sepc() {
 129:src/../h/riscv.hpp ****     uint64 volatile sepc;
 130:src/../h/riscv.hpp ****     __asm__ volatile ("csrr %[sepc], sepc" : [sepc] "=r"(sepc));
 131:src/../h/riscv.hpp ****     return sepc;
 132:src/../h/riscv.hpp **** }
 133:src/../h/riscv.hpp **** 
 134:src/../h/riscv.hpp **** inline void Riscv::w_sepc(uint64 sepc) {
 135:src/../h/riscv.hpp ****     __asm__ volatile ("csrw sepc, %[sepc]" : : [sepc] "r"(sepc));
 136:src/../h/riscv.hpp **** }
 137:src/../h/riscv.hpp **** 
 138:src/../h/riscv.hpp **** inline uint64 Riscv::r_stvec() {
 139:src/../h/riscv.hpp ****     uint64 volatile stvec;
 140:src/../h/riscv.hpp ****     __asm__ volatile ("csrr %[stvec], stvec" : [stvec] "=r"(stvec));
 141:src/../h/riscv.hpp ****     return stvec;
 142:src/../h/riscv.hpp **** }
 143:src/../h/riscv.hpp **** 
 144:src/../h/riscv.hpp **** inline void Riscv::w_stvec(uint64 stvec) {
 145:src/../h/riscv.hpp ****     __asm__ volatile ("csrw stvec, %[stvec]" : : [stvec] "r"(stvec));
 146:src/../h/riscv.hpp **** }
 147:src/../h/riscv.hpp **** 
 148:src/../h/riscv.hpp **** inline uint64 Riscv::r_stval() {
 149:src/../h/riscv.hpp ****     uint64 volatile stval;
 150:src/../h/riscv.hpp ****     __asm__ volatile ("csrr %[stval], stval" : [stval] "=r"(stval));
 151:src/../h/riscv.hpp ****     return stval;
 152:src/../h/riscv.hpp **** }
 153:src/../h/riscv.hpp **** 
 154:src/../h/riscv.hpp **** inline void Riscv::w_stval(uint64 stval) {
 155:src/../h/riscv.hpp ****     __asm__ volatile ("csrw stval, %[stval]" : : [stval] "r"(stval));
 156:src/../h/riscv.hpp **** }
 157:src/../h/riscv.hpp **** 
 158:src/../h/riscv.hpp **** inline void Riscv::ms_sip(uint64 mask) {
 159:src/../h/riscv.hpp ****     __asm__ volatile ("csrs sip, %[mask]" : : [mask] "r"(mask));
 160:src/../h/riscv.hpp **** }
 161:src/../h/riscv.hpp **** 
 162:src/../h/riscv.hpp **** inline void Riscv::mc_sip(uint64 mask) {
 163:src/../h/riscv.hpp ****     __asm__ volatile ("csrc sip, %[mask]" : : [mask] "r"(mask));
 164:src/../h/riscv.hpp **** }
 165:src/../h/riscv.hpp **** 
 166:src/../h/riscv.hpp **** inline uint64 Riscv::r_sip() {
 167:src/../h/riscv.hpp ****     uint64 volatile sip;
 168:src/../h/riscv.hpp ****     __asm__ volatile ("csrr %[sip], sip" : [sip] "=r"(sip));
 169:src/../h/riscv.hpp ****     return sip;
 170:src/../h/riscv.hpp **** }
 171:src/../h/riscv.hpp **** 
 172:src/../h/riscv.hpp **** inline void Riscv::w_sip(uint64 sip) {
 173:src/../h/riscv.hpp ****     __asm__ volatile ("csrw sip, %[sip]" : : [sip] "r"(sip));
 174:src/../h/riscv.hpp **** }
 175:src/../h/riscv.hpp **** 
 176:src/../h/riscv.hpp **** inline void Riscv::ms_sstatus(uint64 mask) {
 177:src/../h/riscv.hpp ****     __asm__ volatile ("csrs sstatus, %[mask]" : : [mask] "r"(mask));
 178:src/../h/riscv.hpp **** }
 179:src/../h/riscv.hpp **** 
 180:src/../h/riscv.hpp **** inline void Riscv::mc_sstatus(uint64 mask) {
 181:src/../h/riscv.hpp ****     __asm__ volatile ("csrc sstatus, %[mask]" : : [mask] "r"(mask));
GAS LISTING /tmp/cc3itBW5.s 			page 6


 182:src/../h/riscv.hpp **** }
 183:src/../h/riscv.hpp **** 
 184:src/../h/riscv.hpp **** inline uint64 Riscv::r_sstatus() {
 185:src/../h/riscv.hpp ****     uint64 volatile sstatus;
 186:src/../h/riscv.hpp ****     __asm__ volatile ("csrr %[sstatus], sstatus" : [sstatus] "=r"(sstatus));
 187:src/../h/riscv.hpp ****     return sstatus;
 188:src/../h/riscv.hpp **** }
 189:src/../h/riscv.hpp **** 
 190:src/../h/riscv.hpp **** inline void Riscv::w_sstatus(uint64 sstatus) {
 191:src/../h/riscv.hpp ****     __asm__ volatile ("csrw sstatus, %[sstatus]" : : [sstatus] "r"(sstatus));
 192:src/../h/riscv.hpp **** }
 193:src/../h/riscv.hpp **** 
 194:src/../h/riscv.hpp **** inline void Riscv::ms_sie(uint64 mask) {
 195:src/../h/riscv.hpp ****     __asm__ volatile ("csrs sie, %[mask]" : : [mask] "r"(mask));
 196:src/../h/riscv.hpp **** }
 197:src/../h/riscv.hpp **** 
 198:src/../h/riscv.hpp **** inline void Riscv::mc_sie(uint64 mask) {
 199:src/../h/riscv.hpp ****     __asm__ volatile ("csrc sie, %[mask]" : : [mask] "r"(mask));
 200:src/../h/riscv.hpp **** }
 201:src/../h/riscv.hpp **** 
 202:src/../h/riscv.hpp **** inline long Riscv::r_a0() {
 203:src/../h/riscv.hpp ****     long volatile a0;
  97              		.loc 2 203 5
 204:src/../h/riscv.hpp ****     __asm__ volatile("mv %0, a0" : "=r"(a0));
  98              		.loc 2 204 5
  99              		.loc 2 204 45 is_stmt 0
 100              	#APP
 101              	# 204 "src/../h/riscv.hpp" 1
 205              	    return a0;
 102              		mv a4, a0
 103              	# 0 "" 2
 104              	#NO_APP
 105 0060 2338E4F8 		sd	a4,-112(s0)
 106              		.loc 2 205 5 is_stmt 1
 107              		.loc 2 205 12 is_stmt 0
 108 0064 833604F9 		ld	a3,-112(s0)
 109              	.LVL1:
 110              	.LBE76:
 111              	.LBE75:
  12:src/riscv.cpp ****     uint64 a1 = r_a1();
 112              		.loc 1 12 5 is_stmt 1
 113              	.LBB77:
 114              	.LBB78:
 206:src/../h/riscv.hpp **** }
 207:src/../h/riscv.hpp **** 
 208:src/../h/riscv.hpp **** inline void Riscv::w_a0(long a0) {
 209:src/../h/riscv.hpp ****     __asm__ volatile ("mv a0, %0" : : "r"(a0));
 210:src/../h/riscv.hpp **** }
 211:src/../h/riscv.hpp **** 
 212:src/../h/riscv.hpp **** inline uint64 Riscv::r_a1() {
 213:src/../h/riscv.hpp ****     uint64 volatile a1;
 115              		.loc 2 213 5
 214:src/../h/riscv.hpp ****     __asm__ volatile("mv %0, a1" : "=r"(a1));
 116              		.loc 2 214 5
 117              		.loc 2 214 45 is_stmt 0
 118              	#APP
 119              	# 214 "src/../h/riscv.hpp" 1
GAS LISTING /tmp/cc3itBW5.s 			page 7


 215              	    return a1;
 120              		mv a4, a1
 121              	# 0 "" 2
 122              	#NO_APP
 123 006c 2334E4F8 		sd	a4,-120(s0)
 124              		.loc 2 215 5 is_stmt 1
 125              		.loc 2 215 12 is_stmt 0
 126 0070 833484F8 		ld	s1,-120(s0)
 127              	.LVL2:
 128              	.LBE78:
 129              	.LBE77:
  13:src/riscv.cpp ****     uint64 a2 = r_a2();
 130              		.loc 1 13 5 is_stmt 1
 131              	.LBB79:
 132              	.LBB80:
 216:src/../h/riscv.hpp **** }
 217:src/../h/riscv.hpp **** 
 218:src/../h/riscv.hpp **** inline void Riscv::w_a1(uint64 a1) {
 219:src/../h/riscv.hpp ****     __asm__ volatile ("mv a1, %0" : : "r"(a1));
 220:src/../h/riscv.hpp **** }
 221:src/../h/riscv.hpp **** 
 222:src/../h/riscv.hpp **** inline uint64 Riscv::r_a2() {
 223:src/../h/riscv.hpp ****     uint64 volatile a2;
 133              		.loc 2 223 5
 224:src/../h/riscv.hpp ****     __asm__ volatile("mv %0, a2" : "=r"(a2));
 134              		.loc 2 224 5
 135              		.loc 2 224 45 is_stmt 0
 136              	#APP
 137              	# 224 "src/../h/riscv.hpp" 1
 225              	    return a2;
 138              		mv a4, a2
 139              	# 0 "" 2
 140              	#NO_APP
 141 0078 2330E4F8 		sd	a4,-128(s0)
 142              		.loc 2 225 5 is_stmt 1
 143              		.loc 2 225 12 is_stmt 0
 144 007c 033904F8 		ld	s2,-128(s0)
 145              	.LVL3:
 146              	.LBE80:
 147              	.LBE79:
  14:src/riscv.cpp ****     uint64 a3 = r_a7();
 148              		.loc 1 14 5 is_stmt 1
 149              	.LBB81:
 150              	.LBB82:
 226:src/../h/riscv.hpp **** }
 227:src/../h/riscv.hpp **** 
 228:src/../h/riscv.hpp **** inline void Riscv::w_a2(uint64 a2) {
 229:src/../h/riscv.hpp ****     __asm__ volatile ("mv a2, %0" : : "r"(a2));
 230:src/../h/riscv.hpp **** }
 231:src/../h/riscv.hpp **** 
 232:src/../h/riscv.hpp **** inline uint64 Riscv::r_a7() {
 233:src/../h/riscv.hpp ****     uint64 volatile a7;
 151              		.loc 2 233 5
 234:src/../h/riscv.hpp ****     __asm__ volatile("mv %0, a7" : "=r"(a7));
 152              		.loc 2 234 5
 153              		.loc 2 234 45 is_stmt 0
 154              	#APP
GAS LISTING /tmp/cc3itBW5.s 			page 8


 155              	# 234 "src/../h/riscv.hpp" 1
 235              	    return a7;
 156              		mv a4, a7
 157              	# 0 "" 2
 158              	#NO_APP
 159 0084 233CE4F6 		sd	a4,-136(s0)
 160              		.loc 2 235 5 is_stmt 1
 161              		.loc 2 235 12 is_stmt 0
 162 0088 833984F7 		ld	s3,-136(s0)
 163              	.LVL4:
 164              	.LBE82:
 165              	.LBE81:
  15:src/riscv.cpp **** 
  16:src/riscv.cpp ****     uint64 sepc;
 166              		.loc 1 16 5 is_stmt 1
  17:src/riscv.cpp ****     uint64 sstatus;
 167              		.loc 1 17 5
  18:src/riscv.cpp **** 
  19:src/riscv.cpp ****     switch (scause) {
 168              		.loc 1 19 5
 169              	.LBB83:
 170 008c 1307F0FF 		li	a4,-1
 171 0090 1317F703 		slli	a4,a4,63
 172 0094 13071700 		addi	a4,a4,1
 173 0098 6388E724 		beq	a5,a4,.L4
 174 009c 1307F0FF 		li	a4,-1
 175 00a0 1317F703 		slli	a4,a4,63
 176 00a4 13071700 		addi	a4,a4,1
 177 00a8 6368F704 		bgtu	a5,a4,.L5
 178 00ac 938787FF 		addi	a5,a5,-8
 179              	.LVL5:
 180 00b0 13071000 		li	a4,1
 181 00b4 636EF722 		bgtu	a5,a4,.L3
 182              	.LBB84:
  20:src/riscv.cpp ****         case 0x08:
 183              		.loc 1 20 9
  21:src/riscv.cpp ****         case 0x09:
 184              		.loc 1 21 9
  22:src/riscv.cpp ****             //ecall: software interrupt
  23:src/riscv.cpp ****             sepc = r_sepc() + 4;
 185              		.loc 1 23 13
 186              	.LBB85:
 187              	.LBB86:
 129:src/../h/riscv.hpp ****     __asm__ volatile ("csrr %[sepc], sepc" : [sepc] "=r"(sepc));
 188              		.loc 2 129 5
 130:src/../h/riscv.hpp ****     return sepc;
 189              		.loc 2 130 5
 130:src/../h/riscv.hpp ****     return sepc;
 190              		.loc 2 130 64 is_stmt 0
 191              	#APP
 192              	# 130 "src/../h/riscv.hpp" 1
 193              		csrr a5, sepc
 194              	# 0 "" 2
 195              	.LVL6:
 196              	#NO_APP
 197 00bc 2334F4FA 		sd	a5,-88(s0)
 131:src/../h/riscv.hpp **** }
GAS LISTING /tmp/cc3itBW5.s 			page 9


 198              		.loc 2 131 5 is_stmt 1
 131:src/../h/riscv.hpp **** }
 199              		.loc 2 131 12 is_stmt 0
 200 00c0 033784FA 		ld	a4,-88(s0)
 201              	.LBE86:
 202              	.LBE85:
 203              		.loc 1 23 18
 204 00c4 930A4700 		addi	s5,a4,4
 205              	.LVL7:
  24:src/riscv.cpp ****             sstatus = r_sstatus();
 206              		.loc 1 24 13 is_stmt 1
 207              	.LBB87:
 208              	.LBB88:
 185:src/../h/riscv.hpp ****     __asm__ volatile ("csrr %[sstatus], sstatus" : [sstatus] "=r"(sstatus));
 209              		.loc 2 185 5
 186:src/../h/riscv.hpp ****     return sstatus;
 210              		.loc 2 186 5
 186:src/../h/riscv.hpp ****     return sstatus;
 211              		.loc 2 186 76 is_stmt 0
 212              	#APP
 213              	# 186 "src/../h/riscv.hpp" 1
 214              		csrr a5, sstatus
 215              	# 0 "" 2
 216              	#NO_APP
 217 00cc 2330F4FA 		sd	a5,-96(s0)
 187:src/../h/riscv.hpp **** }
 218              		.loc 2 187 5 is_stmt 1
 187:src/../h/riscv.hpp **** }
 219              		.loc 2 187 12 is_stmt 0
 220 00d0 033A04FA 		ld	s4,-96(s0)
 221              	.LVL8:
 222              	.LBE88:
 223              	.LBE87:
  25:src/riscv.cpp ****             void *mem;
 224              		.loc 1 25 13 is_stmt 1
  26:src/riscv.cpp ****             uint64 *stack;
 225              		.loc 1 26 13
  27:src/riscv.cpp ****             _thread **handleAddr;
 226              		.loc 1 27 13
  28:src/riscv.cpp ****             _sem **semAddr;
 227              		.loc 1 28 13
  29:src/riscv.cpp ****             _sem *sem;
 228              		.loc 1 29 13
  30:src/riscv.cpp ****             int value;
 229              		.loc 1 30 13
  31:src/riscv.cpp ****             char c;
 230              		.loc 1 31 13
  32:src/riscv.cpp ****             switch (a0) {
 231              		.loc 1 32 13
 232 00d4 93071005 		li	a5,81
 233 00d8 63E2D706 		bgtu	a3,a5,.L9
 234 00dc 93962600 		slli	a3,a3,2
 235              	.LVL9:
 236 00e0 17060000 		lla	a2,.L11
 236      13060600 
 237 00e8 B386C600 		add	a3,a3,a2
 238 00ec 83A70600 		lw	a5,0(a3)
GAS LISTING /tmp/cc3itBW5.s 			page 10


 239 00f0 B387C700 		add	a5,a5,a2
 240 00f4 67800700 		jr	a5
 241              		.section	.rodata
 242              		.align	2
 243              		.align	2
 244              	.L11:
 245 0000 00000000 		.word	.L9-.L11
 246 0004 00000000 		.word	.L23-.L11
 247 0008 00000000 		.word	.L22-.L11
 248 000c 00000000 		.word	.L9-.L11
 249 0010 00000000 		.word	.L9-.L11
 250 0014 00000000 		.word	.L9-.L11
 251 0018 00000000 		.word	.L9-.L11
 252 001c 00000000 		.word	.L9-.L11
 253 0020 00000000 		.word	.L9-.L11
 254 0024 00000000 		.word	.L9-.L11
 255 0028 00000000 		.word	.L9-.L11
 256 002c 00000000 		.word	.L9-.L11
 257 0030 00000000 		.word	.L9-.L11
 258 0034 00000000 		.word	.L9-.L11
 259 0038 00000000 		.word	.L9-.L11
 260 003c 00000000 		.word	.L9-.L11
 261 0040 00000000 		.word	.L9-.L11
 262 0044 00000000 		.word	.L21-.L11
 263 0048 00000000 		.word	.L20-.L11
 264 004c 00000000 		.word	.L19-.L11
 265 0050 00000000 		.word	.L18-.L11
 266 0054 00000000 		.word	.L9-.L11
 267 0058 00000000 		.word	.L9-.L11
 268 005c 00000000 		.word	.L9-.L11
 269 0060 00000000 		.word	.L9-.L11
 270 0064 00000000 		.word	.L9-.L11
 271 0068 00000000 		.word	.L9-.L11
 272 006c 00000000 		.word	.L9-.L11
 273 0070 00000000 		.word	.L9-.L11
 274 0074 00000000 		.word	.L9-.L11
 275 0078 00000000 		.word	.L9-.L11
 276 007c 00000000 		.word	.L9-.L11
 277 0080 00000000 		.word	.L9-.L11
 278 0084 00000000 		.word	.L17-.L11
 279 0088 00000000 		.word	.L16-.L11
 280 008c 00000000 		.word	.L15-.L11
 281 0090 00000000 		.word	.L14-.L11
 282 0094 00000000 		.word	.L9-.L11
 283 0098 00000000 		.word	.L9-.L11
 284 009c 00000000 		.word	.L9-.L11
 285 00a0 00000000 		.word	.L9-.L11
 286 00a4 00000000 		.word	.L9-.L11
 287 00a8 00000000 		.word	.L9-.L11
 288 00ac 00000000 		.word	.L9-.L11
 289 00b0 00000000 		.word	.L9-.L11
 290 00b4 00000000 		.word	.L9-.L11
 291 00b8 00000000 		.word	.L9-.L11
 292 00bc 00000000 		.word	.L9-.L11
 293 00c0 00000000 		.word	.L9-.L11
 294 00c4 00000000 		.word	.L9-.L11
 295 00c8 00000000 		.word	.L9-.L11
GAS LISTING /tmp/cc3itBW5.s 			page 11


 296 00cc 00000000 		.word	.L9-.L11
 297 00d0 00000000 		.word	.L9-.L11
 298 00d4 00000000 		.word	.L9-.L11
 299 00d8 00000000 		.word	.L9-.L11
 300 00dc 00000000 		.word	.L9-.L11
 301 00e0 00000000 		.word	.L9-.L11
 302 00e4 00000000 		.word	.L9-.L11
 303 00e8 00000000 		.word	.L9-.L11
 304 00ec 00000000 		.word	.L9-.L11
 305 00f0 00000000 		.word	.L9-.L11
 306 00f4 00000000 		.word	.L9-.L11
 307 00f8 00000000 		.word	.L9-.L11
 308 00fc 00000000 		.word	.L9-.L11
 309 0100 00000000 		.word	.L9-.L11
 310 0104 00000000 		.word	.L13-.L11
 311 0108 00000000 		.word	.L12-.L11
 312 010c 00000000 		.word	.L9-.L11
 313 0110 00000000 		.word	.L9-.L11
 314 0114 00000000 		.word	.L9-.L11
 315 0118 00000000 		.word	.L9-.L11
 316 011c 00000000 		.word	.L9-.L11
 317 0120 00000000 		.word	.L9-.L11
 318 0124 00000000 		.word	.L9-.L11
 319 0128 00000000 		.word	.L9-.L11
 320 012c 00000000 		.word	.L9-.L11
 321 0130 00000000 		.word	.L9-.L11
 322 0134 00000000 		.word	.L9-.L11
 323 0138 00000000 		.word	.L9-.L11
 324 013c 00000000 		.word	.L9-.L11
 325 0140 00000000 		.word	.L9-.L11
 326 0144 00000000 		.word	.L10-.L11
 327              		.text
 328              	.LVL10:
 329              	.L5:
 330              	.LBE84:
  19:src/riscv.cpp ****         case 0x08:
 331              		.loc 1 19 5 is_stmt 0
 332 00f8 1307F0FF 		li	a4,-1
 333 00fc 1317F703 		slli	a4,a4,63
 334 0100 13079700 		addi	a4,a4,9
 335 0104 6396E71E 		bne	a5,a4,.L3
 336              	.LBB133:
  33:src/riscv.cpp ****                 case 0x01: // allocate
  34:src/riscv.cpp ****                     mem = MemoryAllocator::getInstance().allocate((size_t) a1);
  35:src/riscv.cpp ****                     push_a0((uint64) mem);
  36:src/riscv.cpp ****                     break;
  37:src/riscv.cpp ****                 case 0x02: // deallocate
  38:src/riscv.cpp ****                     push_a0(MemoryAllocator::getInstance().deallocate((void *) a1));
  39:src/riscv.cpp ****                     break;
  40:src/riscv.cpp ****                 case 0x11: //thread_create
  41:src/riscv.cpp ****                     if (a1 != 0)
  42:src/riscv.cpp ****                         stack = (uint64 *) MemoryAllocator::getInstance().allocate(
  43:src/riscv.cpp ****                                 ((DEFAULT_STACK_SIZE + 16 + MEM_BLOCK_SIZE - 1) / MEM_BLOCK_SIZE));
  44:src/riscv.cpp ****                     else stack = nullptr;
  45:src/riscv.cpp ****                     handleAddr = (_thread **) a3;
  46:src/riscv.cpp ****                     (*handleAddr) = new _thread((_thread::Body) a1, (void *) a2, stack);
  47:src/riscv.cpp ****                     if ((_thread::Body) a1)Scheduler::put(*handleAddr);
GAS LISTING /tmp/cc3itBW5.s 			page 12


  48:src/riscv.cpp **** 
  49:src/riscv.cpp ****                     if (!(*handleAddr))push_a0(-1);
  50:src/riscv.cpp ****                     push_a0(0);
  51:src/riscv.cpp ****                     break;
  52:src/riscv.cpp ****                 case 0x12: // thread_exit
  53:src/riscv.cpp ****                     push_a0(_thread::exit());
  54:src/riscv.cpp ****                     break;
  55:src/riscv.cpp ****                 case 0x13:
  56:src/riscv.cpp ****                     _thread::dispatch();
  57:src/riscv.cpp ****                     break;
  58:src/riscv.cpp ****                 case 0x14:
  59:src/riscv.cpp ****                     ((_thread *) a1)->join();
  60:src/riscv.cpp ****                     break;
  61:src/riscv.cpp ****                 case 0x21: //sem_open
  62:src/riscv.cpp ****                     value = a2;
  63:src/riscv.cpp ****                     semAddr = (_sem **) a1;
  64:src/riscv.cpp ****                     *semAddr = new _sem(value);
  65:src/riscv.cpp ****                     if (!(*semAddr))push_a0(-1);
  66:src/riscv.cpp ****                     push_a0(0);
  67:src/riscv.cpp ****                     break;
  68:src/riscv.cpp ****                 case 0x22: //sem_close
  69:src/riscv.cpp ****                     push_a0(((_sem *) a1)->close());
  70:src/riscv.cpp ****                     break;
  71:src/riscv.cpp ****                 case 0x23: //sem_wait
  72:src/riscv.cpp ****                     sem = (_sem *) a1;
  73:src/riscv.cpp ****                     push_a0(sem->wait());
  74:src/riscv.cpp ****                     break;
  75:src/riscv.cpp ****                 case 0x24: //sem_signal
  76:src/riscv.cpp ****                     push_a0(((_sem *) a1)->signal());
  77:src/riscv.cpp ****                     break;
  78:src/riscv.cpp ****                 case 0x41: //getc
  79:src/riscv.cpp ****                     c = __getc();
  80:src/riscv.cpp ****                     push_a0((char) c);
  81:src/riscv.cpp ****                     break;
  82:src/riscv.cpp ****                 case 0x42:
  83:src/riscv.cpp ****                     __putc((char) a3);
  84:src/riscv.cpp ****                     break;
  85:src/riscv.cpp ****                 case 0x51:
  86:src/riscv.cpp ****                     w_sstatus(sstatus);
  87:src/riscv.cpp ****                     mc_sstatus(1 << 8);
  88:src/riscv.cpp ****                     w_sepc(sepc + 4);
  89:src/riscv.cpp ****                     return;
  90:src/riscv.cpp ****                 default:
  91:src/riscv.cpp ****                     //printString("Unknown interrupt!");
  92:src/riscv.cpp ****                     break;
  93:src/riscv.cpp **** 
  94:src/riscv.cpp ****             }
  95:src/riscv.cpp **** 
  96:src/riscv.cpp ****             w_sstatus(sstatus);
  97:src/riscv.cpp ****             w_sepc(sepc);
  98:src/riscv.cpp ****             break;
  99:src/riscv.cpp ****         case 0x8000000000000001UL:
 100:src/riscv.cpp ****             //timer interrupt
 101:src/riscv.cpp ****             mc_sip(SIP_SSIP);
 102:src/riscv.cpp ****             break;
 103:src/riscv.cpp ****         case 0x8000000000000009UL:
 337              		.loc 1 103 9 is_stmt 1
GAS LISTING /tmp/cc3itBW5.s 			page 13


 104:src/riscv.cpp ****             //external hardware interrupt
 105:src/riscv.cpp ****             console_handler();
 338              		.loc 1 105 13
 339              	.LEHB0:
 340              		.loc 1 105 28 is_stmt 0
 341 0108 97000000 		call	console_handler@plt
 341      E7800000 
 342              	.LVL11:
 106:src/riscv.cpp ****             break;
 343              		.loc 1 106 13 is_stmt 1
 344 0110 6F00001E 		j	.L3
 345              	.LVL12:
 346              	.L23:
  33:src/riscv.cpp ****                 case 0x01: // allocate
 347              		.loc 1 33 17
  34:src/riscv.cpp ****                     push_a0((uint64) mem);
 348              		.loc 1 34 21
 349              	.LBB89:
 350              	.LBB90:
 351              		.file 3 "src/../h/../h/MemoryAllocator.hpp"
   1:src/../h/../h/MemoryAllocator.hpp **** #ifndef PROJECT_BASE_V1_1_MEMORYALLOCATOR_HPP
   2:src/../h/../h/MemoryAllocator.hpp **** #define PROJECT_BASE_V1_1_MEMORYALLOCATOR_HPP
   3:src/../h/../h/MemoryAllocator.hpp **** 
   4:src/../h/../h/MemoryAllocator.hpp **** #include "print.hpp"
   5:src/../h/../h/MemoryAllocator.hpp **** 
   6:src/../h/../h/MemoryAllocator.hpp **** struct Block {
   7:src/../h/../h/MemoryAllocator.hpp ****     size_t size;
   8:src/../h/../h/MemoryAllocator.hpp ****     Block *next;
   9:src/../h/../h/MemoryAllocator.hpp **** };
  10:src/../h/../h/MemoryAllocator.hpp **** 
  11:src/../h/../h/MemoryAllocator.hpp **** class MemoryAllocator {
  12:src/../h/../h/MemoryAllocator.hpp **** 
  13:src/../h/../h/MemoryAllocator.hpp **** private:
  14:src/../h/../h/MemoryAllocator.hpp **** 
  15:src/../h/../h/MemoryAllocator.hpp **** 
  16:src/../h/../h/MemoryAllocator.hpp ****     MemoryAllocator() {}
  17:src/../h/../h/MemoryAllocator.hpp **** 
  18:src/../h/../h/MemoryAllocator.hpp ****     static Block *free_list;
  19:src/../h/../h/MemoryAllocator.hpp ****     static Block *allocated_list;
  20:src/../h/../h/MemoryAllocator.hpp **** 
  21:src/../h/../h/MemoryAllocator.hpp **** 
  22:src/../h/../h/MemoryAllocator.hpp **** public:
  23:src/../h/../h/MemoryAllocator.hpp **** 
  24:src/../h/../h/MemoryAllocator.hpp **** 
  25:src/../h/../h/MemoryAllocator.hpp ****     // Get the singleton instance
  26:src/../h/../h/MemoryAllocator.hpp ****     static MemoryAllocator &getInstance() {
  27:src/../h/../h/MemoryAllocator.hpp ****         static MemoryAllocator instance;
 352              		.loc 3 27 9
 353              		.loc 3 27 32 is_stmt 0
 354 0114 97070000 		lbu	a5,_ZGVZN15MemoryAllocator11getInstanceEvE8instance
 354      83C70700 
 355 011c 63980700 		bnez	a5,.L24
 356              	.LVL13:
 357 0120 93071000 		li	a5,1
 358 0124 17070000 		sb	a5,_ZGVZN15MemoryAllocator11getInstanceEvE8instance,a4
 358      2300F700 
 359              	.LVL14:
GAS LISTING /tmp/cc3itBW5.s 			page 14


 360              	.L24:
  28:src/../h/../h/MemoryAllocator.hpp ****         return instance;
 361              		.loc 3 28 9 is_stmt 1
 362              	.LBE90:
 363              	.LBE89:
  34:src/riscv.cpp ****                     push_a0((uint64) mem);
 364              		.loc 1 34 78 is_stmt 0
 365 012c 13850400 		mv	a0,s1
 366 0130 97000000 		call	_ZN15MemoryAllocator8allocateEm@plt
 366      E7800000 
 367              	.LVL15:
  35:src/riscv.cpp ****                     break;
 368              		.loc 1 35 21 is_stmt 1
 369              	.LBB91:
 370              	.LBB92:
 236:src/../h/riscv.hpp **** }
 237:src/../h/riscv.hpp **** 
 238:src/../h/riscv.hpp **** inline void Riscv::w_a7(uint64 a7) {
 239:src/../h/riscv.hpp ****     __asm__ volatile ("mv a7, %0" : : "r"(a7));
 240:src/../h/riscv.hpp **** }
 241:src/../h/riscv.hpp **** 
 242:src/../h/riscv.hpp **** inline void Riscv::push_a0(long a0) {
 243:src/../h/riscv.hpp ****     __asm__ volatile ("sd %0, 10*8(fp)" : : "r"(a0));
 371              		.loc 2 243 5
 372              		.loc 2 243 53 is_stmt 0
 373              	#APP
 374              	# 243 "src/../h/riscv.hpp" 1
 244              	}
 375              		sd a0, 10*8(fp)
 376              	# 0 "" 2
 377              	.LVL16:
 378              	#NO_APP
 379              	.L9:
 380              	.LBE92:
 381              	.LBE91:
  96:src/riscv.cpp ****             w_sepc(sepc);
 382              		.loc 1 96 13 is_stmt 1
 383              	.LBB93:
 384              	.LBB94:
 191:src/../h/riscv.hpp **** }
 385              		.loc 2 191 5
 191:src/../h/riscv.hpp **** }
 386              		.loc 2 191 77 is_stmt 0
 387              	#APP
 388              	# 191 "src/../h/riscv.hpp" 1
 389              		csrw sstatus, s4
 390              	# 0 "" 2
 391              	.LVL17:
 392              	#NO_APP
 393              	.LBE94:
 394              	.LBE93:
  97:src/riscv.cpp ****             break;
 395              		.loc 1 97 13 is_stmt 1
 396              	.LBB95:
 397              	.LBB96:
 135:src/../h/riscv.hpp **** }
 398              		.loc 2 135 5
GAS LISTING /tmp/cc3itBW5.s 			page 15


 135:src/../h/riscv.hpp **** }
 399              		.loc 2 135 65 is_stmt 0
 400              	#APP
 401              	# 135 "src/../h/riscv.hpp" 1
 136:src/../h/riscv.hpp **** 
 402              		csrw sepc, s5
 403              	# 0 "" 2
 404              		.loc 2 136 1
 405              	#NO_APP
 406 0144 6F00C01A 		j	.L3
 407              	.LVL18:
 408              	.L22:
 409              	.LBE96:
 410              	.LBE95:
  37:src/riscv.cpp ****                     push_a0(MemoryAllocator::getInstance().deallocate((void *) a1));
 411              		.loc 1 37 17 is_stmt 1
  38:src/riscv.cpp ****                     break;
 412              		.loc 1 38 21
 413              	.LBB97:
 414              	.LBB98:
  27:src/../h/../h/MemoryAllocator.hpp ****         return instance;
 415              		.loc 3 27 9
  27:src/../h/../h/MemoryAllocator.hpp ****         return instance;
 416              		.loc 3 27 32 is_stmt 0
 417 0148 97070000 		lbu	a5,_ZGVZN15MemoryAllocator11getInstanceEvE8instance
 417      83C70700 
 418 0150 63980700 		bnez	a5,.L25
 419              	.LVL19:
 420 0154 93071000 		li	a5,1
 421 0158 17070000 		sb	a5,_ZGVZN15MemoryAllocator11getInstanceEvE8instance,a4
 421      2300F700 
 422              	.LVL20:
 423              	.L25:
 424              		.loc 3 28 9 is_stmt 1
 425              	.LBE98:
 426              	.LBE97:
  38:src/riscv.cpp ****                     break;
 427              		.loc 1 38 82 is_stmt 0
 428 0160 13850400 		mv	a0,s1
 429 0164 97000000 		call	_ZN15MemoryAllocator10deallocateEPv@plt
 429      E7800000 
 430              	.LVL21:
 431              	.LBB99:
 432              	.LBB100:
 243:src/../h/riscv.hpp **** }
 433              		.loc 2 243 5 is_stmt 1
 243:src/../h/riscv.hpp **** }
 434              		.loc 2 243 53 is_stmt 0
 435              	#APP
 436              	# 243 "src/../h/riscv.hpp" 1
 437              		sd a0, 10*8(fp)
 438              	# 0 "" 2
 439              		.loc 2 244 1
 440              	#NO_APP
 441 0170 6FF0DFFC 		j	.L9
 442              	.LVL22:
 443              	.L21:
GAS LISTING /tmp/cc3itBW5.s 			page 16


 444              	.LBE100:
 445              	.LBE99:
  40:src/riscv.cpp ****                     if (a1 != 0)
 446              		.loc 1 40 17 is_stmt 1
  41:src/riscv.cpp ****                         stack = (uint64 *) MemoryAllocator::getInstance().allocate(
 447              		.loc 1 41 21
 448 0174 638A0404 		beqz	s1,.L32
  42:src/riscv.cpp ****                                 ((DEFAULT_STACK_SIZE + 16 + MEM_BLOCK_SIZE - 1) / MEM_BLOCK_SIZE));
 449              		.loc 1 42 25
 450              	.LBB101:
 451              	.LBB102:
  27:src/../h/../h/MemoryAllocator.hpp ****         return instance;
 452              		.loc 3 27 9
  27:src/../h/../h/MemoryAllocator.hpp ****         return instance;
 453              		.loc 3 27 32 is_stmt 0
 454 0178 97070000 		lbu	a5,_ZGVZN15MemoryAllocator11getInstanceEvE8instance
 454      83C70700 
 455 0180 63980700 		bnez	a5,.L27
 456              	.LVL23:
 457 0184 93071000 		li	a5,1
 458 0188 17070000 		sb	a5,_ZGVZN15MemoryAllocator11getInstanceEvE8instance,a4
 458      2300F700 
 459              	.LVL24:
 460              	.L27:
 461              		.loc 3 28 9 is_stmt 1
 462              	.LBE102:
 463              	.LBE101:
  43:src/riscv.cpp ****                     else stack = nullptr;
 464              		.loc 1 43 98 is_stmt 0
 465 0190 13051004 		li	a0,65
 466 0194 97000000 		call	_ZN15MemoryAllocator8allocateEm@plt
 466      E7800000 
 467              	.LVL25:
 468 019c 930B0500 		mv	s7,a0
 469              	.LVL26:
 470              	.L26:
  45:src/riscv.cpp ****                     (*handleAddr) = new _thread((_thread::Body) a1, (void *) a2, stack);
 471              		.loc 1 45 21 is_stmt 1
  46:src/riscv.cpp ****                     if ((_thread::Body) a1)Scheduler::put(*handleAddr);
 472              		.loc 1 46 21
  46:src/riscv.cpp ****                     if ((_thread::Body) a1)Scheduler::put(*handleAddr);
 473              		.loc 1 46 87 is_stmt 0
 474 01a0 13058003 		li	a0,56
 475 01a4 97000000 		call	_Znwm@plt
 475      E7800000 
 476              	.LVL27:
 477              	.LEHE0:
 478 01ac 130B0500 		mv	s6,a0
 479 01b0 93860B00 		mv	a3,s7
 480 01b4 13060900 		mv	a2,s2
 481 01b8 93850400 		mv	a1,s1
 482              	.LEHB1:
 483 01bc 97000000 		call	_ZN7_threadC1EPFvPvES0_Pm@plt
 483      E7800000 
 484              	.LVL28:
 485              	.LEHE1:
 486 01c4 6F00C000 		j	.L36
GAS LISTING /tmp/cc3itBW5.s 			page 17


 487              	.LVL29:
 488              	.L32:
  44:src/riscv.cpp ****                     handleAddr = (_thread **) a3;
 489              		.loc 1 44 32
 490 01c8 930B0000 		li	s7,0
 491 01cc 6FF05FFD 		j	.L26
 492              	.LVL30:
 493              	.L36:
  46:src/riscv.cpp ****                     if ((_thread::Body) a1)Scheduler::put(*handleAddr);
 494              		.loc 1 46 35 discriminator 2
 495 01d0 23B06901 		sd	s6,0(s3)
  47:src/riscv.cpp **** 
 496              		.loc 1 47 21 is_stmt 1 discriminator 2
 497 01d4 63880400 		beqz	s1,.L28
  47:src/riscv.cpp **** 
 498              		.loc 1 47 44 discriminator 1
  47:src/riscv.cpp **** 
 499              		.loc 1 47 58 is_stmt 0 discriminator 1
 500 01d8 13050B00 		mv	a0,s6
 501              	.LEHB2:
 502 01dc 97000000 		call	_ZN9Scheduler3putEP7_thread@plt
 502      E7800000 
 503              	.LVL31:
 504              	.L28:
  49:src/riscv.cpp ****                     push_a0(0);
 505              		.loc 1 49 21 is_stmt 1
  49:src/riscv.cpp ****                     push_a0(0);
 506              		.loc 1 49 27 is_stmt 0
 507 01e4 83B70900 		ld	a5,0(s3)
  49:src/riscv.cpp ****                     push_a0(0);
 508              		.loc 1 49 21
 509 01e8 63880700 		beqz	a5,.L37
 510              	.L29:
  50:src/riscv.cpp ****                     break;
 511              		.loc 1 50 21 is_stmt 1
 512              	.LVL32:
 513              	.LBB103:
 514              	.LBB104:
 243:src/../h/riscv.hpp **** }
 515              		.loc 2 243 5
 243:src/../h/riscv.hpp **** }
 516              		.loc 2 243 53 is_stmt 0
 517 01ec 93070000 		li	a5,0
 518              	#APP
 519              	# 243 "src/../h/riscv.hpp" 1
 520              		sd a5, 10*8(fp)
 521              	# 0 "" 2
 522              		.loc 2 244 1
 523              	#NO_APP
 524 01f4 6FF09FF4 		j	.L9
 525              	.LVL33:
 526              	.L37:
 527              	.LBE104:
 528              	.LBE103:
  49:src/riscv.cpp ****                     push_a0(0);
 529              		.loc 1 49 40 is_stmt 1
 530              	.LBB105:
GAS LISTING /tmp/cc3itBW5.s 			page 18


 531              	.LBB106:
 243:src/../h/riscv.hpp **** }
 532              		.loc 2 243 5
 243:src/../h/riscv.hpp **** }
 533              		.loc 2 243 53 is_stmt 0
 534 01f8 9307F0FF 		li	a5,-1
 535              	#APP
 536              	# 243 "src/../h/riscv.hpp" 1
 537              		sd a5, 10*8(fp)
 538              	# 0 "" 2
 539              		.loc 2 244 1
 540              	#NO_APP
 541 0200 6FF0DFFE 		j	.L29
 542              	.LVL34:
 543              	.L20:
 544              	.LBE106:
 545              	.LBE105:
  52:src/riscv.cpp ****                     push_a0(_thread::exit());
 546              		.loc 1 52 17 is_stmt 1
  53:src/riscv.cpp ****                     break;
 547              		.loc 1 53 21
  53:src/riscv.cpp ****                     break;
 548              		.loc 1 53 42 is_stmt 0
 549 0204 97000000 		call	_ZN7_thread4exitEv@plt
 549      E7800000 
 550              	.LVL35:
 551              	.LBB107:
 552              	.LBB108:
 243:src/../h/riscv.hpp **** }
 553              		.loc 2 243 5 is_stmt 1
 243:src/../h/riscv.hpp **** }
 554              		.loc 2 243 53 is_stmt 0
 555              	#APP
 556              	# 243 "src/../h/riscv.hpp" 1
 557              		sd a0, 10*8(fp)
 558              	# 0 "" 2
 559              		.loc 2 244 1
 560              	#NO_APP
 561 0210 6FF0DFF2 		j	.L9
 562              	.LVL36:
 563              	.L19:
 564              	.LBE108:
 565              	.LBE107:
  55:src/riscv.cpp ****                     _thread::dispatch();
 566              		.loc 1 55 17 is_stmt 1
  56:src/riscv.cpp ****                     break;
 567              		.loc 1 56 21
  56:src/riscv.cpp ****                     break;
 568              		.loc 1 56 38 is_stmt 0
 569 0214 97000000 		call	_ZN7_thread8dispatchEv@plt
 569      E7800000 
 570              	.LVL37:
  57:src/riscv.cpp ****                 case 0x14:
 571              		.loc 1 57 21 is_stmt 1
 572 021c 6FF01FF2 		j	.L9
 573              	.L18:
  58:src/riscv.cpp ****                     ((_thread *) a1)->join();
GAS LISTING /tmp/cc3itBW5.s 			page 19


 574              		.loc 1 58 17
  59:src/riscv.cpp ****                     break;
 575              		.loc 1 59 21
  59:src/riscv.cpp ****                     break;
 576              		.loc 1 59 43 is_stmt 0
 577 0220 13850400 		mv	a0,s1
 578 0224 97000000 		call	_ZN7_thread4joinEv@plt
 578      E7800000 
 579              	.LVL38:
  60:src/riscv.cpp ****                 case 0x21: //sem_open
 580              		.loc 1 60 21 is_stmt 1
 581 022c 6FF01FF1 		j	.L9
 582              	.L17:
  61:src/riscv.cpp ****                     value = a2;
 583              		.loc 1 61 17
  62:src/riscv.cpp ****                     semAddr = (_sem **) a1;
 584              		.loc 1 62 21
  62:src/riscv.cpp ****                     semAddr = (_sem **) a1;
 585              		.loc 1 62 27 is_stmt 0
 586 0230 1B090900 		sext.w	s2,s2
 587              	.LVL39:
  63:src/riscv.cpp ****                     *semAddr = new _sem(value);
 588              		.loc 1 63 21 is_stmt 1
  64:src/riscv.cpp ****                     if (!(*semAddr))push_a0(-1);
 589              		.loc 1 64 21
  64:src/riscv.cpp ****                     if (!(*semAddr))push_a0(-1);
 590              		.loc 1 64 46 is_stmt 0
 591 0234 13050002 		li	a0,32
 592 0238 97000000 		call	_Znwm@plt
 592      E7800000 
 593              	.LVL40:
 594              	.LBB109:
 595              	.LBB110:
 596              	.LBB111:
 597              	.LBB112:
 598              		.file 4 "src/../h/list.hpp"
   1:src/../h/list.hpp **** #ifndef PROJECT_BASE_V1_1_LIST_HPP
   2:src/../h/list.hpp **** #define PROJECT_BASE_V1_1_LIST_HPP
   3:src/../h/list.hpp **** 
   4:src/../h/list.hpp **** template<typename T>
   5:src/../h/list.hpp **** class List {
   6:src/../h/list.hpp **** private:
   7:src/../h/list.hpp ****     struct Elem {
   8:src/../h/list.hpp ****         T *data;
   9:src/../h/list.hpp ****         Elem *next;
  10:src/../h/list.hpp **** 
  11:src/../h/list.hpp ****         Elem(T *data, Elem *next) : data(data), next(next) {}
  12:src/../h/list.hpp ****     };
  13:src/../h/list.hpp **** 
  14:src/../h/list.hpp ****     Elem *head, *tail;
  15:src/../h/list.hpp **** 
  16:src/../h/list.hpp **** public:
  17:src/../h/list.hpp ****     List() : head(0), tail(0) {}
 599              		.loc 4 17 29
 600 0240 23340500 		sd	zero,8(a0)
 601 0244 23380500 		sd	zero,16(a0)
 602              	.LVL41:
GAS LISTING /tmp/cc3itBW5.s 			page 20


 603              	.LBE112:
 604              	.LBE111:
 605              		.file 5 "src/../h/../h/_sem.hpp"
   1:src/../h/../h/_sem.hpp **** #ifndef PROJECT_BASE_V1_1__SEM_HPP
   2:src/../h/../h/_sem.hpp **** #define PROJECT_BASE_V1_1__SEM_HPP
   3:src/../h/../h/_sem.hpp **** 
   4:src/../h/../h/_sem.hpp **** #include "_thread.hpp"
   5:src/../h/../h/_sem.hpp **** 
   6:src/../h/../h/_sem.hpp **** class _sem {
   7:src/../h/../h/_sem.hpp **** private:
   8:src/../h/../h/_sem.hpp ****     int value;
   9:src/../h/../h/_sem.hpp ****     List<_thread> waitQueue;
  10:src/../h/../h/_sem.hpp ****     bool valid;
  11:src/../h/../h/_sem.hpp **** 
  12:src/../h/../h/_sem.hpp **** public:
  13:src/../h/../h/_sem.hpp ****     _sem(int initial_value) {
  14:src/../h/../h/_sem.hpp ****         value = initial_value;
 606              		.loc 5 14 9 is_stmt 1
 607              		.loc 5 14 15 is_stmt 0
 608 0248 23202501 		sw	s2,0(a0)
  15:src/../h/../h/_sem.hpp ****         valid = true;
 609              		.loc 5 15 9 is_stmt 1
 610              		.loc 5 15 15 is_stmt 0
 611 024c 93071000 		li	a5,1
 612 0250 230CF500 		sb	a5,24(a0)
 613              	.LVL42:
 614              	.LBE110:
 615              	.LBE109:
  64:src/riscv.cpp ****                     if (!(*semAddr))push_a0(-1);
 616              		.loc 1 64 30
 617 0254 23B0A400 		sd	a0,0(s1)
  65:src/riscv.cpp ****                     push_a0(0);
 618              		.loc 1 65 21 is_stmt 1
 619 0258 63080500 		beqz	a0,.L38
 620              	.L30:
  66:src/riscv.cpp ****                     break;
 621              		.loc 1 66 21
 622              	.LVL43:
 623              	.LBB113:
 624              	.LBB114:
 243:src/../h/riscv.hpp **** }
 625              		.loc 2 243 5
 243:src/../h/riscv.hpp **** }
 626              		.loc 2 243 53 is_stmt 0
 627 025c 93070000 		li	a5,0
 628              	#APP
 629              	# 243 "src/../h/riscv.hpp" 1
 630              		sd a5, 10*8(fp)
 631              	# 0 "" 2
 632              		.loc 2 244 1
 633              	#NO_APP
 634 0264 6FF09FED 		j	.L9
 635              	.LVL44:
 636              	.L38:
 637              	.LBE114:
 638              	.LBE113:
  65:src/riscv.cpp ****                     push_a0(0);
GAS LISTING /tmp/cc3itBW5.s 			page 21


 639              		.loc 1 65 37 is_stmt 1
 640              	.LBB115:
 641              	.LBB116:
 243:src/../h/riscv.hpp **** }
 642              		.loc 2 243 5
 243:src/../h/riscv.hpp **** }
 643              		.loc 2 243 53 is_stmt 0
 644 0268 9307F0FF 		li	a5,-1
 645              	#APP
 646              	# 243 "src/../h/riscv.hpp" 1
 647              		sd a5, 10*8(fp)
 648              	# 0 "" 2
 649              		.loc 2 244 1
 650              	#NO_APP
 651 0270 6FF0DFFE 		j	.L30
 652              	.LVL45:
 653              	.L16:
 654              	.LBE116:
 655              	.LBE115:
  68:src/riscv.cpp ****                     push_a0(((_sem *) a1)->close());
 656              		.loc 1 68 17 is_stmt 1
  69:src/riscv.cpp ****                     break;
 657              		.loc 1 69 21
  69:src/riscv.cpp ****                     break;
 658              		.loc 1 69 49 is_stmt 0
 659 0274 13850400 		mv	a0,s1
 660 0278 97000000 		call	_ZN4_sem5closeEv@plt
 660      E7800000 
 661              	.LVL46:
 662              	.LBB117:
 663              	.LBB118:
 243:src/../h/riscv.hpp **** }
 664              		.loc 2 243 5 is_stmt 1
 243:src/../h/riscv.hpp **** }
 665              		.loc 2 243 53 is_stmt 0
 666              	#APP
 667              	# 243 "src/../h/riscv.hpp" 1
 668              		sd a0, 10*8(fp)
 669              	# 0 "" 2
 670              		.loc 2 244 1
 671              	#NO_APP
 672 0284 6FF09FEB 		j	.L9
 673              	.LVL47:
 674              	.L15:
 675              	.LBE118:
 676              	.LBE117:
  71:src/riscv.cpp ****                     sem = (_sem *) a1;
 677              		.loc 1 71 17 is_stmt 1
  72:src/riscv.cpp ****                     push_a0(sem->wait());
 678              		.loc 1 72 21
  73:src/riscv.cpp ****                     break;
 679              		.loc 1 73 21
  73:src/riscv.cpp ****                     break;
 680              		.loc 1 73 38 is_stmt 0
 681 0288 13850400 		mv	a0,s1
 682 028c 97000000 		call	_ZN4_sem4waitEv@plt
 682      E7800000 
GAS LISTING /tmp/cc3itBW5.s 			page 22


 683              	.LVL48:
 684              	.LBB119:
 685              	.LBB120:
 243:src/../h/riscv.hpp **** }
 686              		.loc 2 243 5 is_stmt 1
 243:src/../h/riscv.hpp **** }
 687              		.loc 2 243 53 is_stmt 0
 688              	#APP
 689              	# 243 "src/../h/riscv.hpp" 1
 690              		sd a0, 10*8(fp)
 691              	# 0 "" 2
 692              		.loc 2 244 1
 693              	#NO_APP
 694 0298 6FF05FEA 		j	.L9
 695              	.LVL49:
 696              	.L14:
 697              	.LBE120:
 698              	.LBE119:
  75:src/riscv.cpp ****                     push_a0(((_sem *) a1)->signal());
 699              		.loc 1 75 17 is_stmt 1
  76:src/riscv.cpp ****                     break;
 700              		.loc 1 76 21
  76:src/riscv.cpp ****                     break;
 701              		.loc 1 76 50 is_stmt 0
 702 029c 13850400 		mv	a0,s1
 703 02a0 97000000 		call	_ZN4_sem6signalEv@plt
 703      E7800000 
 704              	.LVL50:
 705              	.LBB121:
 706              	.LBB122:
 243:src/../h/riscv.hpp **** }
 707              		.loc 2 243 5 is_stmt 1
 243:src/../h/riscv.hpp **** }
 708              		.loc 2 243 53 is_stmt 0
 709              	#APP
 710              	# 243 "src/../h/riscv.hpp" 1
 711              		sd a0, 10*8(fp)
 712              	# 0 "" 2
 713              		.loc 2 244 1
 714              	#NO_APP
 715 02ac 6FF01FE9 		j	.L9
 716              	.LVL51:
 717              	.L13:
 718              	.LBE122:
 719              	.LBE121:
  78:src/riscv.cpp ****                     c = __getc();
 720              		.loc 1 78 17 is_stmt 1
  79:src/riscv.cpp ****                     push_a0((char) c);
 721              		.loc 1 79 21
  79:src/riscv.cpp ****                     push_a0((char) c);
 722              		.loc 1 79 31 is_stmt 0
 723 02b0 97000000 		call	__getc@plt
 723      E7800000 
 724              	.LVL52:
  80:src/riscv.cpp ****                     break;
 725              		.loc 1 80 21 is_stmt 1
 726              	.LBB123:
GAS LISTING /tmp/cc3itBW5.s 			page 23


 727              	.LBB124:
 243:src/../h/riscv.hpp **** }
 728              		.loc 2 243 5
 243:src/../h/riscv.hpp **** }
 729              		.loc 2 243 53 is_stmt 0
 730              	#APP
 731              	# 243 "src/../h/riscv.hpp" 1
 732              		sd a0, 10*8(fp)
 733              	# 0 "" 2
 734              		.loc 2 244 1
 735              	#NO_APP
 736 02bc 6FF01FE8 		j	.L9
 737              	.LVL53:
 738              	.L12:
 739              	.LBE124:
 740              	.LBE123:
  82:src/riscv.cpp ****                     __putc((char) a3);
 741              		.loc 1 82 17 is_stmt 1
  83:src/riscv.cpp ****                     break;
 742              		.loc 1 83 21
  83:src/riscv.cpp ****                     break;
 743              		.loc 1 83 27 is_stmt 0
 744 02c0 13F5F90F 		andi	a0,s3,0xff
 745 02c4 97000000 		call	__putc@plt
 745      E7800000 
 746              	.LVL54:
  84:src/riscv.cpp ****                 case 0x51:
 747              		.loc 1 84 21 is_stmt 1
 748 02cc 6FF01FE7 		j	.L9
 749              	.L10:
  85:src/riscv.cpp ****                     w_sstatus(sstatus);
 750              		.loc 1 85 17
  86:src/riscv.cpp ****                     mc_sstatus(1 << 8);
 751              		.loc 1 86 21
 752              	.LVL55:
 753              	.LBB125:
 754              	.LBB126:
 191:src/../h/riscv.hpp **** }
 755              		.loc 2 191 5
 191:src/../h/riscv.hpp **** }
 756              		.loc 2 191 77 is_stmt 0
 757              	#APP
 758              	# 191 "src/../h/riscv.hpp" 1
 759              		csrw sstatus, s4
 760              	# 0 "" 2
 761              	.LVL56:
 762              	#NO_APP
 763              	.LBE126:
 764              	.LBE125:
  87:src/riscv.cpp ****                     w_sepc(sepc + 4);
 765              		.loc 1 87 21 is_stmt 1
 766              	.LBB127:
 767              	.LBB128:
 181:src/../h/riscv.hpp **** }
 768              		.loc 2 181 5
 181:src/../h/riscv.hpp **** }
 769              		.loc 2 181 68 is_stmt 0
GAS LISTING /tmp/cc3itBW5.s 			page 24


 770 02d4 93070010 		li	a5,256
 771              	#APP
 772              	# 181 "src/../h/riscv.hpp" 1
 773              		csrc sstatus, a5
 774              	# 0 "" 2
 775              	.LVL57:
 776              	#NO_APP
 777              	.LBE128:
 778              	.LBE127:
  88:src/riscv.cpp ****                     return;
 779              		.loc 1 88 21 is_stmt 1
  88:src/riscv.cpp ****                     return;
 780              		.loc 1 88 27 is_stmt 0
 781 02dc 13078700 		addi	a4,a4,8
 782              	.LVL58:
 783              	.LBB129:
 784              	.LBB130:
 135:src/../h/riscv.hpp **** }
 785              		.loc 2 135 5 is_stmt 1
 135:src/../h/riscv.hpp **** }
 786              		.loc 2 135 65 is_stmt 0
 787              	#APP
 788              	# 135 "src/../h/riscv.hpp" 1
 136:src/../h/riscv.hpp **** 
 789              		csrw sepc, a4
 790              	# 0 "" 2
 791              		.loc 2 136 1
 792              	#NO_APP
 793 02e4 6F00C000 		j	.L3
 794              	.LVL59:
 795              	.L4:
 796              	.LBE130:
 797              	.LBE129:
  99:src/riscv.cpp ****             //timer interrupt
 798              		.loc 1 99 9 is_stmt 1
 101:src/riscv.cpp ****             break;
 799              		.loc 1 101 13
 800              	.LBB131:
 801              	.LBB132:
 163:src/../h/riscv.hpp **** }
 802              		.loc 2 163 5
 163:src/../h/riscv.hpp **** }
 803              		.loc 2 163 64 is_stmt 0
 804 02e8 93072000 		li	a5,2
 805              	.LVL60:
 806              	#APP
 807              	# 163 "src/../h/riscv.hpp" 1
 808              		csrc sip, a5
 809              	# 0 "" 2
 810              	.LVL61:
 811              	#NO_APP
 812              	.L3:
 813              	.LBE132:
 814              	.LBE131:
 815              	.LBE133:
 816              	.LBE83:
 107:src/riscv.cpp ****         default:
GAS LISTING /tmp/cc3itBW5.s 			page 25


 108:src/riscv.cpp ****             return;
 109:src/riscv.cpp **** 
 110:src/riscv.cpp ****     }
 111:src/riscv.cpp **** 
 112:src/riscv.cpp **** }...
 817              		.loc 1 112 1
 818 02f0 83308108 		ld	ra,136(sp)
 819              		.cfi_remember_state
 820              		.cfi_restore 1
 821 02f4 03340108 		ld	s0,128(sp)
 822              		.cfi_restore 8
 823              		.cfi_def_cfa 2, 144
 824 02f8 83348107 		ld	s1,120(sp)
 825              		.cfi_restore 9
 826              	.LVL62:
 827 02fc 03390107 		ld	s2,112(sp)
 828              		.cfi_restore 18
 829 0300 83398106 		ld	s3,104(sp)
 830              		.cfi_restore 19
 831              	.LVL63:
 832 0304 033A0106 		ld	s4,96(sp)
 833              		.cfi_restore 20
 834 0308 833A8105 		ld	s5,88(sp)
 835              		.cfi_restore 21
 836 030c 033B0105 		ld	s6,80(sp)
 837              		.cfi_restore 22
 838 0310 833B8104 		ld	s7,72(sp)
 839              		.cfi_restore 23
 840 0314 033C0104 		ld	s8,64(sp)
 841              		.cfi_restore 24
 842 0318 13010109 		addi	sp,sp,144
 843              		.cfi_def_cfa_offset 0
 844 031c 67800000 		jr	ra
 845              	.LVL64:
 846              	.L33:
 847              		.cfi_restore_state
 848 0320 93040500 		mv	s1,a0
 849              	.LVL65:
 850              	.LBB135:
 851              	.LBB134:
  46:src/riscv.cpp ****                     (*handleAddr) = new _thread((_thread::Body) a1, (void *) a2, stack);
 852              		.loc 1 46 87
 853 0324 13050B00 		mv	a0,s6
 854 0328 97000000 		call	_ZdlPv@plt
 854      E7800000 
 855              	.LVL66:
 856 0330 13850400 		mv	a0,s1
 857 0334 97000000 		call	_Unwind_Resume@plt
 857      E7800000 
 858              	.LVL67:
 859              	.LEHE2:
 860              	.LBE134:
 861              	.LBE135:
 862              		.cfi_endproc
 863              	.LFE49:
 864              		.globl	__gxx_personality_v0
 865              		.section	.gcc_except_table,"a",@progbits
GAS LISTING /tmp/cc3itBW5.s 			page 26


 866              	.LLSDA49:
 867 0000 FF       		.byte	0xff
 868 0001 FF       		.byte	0xff
 869 0002 03       		.byte	0x3
 870 0003 27       		.byte	0x27
 871 0004 00000000 		.4byte	.LEHB0-.LFB49
 872 0008 00000000 		.4byte	.LEHE0-.LEHB0
 873 000c 00000000 		.4byte	0
 874 0010 00       		.byte	0
 875 0011 00000000 		.4byte	.LEHB1-.LFB49
 876 0015 00000000 		.4byte	.LEHE1-.LEHB1
 877 0019 00000000 		.4byte	.L33-.LFB49
 878 001d 00       		.byte	0
 879 001e 00000000 		.4byte	.LEHB2-.LFB49
 880 0022 00000000 		.4byte	.LEHE2-.LEHB2
 881 0026 00000000 		.4byte	0
 882 002a 00       		.byte	0
 883              		.text
 885              		.weak	_ZGVZN15MemoryAllocator11getInstanceEvE8instance
 886              		.section	.bss._ZGVZN15MemoryAllocator11getInstanceEvE8instance,"awG",@nobits,_ZGVZN15MemoryAllocat
 887              		.align	3
 890              	_ZGVZN15MemoryAllocator11getInstanceEvE8instance:
 891 0000 00000000 		.zero	8
 891      00000000 
 892              		.text
 893              	.Letext0:
 894              		.file 6 "src/../h/../h/../lib/hw.h"
 895              		.file 7 "src/../h/Scheduler.hpp"
 896              		.file 8 "src/../h/_thread.hpp"
 897              		.file 9 "src/../h/../h/syscall_c.hpp"
 898              		.file 10 "src/../h/../h/../lib/console.h"
 4901              		.align	3
 4904              	DW.ref.__gxx_personality_v0:
 4905 0000 00000000 		.dword	__gxx_personality_v0
 4905      00000000 
 4906              		.ident	"GCC: (Ubuntu 9.4.0-1ubuntu1~20.04) 9.4.0"
 4907              		.section	.note.GNU-stack,"",@progbits
GAS LISTING /tmp/cc3itBW5.s 			page 27


DEFINED SYMBOLS
                            *ABS*:0000000000000000 riscv.cpp
     /tmp/cc3itBW5.s:9      .text:0000000000000000 _ZN5Riscv10popSppSpieEv
     /tmp/cc3itBW5.s:13     .text:0000000000000000 .L0 
     /tmp/cc3itBW5.s:14     .text:0000000000000000 .L0 
     /tmp/cc3itBW5.s:15     .text:0000000000000004 .L0 
     /tmp/cc3itBW5.s:17     .text:0000000000000008 .L0 
     /tmp/cc3itBW5.s:19     .text:000000000000000c .L0 
     /tmp/cc3itBW5.s:21     .text:000000000000000c .L0 
       src/riscv.cpp:5      .text:000000000000000c .L0 
     /tmp/cc3itBW5.s:27     .text:0000000000000010 .L0 
       src/riscv.cpp:6      .text:0000000000000010 .L0 
     /tmp/cc3itBW5.s:33     .text:0000000000000014 .L0 
     /tmp/cc3itBW5.s:34     .text:0000000000000018 .L0 
     /tmp/cc3itBW5.s:35     .text:0000000000000018 .L0 
     /tmp/cc3itBW5.s:37     .text:000000000000001c .L0 
     /tmp/cc3itBW5.s:39     .text:0000000000000020 .L0 
     /tmp/cc3itBW5.s:45     .text:0000000000000020 _ZN5Riscv11trapHandlerEv
     /tmp/cc3itBW5.s:48     .text:0000000000000020 .L0 
     /tmp/cc3itBW5.s:4904   .data.rel.local.DW.ref.__gxx_personality_v0:0000000000000000 DW.ref.__gxx_personality_v0
     /tmp/cc3itBW5.s:51     .text:0000000000000020 .L0 
     /tmp/cc3itBW5.s:52     .text:0000000000000024 .L0 
     /tmp/cc3itBW5.s:63     .text:000000000000004c .L0 
     /tmp/cc3itBW5.s:64     .text:000000000000004c .L0 
     /tmp/cc3itBW5.s:65     .text:000000000000004c .L0 
     /tmp/cc3itBW5.s:66     .text:000000000000004c .L0 
     /tmp/cc3itBW5.s:67     .text:000000000000004c .L0 
     /tmp/cc3itBW5.s:68     .text:000000000000004c .L0 
     /tmp/cc3itBW5.s:69     .text:000000000000004c .L0 
     /tmp/cc3itBW5.s:70     .text:000000000000004c .L0 
     /tmp/cc3itBW5.s:71     .text:000000000000004c .L0 
     /tmp/cc3itBW5.s:72     .text:000000000000004c .L0 
     /tmp/cc3itBW5.s:74     .text:0000000000000050 .L0 
     /tmp/cc3itBW5.s:79     .text:0000000000000050 .L0 
     /tmp/cc3itBW5.s:80     .text:0000000000000050 .L0 
     /tmp/cc3itBW5.s:81     .text:0000000000000050 .L0 
  src/../h/riscv.hpp:120    .text:0000000000000050 .L0 
     /tmp/cc3itBW5.s:89     .text:0000000000000058 .L0 
     /tmp/cc3itBW5.s:90     .text:0000000000000058 .L0 
     /tmp/cc3itBW5.s:97     .text:000000000000005c .L0 
     /tmp/cc3itBW5.s:98     .text:000000000000005c .L0 
     /tmp/cc3itBW5.s:99     .text:000000000000005c .L0 
  src/../h/riscv.hpp:204    .text:000000000000005c .L0 
     /tmp/cc3itBW5.s:107    .text:0000000000000064 .L0 
     /tmp/cc3itBW5.s:108    .text:0000000000000064 .L0 
     /tmp/cc3itBW5.s:115    .text:0000000000000068 .L0 
     /tmp/cc3itBW5.s:116    .text:0000000000000068 .L0 
     /tmp/cc3itBW5.s:117    .text:0000000000000068 .L0 
  src/../h/riscv.hpp:214    .text:0000000000000068 .L0 
     /tmp/cc3itBW5.s:125    .text:0000000000000070 .L0 
     /tmp/cc3itBW5.s:126    .text:0000000000000070 .L0 
     /tmp/cc3itBW5.s:133    .text:0000000000000074 .L0 
     /tmp/cc3itBW5.s:134    .text:0000000000000074 .L0 
     /tmp/cc3itBW5.s:135    .text:0000000000000074 .L0 
  src/../h/riscv.hpp:224    .text:0000000000000074 .L0 
     /tmp/cc3itBW5.s:143    .text:000000000000007c .L0 
     /tmp/cc3itBW5.s:144    .text:000000000000007c .L0 
GAS LISTING /tmp/cc3itBW5.s 			page 28


     /tmp/cc3itBW5.s:151    .text:0000000000000080 .L0 
     /tmp/cc3itBW5.s:152    .text:0000000000000080 .L0 
     /tmp/cc3itBW5.s:153    .text:0000000000000080 .L0 
  src/../h/riscv.hpp:234    .text:0000000000000080 .L0 
     /tmp/cc3itBW5.s:161    .text:0000000000000088 .L0 
     /tmp/cc3itBW5.s:162    .text:0000000000000088 .L0 
     /tmp/cc3itBW5.s:167    .text:000000000000008c .L0 
     /tmp/cc3itBW5.s:168    .text:000000000000008c .L0 
     /tmp/cc3itBW5.s:170    .text:000000000000008c .L0 
     /tmp/cc3itBW5.s:184    .text:00000000000000b8 .L0 
     /tmp/cc3itBW5.s:185    .text:00000000000000b8 .L0 
     /tmp/cc3itBW5.s:188    .text:00000000000000b8 .L0 
     /tmp/cc3itBW5.s:189    .text:00000000000000b8 .L0 
     /tmp/cc3itBW5.s:190    .text:00000000000000b8 .L0 
  src/../h/riscv.hpp:130    .text:00000000000000b8 .L0 
     /tmp/cc3itBW5.s:199    .text:00000000000000c0 .L0 
     /tmp/cc3itBW5.s:200    .text:00000000000000c0 .L0 
     /tmp/cc3itBW5.s:204    .text:00000000000000c4 .L0 
     /tmp/cc3itBW5.s:209    .text:00000000000000c8 .L0 
     /tmp/cc3itBW5.s:210    .text:00000000000000c8 .L0 
     /tmp/cc3itBW5.s:211    .text:00000000000000c8 .L0 
  src/../h/riscv.hpp:186    .text:00000000000000c8 .L0 
     /tmp/cc3itBW5.s:219    .text:00000000000000d0 .L0 
     /tmp/cc3itBW5.s:220    .text:00000000000000d0 .L0 
     /tmp/cc3itBW5.s:225    .text:00000000000000d4 .L0 
     /tmp/cc3itBW5.s:226    .text:00000000000000d4 .L0 
     /tmp/cc3itBW5.s:227    .text:00000000000000d4 .L0 
     /tmp/cc3itBW5.s:228    .text:00000000000000d4 .L0 
     /tmp/cc3itBW5.s:229    .text:00000000000000d4 .L0 
     /tmp/cc3itBW5.s:230    .text:00000000000000d4 .L0 
     /tmp/cc3itBW5.s:231    .text:00000000000000d4 .L0 
     /tmp/cc3itBW5.s:232    .text:00000000000000d4 .L0 
     /tmp/cc3itBW5.s:332    .text:00000000000000f8 .L0 
     /tmp/cc3itBW5.s:338    .text:0000000000000108 .L0 
     /tmp/cc3itBW5.s:340    .text:0000000000000108 .L0 
     /tmp/cc3itBW5.s:341    .text:0000000000000108 .L0 
     /tmp/cc3itBW5.s:344    .text:0000000000000110 .L0 
     /tmp/cc3itBW5.s:348    .text:0000000000000114 .L0 
     /tmp/cc3itBW5.s:352    .text:0000000000000114 .L0 
     /tmp/cc3itBW5.s:353    .text:0000000000000114 .L0 
     /tmp/cc3itBW5.s:890    .bss._ZGVZN15MemoryAllocator11getInstanceEvE8instance:0000000000000000 _ZGVZN15MemoryAllocator11getInstanceEvE8instance
     /tmp/cc3itBW5.s:354    .text:0000000000000114 .L0 
     /tmp/cc3itBW5.s:364    .text:000000000000012c .L0 
     /tmp/cc3itBW5.s:365    .text:000000000000012c .L0 
     /tmp/cc3itBW5.s:371    .text:0000000000000138 .L0 
     /tmp/cc3itBW5.s:372    .text:0000000000000138 .L0 
  src/../h/riscv.hpp:243    .text:0000000000000138 .L0 
     /tmp/cc3itBW5.s:385    .text:000000000000013c .L0 
     /tmp/cc3itBW5.s:386    .text:000000000000013c .L0 
  src/../h/riscv.hpp:191    .text:000000000000013c .L0 
     /tmp/cc3itBW5.s:398    .text:0000000000000140 .L0 
     /tmp/cc3itBW5.s:399    .text:0000000000000140 .L0 
  src/../h/riscv.hpp:135    .text:0000000000000140 .L0 
     /tmp/cc3itBW5.s:406    .text:0000000000000144 .L0 
     /tmp/cc3itBW5.s:412    .text:0000000000000148 .L0 
     /tmp/cc3itBW5.s:415    .text:0000000000000148 .L0 
     /tmp/cc3itBW5.s:416    .text:0000000000000148 .L0 
GAS LISTING /tmp/cc3itBW5.s 			page 29


     /tmp/cc3itBW5.s:417    .text:0000000000000148 .L0 
     /tmp/cc3itBW5.s:427    .text:0000000000000160 .L0 
     /tmp/cc3itBW5.s:428    .text:0000000000000160 .L0 
     /tmp/cc3itBW5.s:434    .text:000000000000016c .L0 
  src/../h/riscv.hpp:243    .text:000000000000016c .L0 
     /tmp/cc3itBW5.s:441    .text:0000000000000170 .L0 
     /tmp/cc3itBW5.s:447    .text:0000000000000174 .L0 
     /tmp/cc3itBW5.s:448    .text:0000000000000174 .L0 
     /tmp/cc3itBW5.s:452    .text:0000000000000178 .L0 
     /tmp/cc3itBW5.s:453    .text:0000000000000178 .L0 
     /tmp/cc3itBW5.s:454    .text:0000000000000178 .L0 
     /tmp/cc3itBW5.s:464    .text:0000000000000190 .L0 
     /tmp/cc3itBW5.s:465    .text:0000000000000190 .L0 
     /tmp/cc3itBW5.s:472    .text:00000000000001a0 .L0 
     /tmp/cc3itBW5.s:473    .text:00000000000001a0 .L0 
     /tmp/cc3itBW5.s:474    .text:00000000000001a0 .L0 
     /tmp/cc3itBW5.s:490    .text:00000000000001c8 .L0 
     /tmp/cc3itBW5.s:495    .text:00000000000001d0 .L0 
     /tmp/cc3itBW5.s:497    .text:00000000000001d4 .L0 
     /tmp/cc3itBW5.s:499    .text:00000000000001d8 .L0 
     /tmp/cc3itBW5.s:500    .text:00000000000001d8 .L0 
     /tmp/cc3itBW5.s:506    .text:00000000000001e4 .L0 
     /tmp/cc3itBW5.s:507    .text:00000000000001e4 .L0 
     /tmp/cc3itBW5.s:509    .text:00000000000001e8 .L0 
     /tmp/cc3itBW5.s:515    .text:00000000000001ec .L0 
     /tmp/cc3itBW5.s:516    .text:00000000000001ec .L0 
     /tmp/cc3itBW5.s:517    .text:00000000000001ec .L0 
     /tmp/cc3itBW5.s:524    .text:00000000000001f4 .L0 
     /tmp/cc3itBW5.s:532    .text:00000000000001f8 .L0 
     /tmp/cc3itBW5.s:533    .text:00000000000001f8 .L0 
     /tmp/cc3itBW5.s:534    .text:00000000000001f8 .L0 
     /tmp/cc3itBW5.s:541    .text:0000000000000200 .L0 
     /tmp/cc3itBW5.s:547    .text:0000000000000204 .L0 
     /tmp/cc3itBW5.s:548    .text:0000000000000204 .L0 
     /tmp/cc3itBW5.s:549    .text:0000000000000204 .L0 
     /tmp/cc3itBW5.s:554    .text:000000000000020c .L0 
  src/../h/riscv.hpp:243    .text:000000000000020c .L0 
     /tmp/cc3itBW5.s:561    .text:0000000000000210 .L0 
     /tmp/cc3itBW5.s:567    .text:0000000000000214 .L0 
     /tmp/cc3itBW5.s:568    .text:0000000000000214 .L0 
     /tmp/cc3itBW5.s:569    .text:0000000000000214 .L0 
     /tmp/cc3itBW5.s:572    .text:000000000000021c .L0 
     /tmp/cc3itBW5.s:575    .text:0000000000000220 .L0 
     /tmp/cc3itBW5.s:576    .text:0000000000000220 .L0 
     /tmp/cc3itBW5.s:577    .text:0000000000000220 .L0 
     /tmp/cc3itBW5.s:581    .text:000000000000022c .L0 
     /tmp/cc3itBW5.s:584    .text:0000000000000230 .L0 
     /tmp/cc3itBW5.s:585    .text:0000000000000230 .L0 
     /tmp/cc3itBW5.s:586    .text:0000000000000230 .L0 
     /tmp/cc3itBW5.s:589    .text:0000000000000234 .L0 
     /tmp/cc3itBW5.s:590    .text:0000000000000234 .L0 
     /tmp/cc3itBW5.s:591    .text:0000000000000234 .L0 
     /tmp/cc3itBW5.s:600    .text:0000000000000240 .L0 
     /tmp/cc3itBW5.s:607    .text:0000000000000248 .L0 
     /tmp/cc3itBW5.s:608    .text:0000000000000248 .L0 
     /tmp/cc3itBW5.s:610    .text:000000000000024c .L0 
     /tmp/cc3itBW5.s:611    .text:000000000000024c .L0 
GAS LISTING /tmp/cc3itBW5.s 			page 30


     /tmp/cc3itBW5.s:617    .text:0000000000000254 .L0 
     /tmp/cc3itBW5.s:619    .text:0000000000000258 .L0 
     /tmp/cc3itBW5.s:625    .text:000000000000025c .L0 
     /tmp/cc3itBW5.s:626    .text:000000000000025c .L0 
     /tmp/cc3itBW5.s:627    .text:000000000000025c .L0 
     /tmp/cc3itBW5.s:634    .text:0000000000000264 .L0 
     /tmp/cc3itBW5.s:642    .text:0000000000000268 .L0 
     /tmp/cc3itBW5.s:643    .text:0000000000000268 .L0 
     /tmp/cc3itBW5.s:644    .text:0000000000000268 .L0 
     /tmp/cc3itBW5.s:651    .text:0000000000000270 .L0 
     /tmp/cc3itBW5.s:657    .text:0000000000000274 .L0 
     /tmp/cc3itBW5.s:658    .text:0000000000000274 .L0 
     /tmp/cc3itBW5.s:659    .text:0000000000000274 .L0 
     /tmp/cc3itBW5.s:665    .text:0000000000000280 .L0 
  src/../h/riscv.hpp:243    .text:0000000000000280 .L0 
     /tmp/cc3itBW5.s:672    .text:0000000000000284 .L0 
     /tmp/cc3itBW5.s:678    .text:0000000000000288 .L0 
     /tmp/cc3itBW5.s:679    .text:0000000000000288 .L0 
     /tmp/cc3itBW5.s:680    .text:0000000000000288 .L0 
     /tmp/cc3itBW5.s:681    .text:0000000000000288 .L0 
     /tmp/cc3itBW5.s:687    .text:0000000000000294 .L0 
  src/../h/riscv.hpp:243    .text:0000000000000294 .L0 
     /tmp/cc3itBW5.s:694    .text:0000000000000298 .L0 
     /tmp/cc3itBW5.s:700    .text:000000000000029c .L0 
     /tmp/cc3itBW5.s:701    .text:000000000000029c .L0 
     /tmp/cc3itBW5.s:702    .text:000000000000029c .L0 
     /tmp/cc3itBW5.s:708    .text:00000000000002a8 .L0 
  src/../h/riscv.hpp:243    .text:00000000000002a8 .L0 
     /tmp/cc3itBW5.s:715    .text:00000000000002ac .L0 
     /tmp/cc3itBW5.s:721    .text:00000000000002b0 .L0 
     /tmp/cc3itBW5.s:722    .text:00000000000002b0 .L0 
     /tmp/cc3itBW5.s:723    .text:00000000000002b0 .L0 
     /tmp/cc3itBW5.s:728    .text:00000000000002b8 .L0 
     /tmp/cc3itBW5.s:729    .text:00000000000002b8 .L0 
  src/../h/riscv.hpp:243    .text:00000000000002b8 .L0 
     /tmp/cc3itBW5.s:736    .text:00000000000002bc .L0 
     /tmp/cc3itBW5.s:742    .text:00000000000002c0 .L0 
     /tmp/cc3itBW5.s:743    .text:00000000000002c0 .L0 
     /tmp/cc3itBW5.s:744    .text:00000000000002c0 .L0 
     /tmp/cc3itBW5.s:748    .text:00000000000002cc .L0 
     /tmp/cc3itBW5.s:751    .text:00000000000002d0 .L0 
     /tmp/cc3itBW5.s:755    .text:00000000000002d0 .L0 
     /tmp/cc3itBW5.s:756    .text:00000000000002d0 .L0 
  src/../h/riscv.hpp:191    .text:00000000000002d0 .L0 
     /tmp/cc3itBW5.s:768    .text:00000000000002d4 .L0 
     /tmp/cc3itBW5.s:769    .text:00000000000002d4 .L0 
     /tmp/cc3itBW5.s:770    .text:00000000000002d4 .L0 
     /tmp/cc3itBW5.s:780    .text:00000000000002dc .L0 
     /tmp/cc3itBW5.s:781    .text:00000000000002dc .L0 
     /tmp/cc3itBW5.s:786    .text:00000000000002e0 .L0 
  src/../h/riscv.hpp:135    .text:00000000000002e0 .L0 
     /tmp/cc3itBW5.s:793    .text:00000000000002e4 .L0 
     /tmp/cc3itBW5.s:799    .text:00000000000002e8 .L0 
     /tmp/cc3itBW5.s:802    .text:00000000000002e8 .L0 
     /tmp/cc3itBW5.s:803    .text:00000000000002e8 .L0 
     /tmp/cc3itBW5.s:804    .text:00000000000002e8 .L0 
     /tmp/cc3itBW5.s:818    .text:00000000000002f0 .L0 
GAS LISTING /tmp/cc3itBW5.s 			page 31


     /tmp/cc3itBW5.s:819    .text:00000000000002f4 .L0 
     /tmp/cc3itBW5.s:820    .text:00000000000002f4 .L0 
     /tmp/cc3itBW5.s:822    .text:00000000000002f8 .L0 
     /tmp/cc3itBW5.s:823    .text:00000000000002f8 .L0 
     /tmp/cc3itBW5.s:825    .text:00000000000002fc .L0 
     /tmp/cc3itBW5.s:828    .text:0000000000000300 .L0 
     /tmp/cc3itBW5.s:830    .text:0000000000000304 .L0 
     /tmp/cc3itBW5.s:833    .text:0000000000000308 .L0 
     /tmp/cc3itBW5.s:835    .text:000000000000030c .L0 
     /tmp/cc3itBW5.s:837    .text:0000000000000310 .L0 
     /tmp/cc3itBW5.s:839    .text:0000000000000314 .L0 
     /tmp/cc3itBW5.s:841    .text:0000000000000318 .L0 
     /tmp/cc3itBW5.s:843    .text:000000000000031c .L0 
     /tmp/cc3itBW5.s:847    .text:0000000000000320 .L0 
     /tmp/cc3itBW5.s:853    .text:0000000000000324 .L0 
     /tmp/cc3itBW5.s:862    .text:000000000000033c .L0 
     /tmp/cc3itBW5.s:899    .text:000000000000033c .L0 
     /tmp/cc3itBW5.s:244    .rodata:0000000000000000 .L11
     /tmp/cc3itBW5.s:236    .text:00000000000000e0 .L0 
     /tmp/cc3itBW5.s:354    .text:0000000000000114 .L0 
     /tmp/cc3itBW5.s:358    .text:0000000000000124 .L0 
     /tmp/cc3itBW5.s:417    .text:0000000000000148 .L0 
     /tmp/cc3itBW5.s:421    .text:0000000000000158 .L0 
     /tmp/cc3itBW5.s:454    .text:0000000000000178 .L0 
     /tmp/cc3itBW5.s:458    .text:0000000000000188 .L0 
     /tmp/cc3itBW5.s:795    .text:00000000000002e8 .L4
     /tmp/cc3itBW5.s:329    .text:00000000000000f8 .L5
     /tmp/cc3itBW5.s:812    .text:00000000000002f0 .L3
     /tmp/cc3itBW5.s:379    .text:000000000000013c .L9
     /tmp/cc3itBW5.s:360    .text:000000000000012c .L24
     /tmp/cc3itBW5.s:423    .text:0000000000000160 .L25
     /tmp/cc3itBW5.s:488    .text:00000000000001c8 .L32
     /tmp/cc3itBW5.s:460    .text:0000000000000190 .L27
     /tmp/cc3itBW5.s:493    .text:00000000000001d0 .L36
     /tmp/cc3itBW5.s:470    .text:00000000000001a0 .L26
     /tmp/cc3itBW5.s:504    .text:00000000000001e4 .L28
     /tmp/cc3itBW5.s:526    .text:00000000000001f8 .L37
     /tmp/cc3itBW5.s:510    .text:00000000000001ec .L29
     /tmp/cc3itBW5.s:636    .text:0000000000000268 .L38
     /tmp/cc3itBW5.s:620    .text:000000000000025c .L30
     /tmp/cc3itBW5.s:346    .text:0000000000000114 .L23
     /tmp/cc3itBW5.s:408    .text:0000000000000148 .L22
     /tmp/cc3itBW5.s:443    .text:0000000000000174 .L21
     /tmp/cc3itBW5.s:543    .text:0000000000000204 .L20
     /tmp/cc3itBW5.s:563    .text:0000000000000214 .L19
     /tmp/cc3itBW5.s:573    .text:0000000000000220 .L18
     /tmp/cc3itBW5.s:582    .text:0000000000000230 .L17
     /tmp/cc3itBW5.s:653    .text:0000000000000274 .L16
     /tmp/cc3itBW5.s:674    .text:0000000000000288 .L15
     /tmp/cc3itBW5.s:696    .text:000000000000029c .L14
     /tmp/cc3itBW5.s:717    .text:00000000000002b0 .L13
     /tmp/cc3itBW5.s:738    .text:00000000000002c0 .L12
     /tmp/cc3itBW5.s:749    .text:00000000000002d0 .L10
     /tmp/cc3itBW5.s:339    .text:0000000000000108 .LEHB0
     /tmp/cc3itBW5.s:46     .text:0000000000000020 .LFB49
     /tmp/cc3itBW5.s:477    .text:00000000000001ac .LEHE0
     /tmp/cc3itBW5.s:482    .text:00000000000001bc .LEHB1
GAS LISTING /tmp/cc3itBW5.s 			page 32


     /tmp/cc3itBW5.s:485    .text:00000000000001c4 .LEHE1
     /tmp/cc3itBW5.s:846    .text:0000000000000320 .L33
     /tmp/cc3itBW5.s:501    .text:00000000000001dc .LEHB2
     /tmp/cc3itBW5.s:859    .text:000000000000033c .LEHE2
     /tmp/cc3itBW5.s:3005   .debug_abbrev:0000000000000000 .Ldebug_abbrev0
     /tmp/cc3itBW5.s:4802   .debug_str:00000000000008ee .LASF193
     /tmp/cc3itBW5.s:4862   .debug_str:0000000000000b2a .LASF194
     /tmp/cc3itBW5.s:4810   .debug_str:00000000000009da .LASF195
     /tmp/cc3itBW5.s:5      .text:0000000000000000 .Ltext0
     /tmp/cc3itBW5.s:893    .text:000000000000033c .Letext0
     /tmp/cc3itBW5.s:4482   .debug_line:0000000000000000 .Ldebug_line0
     /tmp/cc3itBW5.s:4604   .debug_str:0000000000000359 .LASF0
     /tmp/cc3itBW5.s:4644   .debug_str:00000000000004b7 .LASF1
     /tmp/cc3itBW5.s:4734   .debug_str:000000000000076a .LASF2
     /tmp/cc3itBW5.s:4744   .debug_str:00000000000007ae .LASF4
     /tmp/cc3itBW5.s:4614   .debug_str:0000000000000392 .LASF3
     /tmp/cc3itBW5.s:4494   .debug_str:0000000000000054 .LASF5
     /tmp/cc3itBW5.s:4708   .debug_str:00000000000006a1 .LASF6
     /tmp/cc3itBW5.s:4632   .debug_str:0000000000000451 .LASF7
     /tmp/cc3itBW5.s:4582   .debug_str:000000000000029d .LASF8
     /tmp/cc3itBW5.s:4590   .debug_str:00000000000002ee .LASF9
     /tmp/cc3itBW5.s:4522   .debug_str:0000000000000103 .LASF10
     /tmp/cc3itBW5.s:4572   .debug_str:0000000000000257 .LASF11
     /tmp/cc3itBW5.s:4536   .debug_str:000000000000016d .LASF12
     /tmp/cc3itBW5.s:4520   .debug_str:00000000000000f3 .LASF13
     /tmp/cc3itBW5.s:4778   .debug_str:0000000000000890 .LASF14
     /tmp/cc3itBW5.s:4564   .debug_str:0000000000000209 .LASF15
     /tmp/cc3itBW5.s:4764   .debug_str:0000000000000821 .LASF16
     /tmp/cc3itBW5.s:4622   .debug_str:00000000000003f1 .LASF196
     /tmp/cc3itBW5.s:4642   .debug_str:00000000000004b2 .LASF17
     /tmp/cc3itBW5.s:4524   .debug_str:0000000000000112 .LASF18
     /tmp/cc3itBW5.s:4702   .debug_str:0000000000000674 .LASF27
     /tmp/cc3itBW5.s:4502   .debug_str:0000000000000088 .LASF112
     /tmp/cc3itBW5.s:4824   .debug_str:0000000000000a3d .LASF19
     /tmp/cc3itBW5.s:4770   .debug_str:0000000000000850 .LASF20
     /tmp/cc3itBW5.s:4864   .debug_str:0000000000000b38 .LASF30
     /tmp/cc3itBW5.s:4668   .debug_str:000000000000055a .LASF32
     /tmp/cc3itBW5.s:4508   .debug_str:00000000000000ba .LASF64
     /tmp/cc3itBW5.s:4888   .debug_str:0000000000000c06 .LASF66
     /tmp/cc3itBW5.s:4894   .debug_str:0000000000000c37 .LASF21
     /tmp/cc3itBW5.s:4588   .debug_str:00000000000002ce .LASF23
     /tmp/cc3itBW5.s:4664   .debug_str:0000000000000539 .LASF22
     /tmp/cc3itBW5.s:4698   .debug_str:000000000000064b .LASF24
     /tmp/cc3itBW5.s:4618   .debug_str:00000000000003d0 .LASF39
     /tmp/cc3itBW5.s:4736   .debug_str:0000000000000778 .LASF25
     /tmp/cc3itBW5.s:4828   .debug_str:0000000000000a4c .LASF26
     /tmp/cc3itBW5.s:4580   .debug_str:0000000000000293 .LASF28
     /tmp/cc3itBW5.s:4534   .debug_str:0000000000000162 .LASF29
     /tmp/cc3itBW5.s:4880   .debug_str:0000000000000bbf .LASF197
     /tmp/cc3itBW5.s:4624   .debug_str:00000000000003f7 .LASF198
     /tmp/cc3itBW5.s:4486   .debug_str:0000000000000019 .LASF31
     /tmp/cc3itBW5.s:4752   .debug_str:00000000000007dd .LASF33
     /tmp/cc3itBW5.s:4762   .debug_str:0000000000000813 .LASF34
     /tmp/cc3itBW5.s:4826   .debug_str:0000000000000a47 .LASF199
     /tmp/cc3itBW5.s:4772   .debug_str:000000000000085f .LASF35
     /tmp/cc3itBW5.s:4680   .debug_str:00000000000005aa .LASF36
     /tmp/cc3itBW5.s:4670   .debug_str:000000000000057e .LASF37
GAS LISTING /tmp/cc3itBW5.s 			page 33


     /tmp/cc3itBW5.s:4834   .debug_str:0000000000000a7f .LASF38
     /tmp/cc3itBW5.s:4722   .debug_str:0000000000000714 .LASF40
     /tmp/cc3itBW5.s:4592   .debug_str:00000000000002fc .LASF200
     /tmp/cc3itBW5.s:4640   .debug_str:00000000000004a9 .LASF41
     /tmp/cc3itBW5.s:4886   .debug_str:0000000000000be5 .LASF42
     /tmp/cc3itBW5.s:4654   .debug_str:0000000000000507 .LASF43
     /tmp/cc3itBW5.s:4838   .debug_str:0000000000000a9b .LASF44
     /tmp/cc3itBW5.s:4704   .debug_str:0000000000000684 .LASF45
     /tmp/cc3itBW5.s:4634   .debug_str:0000000000000464 .LASF46
     /tmp/cc3itBW5.s:4896   .debug_str:0000000000000c40 .LASF47
     /tmp/cc3itBW5.s:4872   .debug_str:0000000000000b7d .LASF48
     /tmp/cc3itBW5.s:4754   .debug_str:00000000000007f4 .LASF49
     /tmp/cc3itBW5.s:4574   .debug_str:0000000000000266 .LASF50
     /tmp/cc3itBW5.s:4726   .debug_str:0000000000000743 .LASF51
     /tmp/cc3itBW5.s:4530   .debug_str:000000000000013b .LASF52
     /tmp/cc3itBW5.s:4504   .debug_str:00000000000000a1 .LASF53
     /tmp/cc3itBW5.s:4786   .debug_str:00000000000008b1 .LASF201
     /tmp/cc3itBW5.s:4796   .debug_str:00000000000008d6 .LASF99
     /tmp/cc3itBW5.s:4516   .debug_str:00000000000000da .LASF54
     /tmp/cc3itBW5.s:4756   .debug_str:00000000000007ff .LASF55
     /tmp/cc3itBW5.s:4804   .debug_str:00000000000009b2 .LASF56
     /tmp/cc3itBW5.s:4512   .debug_str:00000000000000c4 .LASF57
     /tmp/cc3itBW5.s:4780   .debug_str:000000000000089c .LASF58
     /tmp/cc3itBW5.s:4638   .debug_str:0000000000000499 .LASF59
     /tmp/cc3itBW5.s:4788   .debug_str:00000000000008b9 .LASF60
     /tmp/cc3itBW5.s:4774   .debug_str:0000000000000864 .LASF61
     /tmp/cc3itBW5.s:4742   .debug_str:00000000000007a5 .LASF62
     /tmp/cc3itBW5.s:4690   .debug_str:000000000000060e .LASF63
     /tmp/cc3itBW5.s:4550   .debug_str:00000000000001d8 .LASF65
     /tmp/cc3itBW5.s:4540   .debug_str:000000000000018b .LASF67
     /tmp/cc3itBW5.s:4758   .debug_str:0000000000000807 .LASF68
     /tmp/cc3itBW5.s:4492   .debug_str:0000000000000041 .LASF69
     /tmp/cc3itBW5.s:4628   .debug_str:0000000000000426 .LASF70
     /tmp/cc3itBW5.s:4694   .debug_str:0000000000000635 .LASF202
     /tmp/cc3itBW5.s:4878   .debug_str:0000000000000bb9 .LASF71
     /tmp/cc3itBW5.s:4712   .debug_str:00000000000006c1 .LASF72
     /tmp/cc3itBW5.s:4800   .debug_str:00000000000008e6 .LASF203
     /tmp/cc3itBW5.s:4612   .debug_str:000000000000038d .LASF73
     /tmp/cc3itBW5.s:4626   .debug_str:0000000000000413 .LASF74
     /tmp/cc3itBW5.s:4538   .debug_str:000000000000017d .LASF204
     /tmp/cc3itBW5.s:4616   .debug_str:00000000000003a4 .LASF205
     /tmp/cc3itBW5.s:4832   .debug_str:0000000000000a77 .LASF166
     /tmp/cc3itBW5.s:4846   .debug_str:0000000000000ad0 .LASF168
     /tmp/cc3itBW5.s:4728   .debug_str:000000000000074c .LASF75
     /tmp/cc3itBW5.s:4548   .debug_str:00000000000001d3 .LASF76
     /tmp/cc3itBW5.s:4884   .debug_str:0000000000000bdf .LASF77
     /tmp/cc3itBW5.s:4784   .debug_str:00000000000008ac .LASF78
     /tmp/cc3itBW5.s:4814   .debug_str:0000000000000a02 .LASF79
     /tmp/cc3itBW5.s:4554   .debug_str:00000000000001e6 .LASF80
     /tmp/cc3itBW5.s:4790   .debug_str:00000000000008c4 .LASF81
     /tmp/cc3itBW5.s:4596   .debug_str:0000000000000322 .LASF82
     /tmp/cc3itBW5.s:4674   .debug_str:0000000000000593 .LASF83
     /tmp/cc3itBW5.s:4820   .debug_str:0000000000000a2e .LASF84
     /tmp/cc3itBW5.s:4514   .debug_str:00000000000000cd .LASF85
     /tmp/cc3itBW5.s:4710   .debug_str:00000000000006b4 .LASF86
     /tmp/cc3itBW5.s:4562   .debug_str:0000000000000203 .LASF87
     /tmp/cc3itBW5.s:4662   .debug_str:000000000000052c .LASF88
GAS LISTING /tmp/cc3itBW5.s 			page 34


     /tmp/cc3itBW5.s:4552   .debug_str:00000000000001e1 .LASF89
     /tmp/cc3itBW5.s:4672   .debug_str:0000000000000583 .LASF90
     /tmp/cc3itBW5.s:4782   .debug_str:00000000000008a5 .LASF91
     /tmp/cc3itBW5.s:4766   .debug_str:0000000000000837 .LASF92
     /tmp/cc3itBW5.s:4500   .debug_str:0000000000000082 .LASF93
     /tmp/cc3itBW5.s:4506   .debug_str:00000000000000a9 .LASF94
     /tmp/cc3itBW5.s:4808   .debug_str:00000000000009d0 .LASF95
     /tmp/cc3itBW5.s:4868   .debug_str:0000000000000b5a .LASF96
     /tmp/cc3itBW5.s:4660   .debug_str:0000000000000527 .LASF97
     /tmp/cc3itBW5.s:4842   .debug_str:0000000000000ac5 .LASF98
     /tmp/cc3itBW5.s:4856   .debug_str:0000000000000afd .LASF100
     /tmp/cc3itBW5.s:4648   .debug_str:00000000000004e3 .LASF101
     /tmp/cc3itBW5.s:4874   .debug_str:0000000000000b9c .LASF102
     /tmp/cc3itBW5.s:4594   .debug_str:0000000000000317 .LASF103
     /tmp/cc3itBW5.s:4602   .debug_str:0000000000000341 .LASF104
     /tmp/cc3itBW5.s:4750   .debug_str:00000000000007cf .LASF105
     /tmp/cc3itBW5.s:4566   .debug_str:000000000000021f .LASF106
     /tmp/cc3itBW5.s:4606   .debug_str:0000000000000366 .LASF107
     /tmp/cc3itBW5.s:4858   .debug_str:0000000000000b08 .LASF108
     /tmp/cc3itBW5.s:4822   .debug_str:0000000000000a34 .LASF109
     /tmp/cc3itBW5.s:4816   .debug_str:0000000000000a0a .LASF110
     /tmp/cc3itBW5.s:4730   .debug_str:0000000000000756 .LASF111
     /tmp/cc3itBW5.s:4688   .debug_str:00000000000005f9 .LASF113
     /tmp/cc3itBW5.s:4714   .debug_str:00000000000006d5 .LASF114
     /tmp/cc3itBW5.s:4720   .debug_str:0000000000000701 .LASF115
     /tmp/cc3itBW5.s:4682   .debug_str:00000000000005af .LASF116
     /tmp/cc3itBW5.s:4636   .debug_str:0000000000000486 .LASF117
     /tmp/cc3itBW5.s:4860   .debug_str:0000000000000b22 .LASF118
     /tmp/cc3itBW5.s:4806   .debug_str:00000000000009bc .LASF119
     /tmp/cc3itBW5.s:4678   .debug_str:00000000000005a2 .LASF120
     /tmp/cc3itBW5.s:4686   .debug_str:00000000000005e5 .LASF121
     /tmp/cc3itBW5.s:4650   .debug_str:00000000000004ec .LASF122
     /tmp/cc3itBW5.s:4724   .debug_str:000000000000072f .LASF123
     /tmp/cc3itBW5.s:4892   .debug_str:0000000000000c2f .LASF124
     /tmp/cc3itBW5.s:4610   .debug_str:0000000000000379 .LASF125
     /tmp/cc3itBW5.s:4542   .debug_str:00000000000001a2 .LASF126
     /tmp/cc3itBW5.s:4746   .debug_str:00000000000007b5 .LASF127
     /tmp/cc3itBW5.s:4748   .debug_str:00000000000007c8 .LASF128
     /tmp/cc3itBW5.s:4528   .debug_str:0000000000000128 .LASF129
     /tmp/cc3itBW5.s:4556   .debug_str:00000000000001ec .LASF130
     /tmp/cc3itBW5.s:4600   .debug_str:000000000000032f .LASF131
     /tmp/cc3itBW5.s:4608   .debug_str:0000000000000373 .LASF132
     /tmp/cc3itBW5.s:4546   .debug_str:00000000000001c1 .LASF133
     /tmp/cc3itBW5.s:4496   .debug_str:000000000000005b .LASF134
     /tmp/cc3itBW5.s:4738   .debug_str:0000000000000782 .LASF135
     /tmp/cc3itBW5.s:4732   .debug_str:000000000000075f .LASF136
     /tmp/cc3itBW5.s:4716   .debug_str:00000000000006dc .LASF137
     /tmp/cc3itBW5.s:4798   .debug_str:00000000000008dc .LASF138
     /tmp/cc3itBW5.s:4866   .debug_str:0000000000000b44 .LASF139
     /tmp/cc3itBW5.s:4840   .debug_str:0000000000000abb .LASF140
     /tmp/cc3itBW5.s:4666   .debug_str:0000000000000544 .LASF141
     /tmp/cc3itBW5.s:4760   .debug_str:000000000000080c .LASF142
     /tmp/cc3itBW5.s:4652   .debug_str:00000000000004f4 .LASF143
     /tmp/cc3itBW5.s:4578   .debug_str:000000000000028c .LASF144
     /tmp/cc3itBW5.s:4518   .debug_str:00000000000000e0 .LASF145
     /tmp/cc3itBW5.s:4818   .debug_str:0000000000000a1f .LASF146
     /tmp/cc3itBW5.s:4498   .debug_str:0000000000000066 .LASF147
GAS LISTING /tmp/cc3itBW5.s 			page 35


     /tmp/cc3itBW5.s:4850   .debug_str:0000000000000aee .LASF148
     /tmp/cc3itBW5.s:4696   .debug_str:000000000000063a .LASF149
     /tmp/cc3itBW5.s:4620   .debug_str:00000000000003ec .LASF150
     /tmp/cc3itBW5.s:4776   .debug_str:000000000000087f .LASF151
     /tmp/cc3itBW5.s:4852   .debug_str:0000000000000af3 .LASF152
     /tmp/cc3itBW5.s:4656   .debug_str:000000000000050f .LASF153
     /tmp/cc3itBW5.s:4676   .debug_str:000000000000059d .LASF154
     /tmp/cc3itBW5.s:4706   .debug_str:0000000000000690 .LASF155
     /tmp/cc3itBW5.s:4854   .debug_str:0000000000000af8 .LASF156
     /tmp/cc3itBW5.s:4490   .debug_str:0000000000000030 .LASF157
     /tmp/cc3itBW5.s:4510   .debug_str:00000000000000bf .LASF158
     /tmp/cc3itBW5.s:4630   .debug_str:0000000000000440 .LASF159
     /tmp/cc3itBW5.s:4700   .debug_str:000000000000066f .LASF160
     /tmp/cc3itBW5.s:4586   .debug_str:00000000000002bd .LASF161
     /tmp/cc3itBW5.s:4812   .debug_str:00000000000009fd .LASF162
     /tmp/cc3itBW5.s:4526   .debug_str:0000000000000117 .LASF163
     /tmp/cc3itBW5.s:4560   .debug_str:00000000000001fb .LASF164
     /tmp/cc3itBW5.s:4876   .debug_str:0000000000000ba5 .LASF165
     /tmp/cc3itBW5.s:4882   .debug_str:0000000000000bd3 .LASF167
     /tmp/cc3itBW5.s:4646   .debug_str:00000000000004ca .LASF169
     /tmp/cc3itBW5.s:4558   .debug_str:00000000000001f2 .LASF170
     /tmp/cc3itBW5.s:4576   .debug_str:0000000000000287 .LASF178
     /tmp/cc3itBW5.s:4568   .debug_str:000000000000023a .LASF180
     /tmp/cc3itBW5.s:863    .text:000000000000033c .LFE49
     /tmp/cc3itBW5.s:4768   .debug_str:0000000000000849 .LASF171
     /tmp/cc3itBW5.s:4150   .debug_loc:0000000000000000 .LLST0
     /tmp/cc3itBW5.s:4171   .debug_loc:000000000000005e .LLST1
     /tmp/cc3itBW5.s:4186   .debug_loc:00000000000000a7 .LLST2
     /tmp/cc3itBW5.s:4197   .debug_loc:00000000000000dd .LLST3
     /tmp/cc3itBW5.s:4216   .debug_loc:0000000000000139 .LLST4
     /tmp/cc3itBW5.s:4844   .debug_str:0000000000000acb .LASF172
     /tmp/cc3itBW5.s:4227   .debug_loc:000000000000016f .LLST5
     /tmp/cc3itBW5.s:4848   .debug_str:0000000000000ae6 .LASF173
     /tmp/cc3itBW5.s:4242   .debug_loc:00000000000001b8 .LLST6
     /tmp/cc3itBW5.s:4472   .debug_ranges:0000000000000000 .Ldebug_ranges0
     /tmp/cc3itBW5.s:4257   .debug_loc:0000000000000201 .LLST7
     /tmp/cc3itBW5.s:4264   .debug_loc:0000000000000224 .LLST8
     /tmp/cc3itBW5.s:4740   .debug_str:000000000000079a .LASF174
     /tmp/cc3itBW5.s:4279   .debug_loc:000000000000026d .LLST9
     /tmp/cc3itBW5.s:4794   .debug_str:00000000000008ce .LASF175
     /tmp/cc3itBW5.s:4294   .debug_loc:00000000000002b6 .LLST10
     /tmp/cc3itBW5.s:4301   .debug_loc:00000000000002d9 .LLST11
     /tmp/cc3itBW5.s:4308   .debug_loc:00000000000002fc .LLST12
     /tmp/cc3itBW5.s:4315   .debug_loc:000000000000031f .LLST13
     /tmp/cc3itBW5.s:186    .text:00000000000000b8 .LBB85
     /tmp/cc3itBW5.s:202    .text:00000000000000c4 .LBE85
     /tmp/cc3itBW5.s:207    .text:00000000000000c8 .LBB87
     /tmp/cc3itBW5.s:223    .text:00000000000000d4 .LBE87
     /tmp/cc3itBW5.s:349    .text:0000000000000114 .LBB89
     /tmp/cc3itBW5.s:363    .text:000000000000012c .LBE89
     /tmp/cc3itBW5.s:369    .text:0000000000000138 .LBB91
     /tmp/cc3itBW5.s:381    .text:000000000000013c .LBE91
     /tmp/cc3itBW5.s:383    .text:000000000000013c .LBB93
     /tmp/cc3itBW5.s:394    .text:0000000000000140 .LBE93
     /tmp/cc3itBW5.s:4322   .debug_loc:0000000000000342 .LLST15
     /tmp/cc3itBW5.s:396    .text:0000000000000140 .LBB95
     /tmp/cc3itBW5.s:410    .text:0000000000000148 .LBE95
GAS LISTING /tmp/cc3itBW5.s 			page 36


     /tmp/cc3itBW5.s:4329   .debug_loc:0000000000000365 .LLST16
     /tmp/cc3itBW5.s:413    .text:0000000000000148 .LBB97
     /tmp/cc3itBW5.s:426    .text:0000000000000160 .LBE97
     /tmp/cc3itBW5.s:431    .text:000000000000016c .LBB99
     /tmp/cc3itBW5.s:445    .text:0000000000000174 .LBE99
     /tmp/cc3itBW5.s:4336   .debug_loc:0000000000000388 .LLST17
     /tmp/cc3itBW5.s:450    .text:0000000000000178 .LBB101
     /tmp/cc3itBW5.s:463    .text:0000000000000190 .LBE101
     /tmp/cc3itBW5.s:513    .text:00000000000001ec .LBB103
     /tmp/cc3itBW5.s:528    .text:00000000000001f8 .LBE103
     /tmp/cc3itBW5.s:4343   .debug_loc:00000000000003ab .LLST18
     /tmp/cc3itBW5.s:530    .text:00000000000001f8 .LBB105
     /tmp/cc3itBW5.s:545    .text:0000000000000204 .LBE105
     /tmp/cc3itBW5.s:4351   .debug_loc:00000000000003cf .LLST19
     /tmp/cc3itBW5.s:551    .text:000000000000020c .LBB107
     /tmp/cc3itBW5.s:565    .text:0000000000000214 .LBE107
     /tmp/cc3itBW5.s:4360   .debug_loc:00000000000003f4 .LLST20
     /tmp/cc3itBW5.s:594    .text:0000000000000240 .LBB109
     /tmp/cc3itBW5.s:615    .text:0000000000000254 .LBE109
     /tmp/cc3itBW5.s:4367   .debug_loc:0000000000000417 .LLST21
     /tmp/cc3itBW5.s:4374   .debug_loc:000000000000043a .LLST22
     /tmp/cc3itBW5.s:596    .text:0000000000000240 .LBB111
     /tmp/cc3itBW5.s:604    .text:0000000000000248 .LBE111
     /tmp/cc3itBW5.s:4381   .debug_loc:000000000000045d .LLST23
     /tmp/cc3itBW5.s:623    .text:000000000000025c .LBB113
     /tmp/cc3itBW5.s:638    .text:0000000000000268 .LBE113
     /tmp/cc3itBW5.s:4390   .debug_loc:0000000000000482 .LLST24
     /tmp/cc3itBW5.s:640    .text:0000000000000268 .LBB115
     /tmp/cc3itBW5.s:655    .text:0000000000000274 .LBE115
     /tmp/cc3itBW5.s:4398   .debug_loc:00000000000004a6 .LLST25
     /tmp/cc3itBW5.s:662    .text:0000000000000280 .LBB117
     /tmp/cc3itBW5.s:676    .text:0000000000000288 .LBE117
     /tmp/cc3itBW5.s:4407   .debug_loc:00000000000004cb .LLST26
     /tmp/cc3itBW5.s:684    .text:0000000000000294 .LBB119
     /tmp/cc3itBW5.s:698    .text:000000000000029c .LBE119
     /tmp/cc3itBW5.s:4414   .debug_loc:00000000000004ee .LLST27
     /tmp/cc3itBW5.s:705    .text:00000000000002a8 .LBB121
     /tmp/cc3itBW5.s:719    .text:00000000000002b0 .LBE121
     /tmp/cc3itBW5.s:4421   .debug_loc:0000000000000511 .LLST28
     /tmp/cc3itBW5.s:726    .text:00000000000002b8 .LBB123
     /tmp/cc3itBW5.s:740    .text:00000000000002c0 .LBE123
     /tmp/cc3itBW5.s:753    .text:00000000000002d0 .LBB125
     /tmp/cc3itBW5.s:764    .text:00000000000002d4 .LBE125
     /tmp/cc3itBW5.s:4428   .debug_loc:0000000000000534 .LLST30
     /tmp/cc3itBW5.s:766    .text:00000000000002d4 .LBB127
     /tmp/cc3itBW5.s:778    .text:00000000000002dc .LBE127
     /tmp/cc3itBW5.s:4435   .debug_loc:0000000000000557 .LLST31
     /tmp/cc3itBW5.s:783    .text:00000000000002e0 .LBB129
     /tmp/cc3itBW5.s:797    .text:00000000000002e8 .LBE129
     /tmp/cc3itBW5.s:4444   .debug_loc:000000000000057d .LLST32
     /tmp/cc3itBW5.s:800    .text:00000000000002e8 .LBB131
     /tmp/cc3itBW5.s:814    .text:00000000000002f0 .LBE131
     /tmp/cc3itBW5.s:4451   .debug_loc:00000000000005a0 .LLST33
     /tmp/cc3itBW5.s:342    .text:0000000000000110 .LVL11
     /tmp/cc3itBW5.s:367    .text:0000000000000138 .LVL15
     /tmp/cc3itBW5.s:430    .text:000000000000016c .LVL21
     /tmp/cc3itBW5.s:467    .text:000000000000019c .LVL25
GAS LISTING /tmp/cc3itBW5.s 			page 37


     /tmp/cc3itBW5.s:476    .text:00000000000001ac .LVL27
     /tmp/cc3itBW5.s:484    .text:00000000000001c4 .LVL28
     /tmp/cc3itBW5.s:503    .text:00000000000001e4 .LVL31
     /tmp/cc3itBW5.s:550    .text:000000000000020c .LVL35
     /tmp/cc3itBW5.s:570    .text:000000000000021c .LVL37
     /tmp/cc3itBW5.s:579    .text:000000000000022c .LVL38
     /tmp/cc3itBW5.s:593    .text:0000000000000240 .LVL40
     /tmp/cc3itBW5.s:661    .text:0000000000000280 .LVL46
     /tmp/cc3itBW5.s:683    .text:0000000000000294 .LVL48
     /tmp/cc3itBW5.s:704    .text:00000000000002a8 .LVL50
     /tmp/cc3itBW5.s:724    .text:00000000000002b8 .LVL52
     /tmp/cc3itBW5.s:746    .text:00000000000002cc .LVL54
     /tmp/cc3itBW5.s:855    .text:0000000000000330 .LVL66
     /tmp/cc3itBW5.s:76     .text:0000000000000050 .LBB73
     /tmp/cc3itBW5.s:93     .text:000000000000005c .LBE73
     /tmp/cc3itBW5.s:95     .text:000000000000005c .LBB75
     /tmp/cc3itBW5.s:111    .text:0000000000000068 .LBE75
     /tmp/cc3itBW5.s:113    .text:0000000000000068 .LBB77
     /tmp/cc3itBW5.s:129    .text:0000000000000074 .LBE77
     /tmp/cc3itBW5.s:131    .text:0000000000000074 .LBB79
     /tmp/cc3itBW5.s:147    .text:0000000000000080 .LBE79
     /tmp/cc3itBW5.s:149    .text:0000000000000080 .LBB81
     /tmp/cc3itBW5.s:165    .text:000000000000008c .LBE81
     /tmp/cc3itBW5.s:858    .text:000000000000033c .LVL67
     /tmp/cc3itBW5.s:4792   .debug_str:00000000000008c9 .LASF176
     /tmp/cc3itBW5.s:10     .text:0000000000000000 .LFB48
     /tmp/cc3itBW5.s:40     .text:0000000000000020 .LFE48
     /tmp/cc3itBW5.s:4836   .debug_str:0000000000000a96 .LASF177
     /tmp/cc3itBW5.s:4870   .debug_str:0000000000000b6f .LASF179
     /tmp/cc3itBW5.s:4718   .debug_str:00000000000006f4 .LASF181
     /tmp/cc3itBW5.s:4532   .debug_str:0000000000000159 .LASF182
     /tmp/cc3itBW5.s:4684   .debug_str:00000000000005b6 .LASF206
     /tmp/cc3itBW5.s:4484   .debug_str:0000000000000000 .LASF183
     /tmp/cc3itBW5.s:4584   .debug_str:00000000000002ad .LASF184
     /tmp/cc3itBW5.s:4570   .debug_str:0000000000000251 .LASF187
     /tmp/cc3itBW5.s:4890   .debug_str:0000000000000c22 .LASF189
     /tmp/cc3itBW5.s:4598   .debug_str:0000000000000328 .LASF185
     /tmp/cc3itBW5.s:4658   .debug_str:0000000000000520 .LASF186
     /tmp/cc3itBW5.s:4692   .debug_str:000000000000062e .LASF188
     /tmp/cc3itBW5.s:4488   .debug_str:0000000000000020 .LASF190
     /tmp/cc3itBW5.s:4830   .debug_str:0000000000000a68 .LASF191
     /tmp/cc3itBW5.s:4544   .debug_str:00000000000001a9 .LASF192
     /tmp/cc3itBW5.s:91     .text:000000000000005c .LVL0
     /tmp/cc3itBW5.s:179    .text:00000000000000b0 .LVL5
     /tmp/cc3itBW5.s:195    .text:00000000000000bc .LVL6
     /tmp/cc3itBW5.s:328    .text:00000000000000f8 .LVL10
     /tmp/cc3itBW5.s:794    .text:00000000000002e8 .LVL59
     /tmp/cc3itBW5.s:805    .text:00000000000002ec .LVL60
     /tmp/cc3itBW5.s:109    .text:0000000000000068 .LVL1
     /tmp/cc3itBW5.s:235    .text:00000000000000e0 .LVL9
     /tmp/cc3itBW5.s:810    .text:00000000000002f0 .LVL61
     /tmp/cc3itBW5.s:127    .text:0000000000000074 .LVL2
     /tmp/cc3itBW5.s:826    .text:00000000000002fc .LVL62
     /tmp/cc3itBW5.s:845    .text:0000000000000320 .LVL64
     /tmp/cc3itBW5.s:849    .text:0000000000000324 .LVL65
     /tmp/cc3itBW5.s:145    .text:0000000000000080 .LVL3
     /tmp/cc3itBW5.s:377    .text:000000000000013c .LVL16
GAS LISTING /tmp/cc3itBW5.s 			page 38


     /tmp/cc3itBW5.s:407    .text:0000000000000148 .LVL18
     /tmp/cc3itBW5.s:587    .text:0000000000000234 .LVL39
     /tmp/cc3itBW5.s:652    .text:0000000000000274 .LVL45
     /tmp/cc3itBW5.s:163    .text:000000000000008c .LVL4
     /tmp/cc3itBW5.s:831    .text:0000000000000304 .LVL63
     /tmp/cc3itBW5.s:205    .text:00000000000000c8 .LVL7
     /tmp/cc3itBW5.s:345    .text:0000000000000114 .LVL12
     /tmp/cc3itBW5.s:221    .text:00000000000000d4 .LVL8
     /tmp/cc3itBW5.s:469    .text:00000000000001a0 .LVL26
     /tmp/cc3itBW5.s:487    .text:00000000000001c8 .LVL29
     /tmp/cc3itBW5.s:492    .text:00000000000001d0 .LVL30
     /tmp/cc3itBW5.s:542    .text:0000000000000204 .LVL34
     /tmp/cc3itBW5.s:673    .text:0000000000000288 .LVL47
     /tmp/cc3itBW5.s:695    .text:000000000000029c .LVL49
     /tmp/cc3itBW5.s:737    .text:00000000000002c0 .LVL53
     /tmp/cc3itBW5.s:391    .text:0000000000000140 .LVL17
     /tmp/cc3itBW5.s:442    .text:0000000000000174 .LVL22
     /tmp/cc3itBW5.s:512    .text:00000000000001ec .LVL32
     /tmp/cc3itBW5.s:525    .text:00000000000001f8 .LVL33
     /tmp/cc3itBW5.s:562    .text:0000000000000214 .LVL36
     /tmp/cc3itBW5.s:613    .text:0000000000000254 .LVL42
     /tmp/cc3itBW5.s:602    .text:0000000000000248 .LVL41
     /tmp/cc3itBW5.s:622    .text:000000000000025c .LVL43
     /tmp/cc3itBW5.s:635    .text:0000000000000268 .LVL44
     /tmp/cc3itBW5.s:716    .text:00000000000002b0 .LVL51
     /tmp/cc3itBW5.s:752    .text:00000000000002d0 .LVL55
     /tmp/cc3itBW5.s:761    .text:00000000000002d4 .LVL56
     /tmp/cc3itBW5.s:775    .text:00000000000002dc .LVL57
     /tmp/cc3itBW5.s:782    .text:00000000000002e0 .LVL58
     /tmp/cc3itBW5.s:900    .debug_info:0000000000000000 .Ldebug_info0
     /tmp/cc3itBW5.s:182    .text:00000000000000b8 .LBB84
     /tmp/cc3itBW5.s:330    .text:00000000000000f8 .LBE84
     /tmp/cc3itBW5.s:336    .text:0000000000000108 .LBB133
     /tmp/cc3itBW5.s:815    .text:00000000000002f0 .LBE133
     /tmp/cc3itBW5.s:851    .text:0000000000000324 .LBB134
     /tmp/cc3itBW5.s:860    .text:000000000000033c .LBE134
     /tmp/cc3itBW5.s:866    .gcc_except_table:0000000000000000 .LLSDA49

UNDEFINED SYMBOLS
console_handler
_ZN15MemoryAllocator8allocateEm
_ZN15MemoryAllocator10deallocateEPv
_Znwm
_ZN7_threadC1EPFvPvES0_Pm
_ZN9Scheduler3putEP7_thread
_ZN7_thread4exitEv
_ZN7_thread8dispatchEv
_ZN7_thread4joinEv
_ZN4_sem5closeEv
_ZN4_sem4waitEv
_ZN4_sem6signalEv
__getc
__putc
_ZdlPv
_Unwind_Resume
__gxx_personality_v0
