GAS LISTING /tmp/ccjEl64e.s 			page 1


   1              		.file	"Scheduler.cpp"
   2              		.option pic
   3              		.option norelax
   4              		.text
   5              	.Ltext0:
   6              		.align	2
   8              	_Z41__static_initialization_and_destruction_0ii:
   9              	.LFB20:
  10              		.file 1 "src/Scheduler.cpp"
   1:src/Scheduler.cpp **** //
   2:src/Scheduler.cpp **** // Created by os on 7/28/23.
   3:src/Scheduler.cpp **** //
   4:src/Scheduler.cpp **** 
   5:src/Scheduler.cpp **** #include "../h/Scheduler.hpp"
   6:src/Scheduler.cpp **** 
   7:src/Scheduler.cpp **** 
   8:src/Scheduler.cpp **** List<PCB> Scheduler::readyQueue;
   9:src/Scheduler.cpp **** 
  10:src/Scheduler.cpp **** PCB *Scheduler::get() {
  11:src/Scheduler.cpp ****     return Scheduler::readyQueue.removeFirst();
  12:src/Scheduler.cpp **** }
  13:src/Scheduler.cpp **** 
  14:src/Scheduler.cpp **** void Scheduler::put(PCB *handle) {
  15:src/Scheduler.cpp ****     Scheduler::readyQueue.addLast(handle);
  16:src/Scheduler.cpp **** }
  17:src/Scheduler.cpp **** 
  18:src/Scheduler.cpp **** uint64 Scheduler::remove() {
  19:src/Scheduler.cpp ****     return (uint64)Scheduler::readyQueue.removeLast();
  20:src/Scheduler.cpp **** }
  11              		.loc 1 20 1
  12              		.cfi_startproc
  13              	.LVL0:
  14 0000 130101FF 		addi	sp,sp,-16
  15              		.cfi_def_cfa_offset 16
  16 0004 23348100 		sd	s0,8(sp)
  17              		.cfi_offset 8, -8
  18 0008 13040101 		addi	s0,sp,16
  19              		.cfi_def_cfa 8, 0
  20              		.loc 1 20 1 is_stmt 0
  21 000c 93071000 		li	a5,1
  22 0010 6308F500 		beq	a0,a5,.L4
  23              	.L1:
  24 0014 03348100 		ld	s0,8(sp)
  25              		.cfi_remember_state
  26              		.cfi_restore 8
  27              		.cfi_def_cfa 2, 16
  28 0018 13010101 		addi	sp,sp,16
  29              		.cfi_def_cfa_offset 0
  30 001c 67800000 		jr	ra
  31              	.L4:
  32              		.cfi_restore_state
  33              		.loc 1 20 1 discriminator 1
  34 0020 B7070100 		li	a5,65536
  35 0024 9387F7FF 		addi	a5,a5,-1
  36 0028 E396F5FE 		bne	a1,a5,.L1
  37              	.LVL1:
  38              	.LBB15:
GAS LISTING /tmp/ccjEl64e.s 			page 2


  39              	.LBB16:
  40              	.LBB17:
  41              		.file 2 "src/../h/list.hpp"
   1:src/../h/list.hpp **** #ifndef PROJECT_BASE_V1_1_LIST_HPP
   2:src/../h/list.hpp **** #define PROJECT_BASE_V1_1_LIST_HPP
   3:src/../h/list.hpp **** 
   4:src/../h/list.hpp **** template<typename T>
   5:src/../h/list.hpp **** class List
   6:src/../h/list.hpp **** {
   7:src/../h/list.hpp **** private:
   8:src/../h/list.hpp ****     struct Elem
   9:src/../h/list.hpp ****     {
  10:src/../h/list.hpp ****         T *data;
  11:src/../h/list.hpp ****         Elem *next;
  12:src/../h/list.hpp **** 
  13:src/../h/list.hpp ****         Elem(T *data, Elem *next) : data(data), next(next) {}
  14:src/../h/list.hpp ****     };
  15:src/../h/list.hpp **** 
  16:src/../h/list.hpp ****     Elem *head, *tail;
  17:src/../h/list.hpp **** 
  18:src/../h/list.hpp **** public:
  19:src/../h/list.hpp ****     List() : head(0), tail(0) {}
  42              		.loc 2 19 29
  43 002c 97070000 		lla	a5,.LANCHOR0
  43      93870700 
  44 0034 23B00700 		sd	zero,0(a5)
  45 0038 23B40700 		sd	zero,8(a5)
  46              	.LVL2:
  47              	.LBE17:
  48              	.LBE16:
  49              	.LBE15:
  50              		.loc 1 20 1
  51 003c 6FF09FFD 		j	.L1
  52              		.cfi_endproc
  53              	.LFE20:
  55              		.align	2
  56              		.globl	_ZN9Scheduler3getEv
  58              	_ZN9Scheduler3getEv:
  59              	.LFB8:
  10:src/Scheduler.cpp ****     return Scheduler::readyQueue.removeFirst();
  60              		.loc 1 10 23 is_stmt 1
  61              		.cfi_startproc
  62 0040 130101FE 		addi	sp,sp,-32
  63              		.cfi_def_cfa_offset 32
  64 0044 233C1100 		sd	ra,24(sp)
  65 0048 23388100 		sd	s0,16(sp)
  66 004c 23349100 		sd	s1,8(sp)
  67              		.cfi_offset 1, -8
  68              		.cfi_offset 8, -16
  69              		.cfi_offset 9, -24
  70 0050 13040102 		addi	s0,sp,32
  71              		.cfi_def_cfa 8, 0
  11:src/Scheduler.cpp **** }
  72              		.loc 1 11 5
  73              	.LVL3:
  74              	.LBB18:
  75              	.LBB19:
GAS LISTING /tmp/ccjEl64e.s 			page 3


  20:src/../h/list.hpp **** 
  21:src/../h/list.hpp ****     List(const List<T> &) = delete;
  22:src/../h/list.hpp **** 
  23:src/../h/list.hpp ****     List<T> &operator=(const List<T> &) = delete;
  24:src/../h/list.hpp **** 
  25:src/../h/list.hpp ****     void addFirst(T *data)
  26:src/../h/list.hpp ****     {
  27:src/../h/list.hpp ****         Elem *elem = new Elem(data, head);
  28:src/../h/list.hpp ****         head = elem;
  29:src/../h/list.hpp ****         if (!tail) { tail = head; }
  30:src/../h/list.hpp ****     }
  31:src/../h/list.hpp **** 
  32:src/../h/list.hpp ****     void addLast(T *data)
  33:src/../h/list.hpp ****     {
  34:src/../h/list.hpp ****         Elem *elem = new Elem(data, 0);
  35:src/../h/list.hpp ****         if (tail)
  36:src/../h/list.hpp ****         {
  37:src/../h/list.hpp ****             tail->next = elem;
  38:src/../h/list.hpp ****             tail = elem;
  39:src/../h/list.hpp ****         } else
  40:src/../h/list.hpp ****         {
  41:src/../h/list.hpp ****             head = tail = elem;
  42:src/../h/list.hpp ****         }
  43:src/../h/list.hpp ****     }
  44:src/../h/list.hpp **** 
  45:src/../h/list.hpp ****     T *removeFirst()
  46:src/../h/list.hpp ****     {
  47:src/../h/list.hpp ****         if (!head) { return 0; }
  76              		.loc 2 47 14 is_stmt 0
  77 0054 17050000 		ld	a0,.LANCHOR0
  77      03350500 
  78              		.loc 2 47 9
  79 005c 63020504 		beqz	a0,.L8
  80              	.LVL4:
  48:src/../h/list.hpp **** 
  49:src/../h/list.hpp ****         Elem *elem = head;
  50:src/../h/list.hpp ****         head = head->next;
  81              		.loc 2 50 22
  82 0060 83378500 		ld	a5,8(a0)
  83              		.loc 2 50 9
  84 0064 17070000 		sd	a5,.LANCHOR0,a4
  84      2330F700 
  51:src/../h/list.hpp ****         if (!head) { tail = 0; }
  85              		.loc 2 51 9
  86 006c 63840702 		beqz	a5,.L10
  87              	.L7:
  52:src/../h/list.hpp **** 
  53:src/../h/list.hpp ****         T *ret = elem->data;
  88              		.loc 2 53 12
  89 0070 83340500 		ld	s1,0(a0)
  90              	.LVL5:
  54:src/../h/list.hpp ****         delete elem;
  91              		.loc 2 54 9
  92 0074 97000000 		call	_ZdlPv@plt
  92      E7800000 
  93              	.LVL6:
  94              	.L5:
GAS LISTING /tmp/ccjEl64e.s 			page 4


  95              	.LBE19:
  96              	.LBE18:
  12:src/Scheduler.cpp **** 
  97              		.loc 1 12 1
  98 007c 13850400 		mv	a0,s1
  99 0080 83308101 		ld	ra,24(sp)
 100              		.cfi_remember_state
 101              		.cfi_restore 1
 102 0084 03340101 		ld	s0,16(sp)
 103              		.cfi_restore 8
 104              		.cfi_def_cfa 2, 32
 105 0088 83348100 		ld	s1,8(sp)
 106              		.cfi_restore 9
 107 008c 13010102 		addi	sp,sp,32
 108              		.cfi_def_cfa_offset 0
 109 0090 67800000 		jr	ra
 110              	.LVL7:
 111              	.L10:
 112              		.cfi_restore_state
 113              	.LBB21:
 114              	.LBB20:
  51:src/../h/list.hpp **** 
 115              		.loc 2 51 22
 116 0094 97070000 		sd	zero,.LANCHOR0+8,a5
 116      23B00700 
 117 009c 6FF05FFD 		j	.L7
 118              	.LVL8:
 119              	.L8:
  47:src/../h/list.hpp **** 
 120              		.loc 2 47 29
 121 00a0 93040500 		mv	s1,a0
 122              	.LVL9:
 123              	.LBE20:
 124              	.LBE21:
  11:src/Scheduler.cpp **** }
 125              		.loc 1 11 46
 126 00a4 6FF09FFD 		j	.L5
 127              		.cfi_endproc
 128              	.LFE8:
 130              		.align	2
 131              		.globl	_ZN9Scheduler3putEP3PCB
 133              	_ZN9Scheduler3putEP3PCB:
 134              	.LFB9:
  14:src/Scheduler.cpp ****     Scheduler::readyQueue.addLast(handle);
 135              		.loc 1 14 34 is_stmt 1
 136              		.cfi_startproc
 137              	.LVL10:
 138 00a8 130101FE 		addi	sp,sp,-32
 139              		.cfi_def_cfa_offset 32
 140 00ac 233C1100 		sd	ra,24(sp)
 141 00b0 23388100 		sd	s0,16(sp)
 142 00b4 23349100 		sd	s1,8(sp)
 143              		.cfi_offset 1, -8
 144              		.cfi_offset 8, -16
 145              		.cfi_offset 9, -24
 146 00b8 13040102 		addi	s0,sp,32
 147              		.cfi_def_cfa 8, 0
GAS LISTING /tmp/ccjEl64e.s 			page 5


 148 00bc 93040500 		mv	s1,a0
  15:src/Scheduler.cpp **** }
 149              		.loc 1 15 5
 150              	.LVL11:
 151              	.LBB22:
 152              	.LBB23:
  34:src/../h/list.hpp ****         if (tail)
 153              		.loc 2 34 22 is_stmt 0
 154 00c0 13050001 		li	a0,16
 155              	.LVL12:
 156 00c4 97000000 		call	_Znwm@plt
 156      E7800000 
 157              	.LVL13:
 158              	.LBB24:
 159              	.LBB25:
  13:src/../h/list.hpp ****     };
 160              		.loc 2 13 58
 161 00cc 23309500 		sd	s1,0(a0)
 162 00d0 23340500 		sd	zero,8(a0)
 163              	.LVL14:
 164              	.LBE25:
 165              	.LBE24:
  35:src/../h/list.hpp ****         {
 166              		.loc 2 35 13
 167 00d4 97070000 		ld	a5,.LANCHOR0+8
 167      83B70700 
  35:src/../h/list.hpp ****         {
 168              		.loc 2 35 9
 169 00dc 63820702 		beqz	a5,.L12
  37:src/../h/list.hpp ****             tail = elem;
 170              		.loc 2 37 13
 171 00e0 23B4A700 		sd	a0,8(a5)
  38:src/../h/list.hpp ****         } else
 172              		.loc 2 38 13
 173 00e4 97070000 		sd	a0,.LANCHOR0+8,a5
 173      23B0A700 
 174              	.LVL15:
 175              	.L11:
 176              	.LBE23:
 177              	.LBE22:
  16:src/Scheduler.cpp **** 
 178              		.loc 1 16 1
 179 00ec 83308101 		ld	ra,24(sp)
 180              		.cfi_remember_state
 181              		.cfi_restore 1
 182 00f0 03340101 		ld	s0,16(sp)
 183              		.cfi_restore 8
 184              		.cfi_def_cfa 2, 32
 185 00f4 83348100 		ld	s1,8(sp)
 186              		.cfi_restore 9
 187              	.LVL16:
 188 00f8 13010102 		addi	sp,sp,32
 189              		.cfi_def_cfa_offset 0
 190 00fc 67800000 		jr	ra
 191              	.LVL17:
 192              	.L12:
 193              		.cfi_restore_state
GAS LISTING /tmp/ccjEl64e.s 			page 6


 194              	.LBB27:
 195              	.LBB26:
  41:src/../h/list.hpp ****         }
 196              		.loc 2 41 13
 197 0100 97070000 		lla	a5,.LANCHOR0
 197      93870700 
 198 0108 23B4A700 		sd	a0,8(a5)
 199 010c 23B0A700 		sd	a0,0(a5)
 200              	.LVL18:
 201              	.LBE26:
 202              	.LBE27:
  16:src/Scheduler.cpp **** 
 203              		.loc 1 16 1
 204 0110 6FF0DFFD 		j	.L11
 205              		.cfi_endproc
 206              	.LFE9:
 208              		.align	2
 209              		.globl	_ZN9Scheduler6removeEv
 211              	_ZN9Scheduler6removeEv:
 212              	.LFB10:
  18:src/Scheduler.cpp ****     return (uint64)Scheduler::readyQueue.removeLast();
 213              		.loc 1 18 28 is_stmt 1
 214              		.cfi_startproc
 215 0114 130101FE 		addi	sp,sp,-32
 216              		.cfi_def_cfa_offset 32
 217 0118 233C1100 		sd	ra,24(sp)
 218 011c 23388100 		sd	s0,16(sp)
 219 0120 23349100 		sd	s1,8(sp)
 220              		.cfi_offset 1, -8
 221              		.cfi_offset 8, -16
 222              		.cfi_offset 9, -24
 223 0124 13040102 		addi	s0,sp,32
 224              		.cfi_def_cfa 8, 0
  19:src/Scheduler.cpp **** }
 225              		.loc 1 19 5
 226              	.LVL19:
 227              	.LBB31:
 228              	.LBB32:
  55:src/../h/list.hpp ****         return ret;
  56:src/../h/list.hpp ****     }
  57:src/../h/list.hpp **** 
  58:src/../h/list.hpp ****     T *peekFirst()
  59:src/../h/list.hpp ****     {
  60:src/../h/list.hpp ****         if (!head) { return 0; }
  61:src/../h/list.hpp ****         return head->data;
  62:src/../h/list.hpp ****     }
  63:src/../h/list.hpp **** 
  64:src/../h/list.hpp ****     T *removeLast()
  65:src/../h/list.hpp ****     {
  66:src/../h/list.hpp ****         if (!head) { return 0; }
 229              		.loc 2 66 14 is_stmt 0
 230 0128 97040000 		ld	s1,.LANCHOR0
 230      83B40400 
 231              		.loc 2 66 9
 232 0130 63860404 		beqz	s1,.L16
  67:src/../h/list.hpp **** 
  68:src/../h/list.hpp ****         Elem *prev = 0;
GAS LISTING /tmp/ccjEl64e.s 			page 7


 233              		.loc 2 68 15
 234 0134 93070000 		li	a5,0
 235              	.L18:
 236              	.LVL20:
 237              	.LBB33:
  69:src/../h/list.hpp ****         for (Elem *curr = head; curr && curr != tail; curr = curr->next)
 238              		.loc 2 69 38 is_stmt 1
 239 0138 638E0400 		beqz	s1,.L17
 240              		.loc 2 69 49 is_stmt 0
 241 013c 17070000 		ld	a4,.LANCHOR0+8
 241      03370700 
 242              		.loc 2 69 38
 243 0144 6388E400 		beq	s1,a4,.L17
 244              	.LVL21:
 245              		.loc 2 69 9 is_stmt 1
  70:src/../h/list.hpp ****         {
  71:src/../h/list.hpp ****             prev = curr;
 246              		.loc 2 71 13 is_stmt 0
 247 0148 93870400 		mv	a5,s1
  69:src/../h/list.hpp ****         for (Elem *curr = head; curr && curr != tail; curr = curr->next)
 248              		.loc 2 69 9
 249 014c 83B48400 		ld	s1,8(s1)
 250              	.LVL22:
 251 0150 6FF09FFE 		j	.L18
 252              	.L17:
 253              	.LBE33:
  72:src/../h/list.hpp ****         }
  73:src/../h/list.hpp **** 
  74:src/../h/list.hpp ****         Elem *elem = tail;
 254              		.loc 2 74 15
 255 0154 17050000 		ld	a0,.LANCHOR0+8
 255      03350500 
 256              	.LVL23:
  75:src/../h/list.hpp ****         if (prev) { prev->next = 0; }
 257              		.loc 2 75 9
 258 015c 638C0702 		beqz	a5,.L19
 259              		.loc 2 75 21
 260 0160 23B40700 		sd	zero,8(a5)
 261              	.L20:
  76:src/../h/list.hpp ****         else { head = 0; }
  77:src/../h/list.hpp ****         tail = prev;
 262              		.loc 2 77 9
 263 0164 17070000 		sd	a5,.LANCHOR0+8,a4
 263      2330F700 
  78:src/../h/list.hpp **** 
  79:src/../h/list.hpp ****         T *ret = elem->data;
 264              		.loc 2 79 12
 265 016c 83340500 		ld	s1,0(a0)
 266              	.LVL24:
  80:src/../h/list.hpp ****         delete elem;
 267              		.loc 2 80 9
 268 0170 63060500 		beqz	a0,.L16
 269 0174 97000000 		call	_ZdlPv@plt
 269      E7800000 
 270              	.LVL25:
 271              	.L16:
 272              	.LBE32:
GAS LISTING /tmp/ccjEl64e.s 			page 8


 273              	.LBE31:
 274              		.loc 1 20 1
 275 017c 13850400 		mv	a0,s1
 276 0180 83308101 		ld	ra,24(sp)
 277              		.cfi_remember_state
 278              		.cfi_restore 1
 279 0184 03340101 		ld	s0,16(sp)
 280              		.cfi_restore 8
 281              		.cfi_def_cfa 2, 32
 282 0188 83348100 		ld	s1,8(sp)
 283              		.cfi_restore 9
 284 018c 13010102 		addi	sp,sp,32
 285              		.cfi_def_cfa_offset 0
 286 0190 67800000 		jr	ra
 287              	.LVL26:
 288              	.L19:
 289              		.cfi_restore_state
 290              	.LBB35:
 291              	.LBB34:
  76:src/../h/list.hpp ****         else { head = 0; }
 292              		.loc 2 76 16
 293 0194 17070000 		sd	zero,.LANCHOR0,a4
 293      23300700 
 294 019c 6FF09FFC 		j	.L20
 295              	.LBE34:
 296              	.LBE35:
 297              		.cfi_endproc
 298              	.LFE10:
 300              		.align	2
 302              	_GLOBAL__sub_I__ZN9Scheduler10readyQueueE:
 303              	.LFB21:
 304              		.loc 1 20 1 is_stmt 1
 305              		.cfi_startproc
 306 01a0 130101FF 		addi	sp,sp,-16
 307              		.cfi_def_cfa_offset 16
 308 01a4 23341100 		sd	ra,8(sp)
 309 01a8 23308100 		sd	s0,0(sp)
 310              		.cfi_offset 1, -8
 311              		.cfi_offset 8, -16
 312 01ac 13040101 		addi	s0,sp,16
 313              		.cfi_def_cfa 8, 0
 314              		.loc 1 20 1 is_stmt 0
 315 01b0 B7050100 		li	a1,65536
 316 01b4 9385F5FF 		addi	a1,a1,-1
 317 01b8 13051000 		li	a0,1
 318 01bc 97000000 		call	_Z41__static_initialization_and_destruction_0ii
 318      E7800000 
 319              	.LVL27:
 320 01c4 83308100 		ld	ra,8(sp)
 321              		.cfi_restore 1
 322 01c8 03340100 		ld	s0,0(sp)
 323              		.cfi_restore 8
 324              		.cfi_def_cfa 2, 16
 325 01cc 13010101 		addi	sp,sp,16
 326              		.cfi_def_cfa_offset 0
 327 01d0 67800000 		jr	ra
 328              		.cfi_endproc
GAS LISTING /tmp/ccjEl64e.s 			page 9


 329              	.LFE21:
 331              		.section	.init_array,"aw"
 332              		.align	3
 333 0000 00000000 		.dword	_GLOBAL__sub_I__ZN9Scheduler10readyQueueE
 333      00000000 
 334              		.globl	_ZN9Scheduler10readyQueueE
 335              		.bss
 336              		.align	3
 337              		.set	.LANCHOR0,. + 0
 340              	_ZN9Scheduler10readyQueueE:
 341 0000 00000000 		.zero	16
 341      00000000 
 341      00000000 
 341      00000000 
 342              		.text
 343              	.Letext0:
 344              		.file 3 "src/../h/../lib/hw.h"
 345              		.file 4 "src/../h/Scheduler.hpp"
GAS LISTING /tmp/ccjEl64e.s 			page 10

