GAS LISTING /tmp/ccjEl64e.s 			page 1


   1              		.file	"Scheduler.cpp"
   2              		.option pic
   3              		.option norelax
   4              		.text
   5              	.Ltext0:
   6              		.align	2
   8              	_Z41__static_initialization_and_destruction_0ii:
   9              	.LFB20:
  10              		.file 1 "src/Scheduler.cpp"
   1:src/Scheduler.cpp **** //
   2:src/Scheduler.cpp **** // Created by os on 7/28/23.
   3:src/Scheduler.cpp **** //
   4:src/Scheduler.cpp **** 
   5:src/Scheduler.cpp **** #include "../h/Scheduler.hpp"
   6:src/Scheduler.cpp **** 
   7:src/Scheduler.cpp **** 
   8:src/Scheduler.cpp **** List<PCB> Scheduler::readyQueue;
   9:src/Scheduler.cpp **** 
  10:src/Scheduler.cpp **** PCB *Scheduler::get() {
  11:src/Scheduler.cpp ****     return Scheduler::readyQueue.removeFirst();
  12:src/Scheduler.cpp **** }
  13:src/Scheduler.cpp **** 
  14:src/Scheduler.cpp **** void Scheduler::put(PCB *handle) {
  15:src/Scheduler.cpp ****     Scheduler::readyQueue.addLast(handle);
  16:src/Scheduler.cpp **** }
  17:src/Scheduler.cpp **** 
  18:src/Scheduler.cpp **** uint64 Scheduler::remove() {
  19:src/Scheduler.cpp ****     return (uint64)Scheduler::readyQueue.removeLast();
  20:src/Scheduler.cpp **** }
  11              		.loc 1 20 1
  12              		.cfi_startproc
  13              	.LVL0:
  14 0000 130101FF 		addi	sp,sp,-16
  15              		.cfi_def_cfa_offset 16
  16 0004 23348100 		sd	s0,8(sp)
  17              		.cfi_offset 8, -8
  18 0008 13040101 		addi	s0,sp,16
  19              		.cfi_def_cfa 8, 0
  20              		.loc 1 20 1 is_stmt 0
  21 000c 93071000 		li	a5,1
  22 0010 6308F500 		beq	a0,a5,.L4
  23              	.L1:
  24 0014 03348100 		ld	s0,8(sp)
  25              		.cfi_remember_state
  26              		.cfi_restore 8
  27              		.cfi_def_cfa 2, 16
  28 0018 13010101 		addi	sp,sp,16
  29              		.cfi_def_cfa_offset 0
  30 001c 67800000 		jr	ra
  31              	.L4:
  32              		.cfi_restore_state
  33              		.loc 1 20 1 discriminator 1
  34 0020 B7070100 		li	a5,65536
  35 0024 9387F7FF 		addi	a5,a5,-1
  36 0028 E396F5FE 		bne	a1,a5,.L1
  37              	.LVL1:
  38              	.LBB15:
GAS LISTING /tmp/ccjEl64e.s 			page 2


  39              	.LBB16:
  40              	.LBB17:
  41              		.file 2 "src/../h/list.hpp"
   1:src/../h/list.hpp **** #ifndef PROJECT_BASE_V1_1_LIST_HPP
   2:src/../h/list.hpp **** #define PROJECT_BASE_V1_1_LIST_HPP
   3:src/../h/list.hpp **** 
   4:src/../h/list.hpp **** template<typename T>
   5:src/../h/list.hpp **** class List
   6:src/../h/list.hpp **** {
   7:src/../h/list.hpp **** private:
   8:src/../h/list.hpp ****     struct Elem
   9:src/../h/list.hpp ****     {
  10:src/../h/list.hpp ****         T *data;
  11:src/../h/list.hpp ****         Elem *next;
  12:src/../h/list.hpp **** 
  13:src/../h/list.hpp ****         Elem(T *data, Elem *next) : data(data), next(next) {}
  14:src/../h/list.hpp ****     };
  15:src/../h/list.hpp **** 
  16:src/../h/list.hpp ****     Elem *head, *tail;
  17:src/../h/list.hpp **** 
  18:src/../h/list.hpp **** public:
  19:src/../h/list.hpp ****     List() : head(0), tail(0) {}
  42              		.loc 2 19 29
  43 002c 97070000 		lla	a5,.LANCHOR0
  43      93870700 
  44 0034 23B00700 		sd	zero,0(a5)
  45 0038 23B40700 		sd	zero,8(a5)
  46              	.LVL2:
  47              	.LBE17:
  48              	.LBE16:
  49              	.LBE15:
  50              		.loc 1 20 1
  51 003c 6FF09FFD 		j	.L1
  52              		.cfi_endproc
  53              	.LFE20:
  55              		.align	2
  56              		.globl	_ZN9Scheduler3getEv
  58              	_ZN9Scheduler3getEv:
  59              	.LFB8:
  10:src/Scheduler.cpp ****     return Scheduler::readyQueue.removeFirst();
  60              		.loc 1 10 23 is_stmt 1
  61              		.cfi_startproc
  62 0040 130101FE 		addi	sp,sp,-32
  63              		.cfi_def_cfa_offset 32
  64 0044 233C1100 		sd	ra,24(sp)
  65 0048 23388100 		sd	s0,16(sp)
  66 004c 23349100 		sd	s1,8(sp)
  67              		.cfi_offset 1, -8
  68              		.cfi_offset 8, -16
  69              		.cfi_offset 9, -24
  70 0050 13040102 		addi	s0,sp,32
  71              		.cfi_def_cfa 8, 0
  11:src/Scheduler.cpp **** }
  72              		.loc 1 11 5
  73              	.LVL3:
  74              	.LBB18:
  75              	.LBB19:
GAS LISTING /tmp/ccjEl64e.s 			page 3


  20:src/../h/list.hpp **** 
  21:src/../h/list.hpp ****     List(const List<T> &) = delete;
  22:src/../h/list.hpp **** 
  23:src/../h/list.hpp ****     List<T> &operator=(const List<T> &) = delete;
  24:src/../h/list.hpp **** 
  25:src/../h/list.hpp ****     void addFirst(T *data)
  26:src/../h/list.hpp ****     {
  27:src/../h/list.hpp ****         Elem *elem = new Elem(data, head);
  28:src/../h/list.hpp ****         head = elem;
  29:src/../h/list.hpp ****         if (!tail) { tail = head; }
  30:src/../h/list.hpp ****     }
  31:src/../h/list.hpp **** 
  32:src/../h/list.hpp ****     void addLast(T *data)
  33:src/../h/list.hpp ****     {
  34:src/../h/list.hpp ****         Elem *elem = new Elem(data, 0);
  35:src/../h/list.hpp ****         if (tail)
  36:src/../h/list.hpp ****         {
  37:src/../h/list.hpp ****             tail->next = elem;
  38:src/../h/list.hpp ****             tail = elem;
  39:src/../h/list.hpp ****         } else
  40:src/../h/list.hpp ****         {
  41:src/../h/list.hpp ****             head = tail = elem;
  42:src/../h/list.hpp ****         }
  43:src/../h/list.hpp ****     }
  44:src/../h/list.hpp **** 
  45:src/../h/list.hpp ****     T *removeFirst()
  46:src/../h/list.hpp ****     {
  47:src/../h/list.hpp ****         if (!head) { return 0; }
  76              		.loc 2 47 14 is_stmt 0
  77 0054 17050000 		ld	a0,.LANCHOR0
  77      03350500 
  78              		.loc 2 47 9
  79 005c 63020504 		beqz	a0,.L8
  80              	.LVL4:
  48:src/../h/list.hpp **** 
  49:src/../h/list.hpp ****         Elem *elem = head;
  50:src/../h/list.hpp ****         head = head->next;
  81              		.loc 2 50 22
  82 0060 83378500 		ld	a5,8(a0)
  83              		.loc 2 50 9
  84 0064 17070000 		sd	a5,.LANCHOR0,a4
  84      2330F700 
  51:src/../h/list.hpp ****         if (!head) { tail = 0; }
  85              		.loc 2 51 9
  86 006c 63840702 		beqz	a5,.L10
  87              	.L7:
  52:src/../h/list.hpp **** 
  53:src/../h/list.hpp ****         T *ret = elem->data;
  88              		.loc 2 53 12
  89 0070 83340500 		ld	s1,0(a0)
  90              	.LVL5:
  54:src/../h/list.hpp ****         delete elem;
  91              		.loc 2 54 9
  92 0074 97000000 		call	_ZdlPv@plt
  92      E7800000 
  93              	.LVL6:
  94              	.L5:
GAS LISTING /tmp/ccjEl64e.s 			page 4


  95              	.LBE19:
  96              	.LBE18:
  12:src/Scheduler.cpp **** 
  97              		.loc 1 12 1
  98 007c 13850400 		mv	a0,s1
  99 0080 83308101 		ld	ra,24(sp)
 100              		.cfi_remember_state
 101              		.cfi_restore 1
 102 0084 03340101 		ld	s0,16(sp)
 103              		.cfi_restore 8
 104              		.cfi_def_cfa 2, 32
 105 0088 83348100 		ld	s1,8(sp)
 106              		.cfi_restore 9
 107 008c 13010102 		addi	sp,sp,32
 108              		.cfi_def_cfa_offset 0
 109 0090 67800000 		jr	ra
 110              	.LVL7:
 111              	.L10:
 112              		.cfi_restore_state
 113              	.LBB21:
 114              	.LBB20:
  51:src/../h/list.hpp **** 
 115              		.loc 2 51 22
 116 0094 97070000 		sd	zero,.LANCHOR0+8,a5
 116      23B00700 
 117 009c 6FF05FFD 		j	.L7
 118              	.LVL8:
 119              	.L8:
  47:src/../h/list.hpp **** 
 120              		.loc 2 47 29
 121 00a0 93040500 		mv	s1,a0
 122              	.LVL9:
 123              	.LBE20:
 124              	.LBE21:
  11:src/Scheduler.cpp **** }
 125              		.loc 1 11 46
 126 00a4 6FF09FFD 		j	.L5
 127              		.cfi_endproc
 128              	.LFE8:
 130              		.align	2
 131              		.globl	_ZN9Scheduler3putEP3PCB
 133              	_ZN9Scheduler3putEP3PCB:
 134              	.LFB9:
  14:src/Scheduler.cpp ****     Scheduler::readyQueue.addLast(handle);
 135              		.loc 1 14 34 is_stmt 1
 136              		.cfi_startproc
 137              	.LVL10:
 138 00a8 130101FE 		addi	sp,sp,-32
 139              		.cfi_def_cfa_offset 32
 140 00ac 233C1100 		sd	ra,24(sp)
 141 00b0 23388100 		sd	s0,16(sp)
 142 00b4 23349100 		sd	s1,8(sp)
 143              		.cfi_offset 1, -8
 144              		.cfi_offset 8, -16
 145              		.cfi_offset 9, -24
 146 00b8 13040102 		addi	s0,sp,32
 147              		.cfi_def_cfa 8, 0
GAS LISTING /tmp/ccjEl64e.s 			page 5


 148 00bc 93040500 		mv	s1,a0
  15:src/Scheduler.cpp **** }
 149              		.loc 1 15 5
 150              	.LVL11:
 151              	.LBB22:
 152              	.LBB23:
  34:src/../h/list.hpp ****         if (tail)
 153              		.loc 2 34 22 is_stmt 0
 154 00c0 13050001 		li	a0,16
 155              	.LVL12:
 156 00c4 97000000 		call	_Znwm@plt
 156      E7800000 
 157              	.LVL13:
 158              	.LBB24:
 159              	.LBB25:
  13:src/../h/list.hpp ****     };
 160              		.loc 2 13 58
 161 00cc 23309500 		sd	s1,0(a0)
 162 00d0 23340500 		sd	zero,8(a0)
 163              	.LVL14:
 164              	.LBE25:
 165              	.LBE24:
  35:src/../h/list.hpp ****         {
 166              		.loc 2 35 13
 167 00d4 97070000 		ld	a5,.LANCHOR0+8
 167      83B70700 
  35:src/../h/list.hpp ****         {
 168              		.loc 2 35 9
 169 00dc 63820702 		beqz	a5,.L12
  37:src/../h/list.hpp ****             tail = elem;
 170              		.loc 2 37 13
 171 00e0 23B4A700 		sd	a0,8(a5)
  38:src/../h/list.hpp ****         } else
 172              		.loc 2 38 13
 173 00e4 97070000 		sd	a0,.LANCHOR0+8,a5
 173      23B0A700 
 174              	.LVL15:
 175              	.L11:
 176              	.LBE23:
 177              	.LBE22:
  16:src/Scheduler.cpp **** 
 178              		.loc 1 16 1
 179 00ec 83308101 		ld	ra,24(sp)
 180              		.cfi_remember_state
 181              		.cfi_restore 1
 182 00f0 03340101 		ld	s0,16(sp)
 183              		.cfi_restore 8
 184              		.cfi_def_cfa 2, 32
 185 00f4 83348100 		ld	s1,8(sp)
 186              		.cfi_restore 9
 187              	.LVL16:
 188 00f8 13010102 		addi	sp,sp,32
 189              		.cfi_def_cfa_offset 0
 190 00fc 67800000 		jr	ra
 191              	.LVL17:
 192              	.L12:
 193              		.cfi_restore_state
GAS LISTING /tmp/ccjEl64e.s 			page 6


 194              	.LBB27:
 195              	.LBB26:
  41:src/../h/list.hpp ****         }
 196              		.loc 2 41 13
 197 0100 97070000 		lla	a5,.LANCHOR0
 197      93870700 
 198 0108 23B4A700 		sd	a0,8(a5)
 199 010c 23B0A700 		sd	a0,0(a5)
 200              	.LVL18:
 201              	.LBE26:
 202              	.LBE27:
  16:src/Scheduler.cpp **** 
 203              		.loc 1 16 1
 204 0110 6FF0DFFD 		j	.L11
 205              		.cfi_endproc
 206              	.LFE9:
 208              		.align	2
 209              		.globl	_ZN9Scheduler6removeEv
 211              	_ZN9Scheduler6removeEv:
 212              	.LFB10:
  18:src/Scheduler.cpp ****     return (uint64)Scheduler::readyQueue.removeLast();
 213              		.loc 1 18 28 is_stmt 1
 214              		.cfi_startproc
 215 0114 130101FE 		addi	sp,sp,-32
 216              		.cfi_def_cfa_offset 32
 217 0118 233C1100 		sd	ra,24(sp)
 218 011c 23388100 		sd	s0,16(sp)
 219 0120 23349100 		sd	s1,8(sp)
 220              		.cfi_offset 1, -8
 221              		.cfi_offset 8, -16
 222              		.cfi_offset 9, -24
 223 0124 13040102 		addi	s0,sp,32
 224              		.cfi_def_cfa 8, 0
  19:src/Scheduler.cpp **** }
 225              		.loc 1 19 5
 226              	.LVL19:
 227              	.LBB31:
 228              	.LBB32:
  55:src/../h/list.hpp ****         return ret;
  56:src/../h/list.hpp ****     }
  57:src/../h/list.hpp **** 
  58:src/../h/list.hpp ****     T *peekFirst()
  59:src/../h/list.hpp ****     {
  60:src/../h/list.hpp ****         if (!head) { return 0; }
  61:src/../h/list.hpp ****         return head->data;
  62:src/../h/list.hpp ****     }
  63:src/../h/list.hpp **** 
  64:src/../h/list.hpp ****     T *removeLast()
  65:src/../h/list.hpp ****     {
  66:src/../h/list.hpp ****         if (!head) { return 0; }
 229              		.loc 2 66 14 is_stmt 0
 230 0128 97040000 		ld	s1,.LANCHOR0
 230      83B40400 
 231              		.loc 2 66 9
 232 0130 63860404 		beqz	s1,.L16
  67:src/../h/list.hpp **** 
  68:src/../h/list.hpp ****         Elem *prev = 0;
GAS LISTING /tmp/ccjEl64e.s 			page 7


 233              		.loc 2 68 15
 234 0134 93070000 		li	a5,0
 235              	.L18:
 236              	.LVL20:
 237              	.LBB33:
  69:src/../h/list.hpp ****         for (Elem *curr = head; curr && curr != tail; curr = curr->next)
 238              		.loc 2 69 38 is_stmt 1
 239 0138 638E0400 		beqz	s1,.L17
 240              		.loc 2 69 49 is_stmt 0
 241 013c 17070000 		ld	a4,.LANCHOR0+8
 241      03370700 
 242              		.loc 2 69 38
 243 0144 6388E400 		beq	s1,a4,.L17
 244              	.LVL21:
 245              		.loc 2 69 9 is_stmt 1
  70:src/../h/list.hpp ****         {
  71:src/../h/list.hpp ****             prev = curr;
 246              		.loc 2 71 13 is_stmt 0
 247 0148 93870400 		mv	a5,s1
  69:src/../h/list.hpp ****         for (Elem *curr = head; curr && curr != tail; curr = curr->next)
 248              		.loc 2 69 9
 249 014c 83B48400 		ld	s1,8(s1)
 250              	.LVL22:
 251 0150 6FF09FFE 		j	.L18
 252              	.L17:
 253              	.LBE33:
  72:src/../h/list.hpp ****         }
  73:src/../h/list.hpp **** 
  74:src/../h/list.hpp ****         Elem *elem = tail;
 254              		.loc 2 74 15
 255 0154 17050000 		ld	a0,.LANCHOR0+8
 255      03350500 
 256              	.LVL23:
  75:src/../h/list.hpp ****         if (prev) { prev->next = 0; }
 257              		.loc 2 75 9
 258 015c 638C0702 		beqz	a5,.L19
 259              		.loc 2 75 21
 260 0160 23B40700 		sd	zero,8(a5)
 261              	.L20:
  76:src/../h/list.hpp ****         else { head = 0; }
  77:src/../h/list.hpp ****         tail = prev;
 262              		.loc 2 77 9
 263 0164 17070000 		sd	a5,.LANCHOR0+8,a4
 263      2330F700 
  78:src/../h/list.hpp **** 
  79:src/../h/list.hpp ****         T *ret = elem->data;
 264              		.loc 2 79 12
 265 016c 83340500 		ld	s1,0(a0)
 266              	.LVL24:
  80:src/../h/list.hpp ****         delete elem;
 267              		.loc 2 80 9
 268 0170 63060500 		beqz	a0,.L16
 269 0174 97000000 		call	_ZdlPv@plt
 269      E7800000 
 270              	.LVL25:
 271              	.L16:
 272              	.LBE32:
GAS LISTING /tmp/ccjEl64e.s 			page 8


 273              	.LBE31:
 274              		.loc 1 20 1
 275 017c 13850400 		mv	a0,s1
 276 0180 83308101 		ld	ra,24(sp)
 277              		.cfi_remember_state
 278              		.cfi_restore 1
 279 0184 03340101 		ld	s0,16(sp)
 280              		.cfi_restore 8
 281              		.cfi_def_cfa 2, 32
 282 0188 83348100 		ld	s1,8(sp)
 283              		.cfi_restore 9
 284 018c 13010102 		addi	sp,sp,32
 285              		.cfi_def_cfa_offset 0
 286 0190 67800000 		jr	ra
 287              	.LVL26:
 288              	.L19:
 289              		.cfi_restore_state
 290              	.LBB35:
 291              	.LBB34:
  76:src/../h/list.hpp ****         else { head = 0; }
 292              		.loc 2 76 16
 293 0194 17070000 		sd	zero,.LANCHOR0,a4
 293      23300700 
 294 019c 6FF09FFC 		j	.L20
 295              	.LBE34:
 296              	.LBE35:
 297              		.cfi_endproc
 298              	.LFE10:
 300              		.align	2
 302              	_GLOBAL__sub_I__ZN9Scheduler10readyQueueE:
 303              	.LFB21:
 304              		.loc 1 20 1 is_stmt 1
 305              		.cfi_startproc
 306 01a0 130101FF 		addi	sp,sp,-16
 307              		.cfi_def_cfa_offset 16
 308 01a4 23341100 		sd	ra,8(sp)
 309 01a8 23308100 		sd	s0,0(sp)
 310              		.cfi_offset 1, -8
 311              		.cfi_offset 8, -16
 312 01ac 13040101 		addi	s0,sp,16
 313              		.cfi_def_cfa 8, 0
 314              		.loc 1 20 1 is_stmt 0
 315 01b0 B7050100 		li	a1,65536
 316 01b4 9385F5FF 		addi	a1,a1,-1
 317 01b8 13051000 		li	a0,1
 318 01bc 97000000 		call	_Z41__static_initialization_and_destruction_0ii
 318      E7800000 
 319              	.LVL27:
 320 01c4 83308100 		ld	ra,8(sp)
 321              		.cfi_restore 1
 322 01c8 03340100 		ld	s0,0(sp)
 323              		.cfi_restore 8
 324              		.cfi_def_cfa 2, 16
 325 01cc 13010101 		addi	sp,sp,16
 326              		.cfi_def_cfa_offset 0
 327 01d0 67800000 		jr	ra
 328              		.cfi_endproc
GAS LISTING /tmp/ccjEl64e.s 			page 9


 329              	.LFE21:
 331              		.section	.init_array,"aw"
 332              		.align	3
 333 0000 00000000 		.dword	_GLOBAL__sub_I__ZN9Scheduler10readyQueueE
 333      00000000 
 334              		.globl	_ZN9Scheduler10readyQueueE
 335              		.bss
 336              		.align	3
 337              		.set	.LANCHOR0,. + 0
 340              	_ZN9Scheduler10readyQueueE:
 341 0000 00000000 		.zero	16
 341      00000000 
 341      00000000 
 341      00000000 
 342              		.text
 343              	.Letext0:
 344              		.file 3 "src/../h/../lib/hw.h"
 345              		.file 4 "src/../h/Scheduler.hpp"
GAS LISTING /tmp/ccjEl64e.s 			page 10


DEFINED SYMBOLS
                            *ABS*:0000000000000000 Scheduler.cpp
     /tmp/ccjEl64e.s:8      .text:0000000000000000 _Z41__static_initialization_and_destruction_0ii
     /tmp/ccjEl64e.s:12     .text:0000000000000000 .L0 
     /tmp/ccjEl64e.s:14     .text:0000000000000000 .L0 
     /tmp/ccjEl64e.s:15     .text:0000000000000004 .L0 
     /tmp/ccjEl64e.s:17     .text:0000000000000008 .L0 
     /tmp/ccjEl64e.s:19     .text:000000000000000c .L0 
     /tmp/ccjEl64e.s:21     .text:000000000000000c .L0 
     /tmp/ccjEl64e.s:25     .text:0000000000000018 .L0 
     /tmp/ccjEl64e.s:26     .text:0000000000000018 .L0 
     /tmp/ccjEl64e.s:27     .text:0000000000000018 .L0 
     /tmp/ccjEl64e.s:29     .text:000000000000001c .L0 
     /tmp/ccjEl64e.s:32     .text:0000000000000020 .L0 
     /tmp/ccjEl64e.s:34     .text:0000000000000020 .L0 
     /tmp/ccjEl64e.s:43     .text:000000000000002c .L0 
     /tmp/ccjEl64e.s:51     .text:000000000000003c .L0 
     /tmp/ccjEl64e.s:52     .text:0000000000000040 .L0 
     /tmp/ccjEl64e.s:58     .text:0000000000000040 _ZN9Scheduler3getEv
     /tmp/ccjEl64e.s:61     .text:0000000000000040 .L0 
     /tmp/ccjEl64e.s:62     .text:0000000000000040 .L0 
     /tmp/ccjEl64e.s:63     .text:0000000000000044 .L0 
     /tmp/ccjEl64e.s:67     .text:0000000000000050 .L0 
     /tmp/ccjEl64e.s:68     .text:0000000000000050 .L0 
     /tmp/ccjEl64e.s:69     .text:0000000000000050 .L0 
     /tmp/ccjEl64e.s:71     .text:0000000000000054 .L0 
     /tmp/ccjEl64e.s:76     .text:0000000000000054 .L0 
     /tmp/ccjEl64e.s:77     .text:0000000000000054 .L0 
     /tmp/ccjEl64e.s:79     .text:000000000000005c .L0 
     /tmp/ccjEl64e.s:82     .text:0000000000000060 .L0 
     /tmp/ccjEl64e.s:84     .text:0000000000000064 .L0 
     /tmp/ccjEl64e.s:86     .text:000000000000006c .L0 
     /tmp/ccjEl64e.s:89     .text:0000000000000070 .L0 
     /tmp/ccjEl64e.s:92     .text:0000000000000074 .L0 
     /tmp/ccjEl64e.s:98     .text:000000000000007c .L0 
     /tmp/ccjEl64e.s:100    .text:0000000000000084 .L0 
     /tmp/ccjEl64e.s:101    .text:0000000000000084 .L0 
     /tmp/ccjEl64e.s:103    .text:0000000000000088 .L0 
     /tmp/ccjEl64e.s:104    .text:0000000000000088 .L0 
     /tmp/ccjEl64e.s:106    .text:000000000000008c .L0 
     /tmp/ccjEl64e.s:108    .text:0000000000000090 .L0 
     /tmp/ccjEl64e.s:112    .text:0000000000000094 .L0 
     /tmp/ccjEl64e.s:116    .text:0000000000000094 .L0 
     /tmp/ccjEl64e.s:121    .text:00000000000000a0 .L0 
     /tmp/ccjEl64e.s:126    .text:00000000000000a4 .L0 
     /tmp/ccjEl64e.s:127    .text:00000000000000a8 .L0 
     /tmp/ccjEl64e.s:133    .text:00000000000000a8 _ZN9Scheduler3putEP3PCB
     /tmp/ccjEl64e.s:136    .text:00000000000000a8 .L0 
     /tmp/ccjEl64e.s:138    .text:00000000000000a8 .L0 
     /tmp/ccjEl64e.s:139    .text:00000000000000ac .L0 
     /tmp/ccjEl64e.s:143    .text:00000000000000b8 .L0 
     /tmp/ccjEl64e.s:144    .text:00000000000000b8 .L0 
     /tmp/ccjEl64e.s:145    .text:00000000000000b8 .L0 
     /tmp/ccjEl64e.s:147    .text:00000000000000bc .L0 
     /tmp/ccjEl64e.s:153    .text:00000000000000c0 .L0 
     /tmp/ccjEl64e.s:154    .text:00000000000000c0 .L0 
     /tmp/ccjEl64e.s:161    .text:00000000000000cc .L0 
GAS LISTING /tmp/ccjEl64e.s 			page 11


     /tmp/ccjEl64e.s:167    .text:00000000000000d4 .L0 
     /tmp/ccjEl64e.s:169    .text:00000000000000dc .L0 
     /tmp/ccjEl64e.s:171    .text:00000000000000e0 .L0 
     /tmp/ccjEl64e.s:173    .text:00000000000000e4 .L0 
     /tmp/ccjEl64e.s:179    .text:00000000000000ec .L0 
     /tmp/ccjEl64e.s:180    .text:00000000000000f0 .L0 
     /tmp/ccjEl64e.s:181    .text:00000000000000f0 .L0 
     /tmp/ccjEl64e.s:183    .text:00000000000000f4 .L0 
     /tmp/ccjEl64e.s:184    .text:00000000000000f4 .L0 
     /tmp/ccjEl64e.s:186    .text:00000000000000f8 .L0 
     /tmp/ccjEl64e.s:189    .text:00000000000000fc .L0 
     /tmp/ccjEl64e.s:193    .text:0000000000000100 .L0 
     /tmp/ccjEl64e.s:197    .text:0000000000000100 .L0 
     /tmp/ccjEl64e.s:204    .text:0000000000000110 .L0 
     /tmp/ccjEl64e.s:205    .text:0000000000000114 .L0 
     /tmp/ccjEl64e.s:211    .text:0000000000000114 _ZN9Scheduler6removeEv
     /tmp/ccjEl64e.s:214    .text:0000000000000114 .L0 
     /tmp/ccjEl64e.s:215    .text:0000000000000114 .L0 
     /tmp/ccjEl64e.s:216    .text:0000000000000118 .L0 
     /tmp/ccjEl64e.s:220    .text:0000000000000124 .L0 
     /tmp/ccjEl64e.s:221    .text:0000000000000124 .L0 
     /tmp/ccjEl64e.s:222    .text:0000000000000124 .L0 
     /tmp/ccjEl64e.s:224    .text:0000000000000128 .L0 
     /tmp/ccjEl64e.s:229    .text:0000000000000128 .L0 
     /tmp/ccjEl64e.s:230    .text:0000000000000128 .L0 
     /tmp/ccjEl64e.s:232    .text:0000000000000130 .L0 
     /tmp/ccjEl64e.s:234    .text:0000000000000134 .L0 
     /tmp/ccjEl64e.s:239    .text:0000000000000138 .L0 
     /tmp/ccjEl64e.s:241    .text:000000000000013c .L0 
     /tmp/ccjEl64e.s:243    .text:0000000000000144 .L0 
     /tmp/ccjEl64e.s:246    .text:0000000000000148 .L0 
     /tmp/ccjEl64e.s:247    .text:0000000000000148 .L0 
     /tmp/ccjEl64e.s:249    .text:000000000000014c .L0 
     /tmp/ccjEl64e.s:255    .text:0000000000000154 .L0 
     /tmp/ccjEl64e.s:258    .text:000000000000015c .L0 
     /tmp/ccjEl64e.s:260    .text:0000000000000160 .L0 
     /tmp/ccjEl64e.s:263    .text:0000000000000164 .L0 
     /tmp/ccjEl64e.s:265    .text:000000000000016c .L0 
     /tmp/ccjEl64e.s:268    .text:0000000000000170 .L0 
     /tmp/ccjEl64e.s:275    .text:000000000000017c .L0 
     /tmp/ccjEl64e.s:277    .text:0000000000000184 .L0 
     /tmp/ccjEl64e.s:278    .text:0000000000000184 .L0 
     /tmp/ccjEl64e.s:280    .text:0000000000000188 .L0 
     /tmp/ccjEl64e.s:281    .text:0000000000000188 .L0 
     /tmp/ccjEl64e.s:283    .text:000000000000018c .L0 
     /tmp/ccjEl64e.s:285    .text:0000000000000190 .L0 
     /tmp/ccjEl64e.s:289    .text:0000000000000194 .L0 
     /tmp/ccjEl64e.s:293    .text:0000000000000194 .L0 
     /tmp/ccjEl64e.s:297    .text:00000000000001a0 .L0 
     /tmp/ccjEl64e.s:302    .text:00000000000001a0 _GLOBAL__sub_I__ZN9Scheduler10readyQueueE
     /tmp/ccjEl64e.s:305    .text:00000000000001a0 .L0 
     /tmp/ccjEl64e.s:306    .text:00000000000001a0 .L0 
     /tmp/ccjEl64e.s:307    .text:00000000000001a4 .L0 
     /tmp/ccjEl64e.s:310    .text:00000000000001ac .L0 
     /tmp/ccjEl64e.s:311    .text:00000000000001ac .L0 
     /tmp/ccjEl64e.s:313    .text:00000000000001b0 .L0 
     /tmp/ccjEl64e.s:315    .text:00000000000001b0 .L0 
GAS LISTING /tmp/ccjEl64e.s 			page 12


     /tmp/ccjEl64e.s:321    .text:00000000000001c8 .L0 
     /tmp/ccjEl64e.s:323    .text:00000000000001cc .L0 
     /tmp/ccjEl64e.s:324    .text:00000000000001cc .L0 
     /tmp/ccjEl64e.s:326    .text:00000000000001d0 .L0 
     /tmp/ccjEl64e.s:328    .text:00000000000001d4 .L0 
     /tmp/ccjEl64e.s:340    .bss:0000000000000000 _ZN9Scheduler10readyQueueE
     /tmp/ccjEl64e.s:337    .bss:0000000000000000 .LANCHOR0
     /tmp/ccjEl64e.s:346    .text:00000000000001d4 .L0 
     /tmp/ccjEl64e.s:43     .text:000000000000002c .L0 
     /tmp/ccjEl64e.s:77     .text:0000000000000054 .L0 
     /tmp/ccjEl64e.s:84     .text:0000000000000064 .L0 
     /tmp/ccjEl64e.s:116    .text:0000000000000094 .L0 
     /tmp/ccjEl64e.s:167    .text:00000000000000d4 .L0 
     /tmp/ccjEl64e.s:173    .text:00000000000000e4 .L0 
     /tmp/ccjEl64e.s:197    .text:0000000000000100 .L0 
     /tmp/ccjEl64e.s:230    .text:0000000000000128 .L0 
     /tmp/ccjEl64e.s:241    .text:000000000000013c .L0 
     /tmp/ccjEl64e.s:255    .text:0000000000000154 .L0 
     /tmp/ccjEl64e.s:263    .text:0000000000000164 .L0 
     /tmp/ccjEl64e.s:293    .text:0000000000000194 .L0 
     /tmp/ccjEl64e.s:31     .text:0000000000000020 .L4
     /tmp/ccjEl64e.s:23     .text:0000000000000014 .L1
     /tmp/ccjEl64e.s:119    .text:00000000000000a0 .L8
     /tmp/ccjEl64e.s:111    .text:0000000000000094 .L10
     /tmp/ccjEl64e.s:87     .text:0000000000000070 .L7
     /tmp/ccjEl64e.s:94     .text:000000000000007c .L5
     /tmp/ccjEl64e.s:192    .text:0000000000000100 .L12
     /tmp/ccjEl64e.s:175    .text:00000000000000ec .L11
     /tmp/ccjEl64e.s:271    .text:000000000000017c .L16
     /tmp/ccjEl64e.s:252    .text:0000000000000154 .L17
     /tmp/ccjEl64e.s:235    .text:0000000000000138 .L18
     /tmp/ccjEl64e.s:288    .text:0000000000000194 .L19
     /tmp/ccjEl64e.s:261    .text:0000000000000164 .L20
     /tmp/ccjEl64e.s:1066   .debug_abbrev:0000000000000000 .Ldebug_abbrev0
     /tmp/ccjEl64e.s:2127   .debug_str:0000000000000208 .LASF54
     /tmp/ccjEl64e.s:2133   .debug_str:00000000000002d9 .LASF55
     /tmp/ccjEl64e.s:2161   .debug_str:00000000000003bf .LASF56
     /tmp/ccjEl64e.s:5      .text:0000000000000000 .Ltext0
     /tmp/ccjEl64e.s:343    .text:00000000000001d4 .Letext0
     /tmp/ccjEl64e.s:2059   .debug_line:0000000000000000 .Ldebug_line0
     /tmp/ccjEl64e.s:2139   .debug_str:0000000000000313 .LASF0
     /tmp/ccjEl64e.s:2115   .debug_str:00000000000001c7 .LASF1
     /tmp/ccjEl64e.s:2109   .debug_str:00000000000001a2 .LASF2
     /tmp/ccjEl64e.s:2077   .debug_str:000000000000007b .LASF4
     /tmp/ccjEl64e.s:2113   .debug_str:00000000000001b5 .LASF3
     /tmp/ccjEl64e.s:2065   .debug_str:000000000000001e .LASF5
     /tmp/ccjEl64e.s:2061   .debug_str:0000000000000000 .LASF6
     /tmp/ccjEl64e.s:2097   .debug_str:0000000000000135 .LASF7
     /tmp/ccjEl64e.s:2153   .debug_str:0000000000000384 .LASF8
     /tmp/ccjEl64e.s:2075   .debug_str:000000000000006d .LASF9
     /tmp/ccjEl64e.s:2191   .debug_str:00000000000004c7 .LASF10
     /tmp/ccjEl64e.s:2103   .debug_str:000000000000016a .LASF11
     /tmp/ccjEl64e.s:2177   .debug_str:0000000000000450 .LASF12
     /tmp/ccjEl64e.s:2159   .debug_str:00000000000003af .LASF13
     /tmp/ccjEl64e.s:2117   .debug_str:00000000000001da .LASF14
     /tmp/ccjEl64e.s:2085   .debug_str:00000000000000cb .LASF15
     /tmp/ccjEl64e.s:2155   .debug_str:0000000000000394 .LASF16
GAS LISTING /tmp/ccjEl64e.s 			page 13


     /tmp/ccjEl64e.s:2095   .debug_str:000000000000012b .LASF18
     /tmp/ccjEl64e.s:2149   .debug_str:000000000000035f .LASF57
     /tmp/ccjEl64e.s:2073   .debug_str:0000000000000059 .LASF58
     /tmp/ccjEl64e.s:2163   .debug_str:00000000000003e2 .LASF59
     /tmp/ccjEl64e.s:2123   .debug_str:00000000000001f7 .LASF17
     /tmp/ccjEl64e.s:2173   .debug_str:0000000000000432 .LASF60
     /tmp/ccjEl64e.s:2119   .debug_str:00000000000001e6 .LASF19
     /tmp/ccjEl64e.s:2157   .debug_str:00000000000003aa .LASF61
     /tmp/ccjEl64e.s:2101   .debug_str:0000000000000165 .LASF20
     /tmp/ccjEl64e.s:2067   .debug_str:0000000000000025 .LASF21
     /tmp/ccjEl64e.s:2093   .debug_str:000000000000010c .LASF62
     /tmp/ccjEl64e.s:2131   .debug_str:00000000000002d4 .LASF22
     /tmp/ccjEl64e.s:2169   .debug_str:000000000000041a .LASF23
     /tmp/ccjEl64e.s:2089   .debug_str:00000000000000fc .LASF24
     /tmp/ccjEl64e.s:2171   .debug_str:000000000000041f .LASF26
     /tmp/ccjEl64e.s:2167   .debug_str:0000000000000403 .LASF31
     /tmp/ccjEl64e.s:2179   .debug_str:0000000000000460 .LASF63
     /tmp/ccjEl64e.s:2181   .debug_str:000000000000046a .LASF64
     /tmp/ccjEl64e.s:2137   .debug_str:000000000000030a .LASF25
     /tmp/ccjEl64e.s:2099   .debug_str:0000000000000148 .LASF27
     /tmp/ccjEl64e.s:2129   .debug_str:00000000000002cc .LASF28
     /tmp/ccjEl64e.s:2105   .debug_str:0000000000000179 .LASF29
     /tmp/ccjEl64e.s:2081   .debug_str:0000000000000095 .LASF30
     /tmp/ccjEl64e.s:2187   .debug_str:00000000000004a4 .LASF32
     /tmp/ccjEl64e.s:2125   .debug_str:00000000000001fe .LASF33
     /tmp/ccjEl64e.s:2087   .debug_str:00000000000000e1 .LASF34
     /tmp/ccjEl64e.s:2091   .debug_str:0000000000000101 .LASF35
     /tmp/ccjEl64e.s:2185   .debug_str:0000000000000487 .LASF36
     /tmp/ccjEl64e.s:2165   .debug_str:00000000000003fa .LASF37
     /tmp/ccjEl64e.s:2151   .debug_str:000000000000036a .LASF38
     /tmp/ccjEl64e.s:2147   .debug_str:0000000000000344 .LASF65
     /tmp/ccjEl64e.s:2083   .debug_str:00000000000000a1 .LASF39
     /tmp/ccjEl64e.s:303    .text:00000000000001a0 .LFB21
     /tmp/ccjEl64e.s:329    .text:00000000000001d4 .LFE21
     /tmp/ccjEl64e.s:319    .text:00000000000001c4 .LVL27
     /tmp/ccjEl64e.s:2071   .debug_str:000000000000002f .LASF40
     /tmp/ccjEl64e.s:9      .text:0000000000000000 .LFB20
     /tmp/ccjEl64e.s:53     .text:0000000000000040 .LFE20
     /tmp/ccjEl64e.s:2145   .debug_str:0000000000000335 .LASF41
     /tmp/ccjEl64e.s:2063   .debug_str:0000000000000013 .LASF42
     /tmp/ccjEl64e.s:38     .text:000000000000002c .LBB15
     /tmp/ccjEl64e.s:49     .text:000000000000003c .LBE15
     /tmp/ccjEl64e.s:1838   .debug_loc:0000000000000000 .LLST0
     /tmp/ccjEl64e.s:2111   .debug_str:00000000000001b0 .LASF43
     /tmp/ccjEl64e.s:2135   .debug_str:00000000000002eb .LASF47
     /tmp/ccjEl64e.s:2189   .debug_str:00000000000004c2 .LASF44
     /tmp/ccjEl64e.s:2141   .debug_str:0000000000000320 .LASF45
     /tmp/ccjEl64e.s:2069   .debug_str:000000000000002a .LASF46
     /tmp/ccjEl64e.s:2079   .debug_str:0000000000000082 .LASF48
     /tmp/ccjEl64e.s:212    .text:0000000000000114 .LFB10
     /tmp/ccjEl64e.s:298    .text:00000000000001a0 .LFE10
     /tmp/ccjEl64e.s:227    .text:0000000000000128 .LBB31
     /tmp/ccjEl64e.s:2039   .debug_ranges:0000000000000000 .Ldebug_ranges0
     /tmp/ccjEl64e.s:1847   .debug_loc:000000000000002c .LLST10
     /tmp/ccjEl64e.s:1862   .debug_loc:0000000000000074 .LLST11
     /tmp/ccjEl64e.s:1881   .debug_loc:00000000000000d0 .LLST12
     /tmp/ccjEl64e.s:1892   .debug_loc:0000000000000106 .LLST13
GAS LISTING /tmp/ccjEl64e.s 			page 14


     /tmp/ccjEl64e.s:237    .text:0000000000000138 .LBB33
     /tmp/ccjEl64e.s:253    .text:0000000000000154 .LBE33
     /tmp/ccjEl64e.s:1899   .debug_loc:0000000000000129 .LLST14
     /tmp/ccjEl64e.s:270    .text:000000000000017c .LVL25
     /tmp/ccjEl64e.s:134    .text:00000000000000a8 .LFB9
     /tmp/ccjEl64e.s:206    .text:0000000000000114 .LFE9
     /tmp/ccjEl64e.s:2121   .debug_str:00000000000001f0 .LASF49
     /tmp/ccjEl64e.s:1919   .debug_loc:0000000000000186 .LLST4
     /tmp/ccjEl64e.s:151    .text:00000000000000c0 .LBB22
     /tmp/ccjEl64e.s:1941   .debug_loc:00000000000001e5 .LLST5
     /tmp/ccjEl64e.s:1956   .debug_loc:000000000000022e .LLST6
     /tmp/ccjEl64e.s:158    .text:00000000000000cc .LBB24
     /tmp/ccjEl64e.s:165    .text:00000000000000d4 .LBE24
     /tmp/ccjEl64e.s:1971   .debug_loc:0000000000000276 .LLST7
     /tmp/ccjEl64e.s:1979   .debug_loc:000000000000029a .LLST8
     /tmp/ccjEl64e.s:1986   .debug_loc:00000000000002bd .LLST9
     /tmp/ccjEl64e.s:157    .text:00000000000000cc .LVL13
     /tmp/ccjEl64e.s:59     .text:0000000000000040 .LFB8
     /tmp/ccjEl64e.s:128    .text:00000000000000a8 .LFE8
     /tmp/ccjEl64e.s:74     .text:0000000000000054 .LBB18
     /tmp/ccjEl64e.s:1993   .debug_loc:00000000000002e0 .LLST1
     /tmp/ccjEl64e.s:2008   .debug_loc:0000000000000328 .LLST2
     /tmp/ccjEl64e.s:2019   .debug_loc:000000000000035e .LLST3
     /tmp/ccjEl64e.s:93     .text:000000000000007c .LVL6
     /tmp/ccjEl64e.s:2175   .debug_str:0000000000000449 .LASF50
     /tmp/ccjEl64e.s:2143   .debug_str:0000000000000325 .LASF52
     /tmp/ccjEl64e.s:2183   .debug_str:0000000000000481 .LASF51
     /tmp/ccjEl64e.s:2107   .debug_str:0000000000000195 .LASF53
     /tmp/ccjEl64e.s:37     .text:000000000000002c .LVL1
     /tmp/ccjEl64e.s:46     .text:000000000000003c .LVL2
     /tmp/ccjEl64e.s:226    .text:0000000000000128 .LVL19
     /tmp/ccjEl64e.s:287    .text:0000000000000194 .LVL26
     /tmp/ccjEl64e.s:236    .text:0000000000000138 .LVL20
     /tmp/ccjEl64e.s:244    .text:0000000000000148 .LVL21
     /tmp/ccjEl64e.s:250    .text:0000000000000150 .LVL22
     /tmp/ccjEl64e.s:256    .text:000000000000015c .LVL23
     /tmp/ccjEl64e.s:266    .text:0000000000000170 .LVL24
     /tmp/ccjEl64e.s:137    .text:00000000000000a8 .LVL10
     /tmp/ccjEl64e.s:155    .text:00000000000000c4 .LVL12
     /tmp/ccjEl64e.s:187    .text:00000000000000f8 .LVL16
     /tmp/ccjEl64e.s:191    .text:0000000000000100 .LVL17
     /tmp/ccjEl64e.s:150    .text:00000000000000c0 .LVL11
     /tmp/ccjEl64e.s:174    .text:00000000000000ec .LVL15
     /tmp/ccjEl64e.s:200    .text:0000000000000110 .LVL18
     /tmp/ccjEl64e.s:163    .text:00000000000000d4 .LVL14
     /tmp/ccjEl64e.s:73     .text:0000000000000054 .LVL3
     /tmp/ccjEl64e.s:110    .text:0000000000000094 .LVL7
     /tmp/ccjEl64e.s:122    .text:00000000000000a4 .LVL9
     /tmp/ccjEl64e.s:80     .text:0000000000000060 .LVL4
     /tmp/ccjEl64e.s:118    .text:00000000000000a0 .LVL8
     /tmp/ccjEl64e.s:90     .text:0000000000000074 .LVL5
     /tmp/ccjEl64e.s:347    .debug_info:0000000000000000 .Ldebug_info0
     /tmp/ccjEl64e.s:96     .text:000000000000007c .LBE18
     /tmp/ccjEl64e.s:113    .text:0000000000000094 .LBB21
     /tmp/ccjEl64e.s:124    .text:00000000000000a4 .LBE21
     /tmp/ccjEl64e.s:177    .text:00000000000000ec .LBE22
     /tmp/ccjEl64e.s:194    .text:0000000000000100 .LBB27
GAS LISTING /tmp/ccjEl64e.s 			page 15


     /tmp/ccjEl64e.s:202    .text:0000000000000110 .LBE27
     /tmp/ccjEl64e.s:273    .text:000000000000017c .LBE31
     /tmp/ccjEl64e.s:290    .text:0000000000000194 .LBB35
     /tmp/ccjEl64e.s:296    .text:00000000000001a0 .LBE35

UNDEFINED SYMBOLS
_ZdlPv
_Znwm
