GAS LISTING /tmp/ccavpHXU.s 			page 1


   1              		.file	"Scheduler.cpp"
   2              		.option pic
   3              		.option norelax
   4              		.text
   5              	.Ltext0:
   6              		.align	2
   8              	_Z41__static_initialization_and_destruction_0ii:
   9              	.LFB20:
  10              		.file 1 "src/Scheduler.cpp"
   1:src/Scheduler.cpp **** //
   2:src/Scheduler.cpp **** // Created by os on 7/28/23.
   3:src/Scheduler.cpp **** //
   4:src/Scheduler.cpp **** 
   5:src/Scheduler.cpp **** #include "../h/Scheduler.hpp"
   6:src/Scheduler.cpp **** 
   7:src/Scheduler.cpp **** List<PCB> Scheduler::readyQueue;
   8:src/Scheduler.cpp **** 
   9:src/Scheduler.cpp **** PCB *Scheduler::get() {
  10:src/Scheduler.cpp ****     return Scheduler::readyQueue.removeFirst();
  11:src/Scheduler.cpp **** }
  12:src/Scheduler.cpp **** 
  13:src/Scheduler.cpp **** void Scheduler::put(PCB *handle) {
  14:src/Scheduler.cpp ****     Scheduler::readyQueue.addLast(handle);
  15:src/Scheduler.cpp **** }
  16:src/Scheduler.cpp **** 
  17:src/Scheduler.cpp **** void Scheduler::remove() {
  18:src/Scheduler.cpp ****     Scheduler::readyQueue.removeLast();
  19:src/Scheduler.cpp **** }
  11              		.loc 1 19 1
  12              		.cfi_startproc
  13              	.LVL0:
  14 0000 130101FF 		addi	sp,sp,-16
  15              		.cfi_def_cfa_offset 16
  16 0004 23348100 		sd	s0,8(sp)
  17              		.cfi_offset 8, -8
  18 0008 13040101 		addi	s0,sp,16
  19              		.cfi_def_cfa 8, 0
  20              		.loc 1 19 1 is_stmt 0
  21 000c 93071000 		li	a5,1
  22 0010 6308F500 		beq	a0,a5,.L4
  23              	.L1:
  24 0014 03348100 		ld	s0,8(sp)
  25              		.cfi_remember_state
  26              		.cfi_restore 8
  27              		.cfi_def_cfa 2, 16
  28 0018 13010101 		addi	sp,sp,16
  29              		.cfi_def_cfa_offset 0
  30 001c 67800000 		jr	ra
  31              	.L4:
  32              		.cfi_restore_state
  33              		.loc 1 19 1 discriminator 1
  34 0020 B7070100 		li	a5,65536
  35 0024 9387F7FF 		addi	a5,a5,-1
  36 0028 E396F5FE 		bne	a1,a5,.L1
  37              	.LVL1:
  38              	.LBB18:
  39              	.LBB19:
GAS LISTING /tmp/ccavpHXU.s 			page 2


  40              	.LBB20:
  41              		.file 2 "src/../h/list.hpp"
   1:src/../h/list.hpp **** #ifndef PROJECT_BASE_V1_1_LIST_HPP
   2:src/../h/list.hpp **** #define PROJECT_BASE_V1_1_LIST_HPP
   3:src/../h/list.hpp **** 
   4:src/../h/list.hpp **** template<typename T>
   5:src/../h/list.hpp **** class List
   6:src/../h/list.hpp **** {
   7:src/../h/list.hpp **** private:
   8:src/../h/list.hpp ****     struct Elem
   9:src/../h/list.hpp ****     {
  10:src/../h/list.hpp ****         T *data;
  11:src/../h/list.hpp ****         Elem *next;
  12:src/../h/list.hpp **** 
  13:src/../h/list.hpp ****         Elem(T *data, Elem *next) : data(data), next(next) {}
  14:src/../h/list.hpp ****     };
  15:src/../h/list.hpp **** 
  16:src/../h/list.hpp ****     Elem *head, *tail;
  17:src/../h/list.hpp **** 
  18:src/../h/list.hpp **** public:
  19:src/../h/list.hpp ****     List() : head(0), tail(0) {}
  42              		.loc 2 19 29
  43 002c 97070000 		lla	a5,.LANCHOR0
  43      93870700 
  44 0034 23B00700 		sd	zero,0(a5)
  45 0038 23B40700 		sd	zero,8(a5)
  46              	.LVL2:
  47              	.LBE20:
  48              	.LBE19:
  49              	.LBE18:
  50              		.loc 1 19 1
  51 003c 6FF09FFD 		j	.L1
  52              		.cfi_endproc
  53              	.LFE20:
  55              		.align	2
  56              		.globl	_ZN9Scheduler3getEv
  58              	_ZN9Scheduler3getEv:
  59              	.LFB8:
   9:src/Scheduler.cpp ****     return Scheduler::readyQueue.removeFirst();
  60              		.loc 1 9 23 is_stmt 1
  61              		.cfi_startproc
  62 0040 130101FF 		addi	sp,sp,-16
  63              		.cfi_def_cfa_offset 16
  64 0044 23348100 		sd	s0,8(sp)
  65              		.cfi_offset 8, -8
  66 0048 13040101 		addi	s0,sp,16
  67              		.cfi_def_cfa 8, 0
  10:src/Scheduler.cpp **** }
  68              		.loc 1 10 5
  69              	.LVL3:
  70              	.LBB21:
  71              	.LBB22:
  20:src/../h/list.hpp **** 
  21:src/../h/list.hpp ****     List(const List<T> &) = delete;
  22:src/../h/list.hpp **** 
  23:src/../h/list.hpp ****     List<T> &operator=(const List<T> &) = delete;
  24:src/../h/list.hpp **** 
GAS LISTING /tmp/ccavpHXU.s 			page 3


  25:src/../h/list.hpp ****     void addFirst(T *data)
  26:src/../h/list.hpp ****     {
  27:src/../h/list.hpp ****         Elem *elem = new Elem(data, head);
  28:src/../h/list.hpp ****         head = elem;
  29:src/../h/list.hpp ****         if (!tail) { tail = head; }
  30:src/../h/list.hpp ****     }
  31:src/../h/list.hpp **** 
  32:src/../h/list.hpp ****     void addLast(T *data)
  33:src/../h/list.hpp ****     {
  34:src/../h/list.hpp ****         Elem *elem = new Elem(data, 0);
  35:src/../h/list.hpp ****         if (tail)
  36:src/../h/list.hpp ****         {
  37:src/../h/list.hpp ****             tail->next = elem;
  38:src/../h/list.hpp ****             tail = elem;
  39:src/../h/list.hpp ****         } else
  40:src/../h/list.hpp ****         {
  41:src/../h/list.hpp ****             head = tail = elem;
  42:src/../h/list.hpp ****         }
  43:src/../h/list.hpp ****     }
  44:src/../h/list.hpp **** 
  45:src/../h/list.hpp ****     T *removeFirst()
  46:src/../h/list.hpp ****     {
  47:src/../h/list.hpp ****         if (!head) { return 0; }
  72              		.loc 2 47 14 is_stmt 0
  73 004c 17050000 		ld	a0,.LANCHOR0
  73      03350500 
  74              		.loc 2 47 9
  75 0054 630C0500 		beqz	a0,.L5
  76              	.LVL4:
  48:src/../h/list.hpp **** 
  49:src/../h/list.hpp ****         Elem *elem = head;
  50:src/../h/list.hpp ****         head = head->next;
  77              		.loc 2 50 22
  78 0058 83378500 		ld	a5,8(a0)
  79              		.loc 2 50 9
  80 005c 17070000 		sd	a5,.LANCHOR0,a4
  80      2330F700 
  51:src/../h/list.hpp ****         if (!head) { tail = 0; }
  81              		.loc 2 51 9
  82 0064 638A0700 		beqz	a5,.L9
  83              	.L7:
  52:src/../h/list.hpp **** 
  53:src/../h/list.hpp ****         T *ret = elem->data;
  84              		.loc 2 53 12
  85 0068 03350500 		ld	a0,0(a0)
  86              	.LVL5:
  87              	.L5:
  88              	.LBE22:
  89              	.LBE21:
  11:src/Scheduler.cpp **** 
  90              		.loc 1 11 1
  91 006c 03348100 		ld	s0,8(sp)
  92              		.cfi_remember_state
  93              		.cfi_restore 8
  94              		.cfi_def_cfa 2, 16
  95 0070 13010101 		addi	sp,sp,16
  96              		.cfi_def_cfa_offset 0
GAS LISTING /tmp/ccavpHXU.s 			page 4


  97 0074 67800000 		jr	ra
  98              	.LVL6:
  99              	.L9:
 100              		.cfi_restore_state
 101              	.LBB24:
 102              	.LBB23:
  51:src/../h/list.hpp ****         if (!head) { tail = 0; }
 103              		.loc 2 51 22
 104 0078 97070000 		sd	zero,.LANCHOR0+8,a5
 104      23B00700 
 105 0080 6FF09FFE 		j	.L7
 106              	.LBE23:
 107              	.LBE24:
 108              		.cfi_endproc
 109              	.LFE8:
 111              		.align	2
 112              		.globl	_ZN9Scheduler3putEP3PCB
 114              	_ZN9Scheduler3putEP3PCB:
 115              	.LFB9:
  13:src/Scheduler.cpp ****     Scheduler::readyQueue.addLast(handle);
 116              		.loc 1 13 34 is_stmt 1
 117              		.cfi_startproc
 118              	.LVL7:
 119 0084 130101FE 		addi	sp,sp,-32
 120              		.cfi_def_cfa_offset 32
 121 0088 233C1100 		sd	ra,24(sp)
 122 008c 23388100 		sd	s0,16(sp)
 123 0090 23349100 		sd	s1,8(sp)
 124              		.cfi_offset 1, -8
 125              		.cfi_offset 8, -16
 126              		.cfi_offset 9, -24
 127 0094 13040102 		addi	s0,sp,32
 128              		.cfi_def_cfa 8, 0
 129 0098 93040500 		mv	s1,a0
  14:src/Scheduler.cpp **** }
 130              		.loc 1 14 5
 131              	.LVL8:
 132              	.LBB25:
 133              	.LBB26:
  34:src/../h/list.hpp ****         if (tail)
 134              		.loc 2 34 22 is_stmt 0
 135 009c 13050001 		li	a0,16
 136              	.LVL9:
 137 00a0 97000000 		call	_Znwm@plt
 137      E7800000 
 138              	.LVL10:
 139              	.LBB27:
 140              	.LBB28:
  13:src/../h/list.hpp ****     };
 141              		.loc 2 13 58
 142 00a8 23309500 		sd	s1,0(a0)
 143 00ac 23340500 		sd	zero,8(a0)
 144              	.LVL11:
 145              	.LBE28:
 146              	.LBE27:
  35:src/../h/list.hpp ****         {
 147              		.loc 2 35 13
GAS LISTING /tmp/ccavpHXU.s 			page 5


 148 00b0 97070000 		ld	a5,.LANCHOR0+8
 148      83B70700 
  35:src/../h/list.hpp ****         {
 149              		.loc 2 35 9
 150 00b8 63820702 		beqz	a5,.L11
  37:src/../h/list.hpp ****             tail = elem;
 151              		.loc 2 37 13
 152 00bc 23B4A700 		sd	a0,8(a5)
  38:src/../h/list.hpp ****         } else
 153              		.loc 2 38 13
 154 00c0 97070000 		sd	a0,.LANCHOR0+8,a5
 154      23B0A700 
 155              	.LVL12:
 156              	.L10:
 157              	.LBE26:
 158              	.LBE25:
  15:src/Scheduler.cpp **** 
 159              		.loc 1 15 1
 160 00c8 83308101 		ld	ra,24(sp)
 161              		.cfi_remember_state
 162              		.cfi_restore 1
 163 00cc 03340101 		ld	s0,16(sp)
 164              		.cfi_restore 8
 165              		.cfi_def_cfa 2, 32
 166 00d0 83348100 		ld	s1,8(sp)
 167              		.cfi_restore 9
 168              	.LVL13:
 169 00d4 13010102 		addi	sp,sp,32
 170              		.cfi_def_cfa_offset 0
 171 00d8 67800000 		jr	ra
 172              	.LVL14:
 173              	.L11:
 174              		.cfi_restore_state
 175              	.LBB30:
 176              	.LBB29:
  41:src/../h/list.hpp ****         }
 177              		.loc 2 41 13
 178 00dc 97070000 		lla	a5,.LANCHOR0
 178      93870700 
 179 00e4 23B4A700 		sd	a0,8(a5)
 180 00e8 23B0A700 		sd	a0,0(a5)
 181              	.LVL15:
 182              	.LBE29:
 183              	.LBE30:
  15:src/Scheduler.cpp **** 
 184              		.loc 1 15 1
 185 00ec 6FF0DFFD 		j	.L10
 186              		.cfi_endproc
 187              	.LFE9:
 189              		.align	2
 190              		.globl	_ZN9Scheduler6removeEv
 192              	_ZN9Scheduler6removeEv:
 193              	.LFB10:
  17:src/Scheduler.cpp ****     Scheduler::readyQueue.removeLast();
 194              		.loc 1 17 26 is_stmt 1
 195              		.cfi_startproc
 196 00f0 130101FF 		addi	sp,sp,-16
GAS LISTING /tmp/ccavpHXU.s 			page 6


 197              		.cfi_def_cfa_offset 16
 198 00f4 23348100 		sd	s0,8(sp)
 199              		.cfi_offset 8, -8
 200 00f8 13040101 		addi	s0,sp,16
 201              		.cfi_def_cfa 8, 0
  18:src/Scheduler.cpp **** }
 202              		.loc 1 18 5
 203              	.LVL16:
 204              	.LBB31:
 205              	.LBB32:
  54:src/../h/list.hpp ****         return ret;
  55:src/../h/list.hpp ****     }
  56:src/../h/list.hpp **** 
  57:src/../h/list.hpp ****     T *peekFirst()
  58:src/../h/list.hpp ****     {
  59:src/../h/list.hpp ****         if (!head) { return 0; }
  60:src/../h/list.hpp ****         return head->data;
  61:src/../h/list.hpp ****     }
  62:src/../h/list.hpp **** 
  63:src/../h/list.hpp ****     T *removeLast()
  64:src/../h/list.hpp ****     {
  65:src/../h/list.hpp ****         if (!head) { return 0; }
 206              		.loc 2 65 14 is_stmt 0
 207 00fc 97070000 		ld	a5,.LANCHOR0
 207      83B70700 
 208              		.loc 2 65 9
 209 0104 638A0702 		beqz	a5,.L14
  66:src/../h/list.hpp **** 
  67:src/../h/list.hpp ****         Elem *prev = 0;
 210              		.loc 2 67 15
 211 0108 93060000 		li	a3,0
 212              	.L17:
 213              	.LVL17:
 214              	.LBB33:
  68:src/../h/list.hpp ****         for (Elem *curr = head; curr && curr != tail; curr = curr->next)
 215              		.loc 2 68 38 is_stmt 1
 216 010c 638E0700 		beqz	a5,.L16
 217              		.loc 2 68 49 is_stmt 0
 218 0110 17070000 		ld	a4,.LANCHOR0+8
 218      03370700 
 219              		.loc 2 68 38
 220 0118 6388E700 		beq	a5,a4,.L16
 221              	.LVL18:
 222              		.loc 2 68 9 is_stmt 1
  69:src/../h/list.hpp ****         {
  70:src/../h/list.hpp ****             prev = curr;
 223              		.loc 2 70 13 is_stmt 0
 224 011c 93860700 		mv	a3,a5
  68:src/../h/list.hpp ****         for (Elem *curr = head; curr && curr != tail; curr = curr->next)
 225              		.loc 2 68 9
 226 0120 83B78700 		ld	a5,8(a5)
 227              	.LVL19:
 228 0124 6FF09FFE 		j	.L17
 229              	.L16:
 230              	.LVL20:
 231              	.LBE33:
  71:src/../h/list.hpp ****         }
GAS LISTING /tmp/ccavpHXU.s 			page 7


  72:src/../h/list.hpp **** 
  73:src/../h/list.hpp ****         Elem *elem = tail;
  74:src/../h/list.hpp ****         if (prev) { prev->next = 0; }
 232              		.loc 2 74 9
 233 0128 638E0600 		beqz	a3,.L18
 234              		.loc 2 74 21
 235 012c 23B40600 		sd	zero,8(a3)
 236              	.LVL21:
 237              	.L19:
  75:src/../h/list.hpp ****         else { head = 0; }
  76:src/../h/list.hpp ****         tail = prev;
 238              		.loc 2 76 9
 239 0130 97070000 		sd	a3,.LANCHOR0+8,a5
 239      23B0D700 
 240              	.LVL22:
 241              	.L14:
 242              	.LBE32:
 243              	.LBE31:
 244              		.loc 1 19 1
 245 0138 03348100 		ld	s0,8(sp)
 246              		.cfi_remember_state
 247              		.cfi_restore 8
 248              		.cfi_def_cfa 2, 16
 249 013c 13010101 		addi	sp,sp,16
 250              		.cfi_def_cfa_offset 0
 251 0140 67800000 		jr	ra
 252              	.LVL23:
 253              	.L18:
 254              		.cfi_restore_state
 255              	.LBB35:
 256              	.LBB34:
  75:src/../h/list.hpp ****         else { head = 0; }
 257              		.loc 2 75 16
 258 0144 97070000 		sd	zero,.LANCHOR0,a5
 258      23B00700 
 259              	.LVL24:
 260 014c 6FF05FFE 		j	.L19
 261              	.LBE34:
 262              	.LBE35:
 263              		.cfi_endproc
 264              	.LFE10:
 266              		.align	2
 268              	_GLOBAL__sub_I__ZN9Scheduler10readyQueueE:
 269              	.LFB21:
 270              		.loc 1 19 1 is_stmt 1
 271              		.cfi_startproc
 272 0150 130101FF 		addi	sp,sp,-16
 273              		.cfi_def_cfa_offset 16
 274 0154 23341100 		sd	ra,8(sp)
 275 0158 23308100 		sd	s0,0(sp)
 276              		.cfi_offset 1, -8
 277              		.cfi_offset 8, -16
 278 015c 13040101 		addi	s0,sp,16
 279              		.cfi_def_cfa 8, 0
 280              		.loc 1 19 1 is_stmt 0
 281 0160 B7050100 		li	a1,65536
 282 0164 9385F5FF 		addi	a1,a1,-1
GAS LISTING /tmp/ccavpHXU.s 			page 8


 283 0168 13051000 		li	a0,1
 284 016c 97000000 		call	_Z41__static_initialization_and_destruction_0ii
 284      E7800000 
 285              	.LVL25:
 286 0174 83308100 		ld	ra,8(sp)
 287              		.cfi_restore 1
 288 0178 03340100 		ld	s0,0(sp)
 289              		.cfi_restore 8
 290              		.cfi_def_cfa 2, 16
 291 017c 13010101 		addi	sp,sp,16
 292              		.cfi_def_cfa_offset 0
 293 0180 67800000 		jr	ra
 294              		.cfi_endproc
 295              	.LFE21:
 297              		.section	.init_array,"aw"
 298              		.align	3
 299 0000 00000000 		.dword	_GLOBAL__sub_I__ZN9Scheduler10readyQueueE
 299      00000000 
 300              		.globl	_ZN9Scheduler10readyQueueE
 301              		.bss
 302              		.align	3
 303              		.set	.LANCHOR0,. + 0
 306              	_ZN9Scheduler10readyQueueE:
 307 0000 00000000 		.zero	16
 307      00000000 
 307      00000000 
 307      00000000 
 308              		.text
 309              	.Letext0:
 310              		.file 3 "src/../h/Scheduler.hpp"
GAS LISTING /tmp/ccavpHXU.s 			page 9


DEFINED SYMBOLS
                            *ABS*:0000000000000000 Scheduler.cpp
     /tmp/ccavpHXU.s:8      .text:0000000000000000 _Z41__static_initialization_and_destruction_0ii
     /tmp/ccavpHXU.s:12     .text:0000000000000000 .L0 
     /tmp/ccavpHXU.s:14     .text:0000000000000000 .L0 
     /tmp/ccavpHXU.s:15     .text:0000000000000004 .L0 
     /tmp/ccavpHXU.s:17     .text:0000000000000008 .L0 
     /tmp/ccavpHXU.s:19     .text:000000000000000c .L0 
     /tmp/ccavpHXU.s:21     .text:000000000000000c .L0 
     /tmp/ccavpHXU.s:25     .text:0000000000000018 .L0 
     /tmp/ccavpHXU.s:26     .text:0000000000000018 .L0 
     /tmp/ccavpHXU.s:27     .text:0000000000000018 .L0 
     /tmp/ccavpHXU.s:29     .text:000000000000001c .L0 
     /tmp/ccavpHXU.s:32     .text:0000000000000020 .L0 
     /tmp/ccavpHXU.s:34     .text:0000000000000020 .L0 
     /tmp/ccavpHXU.s:43     .text:000000000000002c .L0 
     /tmp/ccavpHXU.s:51     .text:000000000000003c .L0 
     /tmp/ccavpHXU.s:52     .text:0000000000000040 .L0 
     /tmp/ccavpHXU.s:58     .text:0000000000000040 _ZN9Scheduler3getEv
     /tmp/ccavpHXU.s:61     .text:0000000000000040 .L0 
     /tmp/ccavpHXU.s:62     .text:0000000000000040 .L0 
     /tmp/ccavpHXU.s:63     .text:0000000000000044 .L0 
     /tmp/ccavpHXU.s:65     .text:0000000000000048 .L0 
     /tmp/ccavpHXU.s:67     .text:000000000000004c .L0 
     /tmp/ccavpHXU.s:72     .text:000000000000004c .L0 
     /tmp/ccavpHXU.s:73     .text:000000000000004c .L0 
     /tmp/ccavpHXU.s:75     .text:0000000000000054 .L0 
     /tmp/ccavpHXU.s:78     .text:0000000000000058 .L0 
     /tmp/ccavpHXU.s:80     .text:000000000000005c .L0 
     /tmp/ccavpHXU.s:82     .text:0000000000000064 .L0 
     /tmp/ccavpHXU.s:85     .text:0000000000000068 .L0 
     /tmp/ccavpHXU.s:91     .text:000000000000006c .L0 
     /tmp/ccavpHXU.s:92     .text:0000000000000070 .L0 
     /tmp/ccavpHXU.s:93     .text:0000000000000070 .L0 
     /tmp/ccavpHXU.s:94     .text:0000000000000070 .L0 
     /tmp/ccavpHXU.s:96     .text:0000000000000074 .L0 
     /tmp/ccavpHXU.s:100    .text:0000000000000078 .L0 
     /tmp/ccavpHXU.s:104    .text:0000000000000078 .L0 
     /tmp/ccavpHXU.s:108    .text:0000000000000084 .L0 
     /tmp/ccavpHXU.s:114    .text:0000000000000084 _ZN9Scheduler3putEP3PCB
     /tmp/ccavpHXU.s:117    .text:0000000000000084 .L0 
     /tmp/ccavpHXU.s:119    .text:0000000000000084 .L0 
     /tmp/ccavpHXU.s:120    .text:0000000000000088 .L0 
     /tmp/ccavpHXU.s:124    .text:0000000000000094 .L0 
     /tmp/ccavpHXU.s:125    .text:0000000000000094 .L0 
     /tmp/ccavpHXU.s:126    .text:0000000000000094 .L0 
     /tmp/ccavpHXU.s:128    .text:0000000000000098 .L0 
     /tmp/ccavpHXU.s:134    .text:000000000000009c .L0 
     /tmp/ccavpHXU.s:135    .text:000000000000009c .L0 
     /tmp/ccavpHXU.s:142    .text:00000000000000a8 .L0 
     /tmp/ccavpHXU.s:148    .text:00000000000000b0 .L0 
     /tmp/ccavpHXU.s:150    .text:00000000000000b8 .L0 
     /tmp/ccavpHXU.s:152    .text:00000000000000bc .L0 
     /tmp/ccavpHXU.s:154    .text:00000000000000c0 .L0 
     /tmp/ccavpHXU.s:160    .text:00000000000000c8 .L0 
     /tmp/ccavpHXU.s:161    .text:00000000000000cc .L0 
     /tmp/ccavpHXU.s:162    .text:00000000000000cc .L0 
GAS LISTING /tmp/ccavpHXU.s 			page 10


     /tmp/ccavpHXU.s:164    .text:00000000000000d0 .L0 
     /tmp/ccavpHXU.s:165    .text:00000000000000d0 .L0 
     /tmp/ccavpHXU.s:167    .text:00000000000000d4 .L0 
     /tmp/ccavpHXU.s:170    .text:00000000000000d8 .L0 
     /tmp/ccavpHXU.s:174    .text:00000000000000dc .L0 
     /tmp/ccavpHXU.s:178    .text:00000000000000dc .L0 
     /tmp/ccavpHXU.s:185    .text:00000000000000ec .L0 
     /tmp/ccavpHXU.s:186    .text:00000000000000f0 .L0 
     /tmp/ccavpHXU.s:192    .text:00000000000000f0 _ZN9Scheduler6removeEv
     /tmp/ccavpHXU.s:195    .text:00000000000000f0 .L0 
     /tmp/ccavpHXU.s:196    .text:00000000000000f0 .L0 
     /tmp/ccavpHXU.s:197    .text:00000000000000f4 .L0 
     /tmp/ccavpHXU.s:199    .text:00000000000000f8 .L0 
     /tmp/ccavpHXU.s:201    .text:00000000000000fc .L0 
     /tmp/ccavpHXU.s:206    .text:00000000000000fc .L0 
     /tmp/ccavpHXU.s:207    .text:00000000000000fc .L0 
     /tmp/ccavpHXU.s:209    .text:0000000000000104 .L0 
     /tmp/ccavpHXU.s:211    .text:0000000000000108 .L0 
     /tmp/ccavpHXU.s:216    .text:000000000000010c .L0 
     /tmp/ccavpHXU.s:218    .text:0000000000000110 .L0 
     /tmp/ccavpHXU.s:220    .text:0000000000000118 .L0 
     /tmp/ccavpHXU.s:223    .text:000000000000011c .L0 
     /tmp/ccavpHXU.s:224    .text:000000000000011c .L0 
     /tmp/ccavpHXU.s:226    .text:0000000000000120 .L0 
     /tmp/ccavpHXU.s:233    .text:0000000000000128 .L0 
     /tmp/ccavpHXU.s:235    .text:000000000000012c .L0 
     /tmp/ccavpHXU.s:239    .text:0000000000000130 .L0 
     /tmp/ccavpHXU.s:245    .text:0000000000000138 .L0 
     /tmp/ccavpHXU.s:246    .text:000000000000013c .L0 
     /tmp/ccavpHXU.s:247    .text:000000000000013c .L0 
     /tmp/ccavpHXU.s:248    .text:000000000000013c .L0 
     /tmp/ccavpHXU.s:250    .text:0000000000000140 .L0 
     /tmp/ccavpHXU.s:254    .text:0000000000000144 .L0 
     /tmp/ccavpHXU.s:258    .text:0000000000000144 .L0 
     /tmp/ccavpHXU.s:263    .text:0000000000000150 .L0 
     /tmp/ccavpHXU.s:268    .text:0000000000000150 _GLOBAL__sub_I__ZN9Scheduler10readyQueueE
     /tmp/ccavpHXU.s:271    .text:0000000000000150 .L0 
     /tmp/ccavpHXU.s:272    .text:0000000000000150 .L0 
     /tmp/ccavpHXU.s:273    .text:0000000000000154 .L0 
     /tmp/ccavpHXU.s:276    .text:000000000000015c .L0 
     /tmp/ccavpHXU.s:277    .text:000000000000015c .L0 
     /tmp/ccavpHXU.s:279    .text:0000000000000160 .L0 
     /tmp/ccavpHXU.s:281    .text:0000000000000160 .L0 
     /tmp/ccavpHXU.s:287    .text:0000000000000178 .L0 
     /tmp/ccavpHXU.s:289    .text:000000000000017c .L0 
     /tmp/ccavpHXU.s:290    .text:000000000000017c .L0 
     /tmp/ccavpHXU.s:292    .text:0000000000000180 .L0 
     /tmp/ccavpHXU.s:294    .text:0000000000000184 .L0 
     /tmp/ccavpHXU.s:306    .bss:0000000000000000 _ZN9Scheduler10readyQueueE
     /tmp/ccavpHXU.s:303    .bss:0000000000000000 .LANCHOR0
     /tmp/ccavpHXU.s:311    .text:0000000000000184 .L0 
     /tmp/ccavpHXU.s:43     .text:000000000000002c .L0 
     /tmp/ccavpHXU.s:73     .text:000000000000004c .L0 
     /tmp/ccavpHXU.s:80     .text:000000000000005c .L0 
     /tmp/ccavpHXU.s:104    .text:0000000000000078 .L0 
     /tmp/ccavpHXU.s:148    .text:00000000000000b0 .L0 
     /tmp/ccavpHXU.s:154    .text:00000000000000c0 .L0 
GAS LISTING /tmp/ccavpHXU.s 			page 11


     /tmp/ccavpHXU.s:178    .text:00000000000000dc .L0 
     /tmp/ccavpHXU.s:207    .text:00000000000000fc .L0 
     /tmp/ccavpHXU.s:218    .text:0000000000000110 .L0 
     /tmp/ccavpHXU.s:239    .text:0000000000000130 .L0 
     /tmp/ccavpHXU.s:258    .text:0000000000000144 .L0 
     /tmp/ccavpHXU.s:31     .text:0000000000000020 .L4
     /tmp/ccavpHXU.s:23     .text:0000000000000014 .L1
     /tmp/ccavpHXU.s:87     .text:000000000000006c .L5
     /tmp/ccavpHXU.s:99     .text:0000000000000078 .L9
     /tmp/ccavpHXU.s:83     .text:0000000000000068 .L7
     /tmp/ccavpHXU.s:173    .text:00000000000000dc .L11
     /tmp/ccavpHXU.s:156    .text:00000000000000c8 .L10
     /tmp/ccavpHXU.s:241    .text:0000000000000138 .L14
     /tmp/ccavpHXU.s:229    .text:0000000000000128 .L16
     /tmp/ccavpHXU.s:212    .text:000000000000010c .L17
     /tmp/ccavpHXU.s:253    .text:0000000000000144 .L18
     /tmp/ccavpHXU.s:237    .text:0000000000000130 .L19
     /tmp/ccavpHXU.s:912    .debug_abbrev:0000000000000000 .Ldebug_abbrev0
     /tmp/ccavpHXU.s:1849   .debug_str:0000000000000140 .LASF32
     /tmp/ccavpHXU.s:1855   .debug_str:000000000000020e .LASF33
     /tmp/ccavpHXU.s:1875   .debug_str:00000000000002be .LASF34
     /tmp/ccavpHXU.s:5      .text:0000000000000000 .Ltext0
     /tmp/ccavpHXU.s:309    .text:0000000000000184 .Letext0
     /tmp/ccavpHXU.s:1803   .debug_line:0000000000000000 .Ldebug_line0
     /tmp/ccavpHXU.s:1827   .debug_str:00000000000000ad .LASF0
     /tmp/ccavpHXU.s:1867   .debug_str:0000000000000277 .LASF35
     /tmp/ccavpHXU.s:1811   .debug_str:0000000000000015 .LASF36
     /tmp/ccavpHXU.s:1877   .debug_str:00000000000002e1 .LASF37
     /tmp/ccavpHXU.s:1845   .debug_str:000000000000012f .LASF38
     /tmp/ccavpHXU.s:1833   .debug_str:00000000000000d9 .LASF39
     /tmp/ccavpHXU.s:1841   .debug_str:000000000000011e .LASF1
     /tmp/ccavpHXU.s:1871   .debug_str:000000000000029c .LASF40
     /tmp/ccavpHXU.s:1831   .debug_str:00000000000000d4 .LASF2
     /tmp/ccavpHXU.s:1807   .debug_str:000000000000000b .LASF3
     /tmp/ccavpHXU.s:1825   .debug_str:000000000000008e .LASF41
     /tmp/ccavpHXU.s:1853   .debug_str:0000000000000209 .LASF4
     /tmp/ccavpHXU.s:1881   .debug_str:0000000000000310 .LASF5
     /tmp/ccavpHXU.s:1861   .debug_str:0000000000000248 .LASF6
     /tmp/ccavpHXU.s:1883   .debug_str:0000000000000315 .LASF8
     /tmp/ccavpHXU.s:1879   .debug_str:00000000000002f9 .LASF13
     /tmp/ccavpHXU.s:1887   .debug_str:0000000000000343 .LASF42
     /tmp/ccavpHXU.s:1889   .debug_str:000000000000034d .LASF43
     /tmp/ccavpHXU.s:1859   .debug_str:000000000000023f .LASF7
     /tmp/ccavpHXU.s:1829   .debug_str:00000000000000b7 .LASF9
     /tmp/ccavpHXU.s:1813   .debug_str:0000000000000029 .LASF10
     /tmp/ccavpHXU.s:1835   .debug_str:00000000000000f0 .LASF11
     /tmp/ccavpHXU.s:1817   .debug_str:0000000000000044 .LASF12
     /tmp/ccavpHXU.s:1895   .debug_str:0000000000000394 .LASF14
     /tmp/ccavpHXU.s:1847   .debug_str:0000000000000136 .LASF15
     /tmp/ccavpHXU.s:1885   .debug_str:0000000000000328 .LASF16
     /tmp/ccavpHXU.s:1823   .debug_str:0000000000000083 .LASF17
     /tmp/ccavpHXU.s:1873   .debug_str:00000000000002a1 .LASF18
     /tmp/ccavpHXU.s:1821   .debug_str:000000000000007a .LASF19
     /tmp/ccavpHXU.s:1869   .debug_str:0000000000000282 .LASF20
     /tmp/ccavpHXU.s:1865   .debug_str:000000000000025c .LASF44
     /tmp/ccavpHXU.s:1819   .debug_str:0000000000000050 .LASF21
     /tmp/ccavpHXU.s:269    .text:0000000000000150 .LFB21
GAS LISTING /tmp/ccavpHXU.s 			page 12


     /tmp/ccavpHXU.s:295    .text:0000000000000184 .LFE21
     /tmp/ccavpHXU.s:285    .text:0000000000000174 .LVL25
     /tmp/ccavpHXU.s:1893   .debug_str:000000000000036a .LASF22
     /tmp/ccavpHXU.s:9      .text:0000000000000000 .LFB20
     /tmp/ccavpHXU.s:53     .text:0000000000000040 .LFE20
     /tmp/ccavpHXU.s:1863   .debug_str:000000000000024d .LASF23
     /tmp/ccavpHXU.s:1805   .debug_str:0000000000000000 .LASF24
     /tmp/ccavpHXU.s:38     .text:000000000000002c .LBB18
     /tmp/ccavpHXU.s:49     .text:000000000000003c .LBE18
     /tmp/ccavpHXU.s:1594   .debug_loc:0000000000000000 .LLST0
     /tmp/ccavpHXU.s:1839   .debug_str:0000000000000119 .LASF25
     /tmp/ccavpHXU.s:1857   .debug_str:0000000000000220 .LASF29
     /tmp/ccavpHXU.s:1897   .debug_str:00000000000003b2 .LASF26
     /tmp/ccavpHXU.s:1851   .debug_str:0000000000000204 .LASF27
     /tmp/ccavpHXU.s:1809   .debug_str:0000000000000010 .LASF28
     /tmp/ccavpHXU.s:1815   .debug_str:0000000000000031 .LASF30
     /tmp/ccavpHXU.s:193    .text:00000000000000f0 .LFB10
     /tmp/ccavpHXU.s:264    .text:0000000000000150 .LFE10
     /tmp/ccavpHXU.s:204    .text:00000000000000fc .LBB31
     /tmp/ccavpHXU.s:1783   .debug_ranges:0000000000000000 .Ldebug_ranges0
     /tmp/ccavpHXU.s:1603   .debug_loc:000000000000002c .LLST9
     /tmp/ccavpHXU.s:1618   .debug_loc:0000000000000074 .LLST10
     /tmp/ccavpHXU.s:1637   .debug_loc:00000000000000d0 .LLST11
     /tmp/ccavpHXU.s:214    .text:000000000000010c .LBB33
     /tmp/ccavpHXU.s:231    .text:0000000000000128 .LBE33
     /tmp/ccavpHXU.s:1650   .debug_loc:0000000000000116 .LLST12
     /tmp/ccavpHXU.s:115    .text:0000000000000084 .LFB9
     /tmp/ccavpHXU.s:187    .text:00000000000000f0 .LFE9
     /tmp/ccavpHXU.s:1843   .debug_str:0000000000000128 .LASF31
     /tmp/ccavpHXU.s:1670   .debug_loc:0000000000000173 .LLST3
     /tmp/ccavpHXU.s:132    .text:000000000000009c .LBB25
     /tmp/ccavpHXU.s:1692   .debug_loc:00000000000001d2 .LLST4
     /tmp/ccavpHXU.s:1707   .debug_loc:000000000000021b .LLST5
     /tmp/ccavpHXU.s:139    .text:00000000000000a8 .LBB27
     /tmp/ccavpHXU.s:146    .text:00000000000000b0 .LBE27
     /tmp/ccavpHXU.s:1722   .debug_loc:0000000000000263 .LLST6
     /tmp/ccavpHXU.s:1730   .debug_loc:0000000000000287 .LLST7
     /tmp/ccavpHXU.s:1737   .debug_loc:00000000000002aa .LLST8
     /tmp/ccavpHXU.s:138    .text:00000000000000a8 .LVL10
     /tmp/ccavpHXU.s:59     .text:0000000000000040 .LFB8
     /tmp/ccavpHXU.s:109    .text:0000000000000084 .LFE8
     /tmp/ccavpHXU.s:70     .text:000000000000004c .LBB21
     /tmp/ccavpHXU.s:1744   .debug_loc:00000000000002cd .LLST1
     /tmp/ccavpHXU.s:1759   .debug_loc:0000000000000315 .LLST2
     /tmp/ccavpHXU.s:1891   .debug_str:0000000000000364 .LASF45
     /tmp/ccavpHXU.s:1837   .debug_str:000000000000010c .LASF46
     /tmp/ccavpHXU.s:37     .text:000000000000002c .LVL1
     /tmp/ccavpHXU.s:46     .text:000000000000003c .LVL2
     /tmp/ccavpHXU.s:203    .text:00000000000000fc .LVL16
     /tmp/ccavpHXU.s:240    .text:0000000000000138 .LVL22
     /tmp/ccavpHXU.s:252    .text:0000000000000144 .LVL23
     /tmp/ccavpHXU.s:213    .text:000000000000010c .LVL17
     /tmp/ccavpHXU.s:221    .text:000000000000011c .LVL18
     /tmp/ccavpHXU.s:227    .text:0000000000000124 .LVL19
     /tmp/ccavpHXU.s:230    .text:0000000000000128 .LVL20
     /tmp/ccavpHXU.s:236    .text:0000000000000130 .LVL21
     /tmp/ccavpHXU.s:259    .text:000000000000014c .LVL24
GAS LISTING /tmp/ccavpHXU.s 			page 13


     /tmp/ccavpHXU.s:118    .text:0000000000000084 .LVL7
     /tmp/ccavpHXU.s:136    .text:00000000000000a0 .LVL9
     /tmp/ccavpHXU.s:168    .text:00000000000000d4 .LVL13
     /tmp/ccavpHXU.s:172    .text:00000000000000dc .LVL14
     /tmp/ccavpHXU.s:131    .text:000000000000009c .LVL8
     /tmp/ccavpHXU.s:155    .text:00000000000000c8 .LVL12
     /tmp/ccavpHXU.s:181    .text:00000000000000ec .LVL15
     /tmp/ccavpHXU.s:144    .text:00000000000000b0 .LVL11
     /tmp/ccavpHXU.s:69     .text:000000000000004c .LVL3
     /tmp/ccavpHXU.s:86     .text:000000000000006c .LVL5
     /tmp/ccavpHXU.s:98     .text:0000000000000078 .LVL6
     /tmp/ccavpHXU.s:76     .text:0000000000000058 .LVL4
     /tmp/ccavpHXU.s:312    .debug_info:0000000000000000 .Ldebug_info0
     /tmp/ccavpHXU.s:89     .text:000000000000006c .LBE21
     /tmp/ccavpHXU.s:101    .text:0000000000000078 .LBB24
     /tmp/ccavpHXU.s:107    .text:0000000000000084 .LBE24
     /tmp/ccavpHXU.s:158    .text:00000000000000c8 .LBE25
     /tmp/ccavpHXU.s:175    .text:00000000000000dc .LBB30
     /tmp/ccavpHXU.s:183    .text:00000000000000ec .LBE30
     /tmp/ccavpHXU.s:243    .text:0000000000000138 .LBE31
     /tmp/ccavpHXU.s:255    .text:0000000000000144 .LBB35
     /tmp/ccavpHXU.s:262    .text:0000000000000150 .LBE35

UNDEFINED SYMBOLS
_Znwm
