GAS LISTING /tmp/cc4f008N.s 			page 1


   1              		.file	"syscall_c.cpp"
   2              		.option pic
   3              		.option norelax
   4              		.text
   5              	.Ltext0:
   6              		.align	2
   7              		.globl	_Z9mem_allocm
   9              	_Z9mem_allocm:
  10              	.LFB48:
  11              		.file 1 "src/syscall_c.cpp"
   1:src/syscall_c.cpp **** #include "../h/syscall_c.hpp"
   2:src/syscall_c.cpp **** 
   3:src/syscall_c.cpp **** 
   4:src/syscall_c.cpp **** void *mem_alloc(size_t size) {
  12              		.loc 1 4 30
  13              		.cfi_startproc
  14              	.LVL0:
  15 0000 130101FE 		addi	sp,sp,-32
  16              		.cfi_def_cfa_offset 32
  17 0004 233C8100 		sd	s0,24(sp)
  18              		.cfi_offset 8, -8
  19 0008 13040102 		addi	s0,sp,32
  20              		.cfi_def_cfa 8, 0
   5:src/syscall_c.cpp ****     size_t sizeInBlocks = ((size + 16 + MEM_BLOCK_SIZE - 1) / MEM_BLOCK_SIZE);
  21              		.loc 1 5 5
  22              		.loc 1 5 56 is_stmt 0
  23 000c 1305F504 		addi	a0,a0,79
  24              	.LVL1:
  25              		.loc 1 5 12
  26 0010 13556500 		srli	a0,a0,6
  27              	.LVL2:
   6:src/syscall_c.cpp ****     Riscv::w_a0(0x01);
  28              		.loc 1 6 5 is_stmt 1
  29              	.LBB28:
  30              	.LBB29:
  31              		.file 2 "src/../h/riscv.hpp"
   1:src/../h/riscv.hpp **** #ifndef PROJECT_BASE_V1_1_RISCV_HPP
   2:src/../h/riscv.hpp **** #define PROJECT_BASE_V1_1_RISCV_HPP
   3:src/../h/riscv.hpp **** 
   4:src/../h/riscv.hpp **** 
   5:src/../h/riscv.hpp **** #include "../h/MemoryAllocator.hpp"
   6:src/../h/riscv.hpp **** #include "PCB.hpp"
   7:src/../h/riscv.hpp **** 
   8:src/../h/riscv.hpp **** 
   9:src/../h/riscv.hpp **** #define readUsrReg(reg, dst) __asm__ volatile("mv %0,"#reg : "=r" (dst));
  10:src/../h/riscv.hpp **** #define writeUsrReg(reg, src) __asm__ volatile("mv "#reg", %0" : : "r" (src));
  11:src/../h/riscv.hpp **** 
  12:src/../h/riscv.hpp **** 
  13:src/../h/riscv.hpp **** class Riscv
  14:src/../h/riscv.hpp **** {
  15:src/../h/riscv.hpp **** public:
  16:src/../h/riscv.hpp **** 
  17:src/../h/riscv.hpp **** 
  18:src/../h/riscv.hpp **** 
  19:src/../h/riscv.hpp ****     // pop sstatus.spp and sstatus.spie bits (has to be a non inline function)
  20:src/../h/riscv.hpp ****     static void popSppSpie();
  21:src/../h/riscv.hpp **** 
GAS LISTING /tmp/cc4f008N.s 			page 2


  22:src/../h/riscv.hpp ****     // push x3..x31 registers onto stack
  23:src/../h/riscv.hpp ****     static void pushRegisters();
  24:src/../h/riscv.hpp **** 
  25:src/../h/riscv.hpp ****     // pop x3..x31 registers onto stack
  26:src/../h/riscv.hpp ****     static void popRegisters();
  27:src/../h/riscv.hpp **** 
  28:src/../h/riscv.hpp ****     // read register scause
  29:src/../h/riscv.hpp ****     static uint64 r_scause();
  30:src/../h/riscv.hpp **** 
  31:src/../h/riscv.hpp ****     // write register scause
  32:src/../h/riscv.hpp ****     static void w_scause(uint64 scause);
  33:src/../h/riscv.hpp **** 
  34:src/../h/riscv.hpp ****     // read register sepc
  35:src/../h/riscv.hpp ****     static uint64 r_sepc();
  36:src/../h/riscv.hpp **** 
  37:src/../h/riscv.hpp ****     // write register sepc
  38:src/../h/riscv.hpp ****     static void w_sepc(uint64 sepc);
  39:src/../h/riscv.hpp **** 
  40:src/../h/riscv.hpp ****     // read register stvec
  41:src/../h/riscv.hpp ****     static uint64 r_stvec();
  42:src/../h/riscv.hpp **** 
  43:src/../h/riscv.hpp ****     // write register stvec
  44:src/../h/riscv.hpp ****     static void w_stvec(uint64 stvec);
  45:src/../h/riscv.hpp **** 
  46:src/../h/riscv.hpp ****     // read register stval
  47:src/../h/riscv.hpp ****     static uint64 r_stval();
  48:src/../h/riscv.hpp **** 
  49:src/../h/riscv.hpp ****     // write register stval
  50:src/../h/riscv.hpp ****     static void w_stval(uint64 stval);
  51:src/../h/riscv.hpp **** 
  52:src/../h/riscv.hpp ****     enum BitMaskSip
  53:src/../h/riscv.hpp ****     {
  54:src/../h/riscv.hpp **** //        SIP_SSIE = (1 << 1),
  55:src/../h/riscv.hpp **** //        SIP_STIE = (1 << 5),
  56:src/../h/riscv.hpp **** //        SIP_SEIE = (1 << 9),
  57:src/../h/riscv.hpp ****         SIP_SSIP = (1<<1),
  58:src/../h/riscv.hpp ****         SIP_SEIP = (1<<9)
  59:src/../h/riscv.hpp ****     };
  60:src/../h/riscv.hpp **** 
  61:src/../h/riscv.hpp ****     // mask set register sip
  62:src/../h/riscv.hpp ****     static void ms_sip(uint64 mask);
  63:src/../h/riscv.hpp **** 
  64:src/../h/riscv.hpp ****     // mask clear register sip
  65:src/../h/riscv.hpp ****     static void mc_sip(uint64 mask);
  66:src/../h/riscv.hpp **** 
  67:src/../h/riscv.hpp ****     // read register sip
  68:src/../h/riscv.hpp ****     static uint64 r_sip();
  69:src/../h/riscv.hpp **** 
  70:src/../h/riscv.hpp ****     // write register sip
  71:src/../h/riscv.hpp ****     static void w_sip(uint64 sip);
  72:src/../h/riscv.hpp **** 
  73:src/../h/riscv.hpp ****     enum BitMaskSstatus
  74:src/../h/riscv.hpp ****     {
  75:src/../h/riscv.hpp ****         SSTATUS_SIE = (1 << 1),
  76:src/../h/riscv.hpp ****         SSTATUS_SPIE = (1 << 5),
  77:src/../h/riscv.hpp ****         SSTATUS_SPP = (1 << 8),
  78:src/../h/riscv.hpp ****     };
GAS LISTING /tmp/cc4f008N.s 			page 3


  79:src/../h/riscv.hpp **** 
  80:src/../h/riscv.hpp ****     // mask set register sstatus
  81:src/../h/riscv.hpp ****     static void ms_sstatus(uint64 mask);
  82:src/../h/riscv.hpp **** 
  83:src/../h/riscv.hpp ****     // mask clear register sstatus
  84:src/../h/riscv.hpp ****     static void mc_sstatus(uint64 mask);
  85:src/../h/riscv.hpp **** 
  86:src/../h/riscv.hpp ****     // read register sstatus
  87:src/../h/riscv.hpp ****     static uint64 r_sstatus();
  88:src/../h/riscv.hpp **** 
  89:src/../h/riscv.hpp ****     // write register sstatus
  90:src/../h/riscv.hpp ****     static void w_sstatus(uint64 sstatus);
  91:src/../h/riscv.hpp **** 
  92:src/../h/riscv.hpp ****     // mask set register sie
  93:src/../h/riscv.hpp ****     static void ms_sie(uint64 mask);
  94:src/../h/riscv.hpp **** 
  95:src/../h/riscv.hpp ****     // mask clear register sie
  96:src/../h/riscv.hpp ****     static void mc_sie(uint64 mask);
  97:src/../h/riscv.hpp **** 
  98:src/../h/riscv.hpp ****     static void supervisorTrap();
  99:src/../h/riscv.hpp **** 
 100:src/../h/riscv.hpp ****     static long r_a0();
 101:src/../h/riscv.hpp **** 
 102:src/../h/riscv.hpp ****     static void w_a0(long a0);
 103:src/../h/riscv.hpp **** 
 104:src/../h/riscv.hpp ****     static uint64 r_a1();
 105:src/../h/riscv.hpp **** 
 106:src/../h/riscv.hpp ****     static void w_a1(uint64 a1);
 107:src/../h/riscv.hpp **** 
 108:src/../h/riscv.hpp ****     static uint64 r_a2();
 109:src/../h/riscv.hpp **** 
 110:src/../h/riscv.hpp ****     static void w_a2(uint64 a1);
 111:src/../h/riscv.hpp **** 
 112:src/../h/riscv.hpp ****     static uint64 r_a3();
 113:src/../h/riscv.hpp **** 
 114:src/../h/riscv.hpp ****     static void w_a3(uint64 a1);
 115:src/../h/riscv.hpp **** 
 116:src/../h/riscv.hpp ****     static void push_a0(long a0);
 117:src/../h/riscv.hpp **** 
 118:src/../h/riscv.hpp **** private:
 119:src/../h/riscv.hpp ****     static void trapHandler();
 120:src/../h/riscv.hpp **** 
 121:src/../h/riscv.hpp **** 
 122:src/../h/riscv.hpp **** };
 123:src/../h/riscv.hpp **** 
 124:src/../h/riscv.hpp **** inline uint64 Riscv::r_scause()
 125:src/../h/riscv.hpp **** {
 126:src/../h/riscv.hpp ****     uint64 volatile scause;
 127:src/../h/riscv.hpp ****     __asm__ volatile ("csrr %[scause], scause" : [scause] "=r"(scause));
 128:src/../h/riscv.hpp ****     return scause;
 129:src/../h/riscv.hpp **** }
 130:src/../h/riscv.hpp **** 
 131:src/../h/riscv.hpp **** inline void Riscv::w_scause(uint64 scause)
 132:src/../h/riscv.hpp **** {
 133:src/../h/riscv.hpp ****     __asm__ volatile ("csrw scause, %[scause]" : : [scause] "r"(scause));
 134:src/../h/riscv.hpp **** }
 135:src/../h/riscv.hpp **** 
GAS LISTING /tmp/cc4f008N.s 			page 4


 136:src/../h/riscv.hpp **** inline uint64 Riscv::r_sepc()
 137:src/../h/riscv.hpp **** {
 138:src/../h/riscv.hpp ****     uint64 volatile sepc;
 139:src/../h/riscv.hpp ****     __asm__ volatile ("csrr %[sepc], sepc" : [sepc] "=r"(sepc));
 140:src/../h/riscv.hpp ****     return sepc;
 141:src/../h/riscv.hpp **** }
 142:src/../h/riscv.hpp **** 
 143:src/../h/riscv.hpp **** inline void Riscv::w_sepc(uint64 sepc)
 144:src/../h/riscv.hpp **** {
 145:src/../h/riscv.hpp ****     __asm__ volatile ("csrw sepc, %[sepc]" : : [sepc] "r"(sepc));
 146:src/../h/riscv.hpp **** }
 147:src/../h/riscv.hpp **** 
 148:src/../h/riscv.hpp **** inline uint64 Riscv::r_stvec()
 149:src/../h/riscv.hpp **** {
 150:src/../h/riscv.hpp ****     uint64 volatile stvec;
 151:src/../h/riscv.hpp ****     __asm__ volatile ("csrr %[stvec], stvec" : [stvec] "=r"(stvec));
 152:src/../h/riscv.hpp ****     return stvec;
 153:src/../h/riscv.hpp **** }
 154:src/../h/riscv.hpp **** 
 155:src/../h/riscv.hpp **** inline void Riscv::w_stvec(uint64 stvec)
 156:src/../h/riscv.hpp **** {
 157:src/../h/riscv.hpp ****     __asm__ volatile ("csrw stvec, %[stvec]" : : [stvec] "r"(stvec));
 158:src/../h/riscv.hpp **** }
 159:src/../h/riscv.hpp **** 
 160:src/../h/riscv.hpp **** inline uint64 Riscv::r_stval()
 161:src/../h/riscv.hpp **** {
 162:src/../h/riscv.hpp ****     uint64 volatile stval;
 163:src/../h/riscv.hpp ****     __asm__ volatile ("csrr %[stval], stval" : [stval] "=r"(stval));
 164:src/../h/riscv.hpp ****     return stval;
 165:src/../h/riscv.hpp **** }
 166:src/../h/riscv.hpp **** 
 167:src/../h/riscv.hpp **** inline void Riscv::w_stval(uint64 stval)
 168:src/../h/riscv.hpp **** {
 169:src/../h/riscv.hpp ****     __asm__ volatile ("csrw stval, %[stval]" : : [stval] "r"(stval));
 170:src/../h/riscv.hpp **** }
 171:src/../h/riscv.hpp **** 
 172:src/../h/riscv.hpp **** inline void Riscv::ms_sip(uint64 mask)
 173:src/../h/riscv.hpp **** {
 174:src/../h/riscv.hpp ****     __asm__ volatile ("csrs sip, %[mask]" : : [mask] "r"(mask));
 175:src/../h/riscv.hpp **** }
 176:src/../h/riscv.hpp **** 
 177:src/../h/riscv.hpp **** inline void Riscv::mc_sip(uint64 mask)
 178:src/../h/riscv.hpp **** {
 179:src/../h/riscv.hpp ****     __asm__ volatile ("csrc sip, %[mask]" : : [mask] "r"(mask));
 180:src/../h/riscv.hpp **** }
 181:src/../h/riscv.hpp **** 
 182:src/../h/riscv.hpp **** inline uint64 Riscv::r_sip()
 183:src/../h/riscv.hpp **** {
 184:src/../h/riscv.hpp ****     uint64 volatile sip;
 185:src/../h/riscv.hpp ****     __asm__ volatile ("csrr %[sip], sip" : [sip] "=r"(sip));
 186:src/../h/riscv.hpp ****     return sip;
 187:src/../h/riscv.hpp **** }
 188:src/../h/riscv.hpp **** 
 189:src/../h/riscv.hpp **** inline void Riscv::w_sip(uint64 sip)
 190:src/../h/riscv.hpp **** {
 191:src/../h/riscv.hpp ****     __asm__ volatile ("csrw sip, %[sip]" : : [sip] "r"(sip));
 192:src/../h/riscv.hpp **** }
GAS LISTING /tmp/cc4f008N.s 			page 5


 193:src/../h/riscv.hpp **** 
 194:src/../h/riscv.hpp **** inline void Riscv::ms_sstatus(uint64 mask)
 195:src/../h/riscv.hpp **** {
 196:src/../h/riscv.hpp ****     __asm__ volatile ("csrs sstatus, %[mask]" : : [mask] "r"(mask));
 197:src/../h/riscv.hpp **** }
 198:src/../h/riscv.hpp **** 
 199:src/../h/riscv.hpp **** inline void Riscv::mc_sstatus(uint64 mask)
 200:src/../h/riscv.hpp **** {
 201:src/../h/riscv.hpp ****     __asm__ volatile ("csrc sstatus, %[mask]" : : [mask] "r"(mask));
 202:src/../h/riscv.hpp **** }
 203:src/../h/riscv.hpp **** 
 204:src/../h/riscv.hpp **** inline uint64 Riscv::r_sstatus()
 205:src/../h/riscv.hpp **** {
 206:src/../h/riscv.hpp ****     uint64 volatile sstatus;
 207:src/../h/riscv.hpp ****     __asm__ volatile ("csrr %[sstatus], sstatus" : [sstatus] "=r"(sstatus));
 208:src/../h/riscv.hpp ****     return sstatus;
 209:src/../h/riscv.hpp **** }
 210:src/../h/riscv.hpp **** 
 211:src/../h/riscv.hpp **** inline void Riscv::w_sstatus(uint64 sstatus)
 212:src/../h/riscv.hpp **** {
 213:src/../h/riscv.hpp ****     __asm__ volatile ("csrw sstatus, %[sstatus]" : : [sstatus] "r"(sstatus));
 214:src/../h/riscv.hpp **** }
 215:src/../h/riscv.hpp **** 
 216:src/../h/riscv.hpp **** inline void Riscv::ms_sie(uint64 mask)
 217:src/../h/riscv.hpp **** {
 218:src/../h/riscv.hpp ****     __asm__ volatile ("csrs sie, %[mask]" : : [mask] "r"(mask));
 219:src/../h/riscv.hpp **** }
 220:src/../h/riscv.hpp **** 
 221:src/../h/riscv.hpp **** inline void Riscv::mc_sie(uint64 mask)
 222:src/../h/riscv.hpp **** {
 223:src/../h/riscv.hpp ****     __asm__ volatile ("csrc sie, %[mask]" : : [mask] "r"(mask));
 224:src/../h/riscv.hpp **** }
 225:src/../h/riscv.hpp **** 
 226:src/../h/riscv.hpp **** inline long Riscv::r_a0() {
 227:src/../h/riscv.hpp ****     long volatile a0;
 228:src/../h/riscv.hpp ****     __asm__ volatile ("ld %0, 10*8(fp)" : "=r"(a0));
 229:src/../h/riscv.hpp ****     return a0;
 230:src/../h/riscv.hpp **** }
 231:src/../h/riscv.hpp **** 
 232:src/../h/riscv.hpp **** inline void Riscv::w_a0(long a0) {
 233:src/../h/riscv.hpp ****     __asm__ volatile ("mv a0, %0" : : "r"(a0));
  32              		.loc 2 233 5
  33              		.loc 2 233 47 is_stmt 0
  34 0014 93071000 		li	a5,1
  35              	#APP
  36              	# 233 "src/../h/riscv.hpp" 1
 234              	}
  37              		mv a0, a5
  38              	# 0 "" 2
  39              	.LVL3:
  40              	#NO_APP
  41              	.LBE29:
  42              	.LBE28:
   7:src/syscall_c.cpp ****     Riscv::w_a1((uint64) sizeInBlocks);
  43              		.loc 1 7 5 is_stmt 1
  44              	.LBB30:
  45              	.LBB31:
GAS LISTING /tmp/cc4f008N.s 			page 6


 235:src/../h/riscv.hpp **** 
 236:src/../h/riscv.hpp **** inline uint64 Riscv::r_a1() {
 237:src/../h/riscv.hpp ****     uint64 volatile a1;
 238:src/../h/riscv.hpp ****     __asm__ volatile ("ld %0, 11*8(fp)" : "=r"(a1));
 239:src/../h/riscv.hpp ****     return a1;
 240:src/../h/riscv.hpp **** }
 241:src/../h/riscv.hpp **** 
 242:src/../h/riscv.hpp **** inline void Riscv::w_a1(uint64 a1) {
 243:src/../h/riscv.hpp ****     __asm__ volatile ("mv a1, %0" : : "r"(a1));
  46              		.loc 2 243 5
  47              		.loc 2 243 47 is_stmt 0
  48              	#APP
  49              	# 243 "src/../h/riscv.hpp" 1
 244              	}
  50              		mv a1, a0
  51              	# 0 "" 2
  52              	.LVL4:
  53              	#NO_APP
  54              	.LBE31:
  55              	.LBE30:
   8:src/syscall_c.cpp **** 
   9:src/syscall_c.cpp ****     __asm__ volatile ("ecall");
  56              		.loc 1 9 5 is_stmt 1
  57              		.loc 1 9 31 is_stmt 0
  58              	#APP
  59              	# 9 "src/syscall_c.cpp" 1
  10              	
  11:src/syscall_c.cpp ****     volatile long a0;
  60              		ecall
  61              	# 0 "" 2
  62              		.loc 1 11 5 is_stmt 1
  12:src/syscall_c.cpp ****     __asm__ volatile ("mv %0, a0" : "=r"(a0));
  63              		.loc 1 12 5
  64              		.loc 1 12 46 is_stmt 0
  65              	# 12 "src/syscall_c.cpp" 1
  13              	    return (void *) a0;
  66              		mv a5, a0
  67              	# 0 "" 2
  68              	#NO_APP
  69 0028 2334F4FE 		sd	a5,-24(s0)
  70              		.loc 1 13 5 is_stmt 1
  71              		.loc 1 13 21 is_stmt 0
  72 002c 033584FE 		ld	a0,-24(s0)
  73              	.LVL5:
  14:src/syscall_c.cpp **** }
  74              		.loc 1 14 1
  75 0030 03348101 		ld	s0,24(sp)
  76              		.cfi_restore 8
  77              		.cfi_def_cfa 2, 32
  78 0034 13010102 		addi	sp,sp,32
  79              		.cfi_def_cfa_offset 0
  80 0038 67800000 		jr	ra
  81              		.cfi_endproc
  82              	.LFE48:
  84              		.align	2
  85              		.globl	_Z8mem_freePv
  87              	_Z8mem_freePv:
GAS LISTING /tmp/cc4f008N.s 			page 7


  88              	.LFB49:
  15:src/syscall_c.cpp **** 
  16:src/syscall_c.cpp **** int mem_free(void *ptr) {
  89              		.loc 1 16 25 is_stmt 1
  90              		.cfi_startproc
  91              	.LVL6:
  92 003c 130101FE 		addi	sp,sp,-32
  93              		.cfi_def_cfa_offset 32
  94 0040 233C8100 		sd	s0,24(sp)
  95              		.cfi_offset 8, -8
  96 0044 13040102 		addi	s0,sp,32
  97              		.cfi_def_cfa 8, 0
  17:src/syscall_c.cpp ****     Riscv::w_a0(0x02);
  98              		.loc 1 17 5
  99              	.LVL7:
 100              	.LBB32:
 101              	.LBB33:
 233:src/../h/riscv.hpp **** }
 102              		.loc 2 233 5
 233:src/../h/riscv.hpp **** }
 103              		.loc 2 233 47 is_stmt 0
 104 0048 93072000 		li	a5,2
 105              	#APP
 106              	# 233 "src/../h/riscv.hpp" 1
 107              		mv a0, a5
 108              	# 0 "" 2
 109              	.LVL8:
 110              	#NO_APP
 111              	.LBE33:
 112              	.LBE32:
  18:src/syscall_c.cpp ****     Riscv::w_a1((uint64) ptr);
 113              		.loc 1 18 5 is_stmt 1
 114              	.LBB34:
 115              	.LBB35:
 243:src/../h/riscv.hpp **** }
 116              		.loc 2 243 5
 243:src/../h/riscv.hpp **** }
 117              		.loc 2 243 47 is_stmt 0
 118              	#APP
 119              	# 243 "src/../h/riscv.hpp" 1
 120              		mv a1, a0
 121              	# 0 "" 2
 122              	.LVL9:
 123              	#NO_APP
 124              	.LBE35:
 125              	.LBE34:
  19:src/syscall_c.cpp **** 
  20:src/syscall_c.cpp ****     __asm__ volatile ("ecall");
 126              		.loc 1 20 5 is_stmt 1
 127              		.loc 1 20 31 is_stmt 0
 128              	#APP
 129              	# 20 "src/syscall_c.cpp" 1
  21              	
  22:src/syscall_c.cpp ****     volatile long a0;
 130              		ecall
 131              	# 0 "" 2
 132              		.loc 1 22 5 is_stmt 1
GAS LISTING /tmp/cc4f008N.s 			page 8


  23:src/syscall_c.cpp ****     __asm__ volatile ("mv %0, a0" : "=r"(a0));
 133              		.loc 1 23 5
 134              		.loc 1 23 46 is_stmt 0
 135              	# 23 "src/syscall_c.cpp" 1
  24              	    return a0;
 136              		mv a5, a0
 137              	# 0 "" 2
 138              	#NO_APP
 139 005c 2334F4FE 		sd	a5,-24(s0)
 140              		.loc 1 24 5 is_stmt 1
 141              		.loc 1 24 12 is_stmt 0
 142 0060 033584FE 		ld	a0,-24(s0)
 143              	.LVL10:
  25:src/syscall_c.cpp **** }
 144              		.loc 1 25 1
 145 0064 1B050500 		sext.w	a0,a0
 146 0068 03348101 		ld	s0,24(sp)
 147              		.cfi_restore 8
 148              		.cfi_def_cfa 2, 32
 149 006c 13010102 		addi	sp,sp,32
 150              		.cfi_def_cfa_offset 0
 151 0070 67800000 		jr	ra
 152              		.cfi_endproc
 153              	.LFE49:
 155              		.align	2
 156              		.globl	_Z10toUserModev
 158              	_Z10toUserModev:
 159              	.LFB50:
  26:src/syscall_c.cpp **** 
  27:src/syscall_c.cpp **** void toUserMode(){
 160              		.loc 1 27 18 is_stmt 1
 161              		.cfi_startproc
 162 0074 130101FF 		addi	sp,sp,-16
 163              		.cfi_def_cfa_offset 16
 164 0078 23348100 		sd	s0,8(sp)
 165              		.cfi_offset 8, -8
 166 007c 13040101 		addi	s0,sp,16
 167              		.cfi_def_cfa 8, 0
  28:src/syscall_c.cpp ****     Riscv::w_a0(0x51);
 168              		.loc 1 28 5
 169              	.LVL11:
 170              	.LBB36:
 171              	.LBB37:
 233:src/../h/riscv.hpp **** }
 172              		.loc 2 233 5
 233:src/../h/riscv.hpp **** }
 173              		.loc 2 233 47 is_stmt 0
 174 0080 93071005 		li	a5,81
 175              	#APP
 176              	# 233 "src/../h/riscv.hpp" 1
 177              		mv a0, a5
 178              	# 0 "" 2
 179              	.LVL12:
 180              	#NO_APP
 181              	.LBE37:
 182              	.LBE36:
  29:src/syscall_c.cpp ****     __asm__ volatile ("ecall");
GAS LISTING /tmp/cc4f008N.s 			page 9


 183              		.loc 1 29 5 is_stmt 1
 184              		.loc 1 29 31 is_stmt 0
 185              	#APP
 186              	# 29 "src/syscall_c.cpp" 1
  30              	}
 187              		ecall
 188              	# 0 "" 2
 189              		.loc 1 30 1
 190              	#NO_APP
 191 008c 03348100 		ld	s0,8(sp)
 192              		.cfi_restore 8
 193              		.cfi_def_cfa 2, 16
 194 0090 13010101 		addi	sp,sp,16
 195              		.cfi_def_cfa_offset 0
 196 0094 67800000 		jr	ra
 197              		.cfi_endproc
 198              	.LFE50:
 200              		.align	2
 201              		.globl	_Z13thread_createPP7_threadPFvPvES2_
 203              	_Z13thread_createPP7_threadPFvPvES2_:
 204              	.LFB51:
  31:src/syscall_c.cpp **** 
  32:src/syscall_c.cpp **** int thread_create(thread_t *handle, void(*start_routine)(void *), void *arg) {
 205              		.loc 1 32 78 is_stmt 1
 206              		.cfi_startproc
 207              	.LVL13:
 208 0098 130101FF 		addi	sp,sp,-16
 209              		.cfi_def_cfa_offset 16
 210 009c 23348100 		sd	s0,8(sp)
 211              		.cfi_offset 8, -8
 212 00a0 13040101 		addi	s0,sp,16
 213              		.cfi_def_cfa 8, 0
  33:src/syscall_c.cpp **** 
  34:src/syscall_c.cpp **** 
  35:src/syscall_c.cpp ****     Riscv::w_a0(0x11);
 214              		.loc 1 35 5
 215              	.LVL14:
 216              	.LBB38:
 217              	.LBB39:
 233:src/../h/riscv.hpp **** }
 218              		.loc 2 233 5
 233:src/../h/riscv.hpp **** }
 219              		.loc 2 233 47 is_stmt 0
 220 00a4 93071001 		li	a5,17
 221              	#APP
 222              	# 233 "src/../h/riscv.hpp" 1
 223              		mv a0, a5
 224              	# 0 "" 2
 225              	.LVL15:
 226              	#NO_APP
 227              	.LBE39:
 228              	.LBE38:
  36:src/syscall_c.cpp ****     Riscv::w_a1((uint64) start_routine);
 229              		.loc 1 36 5 is_stmt 1
 230              	.LBB40:
 231              	.LBB41:
 243:src/../h/riscv.hpp **** }
GAS LISTING /tmp/cc4f008N.s 			page 10


 232              		.loc 2 243 5
 243:src/../h/riscv.hpp **** }
 233              		.loc 2 243 47 is_stmt 0
 234              	#APP
 235              	# 243 "src/../h/riscv.hpp" 1
 236              		mv a1, a1
 237              	# 0 "" 2
 238              	.LVL16:
 239              	#NO_APP
 240              	.LBE41:
 241              	.LBE40:
  37:src/syscall_c.cpp ****     Riscv::w_a2((uint64) arg);
 242              		.loc 1 37 5 is_stmt 1
 243              	.LBB42:
 244              	.LBB43:
 245:src/../h/riscv.hpp **** 
 246:src/../h/riscv.hpp **** inline uint64 Riscv::r_a2() {
 247:src/../h/riscv.hpp ****     uint64 volatile a2;
 248:src/../h/riscv.hpp ****     __asm__ volatile ("ld %0, 12*8(fp)" : "=r"(a2));
 249:src/../h/riscv.hpp ****     return a2;
 250:src/../h/riscv.hpp **** }
 251:src/../h/riscv.hpp **** 
 252:src/../h/riscv.hpp **** inline void Riscv::w_a2(uint64 a2) {
 253:src/../h/riscv.hpp ****     __asm__ volatile ("mv a2, %0" : : "r"(a2));
 245              		.loc 2 253 5
 246              		.loc 2 253 47 is_stmt 0
 247              	#APP
 248              	# 253 "src/../h/riscv.hpp" 1
 254              	}
 249              		mv a2, a2
 250              	# 0 "" 2
 251              	.LVL17:
 252              	#NO_APP
 253              	.LBE43:
 254              	.LBE42:
  38:src/syscall_c.cpp ****     Riscv::w_a3((uint64) handle);
 255              		.loc 1 38 5 is_stmt 1
 256              	.LBB44:
 257              	.LBB45:
 255:src/../h/riscv.hpp **** 
 256:src/../h/riscv.hpp **** inline uint64 Riscv::r_a3() {
 257:src/../h/riscv.hpp ****     uint64 volatile a3;
 258:src/../h/riscv.hpp ****     __asm__ volatile ("ld %0, 13*8(fp)" : "=r"(a3));
 259:src/../h/riscv.hpp ****     return a3;
 260:src/../h/riscv.hpp **** }
 261:src/../h/riscv.hpp **** 
 262:src/../h/riscv.hpp **** inline void Riscv::w_a3(uint64 a3) {
 263:src/../h/riscv.hpp ****     __asm__ volatile ("mv a3, %0" : : "r"(a3));
 258              		.loc 2 263 5
 259              		.loc 2 263 47 is_stmt 0
 260              	#APP
 261              	# 263 "src/../h/riscv.hpp" 1
 264              	}
 262              		mv a3, a0
 263              	# 0 "" 2
 264              	.LVL18:
 265              	#NO_APP
GAS LISTING /tmp/cc4f008N.s 			page 11


 266              	.LBE45:
 267              	.LBE44:
  39:src/syscall_c.cpp **** 
  40:src/syscall_c.cpp ****     __asm__ volatile ("ecall");
 268              		.loc 1 40 5 is_stmt 1
 269              		.loc 1 40 31 is_stmt 0
 270              	#APP
 271              	# 40 "src/syscall_c.cpp" 1
  41              	
  42:src/syscall_c.cpp ****     return 0;
 272              		ecall
 273              	# 0 "" 2
 274              		.loc 1 42 5 is_stmt 1
  43:src/syscall_c.cpp **** 
  44:src/syscall_c.cpp **** }
 275              		.loc 1 44 1 is_stmt 0
 276              	#NO_APP
 277 00bc 13050000 		li	a0,0
 278              	.LVL19:
 279 00c0 03348100 		ld	s0,8(sp)
 280              		.cfi_restore 8
 281              		.cfi_def_cfa 2, 16
 282 00c4 13010101 		addi	sp,sp,16
 283              		.cfi_def_cfa_offset 0
 284 00c8 67800000 		jr	ra
 285              		.cfi_endproc
 286              	.LFE51:
 288              		.align	2
 289              		.globl	_Z11thread_exitv
 291              	_Z11thread_exitv:
 292              	.LFB52:
  45:src/syscall_c.cpp **** 
  46:src/syscall_c.cpp **** int thread_exit(){
 293              		.loc 1 46 18 is_stmt 1
 294              		.cfi_startproc
 295 00cc 130101FE 		addi	sp,sp,-32
 296              		.cfi_def_cfa_offset 32
 297 00d0 233C8100 		sd	s0,24(sp)
 298              		.cfi_offset 8, -8
 299 00d4 13040102 		addi	s0,sp,32
 300              		.cfi_def_cfa 8, 0
  47:src/syscall_c.cpp ****     Riscv::w_a0(0x12);
 301              		.loc 1 47 5
 302              	.LVL20:
 303              	.LBB46:
 304              	.LBB47:
 233:src/../h/riscv.hpp **** }
 305              		.loc 2 233 5
 233:src/../h/riscv.hpp **** }
 306              		.loc 2 233 47 is_stmt 0
 307 00d8 93072001 		li	a5,18
 308              	#APP
 309              	# 233 "src/../h/riscv.hpp" 1
 310              		mv a0, a5
 311              	# 0 "" 2
 312              	.LVL21:
 313              	#NO_APP
GAS LISTING /tmp/cc4f008N.s 			page 12


 314              	.LBE47:
 315              	.LBE46:
  48:src/syscall_c.cpp ****     __asm__ volatile ("ecall");
 316              		.loc 1 48 5 is_stmt 1
 317              		.loc 1 48 31 is_stmt 0
 318              	#APP
 319              	# 48 "src/syscall_c.cpp" 1
  49              	    volatile uint64 a0 = Riscv::r_a0();
 320              		ecall
 321              	# 0 "" 2
 322              		.loc 1 49 5 is_stmt 1
 323              	#NO_APP
 324              	.LBB48:
 325              	.LBB49:
 227:src/../h/riscv.hpp ****     __asm__ volatile ("ld %0, 10*8(fp)" : "=r"(a0));
 326              		.loc 2 227 5
 228:src/../h/riscv.hpp ****     return a0;
 327              		.loc 2 228 5
 228:src/../h/riscv.hpp ****     return a0;
 328              		.loc 2 228 52 is_stmt 0
 329              	#APP
 330              	# 228 "src/../h/riscv.hpp" 1
 331              		ld a5, 10*8(fp)
 332              	# 0 "" 2
 333              	#NO_APP
 334 00e8 2330F4FE 		sd	a5,-32(s0)
 229:src/../h/riscv.hpp **** }
 335              		.loc 2 229 5 is_stmt 1
 229:src/../h/riscv.hpp **** }
 336              		.loc 2 229 12 is_stmt 0
 337 00ec 833704FE 		ld	a5,-32(s0)
 338              	.LBE49:
 339              	.LBE48:
 340              		.loc 1 49 38
 341 00f0 2334F4FE 		sd	a5,-24(s0)
  50:src/syscall_c.cpp ****     return a0;
 342              		.loc 1 50 5 is_stmt 1
 343              		.loc 1 50 12 is_stmt 0
 344 00f4 033584FE 		ld	a0,-24(s0)
  51:src/syscall_c.cpp **** }
 345              		.loc 1 51 1
 346 00f8 1B050500 		sext.w	a0,a0
 347 00fc 03348101 		ld	s0,24(sp)
 348              		.cfi_restore 8
 349              		.cfi_def_cfa 2, 32
 350 0100 13010102 		addi	sp,sp,32
 351              		.cfi_def_cfa_offset 0
 352 0104 67800000 		jr	ra
 353              		.cfi_endproc
 354              	.LFE52:
 356              		.align	2
 357              		.globl	_Z15thread_dispatchv
 359              	_Z15thread_dispatchv:
 360              	.LFB53:
  52:src/syscall_c.cpp **** 
  53:src/syscall_c.cpp **** void thread_dispatch(){
 361              		.loc 1 53 23 is_stmt 1
GAS LISTING /tmp/cc4f008N.s 			page 13


 362              		.cfi_startproc
 363 0108 130101FF 		addi	sp,sp,-16
 364              		.cfi_def_cfa_offset 16
 365 010c 23348100 		sd	s0,8(sp)
 366              		.cfi_offset 8, -8
 367 0110 13040101 		addi	s0,sp,16
 368              		.cfi_def_cfa 8, 0
  54:src/syscall_c.cpp ****     Riscv::w_a0(0x13);
 369              		.loc 1 54 5
 370              	.LVL22:
 371              	.LBB50:
 372              	.LBB51:
 233:src/../h/riscv.hpp **** }
 373              		.loc 2 233 5
 233:src/../h/riscv.hpp **** }
 374              		.loc 2 233 47 is_stmt 0
 375 0114 93073001 		li	a5,19
 376              	#APP
 377              	# 233 "src/../h/riscv.hpp" 1
 378              		mv a0, a5
 379              	# 0 "" 2
 380              	.LVL23:
 381              	#NO_APP
 382              	.LBE51:
 383              	.LBE50:
  55:src/syscall_c.cpp ****     __asm__ volatile ("ecall");
 384              		.loc 1 55 5 is_stmt 1
 385              		.loc 1 55 31 is_stmt 0
 386              	#APP
 387              	# 55 "src/syscall_c.cpp" 1
  56              	}
 388              		ecall
 389              	# 0 "" 2
 390              		.loc 1 56 1
 391              	#NO_APP
 392 0120 03348100 		ld	s0,8(sp)
 393              		.cfi_restore 8
 394              		.cfi_def_cfa 2, 16
 395 0124 13010101 		addi	sp,sp,16
 396              		.cfi_def_cfa_offset 0
 397 0128 67800000 		jr	ra
 398              		.cfi_endproc
 399              	.LFE53:
 401              		.align	2
 402              		.globl	_Z11thread_joinP7_thread
 404              	_Z11thread_joinP7_thread:
 405              	.LFB54:
  57:src/syscall_c.cpp **** 
  58:src/syscall_c.cpp **** void thread_join(thread_t handle){
 406              		.loc 1 58 34 is_stmt 1
 407              		.cfi_startproc
 408              	.LVL24:
 409 012c 130101FF 		addi	sp,sp,-16
 410              		.cfi_def_cfa_offset 16
 411 0130 23348100 		sd	s0,8(sp)
 412              		.cfi_offset 8, -8
 413 0134 13040101 		addi	s0,sp,16
GAS LISTING /tmp/cc4f008N.s 			page 14


 414              		.cfi_def_cfa 8, 0
  59:src/syscall_c.cpp ****     Riscv::w_a0(0x14);
 415              		.loc 1 59 5
 416              	.LVL25:
 417              	.LBB52:
 418              	.LBB53:
 233:src/../h/riscv.hpp **** }
 419              		.loc 2 233 5
 233:src/../h/riscv.hpp **** }
 420              		.loc 2 233 47 is_stmt 0
 421 0138 93074001 		li	a5,20
 422              	#APP
 423              	# 233 "src/../h/riscv.hpp" 1
 424              		mv a0, a5
 425              	# 0 "" 2
 426              	.LVL26:
 427              	#NO_APP
 428              	.LBE53:
 429              	.LBE52:
  60:src/syscall_c.cpp **** 
  61:src/syscall_c.cpp **** }...
 430              		.loc 1 61 1
 431 0140 03348100 		ld	s0,8(sp)
 432              		.cfi_restore 8
 433              		.cfi_def_cfa 2, 16
 434 0144 13010101 		addi	sp,sp,16
 435              		.cfi_def_cfa_offset 0
 436 0148 67800000 		jr	ra
 437              		.cfi_endproc
 438              	.LFE54:
 440              	.Letext0:
 441              		.file 3 "src/../h/../h/../lib/hw.h"
 442              		.file 4 "src/../h/syscall_c.hpp"
GAS LISTING /tmp/cc4f008N.s 			page 15


DEFINED SYMBOLS
                            *ABS*:0000000000000000 syscall_c.cpp
     /tmp/cc4f008N.s:9      .text:0000000000000000 _Z9mem_allocm
     /tmp/cc4f008N.s:13     .text:0000000000000000 .L0 
     /tmp/cc4f008N.s:15     .text:0000000000000000 .L0 
     /tmp/cc4f008N.s:16     .text:0000000000000004 .L0 
     /tmp/cc4f008N.s:18     .text:0000000000000008 .L0 
     /tmp/cc4f008N.s:20     .text:000000000000000c .L0 
     /tmp/cc4f008N.s:22     .text:000000000000000c .L0 
     /tmp/cc4f008N.s:23     .text:000000000000000c .L0 
     /tmp/cc4f008N.s:26     .text:0000000000000010 .L0 
     /tmp/cc4f008N.s:32     .text:0000000000000014 .L0 
     /tmp/cc4f008N.s:33     .text:0000000000000014 .L0 
     /tmp/cc4f008N.s:34     .text:0000000000000014 .L0 
     /tmp/cc4f008N.s:46     .text:000000000000001c .L0 
     /tmp/cc4f008N.s:47     .text:000000000000001c .L0 
  src/../h/riscv.hpp:243    .text:000000000000001c .L0 
     /tmp/cc4f008N.s:57     .text:0000000000000020 .L0 
   src/syscall_c.cpp:9      .text:0000000000000020 .L0 
     /tmp/cc4f008N.s:63     .text:0000000000000024 .L0 
     /tmp/cc4f008N.s:64     .text:0000000000000024 .L0 
   src/syscall_c.cpp:12     .text:0000000000000024 .L0 
     /tmp/cc4f008N.s:71     .text:000000000000002c .L0 
     /tmp/cc4f008N.s:72     .text:000000000000002c .L0 
     /tmp/cc4f008N.s:75     .text:0000000000000030 .L0 
     /tmp/cc4f008N.s:76     .text:0000000000000034 .L0 
     /tmp/cc4f008N.s:77     .text:0000000000000034 .L0 
     /tmp/cc4f008N.s:79     .text:0000000000000038 .L0 
     /tmp/cc4f008N.s:81     .text:000000000000003c .L0 
     /tmp/cc4f008N.s:87     .text:000000000000003c _Z8mem_freePv
     /tmp/cc4f008N.s:90     .text:000000000000003c .L0 
     /tmp/cc4f008N.s:92     .text:000000000000003c .L0 
     /tmp/cc4f008N.s:93     .text:0000000000000040 .L0 
     /tmp/cc4f008N.s:95     .text:0000000000000044 .L0 
     /tmp/cc4f008N.s:97     .text:0000000000000048 .L0 
     /tmp/cc4f008N.s:102    .text:0000000000000048 .L0 
     /tmp/cc4f008N.s:103    .text:0000000000000048 .L0 
     /tmp/cc4f008N.s:104    .text:0000000000000048 .L0 
     /tmp/cc4f008N.s:116    .text:0000000000000050 .L0 
     /tmp/cc4f008N.s:117    .text:0000000000000050 .L0 
  src/../h/riscv.hpp:243    .text:0000000000000050 .L0 
     /tmp/cc4f008N.s:127    .text:0000000000000054 .L0 
   src/syscall_c.cpp:20     .text:0000000000000054 .L0 
     /tmp/cc4f008N.s:133    .text:0000000000000058 .L0 
     /tmp/cc4f008N.s:134    .text:0000000000000058 .L0 
   src/syscall_c.cpp:23     .text:0000000000000058 .L0 
     /tmp/cc4f008N.s:141    .text:0000000000000060 .L0 
     /tmp/cc4f008N.s:142    .text:0000000000000060 .L0 
     /tmp/cc4f008N.s:145    .text:0000000000000064 .L0 
     /tmp/cc4f008N.s:147    .text:000000000000006c .L0 
     /tmp/cc4f008N.s:148    .text:000000000000006c .L0 
     /tmp/cc4f008N.s:150    .text:0000000000000070 .L0 
     /tmp/cc4f008N.s:152    .text:0000000000000074 .L0 
     /tmp/cc4f008N.s:158    .text:0000000000000074 _Z10toUserModev
     /tmp/cc4f008N.s:161    .text:0000000000000074 .L0 
     /tmp/cc4f008N.s:162    .text:0000000000000074 .L0 
     /tmp/cc4f008N.s:163    .text:0000000000000078 .L0 
GAS LISTING /tmp/cc4f008N.s 			page 16


     /tmp/cc4f008N.s:165    .text:000000000000007c .L0 
     /tmp/cc4f008N.s:167    .text:0000000000000080 .L0 
     /tmp/cc4f008N.s:172    .text:0000000000000080 .L0 
     /tmp/cc4f008N.s:173    .text:0000000000000080 .L0 
     /tmp/cc4f008N.s:174    .text:0000000000000080 .L0 
     /tmp/cc4f008N.s:184    .text:0000000000000088 .L0 
   src/syscall_c.cpp:29     .text:0000000000000088 .L0 
     /tmp/cc4f008N.s:191    .text:000000000000008c .L0 
     /tmp/cc4f008N.s:192    .text:0000000000000090 .L0 
     /tmp/cc4f008N.s:193    .text:0000000000000090 .L0 
     /tmp/cc4f008N.s:195    .text:0000000000000094 .L0 
     /tmp/cc4f008N.s:197    .text:0000000000000098 .L0 
     /tmp/cc4f008N.s:203    .text:0000000000000098 _Z13thread_createPP7_threadPFvPvES2_
     /tmp/cc4f008N.s:206    .text:0000000000000098 .L0 
     /tmp/cc4f008N.s:208    .text:0000000000000098 .L0 
     /tmp/cc4f008N.s:209    .text:000000000000009c .L0 
     /tmp/cc4f008N.s:211    .text:00000000000000a0 .L0 
     /tmp/cc4f008N.s:213    .text:00000000000000a4 .L0 
     /tmp/cc4f008N.s:218    .text:00000000000000a4 .L0 
     /tmp/cc4f008N.s:219    .text:00000000000000a4 .L0 
     /tmp/cc4f008N.s:220    .text:00000000000000a4 .L0 
     /tmp/cc4f008N.s:232    .text:00000000000000ac .L0 
     /tmp/cc4f008N.s:233    .text:00000000000000ac .L0 
  src/../h/riscv.hpp:243    .text:00000000000000ac .L0 
     /tmp/cc4f008N.s:245    .text:00000000000000b0 .L0 
     /tmp/cc4f008N.s:246    .text:00000000000000b0 .L0 
  src/../h/riscv.hpp:253    .text:00000000000000b0 .L0 
     /tmp/cc4f008N.s:258    .text:00000000000000b4 .L0 
     /tmp/cc4f008N.s:259    .text:00000000000000b4 .L0 
  src/../h/riscv.hpp:263    .text:00000000000000b4 .L0 
     /tmp/cc4f008N.s:269    .text:00000000000000b8 .L0 
   src/syscall_c.cpp:40     .text:00000000000000b8 .L0 
     /tmp/cc4f008N.s:275    .text:00000000000000bc .L0 
     /tmp/cc4f008N.s:277    .text:00000000000000bc .L0 
     /tmp/cc4f008N.s:280    .text:00000000000000c4 .L0 
     /tmp/cc4f008N.s:281    .text:00000000000000c4 .L0 
     /tmp/cc4f008N.s:283    .text:00000000000000c8 .L0 
     /tmp/cc4f008N.s:285    .text:00000000000000cc .L0 
     /tmp/cc4f008N.s:291    .text:00000000000000cc _Z11thread_exitv
     /tmp/cc4f008N.s:294    .text:00000000000000cc .L0 
     /tmp/cc4f008N.s:295    .text:00000000000000cc .L0 
     /tmp/cc4f008N.s:296    .text:00000000000000d0 .L0 
     /tmp/cc4f008N.s:298    .text:00000000000000d4 .L0 
     /tmp/cc4f008N.s:300    .text:00000000000000d8 .L0 
     /tmp/cc4f008N.s:305    .text:00000000000000d8 .L0 
     /tmp/cc4f008N.s:306    .text:00000000000000d8 .L0 
     /tmp/cc4f008N.s:307    .text:00000000000000d8 .L0 
     /tmp/cc4f008N.s:317    .text:00000000000000e0 .L0 
   src/syscall_c.cpp:48     .text:00000000000000e0 .L0 
     /tmp/cc4f008N.s:326    .text:00000000000000e4 .L0 
     /tmp/cc4f008N.s:327    .text:00000000000000e4 .L0 
     /tmp/cc4f008N.s:328    .text:00000000000000e4 .L0 
  src/../h/riscv.hpp:228    .text:00000000000000e4 .L0 
     /tmp/cc4f008N.s:336    .text:00000000000000ec .L0 
     /tmp/cc4f008N.s:337    .text:00000000000000ec .L0 
     /tmp/cc4f008N.s:341    .text:00000000000000f0 .L0 
     /tmp/cc4f008N.s:343    .text:00000000000000f4 .L0 
GAS LISTING /tmp/cc4f008N.s 			page 17


     /tmp/cc4f008N.s:344    .text:00000000000000f4 .L0 
     /tmp/cc4f008N.s:346    .text:00000000000000f8 .L0 
     /tmp/cc4f008N.s:348    .text:0000000000000100 .L0 
     /tmp/cc4f008N.s:349    .text:0000000000000100 .L0 
     /tmp/cc4f008N.s:351    .text:0000000000000104 .L0 
     /tmp/cc4f008N.s:353    .text:0000000000000108 .L0 
     /tmp/cc4f008N.s:359    .text:0000000000000108 _Z15thread_dispatchv
     /tmp/cc4f008N.s:362    .text:0000000000000108 .L0 
     /tmp/cc4f008N.s:363    .text:0000000000000108 .L0 
     /tmp/cc4f008N.s:364    .text:000000000000010c .L0 
     /tmp/cc4f008N.s:366    .text:0000000000000110 .L0 
     /tmp/cc4f008N.s:368    .text:0000000000000114 .L0 
     /tmp/cc4f008N.s:373    .text:0000000000000114 .L0 
     /tmp/cc4f008N.s:374    .text:0000000000000114 .L0 
     /tmp/cc4f008N.s:375    .text:0000000000000114 .L0 
     /tmp/cc4f008N.s:385    .text:000000000000011c .L0 
   src/syscall_c.cpp:55     .text:000000000000011c .L0 
     /tmp/cc4f008N.s:392    .text:0000000000000120 .L0 
     /tmp/cc4f008N.s:393    .text:0000000000000124 .L0 
     /tmp/cc4f008N.s:394    .text:0000000000000124 .L0 
     /tmp/cc4f008N.s:396    .text:0000000000000128 .L0 
     /tmp/cc4f008N.s:398    .text:000000000000012c .L0 
     /tmp/cc4f008N.s:404    .text:000000000000012c _Z11thread_joinP7_thread
     /tmp/cc4f008N.s:407    .text:000000000000012c .L0 
     /tmp/cc4f008N.s:409    .text:000000000000012c .L0 
     /tmp/cc4f008N.s:410    .text:0000000000000130 .L0 
     /tmp/cc4f008N.s:412    .text:0000000000000134 .L0 
     /tmp/cc4f008N.s:414    .text:0000000000000138 .L0 
     /tmp/cc4f008N.s:419    .text:0000000000000138 .L0 
     /tmp/cc4f008N.s:420    .text:0000000000000138 .L0 
     /tmp/cc4f008N.s:421    .text:0000000000000138 .L0 
     /tmp/cc4f008N.s:431    .text:0000000000000140 .L0 
     /tmp/cc4f008N.s:432    .text:0000000000000144 .L0 
     /tmp/cc4f008N.s:433    .text:0000000000000144 .L0 
     /tmp/cc4f008N.s:435    .text:0000000000000148 .L0 
     /tmp/cc4f008N.s:437    .text:000000000000014c .L0 
     /tmp/cc4f008N.s:443    .text:000000000000014c .L0 
     /tmp/cc4f008N.s:1298   .debug_abbrev:0000000000000000 .Ldebug_abbrev0
     /tmp/cc4f008N.s:2235   .debug_str:0000000000000556 .LASF100
     /tmp/cc4f008N.s:2143   .debug_str:00000000000002cd .LASF101
     /tmp/cc4f008N.s:2093   .debug_str:0000000000000137 .LASF102
     /tmp/cc4f008N.s:5      .text:0000000000000000 .Ltext0
     /tmp/cc4f008N.s:440    .text:000000000000014c .Letext0
     /tmp/cc4f008N.s:2043   .debug_line:0000000000000000 .Ldebug_line0
     /tmp/cc4f008N.s:2173   .debug_str:00000000000003b3 .LASF0
     /tmp/cc4f008N.s:2183   .debug_str:00000000000003f7 .LASF1
     /tmp/cc4f008N.s:2159   .debug_str:0000000000000344 .LASF2
     /tmp/cc4f008N.s:2141   .debug_str:00000000000002c6 .LASF4
     /tmp/cc4f008N.s:2215   .debug_str:00000000000004d4 .LASF3
     /tmp/cc4f008N.s:2067   .debug_str:000000000000008b .LASF5
     /tmp/cc4f008N.s:2187   .debug_str:000000000000041b .LASF6
     /tmp/cc4f008N.s:2171   .debug_str:00000000000003a0 .LASF7
     /tmp/cc4f008N.s:2241   .debug_str:000000000000063a .LASF8
     /tmp/cc4f008N.s:2131   .debug_str:0000000000000270 .LASF9
     /tmp/cc4f008N.s:2197   .debug_str:000000000000044d .LASF10
     /tmp/cc4f008N.s:2237   .debug_str:000000000000061a .LASF11
     /tmp/cc4f008N.s:2073   .debug_str:000000000000009c .LASF12
GAS LISTING /tmp/cc4f008N.s 			page 18


     /tmp/cc4f008N.s:2051   .debug_str:000000000000002b .LASF13
     /tmp/cc4f008N.s:2085   .debug_str:00000000000000fc .LASF14
     /tmp/cc4f008N.s:2207   .debug_str:0000000000000488 .LASF15
     /tmp/cc4f008N.s:2095   .debug_str:000000000000015a .LASF16
     /tmp/cc4f008N.s:2119   .debug_str:0000000000000227 .LASF17
     /tmp/cc4f008N.s:2181   .debug_str:00000000000003f1 .LASF103
     /tmp/cc4f008N.s:2205   .debug_str:000000000000047d .LASF18
     /tmp/cc4f008N.s:2249   .debug_str:0000000000000670 .LASF20
     /tmp/cc4f008N.s:2065   .debug_str:000000000000007d .LASF19
     /tmp/cc4f008N.s:2111   .debug_str:00000000000001df .LASF21
     /tmp/cc4f008N.s:2223   .debug_str:0000000000000511 .LASF22
     /tmp/cc4f008N.s:2049   .debug_str:0000000000000011 .LASF23
     /tmp/cc4f008N.s:2053   .debug_str:000000000000003b .LASF24
     /tmp/cc4f008N.s:2221   .debug_str:00000000000004fc .LASF26
     /tmp/cc4f008N.s:2107   .debug_str:00000000000001ca .LASF28
     /tmp/cc4f008N.s:2105   .debug_str:00000000000001b5 .LASF30
     /tmp/cc4f008N.s:2217   .debug_str:00000000000004e6 .LASF25
     /tmp/cc4f008N.s:2201   .debug_str:0000000000000465 .LASF27
     /tmp/cc4f008N.s:2233   .debug_str:000000000000054f .LASF29
     /tmp/cc4f008N.s:2227   .debug_str:0000000000000525 .LASF31
     /tmp/cc4f008N.s:2125   .debug_str:0000000000000254 .LASF32
     /tmp/cc4f008N.s:2097   .debug_str:0000000000000170 .LASF33
     /tmp/cc4f008N.s:2047   .debug_str:0000000000000009 .LASF34
     /tmp/cc4f008N.s:2135   .debug_str:0000000000000294 .LASF35
     /tmp/cc4f008N.s:2115   .debug_str:000000000000020b .LASF36
     /tmp/cc4f008N.s:2079   .debug_str:00000000000000c2 .LASF37
     /tmp/cc4f008N.s:2255   .debug_str:00000000000006a4 .LASF38
     /tmp/cc4f008N.s:2117   .debug_str:0000000000000213 .LASF39
     /tmp/cc4f008N.s:2175   .debug_str:00000000000003c0 .LASF40
     /tmp/cc4f008N.s:2247   .debug_str:000000000000065d .LASF41
     /tmp/cc4f008N.s:2063   .debug_str:0000000000000076 .LASF42
     /tmp/cc4f008N.s:2123   .debug_str:0000000000000241 .LASF43
     /tmp/cc4f008N.s:2129   .debug_str:000000000000026a .LASF44
     /tmp/cc4f008N.s:2231   .debug_str:000000000000053d .LASF45
     /tmp/cc4f008N.s:2061   .debug_str:0000000000000070 .LASF46
     /tmp/cc4f008N.s:2257   .debug_str:00000000000006ac .LASF47
     /tmp/cc4f008N.s:2253   .debug_str:0000000000000699 .LASF48
     /tmp/cc4f008N.s:2213   .debug_str:00000000000004bc .LASF49
     /tmp/cc4f008N.s:2147   .debug_str:00000000000002f0 .LASF50
     /tmp/cc4f008N.s:2157   .debug_str:000000000000032c .LASF51
     /tmp/cc4f008N.s:2083   .debug_str:00000000000000f2 .LASF52
     /tmp/cc4f008N.s:2137   .debug_str:00000000000002a8 .LASF53
     /tmp/cc4f008N.s:2163   .debug_str:0000000000000365 .LASF54
     /tmp/cc4f008N.s:2133   .debug_str:000000000000027e .LASF55
     /tmp/cc4f008N.s:2193   .debug_str:0000000000000438 .LASF56
     /tmp/cc4f008N.s:2099   .debug_str:0000000000000184 .LASF57
     /tmp/cc4f008N.s:2055   .debug_str:0000000000000044 .LASF58
     /tmp/cc4f008N.s:2161   .debug_str:0000000000000352 .LASF59
     /tmp/cc4f008N.s:2219   .debug_str:00000000000004ed .LASF60
     /tmp/cc4f008N.s:2081   .debug_str:00000000000000d6 .LASF61
     /tmp/cc4f008N.s:2229   .debug_str:0000000000000538 .LASF62
     /tmp/cc4f008N.s:2113   .debug_str:00000000000001fa .LASF63
     /tmp/cc4f008N.s:2069   .debug_str:0000000000000092 .LASF64
     /tmp/cc4f008N.s:2165   .debug_str:000000000000036f .LASF65
     /tmp/cc4f008N.s:2155   .debug_str:0000000000000327 .LASF66
     /tmp/cc4f008N.s:2251   .debug_str:0000000000000688 .LASF67
     /tmp/cc4f008N.s:2071   .debug_str:0000000000000097 .LASF68
GAS LISTING /tmp/cc4f008N.s 			page 19


     /tmp/cc4f008N.s:2145   .debug_str:00000000000002df .LASF69
     /tmp/cc4f008N.s:2189   .debug_str:000000000000042e .LASF70
     /tmp/cc4f008N.s:2239   .debug_str:0000000000000629 .LASF71
     /tmp/cc4f008N.s:2179   .debug_str:00000000000003ec .LASF72
     /tmp/cc4f008N.s:2077   .debug_str:00000000000000b1 .LASF73
     /tmp/cc4f008N.s:2191   .debug_str:0000000000000433 .LASF74
     /tmp/cc4f008N.s:2209   .debug_str:000000000000049e .LASF75
     /tmp/cc4f008N.s:2075   .debug_str:00000000000000ac .LASF76
     /tmp/cc4f008N.s:2087   .debug_str:0000000000000108 .LASF77
     /tmp/cc4f008N.s:2151   .debug_str:0000000000000306 .LASF78
     /tmp/cc4f008N.s:2169   .debug_str:000000000000038c .LASF79
     /tmp/cc4f008N.s:2167   .debug_str:0000000000000380 .LASF104
     /tmp/cc4f008N.s:2153   .debug_str:000000000000030e .LASF105
     /tmp/cc4f008N.s:2245   .debug_str:0000000000000654 .LASF80
     /tmp/cc4f008N.s:2045   .debug_str:0000000000000000 .LASF81
     /tmp/cc4f008N.s:2139   .debug_str:00000000000002be .LASF106
     /tmp/cc4f008N.s:2109   .debug_str:00000000000001d3 .LASF82
     /tmp/cc4f008N.s:2057   .debug_str:000000000000004b .LASF84
     /tmp/cc4f008N.s:405    .text:000000000000012c .LFB54
     /tmp/cc4f008N.s:438    .text:000000000000014c .LFE54
     /tmp/cc4f008N.s:2225   .debug_str:000000000000051e .LASF90
     /tmp/cc4f008N.s:417    .text:0000000000000138 .LBB52
     /tmp/cc4f008N.s:429    .text:0000000000000140 .LBE52
     /tmp/cc4f008N.s:1872   .debug_loc:0000000000000000 .LLST15
     /tmp/cc4f008N.s:2089   .debug_str:0000000000000119 .LASF83
     /tmp/cc4f008N.s:2121   .debug_str:000000000000022c .LASF85
     /tmp/cc4f008N.s:360    .text:0000000000000108 .LFB53
     /tmp/cc4f008N.s:399    .text:000000000000012c .LFE53
     /tmp/cc4f008N.s:371    .text:0000000000000114 .LBB50
     /tmp/cc4f008N.s:383    .text:000000000000011c .LBE50
     /tmp/cc4f008N.s:1880   .debug_loc:0000000000000024 .LLST14
     /tmp/cc4f008N.s:2059   .debug_str:0000000000000064 .LASF86
     /tmp/cc4f008N.s:2185   .debug_str:000000000000040a .LASF88
     /tmp/cc4f008N.s:292    .text:00000000000000cc .LFB52
     /tmp/cc4f008N.s:354    .text:0000000000000108 .LFE52
     /tmp/cc4f008N.s:303    .text:00000000000000d8 .LBB46
     /tmp/cc4f008N.s:315    .text:00000000000000e0 .LBE46
     /tmp/cc4f008N.s:1888   .debug_loc:0000000000000048 .LLST13
     /tmp/cc4f008N.s:324    .text:00000000000000e4 .LBB48
     /tmp/cc4f008N.s:339    .text:00000000000000f0 .LBE48
     /tmp/cc4f008N.s:2101   .debug_str:0000000000000197 .LASF87
     /tmp/cc4f008N.s:2177   .debug_str:00000000000003c7 .LASF89
     /tmp/cc4f008N.s:204    .text:0000000000000098 .LFB51
     /tmp/cc4f008N.s:286    .text:00000000000000cc .LFE51
     /tmp/cc4f008N.s:1896   .debug_loc:000000000000006c .LLST8
     /tmp/cc4f008N.s:2127   .debug_str:000000000000025c .LASF91
     /tmp/cc4f008N.s:216    .text:00000000000000a4 .LBB38
     /tmp/cc4f008N.s:228    .text:00000000000000ac .LBE38
     /tmp/cc4f008N.s:1910   .debug_loc:00000000000000a5 .LLST9
     /tmp/cc4f008N.s:230    .text:00000000000000ac .LBB40
     /tmp/cc4f008N.s:241    .text:00000000000000b0 .LBE40
     /tmp/cc4f008N.s:1918   .debug_loc:00000000000000c9 .LLST10
     /tmp/cc4f008N.s:243    .text:00000000000000b0 .LBB42
     /tmp/cc4f008N.s:254    .text:00000000000000b4 .LBE42
     /tmp/cc4f008N.s:1925   .debug_loc:00000000000000ec .LLST11
     /tmp/cc4f008N.s:256    .text:00000000000000b4 .LBB44
     /tmp/cc4f008N.s:267    .text:00000000000000b8 .LBE44
GAS LISTING /tmp/cc4f008N.s 			page 20


     /tmp/cc4f008N.s:1932   .debug_loc:000000000000010f .LLST12
     /tmp/cc4f008N.s:2149   .debug_str:00000000000002fb .LASF92
     /tmp/cc4f008N.s:2103   .debug_str:00000000000001a5 .LASF93
     /tmp/cc4f008N.s:159    .text:0000000000000074 .LFB50
     /tmp/cc4f008N.s:198    .text:0000000000000098 .LFE50
     /tmp/cc4f008N.s:170    .text:0000000000000080 .LBB36
     /tmp/cc4f008N.s:182    .text:0000000000000088 .LBE36
     /tmp/cc4f008N.s:1939   .debug_loc:0000000000000132 .LLST7
     /tmp/cc4f008N.s:2199   .debug_str:000000000000045c .LASF94
     /tmp/cc4f008N.s:2195   .debug_str:000000000000043f .LASF95
     /tmp/cc4f008N.s:88     .text:000000000000003c .LFB49
     /tmp/cc4f008N.s:153    .text:0000000000000074 .LFE49
     /tmp/cc4f008N.s:1948   .debug_loc:0000000000000157 .LLST4
     /tmp/cc4f008N.s:100    .text:0000000000000048 .LBB32
     /tmp/cc4f008N.s:112    .text:0000000000000050 .LBE32
     /tmp/cc4f008N.s:1962   .debug_loc:0000000000000190 .LLST5
     /tmp/cc4f008N.s:114    .text:0000000000000050 .LBB34
     /tmp/cc4f008N.s:125    .text:0000000000000054 .LBE34
     /tmp/cc4f008N.s:1970   .debug_loc:00000000000001b4 .LLST6
     /tmp/cc4f008N.s:2243   .debug_str:000000000000064a .LASF96
     /tmp/cc4f008N.s:2091   .debug_str:0000000000000129 .LASF97
     /tmp/cc4f008N.s:10     .text:0000000000000000 .LFB48
     /tmp/cc4f008N.s:82     .text:000000000000003c .LFE48
     /tmp/cc4f008N.s:2203   .debug_str:0000000000000478 .LASF98
     /tmp/cc4f008N.s:1977   .debug_loc:00000000000001d7 .LLST0
     /tmp/cc4f008N.s:2211   .debug_str:00000000000004af .LASF99
     /tmp/cc4f008N.s:1997   .debug_loc:0000000000000226 .LLST1
     /tmp/cc4f008N.s:29     .text:0000000000000014 .LBB28
     /tmp/cc4f008N.s:42     .text:000000000000001c .LBE28
     /tmp/cc4f008N.s:2015   .debug_loc:0000000000000263 .LLST2
     /tmp/cc4f008N.s:44     .text:000000000000001c .LBB30
     /tmp/cc4f008N.s:55     .text:0000000000000020 .LBE30
     /tmp/cc4f008N.s:2023   .debug_loc:0000000000000287 .LLST3
     /tmp/cc4f008N.s:416    .text:0000000000000138 .LVL25
     /tmp/cc4f008N.s:426    .text:0000000000000140 .LVL26
     /tmp/cc4f008N.s:370    .text:0000000000000114 .LVL22
     /tmp/cc4f008N.s:380    .text:000000000000011c .LVL23
     /tmp/cc4f008N.s:302    .text:00000000000000d8 .LVL20
     /tmp/cc4f008N.s:312    .text:00000000000000e0 .LVL21
     /tmp/cc4f008N.s:207    .text:0000000000000098 .LVL13
     /tmp/cc4f008N.s:278    .text:00000000000000c0 .LVL19
     /tmp/cc4f008N.s:215    .text:00000000000000a4 .LVL14
     /tmp/cc4f008N.s:225    .text:00000000000000ac .LVL15
     /tmp/cc4f008N.s:238    .text:00000000000000b0 .LVL16
     /tmp/cc4f008N.s:251    .text:00000000000000b4 .LVL17
     /tmp/cc4f008N.s:264    .text:00000000000000b8 .LVL18
     /tmp/cc4f008N.s:169    .text:0000000000000080 .LVL11
     /tmp/cc4f008N.s:179    .text:0000000000000088 .LVL12
     /tmp/cc4f008N.s:91     .text:000000000000003c .LVL6
     /tmp/cc4f008N.s:143    .text:0000000000000064 .LVL10
     /tmp/cc4f008N.s:99     .text:0000000000000048 .LVL7
     /tmp/cc4f008N.s:109    .text:0000000000000050 .LVL8
     /tmp/cc4f008N.s:122    .text:0000000000000054 .LVL9
     /tmp/cc4f008N.s:14     .text:0000000000000000 .LVL0
     /tmp/cc4f008N.s:24     .text:0000000000000010 .LVL1
     /tmp/cc4f008N.s:27     .text:0000000000000014 .LVL2
     /tmp/cc4f008N.s:73     .text:0000000000000030 .LVL5
GAS LISTING /tmp/cc4f008N.s 			page 21


     /tmp/cc4f008N.s:39     .text:000000000000001c .LVL3
     /tmp/cc4f008N.s:52     .text:0000000000000020 .LVL4
     /tmp/cc4f008N.s:444    .debug_info:0000000000000000 .Ldebug_info0

NO UNDEFINED SYMBOLS
