GAS LISTING /tmp/cc0VgBwq.s 			page 1


   1              		.file	"syscall_c.cpp"
   2              		.option pic
   3              		.option norelax
   4              		.text
   5              	.Ltext0:
   6              		.align	2
   7              		.globl	_Z9mem_allocm
   9              	_Z9mem_allocm:
  10              	.LFB48:
  11              		.file 1 "src/syscall_c.cpp"
   1:src/syscall_c.cpp **** #include "../h/syscall_c.hpp"
   2:src/syscall_c.cpp **** 
   3:src/syscall_c.cpp **** 
   4:src/syscall_c.cpp **** void *mem_alloc(size_t size) {
  12              		.loc 1 4 30
  13              		.cfi_startproc
  14              	.LVL0:
  15 0000 130101FE 		addi	sp,sp,-32
  16              		.cfi_def_cfa_offset 32
  17 0004 233C8100 		sd	s0,24(sp)
  18              		.cfi_offset 8, -8
  19 0008 13040102 		addi	s0,sp,32
  20              		.cfi_def_cfa 8, 0
   5:src/syscall_c.cpp ****     size_t sizeInBlocks = ((size + 16 + MEM_BLOCK_SIZE - 1) / MEM_BLOCK_SIZE);
  21              		.loc 1 5 5
  22              		.loc 1 5 56 is_stmt 0
  23 000c 1305F504 		addi	a0,a0,79
  24              	.LVL1:
  25              		.loc 1 5 12
  26 0010 13556500 		srli	a0,a0,6
  27              	.LVL2:
   6:src/syscall_c.cpp ****     Riscv::w_a1((uint64) sizeInBlocks);
  28              		.loc 1 6 5 is_stmt 1
  29              	.LBB30:
  30              	.LBB31:
  31              		.file 2 "src/../h/riscv.hpp"
   1:src/../h/riscv.hpp **** #ifndef PROJECT_BASE_V1_1_RISCV_HPP
   2:src/../h/riscv.hpp **** #define PROJECT_BASE_V1_1_RISCV_HPP
   3:src/../h/riscv.hpp **** 
   4:src/../h/riscv.hpp **** 
   5:src/../h/riscv.hpp **** #include "../h/MemoryAllocator.hpp"
   6:src/../h/riscv.hpp **** #include "PCB.hpp"
   7:src/../h/riscv.hpp **** 
   8:src/../h/riscv.hpp **** 
   9:src/../h/riscv.hpp **** #define readUsrReg(reg, dst) __asm__ volatile("mv %0,"#reg : "=r" (dst));
  10:src/../h/riscv.hpp **** #define writeUsrReg(reg, src) __asm__ volatile("mv "#reg", %0" : : "r" (src));
  11:src/../h/riscv.hpp **** 
  12:src/../h/riscv.hpp **** 
  13:src/../h/riscv.hpp **** class Riscv
  14:src/../h/riscv.hpp **** {
  15:src/../h/riscv.hpp **** public:
  16:src/../h/riscv.hpp **** 
  17:src/../h/riscv.hpp **** 
  18:src/../h/riscv.hpp **** 
  19:src/../h/riscv.hpp ****     // pop sstatus.spp and sstatus.spie bits (has to be a non inline function)
  20:src/../h/riscv.hpp ****     static void popSppSpie();
  21:src/../h/riscv.hpp **** 
GAS LISTING /tmp/cc0VgBwq.s 			page 2


  22:src/../h/riscv.hpp ****     // push x3..x31 registers onto stack
  23:src/../h/riscv.hpp ****     static void pushRegisters();
  24:src/../h/riscv.hpp **** 
  25:src/../h/riscv.hpp ****     // pop x3..x31 registers onto stack
  26:src/../h/riscv.hpp ****     static void popRegisters();
  27:src/../h/riscv.hpp **** 
  28:src/../h/riscv.hpp ****     // read register scause
  29:src/../h/riscv.hpp ****     static uint64 r_scause();
  30:src/../h/riscv.hpp **** 
  31:src/../h/riscv.hpp ****     // write register scause
  32:src/../h/riscv.hpp ****     static void w_scause(uint64 scause);
  33:src/../h/riscv.hpp **** 
  34:src/../h/riscv.hpp ****     // read register sepc
  35:src/../h/riscv.hpp ****     static uint64 r_sepc();
  36:src/../h/riscv.hpp **** 
  37:src/../h/riscv.hpp ****     // write register sepc
  38:src/../h/riscv.hpp ****     static void w_sepc(uint64 sepc);
  39:src/../h/riscv.hpp **** 
  40:src/../h/riscv.hpp ****     // read register stvec
  41:src/../h/riscv.hpp ****     static uint64 r_stvec();
  42:src/../h/riscv.hpp **** 
  43:src/../h/riscv.hpp ****     // write register stvec
  44:src/../h/riscv.hpp ****     static void w_stvec(uint64 stvec);
  45:src/../h/riscv.hpp **** 
  46:src/../h/riscv.hpp ****     // read register stval
  47:src/../h/riscv.hpp ****     static uint64 r_stval();
  48:src/../h/riscv.hpp **** 
  49:src/../h/riscv.hpp ****     // write register stval
  50:src/../h/riscv.hpp ****     static void w_stval(uint64 stval);
  51:src/../h/riscv.hpp **** 
  52:src/../h/riscv.hpp ****     enum BitMaskSip
  53:src/../h/riscv.hpp ****     {
  54:src/../h/riscv.hpp **** //        SIP_SSIE = (1 << 1),
  55:src/../h/riscv.hpp **** //        SIP_STIE = (1 << 5),
  56:src/../h/riscv.hpp **** //        SIP_SEIE = (1 << 9),
  57:src/../h/riscv.hpp ****         SIP_SSIP = (1<<1),
  58:src/../h/riscv.hpp ****         SIP_SEIP = (1<<9)
  59:src/../h/riscv.hpp ****     };
  60:src/../h/riscv.hpp **** 
  61:src/../h/riscv.hpp ****     // mask set register sip
  62:src/../h/riscv.hpp ****     static void ms_sip(uint64 mask);
  63:src/../h/riscv.hpp **** 
  64:src/../h/riscv.hpp ****     // mask clear register sip
  65:src/../h/riscv.hpp ****     static void mc_sip(uint64 mask);
  66:src/../h/riscv.hpp **** 
  67:src/../h/riscv.hpp ****     // read register sip
  68:src/../h/riscv.hpp ****     static uint64 r_sip();
  69:src/../h/riscv.hpp **** 
  70:src/../h/riscv.hpp ****     // write register sip
  71:src/../h/riscv.hpp ****     static void w_sip(uint64 sip);
  72:src/../h/riscv.hpp **** 
  73:src/../h/riscv.hpp ****     enum BitMaskSstatus
  74:src/../h/riscv.hpp ****     {
  75:src/../h/riscv.hpp ****         SSTATUS_SIE = (1 << 1),
  76:src/../h/riscv.hpp ****         SSTATUS_SPIE = (1 << 5),
  77:src/../h/riscv.hpp ****         SSTATUS_SPP = (1 << 8),
  78:src/../h/riscv.hpp ****     };
GAS LISTING /tmp/cc0VgBwq.s 			page 3


  79:src/../h/riscv.hpp **** 
  80:src/../h/riscv.hpp ****     // mask set register sstatus
  81:src/../h/riscv.hpp ****     static void ms_sstatus(uint64 mask);
  82:src/../h/riscv.hpp **** 
  83:src/../h/riscv.hpp ****     // mask clear register sstatus
  84:src/../h/riscv.hpp ****     static void mc_sstatus(uint64 mask);
  85:src/../h/riscv.hpp **** 
  86:src/../h/riscv.hpp ****     // read register sstatus
  87:src/../h/riscv.hpp ****     static uint64 r_sstatus();
  88:src/../h/riscv.hpp **** 
  89:src/../h/riscv.hpp ****     // write register sstatus
  90:src/../h/riscv.hpp ****     static void w_sstatus(uint64 sstatus);
  91:src/../h/riscv.hpp **** 
  92:src/../h/riscv.hpp ****     // mask set register sie
  93:src/../h/riscv.hpp ****     static void ms_sie(uint64 mask);
  94:src/../h/riscv.hpp **** 
  95:src/../h/riscv.hpp ****     // mask clear register sie
  96:src/../h/riscv.hpp ****     static void mc_sie(uint64 mask);
  97:src/../h/riscv.hpp **** 
  98:src/../h/riscv.hpp ****     static void supervisorTrap();
  99:src/../h/riscv.hpp **** 
 100:src/../h/riscv.hpp ****     static long r_a0();
 101:src/../h/riscv.hpp **** 
 102:src/../h/riscv.hpp ****     static void w_a0(long a0);
 103:src/../h/riscv.hpp **** 
 104:src/../h/riscv.hpp ****     static uint64 r_a1();
 105:src/../h/riscv.hpp **** 
 106:src/../h/riscv.hpp ****     static void w_a1(uint64 a1);
 107:src/../h/riscv.hpp **** 
 108:src/../h/riscv.hpp ****     static uint64 r_a2();
 109:src/../h/riscv.hpp **** 
 110:src/../h/riscv.hpp ****     static void w_a2(uint64 a1);
 111:src/../h/riscv.hpp **** 
 112:src/../h/riscv.hpp ****     static uint64 r_a3();
 113:src/../h/riscv.hpp **** 
 114:src/../h/riscv.hpp ****     static void w_a3(uint64 a1);
 115:src/../h/riscv.hpp **** 
 116:src/../h/riscv.hpp ****     static void push_a0(long a0);
 117:src/../h/riscv.hpp **** 
 118:src/../h/riscv.hpp **** private:
 119:src/../h/riscv.hpp ****     static void trapHandler();
 120:src/../h/riscv.hpp **** 
 121:src/../h/riscv.hpp **** 
 122:src/../h/riscv.hpp **** };
 123:src/../h/riscv.hpp **** 
 124:src/../h/riscv.hpp **** inline uint64 Riscv::r_scause()
 125:src/../h/riscv.hpp **** {
 126:src/../h/riscv.hpp ****     uint64 volatile scause;
 127:src/../h/riscv.hpp ****     __asm__ volatile ("csrr %[scause], scause" : [scause] "=r"(scause));
 128:src/../h/riscv.hpp ****     return scause;
 129:src/../h/riscv.hpp **** }
 130:src/../h/riscv.hpp **** 
 131:src/../h/riscv.hpp **** inline void Riscv::w_scause(uint64 scause)
 132:src/../h/riscv.hpp **** {
 133:src/../h/riscv.hpp ****     __asm__ volatile ("csrw scause, %[scause]" : : [scause] "r"(scause));
 134:src/../h/riscv.hpp **** }
 135:src/../h/riscv.hpp **** 
GAS LISTING /tmp/cc0VgBwq.s 			page 4


 136:src/../h/riscv.hpp **** inline uint64 Riscv::r_sepc()
 137:src/../h/riscv.hpp **** {
 138:src/../h/riscv.hpp ****     uint64 volatile sepc;
 139:src/../h/riscv.hpp ****     __asm__ volatile ("csrr %[sepc], sepc" : [sepc] "=r"(sepc));
 140:src/../h/riscv.hpp ****     return sepc;
 141:src/../h/riscv.hpp **** }
 142:src/../h/riscv.hpp **** 
 143:src/../h/riscv.hpp **** inline void Riscv::w_sepc(uint64 sepc)
 144:src/../h/riscv.hpp **** {
 145:src/../h/riscv.hpp ****     __asm__ volatile ("csrw sepc, %[sepc]" : : [sepc] "r"(sepc));
 146:src/../h/riscv.hpp **** }
 147:src/../h/riscv.hpp **** 
 148:src/../h/riscv.hpp **** inline uint64 Riscv::r_stvec()
 149:src/../h/riscv.hpp **** {
 150:src/../h/riscv.hpp ****     uint64 volatile stvec;
 151:src/../h/riscv.hpp ****     __asm__ volatile ("csrr %[stvec], stvec" : [stvec] "=r"(stvec));
 152:src/../h/riscv.hpp ****     return stvec;
 153:src/../h/riscv.hpp **** }
 154:src/../h/riscv.hpp **** 
 155:src/../h/riscv.hpp **** inline void Riscv::w_stvec(uint64 stvec)
 156:src/../h/riscv.hpp **** {
 157:src/../h/riscv.hpp ****     __asm__ volatile ("csrw stvec, %[stvec]" : : [stvec] "r"(stvec));
 158:src/../h/riscv.hpp **** }
 159:src/../h/riscv.hpp **** 
 160:src/../h/riscv.hpp **** inline uint64 Riscv::r_stval()
 161:src/../h/riscv.hpp **** {
 162:src/../h/riscv.hpp ****     uint64 volatile stval;
 163:src/../h/riscv.hpp ****     __asm__ volatile ("csrr %[stval], stval" : [stval] "=r"(stval));
 164:src/../h/riscv.hpp ****     return stval;
 165:src/../h/riscv.hpp **** }
 166:src/../h/riscv.hpp **** 
 167:src/../h/riscv.hpp **** inline void Riscv::w_stval(uint64 stval)
 168:src/../h/riscv.hpp **** {
 169:src/../h/riscv.hpp ****     __asm__ volatile ("csrw stval, %[stval]" : : [stval] "r"(stval));
 170:src/../h/riscv.hpp **** }
 171:src/../h/riscv.hpp **** 
 172:src/../h/riscv.hpp **** inline void Riscv::ms_sip(uint64 mask)
 173:src/../h/riscv.hpp **** {
 174:src/../h/riscv.hpp ****     __asm__ volatile ("csrs sip, %[mask]" : : [mask] "r"(mask));
 175:src/../h/riscv.hpp **** }
 176:src/../h/riscv.hpp **** 
 177:src/../h/riscv.hpp **** inline void Riscv::mc_sip(uint64 mask)
 178:src/../h/riscv.hpp **** {
 179:src/../h/riscv.hpp ****     __asm__ volatile ("csrc sip, %[mask]" : : [mask] "r"(mask));
 180:src/../h/riscv.hpp **** }
 181:src/../h/riscv.hpp **** 
 182:src/../h/riscv.hpp **** inline uint64 Riscv::r_sip()
 183:src/../h/riscv.hpp **** {
 184:src/../h/riscv.hpp ****     uint64 volatile sip;
 185:src/../h/riscv.hpp ****     __asm__ volatile ("csrr %[sip], sip" : [sip] "=r"(sip));
 186:src/../h/riscv.hpp ****     return sip;
 187:src/../h/riscv.hpp **** }
 188:src/../h/riscv.hpp **** 
 189:src/../h/riscv.hpp **** inline void Riscv::w_sip(uint64 sip)
 190:src/../h/riscv.hpp **** {
 191:src/../h/riscv.hpp ****     __asm__ volatile ("csrw sip, %[sip]" : : [sip] "r"(sip));
 192:src/../h/riscv.hpp **** }
GAS LISTING /tmp/cc0VgBwq.s 			page 5


 193:src/../h/riscv.hpp **** 
 194:src/../h/riscv.hpp **** inline void Riscv::ms_sstatus(uint64 mask)
 195:src/../h/riscv.hpp **** {
 196:src/../h/riscv.hpp ****     __asm__ volatile ("csrs sstatus, %[mask]" : : [mask] "r"(mask));
 197:src/../h/riscv.hpp **** }
 198:src/../h/riscv.hpp **** 
 199:src/../h/riscv.hpp **** inline void Riscv::mc_sstatus(uint64 mask)
 200:src/../h/riscv.hpp **** {
 201:src/../h/riscv.hpp ****     __asm__ volatile ("csrc sstatus, %[mask]" : : [mask] "r"(mask));
 202:src/../h/riscv.hpp **** }
 203:src/../h/riscv.hpp **** 
 204:src/../h/riscv.hpp **** inline uint64 Riscv::r_sstatus()
 205:src/../h/riscv.hpp **** {
 206:src/../h/riscv.hpp ****     uint64 volatile sstatus;
 207:src/../h/riscv.hpp ****     __asm__ volatile ("csrr %[sstatus], sstatus" : [sstatus] "=r"(sstatus));
 208:src/../h/riscv.hpp ****     return sstatus;
 209:src/../h/riscv.hpp **** }
 210:src/../h/riscv.hpp **** 
 211:src/../h/riscv.hpp **** inline void Riscv::w_sstatus(uint64 sstatus)
 212:src/../h/riscv.hpp **** {
 213:src/../h/riscv.hpp ****     __asm__ volatile ("csrw sstatus, %[sstatus]" : : [sstatus] "r"(sstatus));
 214:src/../h/riscv.hpp **** }
 215:src/../h/riscv.hpp **** 
 216:src/../h/riscv.hpp **** inline void Riscv::ms_sie(uint64 mask)
 217:src/../h/riscv.hpp **** {
 218:src/../h/riscv.hpp ****     __asm__ volatile ("csrs sie, %[mask]" : : [mask] "r"(mask));
 219:src/../h/riscv.hpp **** }
 220:src/../h/riscv.hpp **** 
 221:src/../h/riscv.hpp **** inline void Riscv::mc_sie(uint64 mask)
 222:src/../h/riscv.hpp **** {
 223:src/../h/riscv.hpp ****     __asm__ volatile ("csrc sie, %[mask]" : : [mask] "r"(mask));
 224:src/../h/riscv.hpp **** }
 225:src/../h/riscv.hpp **** 
 226:src/../h/riscv.hpp **** inline long Riscv::r_a0() {
 227:src/../h/riscv.hpp ****     long volatile a0;
 228:src/../h/riscv.hpp ****     __asm__ volatile ("ld %0, 10*8(fp)" : "=r"(a0));
 229:src/../h/riscv.hpp ****     return a0;
 230:src/../h/riscv.hpp **** }
 231:src/../h/riscv.hpp **** 
 232:src/../h/riscv.hpp **** inline void Riscv::w_a0(long a0) {
 233:src/../h/riscv.hpp ****     __asm__ volatile ("mv a0, %0" : : "r"(a0));
 234:src/../h/riscv.hpp **** }
 235:src/../h/riscv.hpp **** 
 236:src/../h/riscv.hpp **** inline uint64 Riscv::r_a1() {
 237:src/../h/riscv.hpp ****     uint64 volatile a1;
 238:src/../h/riscv.hpp ****     __asm__ volatile ("ld %0, 11*8(fp)" : "=r"(a1));
 239:src/../h/riscv.hpp ****     return a1;
 240:src/../h/riscv.hpp **** }
 241:src/../h/riscv.hpp **** 
 242:src/../h/riscv.hpp **** inline void Riscv::w_a1(uint64 a1) {
 243:src/../h/riscv.hpp ****     __asm__ volatile ("mv a1, %0" : : "r"(a1));
  32              		.loc 2 243 5
  33              		.loc 2 243 47 is_stmt 0
  34              	#APP
  35              	# 243 "src/../h/riscv.hpp" 1
 244              	}
  36              		mv a1, a0
GAS LISTING /tmp/cc0VgBwq.s 			page 6


  37              	# 0 "" 2
  38              	.LVL3:
  39              	#NO_APP
  40              	.LBE31:
  41              	.LBE30:
   7:src/syscall_c.cpp ****     Riscv::w_a0(0x01);
  42              		.loc 1 7 5 is_stmt 1
  43              	.LBB32:
  44              	.LBB33:
 233:src/../h/riscv.hpp **** }
  45              		.loc 2 233 5
 233:src/../h/riscv.hpp **** }
  46              		.loc 2 233 47 is_stmt 0
  47 0018 93071000 		li	a5,1
  48              	#APP
  49              	# 233 "src/../h/riscv.hpp" 1
  50              		mv a0, a5
  51              	# 0 "" 2
  52              	.LVL4:
  53              	#NO_APP
  54              	.LBE33:
  55              	.LBE32:
   8:src/syscall_c.cpp **** 
   9:src/syscall_c.cpp **** 
  10:src/syscall_c.cpp ****     __asm__ volatile ("ecall");
  56              		.loc 1 10 5 is_stmt 1
  57              		.loc 1 10 31 is_stmt 0
  58              	#APP
  59              	# 10 "src/syscall_c.cpp" 1
  11              	
  12:src/syscall_c.cpp ****     volatile long a0;
  60              		ecall
  61              	# 0 "" 2
  62              		.loc 1 12 5 is_stmt 1
  13:src/syscall_c.cpp ****     __asm__ volatile ("mv %0, a0" : "=r"(a0));
  63              		.loc 1 13 5
  64              		.loc 1 13 46 is_stmt 0
  65              	# 13 "src/syscall_c.cpp" 1
  14              	    return (void *) a0;
  66              		mv a5, a0
  67              	# 0 "" 2
  68              	#NO_APP
  69 0028 2334F4FE 		sd	a5,-24(s0)
  70              		.loc 1 14 5 is_stmt 1
  71              		.loc 1 14 21 is_stmt 0
  72 002c 033584FE 		ld	a0,-24(s0)
  73              	.LVL5:
  15:src/syscall_c.cpp **** }
  74              		.loc 1 15 1
  75 0030 03348101 		ld	s0,24(sp)
  76              		.cfi_restore 8
  77              		.cfi_def_cfa 2, 32
  78 0034 13010102 		addi	sp,sp,32
  79              		.cfi_def_cfa_offset 0
  80 0038 67800000 		jr	ra
  81              		.cfi_endproc
  82              	.LFE48:
GAS LISTING /tmp/cc0VgBwq.s 			page 7


  84              		.align	2
  85              		.globl	_Z8mem_freePv
  87              	_Z8mem_freePv:
  88              	.LFB49:
  16:src/syscall_c.cpp **** 
  17:src/syscall_c.cpp **** int mem_free(void *ptr) {
  89              		.loc 1 17 25 is_stmt 1
  90              		.cfi_startproc
  91              	.LVL6:
  92 003c 130101FE 		addi	sp,sp,-32
  93              		.cfi_def_cfa_offset 32
  94 0040 233C8100 		sd	s0,24(sp)
  95              		.cfi_offset 8, -8
  96 0044 13040102 		addi	s0,sp,32
  97              		.cfi_def_cfa 8, 0
  18:src/syscall_c.cpp ****     Riscv::w_a1((uint64) ptr);
  98              		.loc 1 18 5
  99              	.LVL7:
 100              	.LBB34:
 101              	.LBB35:
 243:src/../h/riscv.hpp **** }
 102              		.loc 2 243 5
 243:src/../h/riscv.hpp **** }
 103              		.loc 2 243 47 is_stmt 0
 104              	#APP
 105              	# 243 "src/../h/riscv.hpp" 1
 106              		mv a1, a0
 107              	# 0 "" 2
 108              	.LVL8:
 109              	#NO_APP
 110              	.LBE35:
 111              	.LBE34:
  19:src/syscall_c.cpp ****     Riscv::w_a0(0x02);
 112              		.loc 1 19 5 is_stmt 1
 113              	.LBB36:
 114              	.LBB37:
 233:src/../h/riscv.hpp **** }
 115              		.loc 2 233 5
 233:src/../h/riscv.hpp **** }
 116              		.loc 2 233 47 is_stmt 0
 117 004c 93072000 		li	a5,2
 118              	#APP
 119              	# 233 "src/../h/riscv.hpp" 1
 120              		mv a0, a5
 121              	# 0 "" 2
 122              	.LVL9:
 123              	#NO_APP
 124              	.LBE37:
 125              	.LBE36:
  20:src/syscall_c.cpp **** 
  21:src/syscall_c.cpp **** 
  22:src/syscall_c.cpp ****     __asm__ volatile ("ecall");
 126              		.loc 1 22 5 is_stmt 1
 127              		.loc 1 22 31 is_stmt 0
 128              	#APP
 129              	# 22 "src/syscall_c.cpp" 1
  23              	
GAS LISTING /tmp/cc0VgBwq.s 			page 8


  24:src/syscall_c.cpp ****     volatile long a0;
 130              		ecall
 131              	# 0 "" 2
 132              		.loc 1 24 5 is_stmt 1
  25:src/syscall_c.cpp ****     __asm__ volatile ("mv %0, a0" : "=r"(a0));
 133              		.loc 1 25 5
 134              		.loc 1 25 46 is_stmt 0
 135              	# 25 "src/syscall_c.cpp" 1
  26              	    return a0;
 136              		mv a5, a0
 137              	# 0 "" 2
 138              	#NO_APP
 139 005c 2334F4FE 		sd	a5,-24(s0)
 140              		.loc 1 26 5 is_stmt 1
 141              		.loc 1 26 12 is_stmt 0
 142 0060 033584FE 		ld	a0,-24(s0)
 143              	.LVL10:
  27:src/syscall_c.cpp **** }
 144              		.loc 1 27 1
 145 0064 1B050500 		sext.w	a0,a0
 146 0068 03348101 		ld	s0,24(sp)
 147              		.cfi_restore 8
 148              		.cfi_def_cfa 2, 32
 149 006c 13010102 		addi	sp,sp,32
 150              		.cfi_def_cfa_offset 0
 151 0070 67800000 		jr	ra
 152              		.cfi_endproc
 153              	.LFE49:
 155              		.align	2
 156              		.globl	_Z10toUserModev
 158              	_Z10toUserModev:
 159              	.LFB50:
  28:src/syscall_c.cpp **** 
  29:src/syscall_c.cpp **** void toUserMode(){
 160              		.loc 1 29 18 is_stmt 1
 161              		.cfi_startproc
 162 0074 130101FF 		addi	sp,sp,-16
 163              		.cfi_def_cfa_offset 16
 164 0078 23348100 		sd	s0,8(sp)
 165              		.cfi_offset 8, -8
 166 007c 13040101 		addi	s0,sp,16
 167              		.cfi_def_cfa 8, 0
  30:src/syscall_c.cpp ****     Riscv::w_a0(0x51);
 168              		.loc 1 30 5
 169              	.LVL11:
 170              	.LBB38:
 171              	.LBB39:
 233:src/../h/riscv.hpp **** }
 172              		.loc 2 233 5
 233:src/../h/riscv.hpp **** }
 173              		.loc 2 233 47 is_stmt 0
 174 0080 93071005 		li	a5,81
 175              	#APP
 176              	# 233 "src/../h/riscv.hpp" 1
 177              		mv a0, a5
 178              	# 0 "" 2
 179              	.LVL12:
GAS LISTING /tmp/cc0VgBwq.s 			page 9


 180              	#NO_APP
 181              	.LBE39:
 182              	.LBE38:
  31:src/syscall_c.cpp ****     __asm__ volatile ("ecall");
 183              		.loc 1 31 5 is_stmt 1
 184              		.loc 1 31 31 is_stmt 0
 185              	#APP
 186              	# 31 "src/syscall_c.cpp" 1
  32              	}
 187              		ecall
 188              	# 0 "" 2
 189              		.loc 1 32 1
 190              	#NO_APP
 191 008c 03348100 		ld	s0,8(sp)
 192              		.cfi_restore 8
 193              		.cfi_def_cfa 2, 16
 194 0090 13010101 		addi	sp,sp,16
 195              		.cfi_def_cfa_offset 0
 196 0094 67800000 		jr	ra
 197              		.cfi_endproc
 198              	.LFE50:
 200              		.align	2
 201              		.globl	_Z13thread_createPP7_threadPFvPvES2_
 203              	_Z13thread_createPP7_threadPFvPvES2_:
 204              	.LFB51:
  33:src/syscall_c.cpp **** 
  34:src/syscall_c.cpp **** int thread_create(thread_t *handle, void(*start_routine)(void *), void *arg) {
 205              		.loc 1 34 78 is_stmt 1
 206              		.cfi_startproc
 207              	.LVL13:
 208 0098 130101FE 		addi	sp,sp,-32
 209              		.cfi_def_cfa_offset 32
 210 009c 233C8100 		sd	s0,24(sp)
 211              		.cfi_offset 8, -8
 212 00a0 13040102 		addi	s0,sp,32
 213              		.cfi_def_cfa 8, 0
  35:src/syscall_c.cpp **** 
  36:src/syscall_c.cpp **** 
  37:src/syscall_c.cpp ****     Riscv::w_a1((uint64) start_routine);
 214              		.loc 1 37 5
 215              	.LVL14:
 216              	.LBB40:
 217              	.LBB41:
 243:src/../h/riscv.hpp **** }
 218              		.loc 2 243 5
 243:src/../h/riscv.hpp **** }
 219              		.loc 2 243 47 is_stmt 0
 220              	#APP
 221              	# 243 "src/../h/riscv.hpp" 1
 222              		mv a1, a1
 223              	# 0 "" 2
 224              	.LVL15:
 225              	#NO_APP
 226              	.LBE41:
 227              	.LBE40:
  38:src/syscall_c.cpp ****     Riscv::w_a2((uint64) arg);
 228              		.loc 1 38 5 is_stmt 1
GAS LISTING /tmp/cc0VgBwq.s 			page 10


 229              	.LBB42:
 230              	.LBB43:
 245:src/../h/riscv.hpp **** 
 246:src/../h/riscv.hpp **** inline uint64 Riscv::r_a2() {
 247:src/../h/riscv.hpp ****     uint64 volatile a2;
 248:src/../h/riscv.hpp ****     __asm__ volatile ("ld %0, 12*8(fp)" : "=r"(a2));
 249:src/../h/riscv.hpp ****     return a2;
 250:src/../h/riscv.hpp **** }
 251:src/../h/riscv.hpp **** 
 252:src/../h/riscv.hpp **** inline void Riscv::w_a2(uint64 a2) {
 253:src/../h/riscv.hpp ****     __asm__ volatile ("mv a2, %0" : : "r"(a2));
 231              		.loc 2 253 5
 232              		.loc 2 253 47 is_stmt 0
 233              	#APP
 234              	# 253 "src/../h/riscv.hpp" 1
 254              	}
 235              		mv a2, a2
 236              	# 0 "" 2
 237              	.LVL16:
 238              	#NO_APP
 239              	.LBE43:
 240              	.LBE42:
  39:src/syscall_c.cpp ****     //thread_t* t = handle;
  40:src/syscall_c.cpp ****     Riscv::w_a3((uint64) handle);
 241              		.loc 1 40 5 is_stmt 1
 242              	.LBB44:
 243              	.LBB45:
 255:src/../h/riscv.hpp **** 
 256:src/../h/riscv.hpp **** inline uint64 Riscv::r_a3() {
 257:src/../h/riscv.hpp ****     uint64 volatile a3;
 258:src/../h/riscv.hpp ****     __asm__ volatile ("ld %0, 13*8(fp)" : "=r"(a3));
 259:src/../h/riscv.hpp ****     return a3;
 260:src/../h/riscv.hpp **** }
 261:src/../h/riscv.hpp **** 
 262:src/../h/riscv.hpp **** inline void Riscv::w_a3(uint64 a3) {
 263:src/../h/riscv.hpp ****     __asm__ volatile ("mv a3, %0" : : "r"(a3));
 244              		.loc 2 263 5
 245              		.loc 2 263 47 is_stmt 0
 246              	#APP
 247              	# 263 "src/../h/riscv.hpp" 1
 264              	}
 248              		mv a3, a0
 249              	# 0 "" 2
 250              	.LVL17:
 251              	#NO_APP
 252              	.LBE45:
 253              	.LBE44:
  41:src/syscall_c.cpp ****     Riscv::w_a0(0x11);
 254              		.loc 1 41 5 is_stmt 1
 255              	.LBB46:
 256              	.LBB47:
 233:src/../h/riscv.hpp **** }
 257              		.loc 2 233 5
 233:src/../h/riscv.hpp **** }
 258              		.loc 2 233 47 is_stmt 0
 259 00b0 93071001 		li	a5,17
 260              	#APP
GAS LISTING /tmp/cc0VgBwq.s 			page 11


 261              	# 233 "src/../h/riscv.hpp" 1
 262              		mv a0, a5
 263              	# 0 "" 2
 264              	.LVL18:
 265              	#NO_APP
 266              	.LBE47:
 267              	.LBE46:
  42:src/syscall_c.cpp **** 
  43:src/syscall_c.cpp ****     __asm__ volatile ("ecall");
 268              		.loc 1 43 5 is_stmt 1
 269              		.loc 1 43 31 is_stmt 0
 270              	#APP
 271              	# 43 "src/syscall_c.cpp" 1
  44              	
  45:src/syscall_c.cpp ****     return Riscv::r_a0();
 272              		ecall
 273              	# 0 "" 2
 274              		.loc 1 45 5 is_stmt 1
 275              	#NO_APP
 276              	.LBB48:
 277              	.LBB49:
 227:src/../h/riscv.hpp ****     __asm__ volatile ("ld %0, 10*8(fp)" : "=r"(a0));
 278              		.loc 2 227 5
 228:src/../h/riscv.hpp ****     return a0;
 279              		.loc 2 228 5
 228:src/../h/riscv.hpp ****     return a0;
 280              		.loc 2 228 52 is_stmt 0
 281              	#APP
 282              	# 228 "src/../h/riscv.hpp" 1
 283              		ld a5, 10*8(fp)
 284              	# 0 "" 2
 285              	#NO_APP
 286 00c0 2334F4FE 		sd	a5,-24(s0)
 229:src/../h/riscv.hpp **** }
 287              		.loc 2 229 5 is_stmt 1
 229:src/../h/riscv.hpp **** }
 288              		.loc 2 229 12 is_stmt 0
 289 00c4 033584FE 		ld	a0,-24(s0)
 290              	.LVL19:
 291              	.LBE49:
 292              	.LBE48:
  46:src/syscall_c.cpp **** 
  47:src/syscall_c.cpp **** 
  48:src/syscall_c.cpp ****     //return 0;
  49:src/syscall_c.cpp **** 
  50:src/syscall_c.cpp **** }
 293              		.loc 1 50 1
 294 00c8 1B050500 		sext.w	a0,a0
 295 00cc 03348101 		ld	s0,24(sp)
 296              		.cfi_restore 8
 297              		.cfi_def_cfa 2, 32
 298 00d0 13010102 		addi	sp,sp,32
 299              		.cfi_def_cfa_offset 0
 300 00d4 67800000 		jr	ra
 301              		.cfi_endproc
 302              	.LFE51:
 304              		.align	2
GAS LISTING /tmp/cc0VgBwq.s 			page 12


 305              		.globl	_Z11thread_exitv
 307              	_Z11thread_exitv:
 308              	.LFB52:
  51:src/syscall_c.cpp **** 
  52:src/syscall_c.cpp **** int thread_exit(){
 309              		.loc 1 52 18 is_stmt 1
 310              		.cfi_startproc
 311 00d8 130101FE 		addi	sp,sp,-32
 312              		.cfi_def_cfa_offset 32
 313 00dc 233C8100 		sd	s0,24(sp)
 314              		.cfi_offset 8, -8
 315 00e0 13040102 		addi	s0,sp,32
 316              		.cfi_def_cfa 8, 0
  53:src/syscall_c.cpp ****     Riscv::w_a0(0x12);
 317              		.loc 1 53 5
 318              	.LVL20:
 319              	.LBB50:
 320              	.LBB51:
 233:src/../h/riscv.hpp **** }
 321              		.loc 2 233 5
 233:src/../h/riscv.hpp **** }
 322              		.loc 2 233 47 is_stmt 0
 323 00e4 93072001 		li	a5,18
 324              	#APP
 325              	# 233 "src/../h/riscv.hpp" 1
 326              		mv a0, a5
 327              	# 0 "" 2
 328              	.LVL21:
 329              	#NO_APP
 330              	.LBE51:
 331              	.LBE50:
  54:src/syscall_c.cpp ****     __asm__ volatile ("ecall");
 332              		.loc 1 54 5 is_stmt 1
 333              		.loc 1 54 31 is_stmt 0
 334              	#APP
 335              	# 54 "src/syscall_c.cpp" 1
  55              	    volatile uint64 a0 = Riscv::r_a0();
 336              		ecall
 337              	# 0 "" 2
 338              		.loc 1 55 5 is_stmt 1
 339              	#NO_APP
 340              	.LBB52:
 341              	.LBB53:
 227:src/../h/riscv.hpp ****     __asm__ volatile ("ld %0, 10*8(fp)" : "=r"(a0));
 342              		.loc 2 227 5
 228:src/../h/riscv.hpp ****     return a0;
 343              		.loc 2 228 5
 228:src/../h/riscv.hpp ****     return a0;
 344              		.loc 2 228 52 is_stmt 0
 345              	#APP
 346              	# 228 "src/../h/riscv.hpp" 1
 347              		ld a5, 10*8(fp)
 348              	# 0 "" 2
 349              	#NO_APP
 350 00f4 2330F4FE 		sd	a5,-32(s0)
 229:src/../h/riscv.hpp **** }
 351              		.loc 2 229 5 is_stmt 1
GAS LISTING /tmp/cc0VgBwq.s 			page 13


 229:src/../h/riscv.hpp **** }
 352              		.loc 2 229 12 is_stmt 0
 353 00f8 833704FE 		ld	a5,-32(s0)
 354              	.LBE53:
 355              	.LBE52:
 356              		.loc 1 55 38
 357 00fc 2334F4FE 		sd	a5,-24(s0)
  56:src/syscall_c.cpp ****     return a0;
 358              		.loc 1 56 5 is_stmt 1
 359              		.loc 1 56 12 is_stmt 0
 360 0100 033584FE 		ld	a0,-24(s0)
  57:src/syscall_c.cpp **** }
 361              		.loc 1 57 1
 362 0104 1B050500 		sext.w	a0,a0
 363 0108 03348101 		ld	s0,24(sp)
 364              		.cfi_restore 8
 365              		.cfi_def_cfa 2, 32
 366 010c 13010102 		addi	sp,sp,32
 367              		.cfi_def_cfa_offset 0
 368 0110 67800000 		jr	ra
 369              		.cfi_endproc
 370              	.LFE52:
 372              		.align	2
 373              		.globl	_Z15thread_dispatchv
 375              	_Z15thread_dispatchv:
 376              	.LFB53:
  58:src/syscall_c.cpp **** 
  59:src/syscall_c.cpp **** void thread_dispatch(){
 377              		.loc 1 59 23 is_stmt 1
 378              		.cfi_startproc
 379 0114 130101FF 		addi	sp,sp,-16
 380              		.cfi_def_cfa_offset 16
 381 0118 23348100 		sd	s0,8(sp)
 382              		.cfi_offset 8, -8
 383 011c 13040101 		addi	s0,sp,16
 384              		.cfi_def_cfa 8, 0
  60:src/syscall_c.cpp ****     Riscv::w_a0(0x13);
 385              		.loc 1 60 5
 386              	.LVL22:
 387              	.LBB54:
 388              	.LBB55:
 233:src/../h/riscv.hpp **** }
 389              		.loc 2 233 5
 233:src/../h/riscv.hpp **** }
 390              		.loc 2 233 47 is_stmt 0
 391 0120 93073001 		li	a5,19
 392              	#APP
 393              	# 233 "src/../h/riscv.hpp" 1
 394              		mv a0, a5
 395              	# 0 "" 2
 396              	.LVL23:
 397              	#NO_APP
 398              	.LBE55:
 399              	.LBE54:
  61:src/syscall_c.cpp ****     __asm__ volatile ("ecall");
 400              		.loc 1 61 5 is_stmt 1
 401              		.loc 1 61 31 is_stmt 0
GAS LISTING /tmp/cc0VgBwq.s 			page 14


 402              	#APP
 403              	# 61 "src/syscall_c.cpp" 1
  62              	}
 404              		ecall
 405              	# 0 "" 2
 406              		.loc 1 62 1
 407              	#NO_APP
 408 012c 03348100 		ld	s0,8(sp)
 409              		.cfi_restore 8
 410              		.cfi_def_cfa 2, 16
 411 0130 13010101 		addi	sp,sp,16
 412              		.cfi_def_cfa_offset 0
 413 0134 67800000 		jr	ra
 414              		.cfi_endproc
 415              	.LFE53:
 417              		.align	2
 418              		.globl	_Z11thread_joinP7_thread
 420              	_Z11thread_joinP7_thread:
 421              	.LFB54:
  63:src/syscall_c.cpp **** 
  64:src/syscall_c.cpp **** void thread_join(thread_t handle){
 422              		.loc 1 64 34 is_stmt 1
 423              		.cfi_startproc
 424              	.LVL24:
 425 0138 130101FF 		addi	sp,sp,-16
 426              		.cfi_def_cfa_offset 16
 427 013c 23348100 		sd	s0,8(sp)
 428              		.cfi_offset 8, -8
 429 0140 13040101 		addi	s0,sp,16
 430              		.cfi_def_cfa 8, 0
  65:src/syscall_c.cpp ****     Riscv::w_a0(0x14);
 431              		.loc 1 65 5
 432              	.LVL25:
 433              	.LBB56:
 434              	.LBB57:
 233:src/../h/riscv.hpp **** }
 435              		.loc 2 233 5
 233:src/../h/riscv.hpp **** }
 436              		.loc 2 233 47 is_stmt 0
 437 0144 93074001 		li	a5,20
 438              	#APP
 439              	# 233 "src/../h/riscv.hpp" 1
 440              		mv a0, a5
 441              	# 0 "" 2
 442              	.LVL26:
 443              	#NO_APP
 444              	.LBE57:
 445              	.LBE56:
  66:src/syscall_c.cpp **** 
  67:src/syscall_c.cpp **** }...
 446              		.loc 1 67 1
 447 014c 03348100 		ld	s0,8(sp)
 448              		.cfi_restore 8
 449              		.cfi_def_cfa 2, 16
 450 0150 13010101 		addi	sp,sp,16
 451              		.cfi_def_cfa_offset 0
 452 0154 67800000 		jr	ra
GAS LISTING /tmp/cc0VgBwq.s 			page 15


 453              		.cfi_endproc
 454              	.LFE54:
 456              	.Letext0:
 457              		.file 3 "src/../h/../h/../lib/hw.h"
 458              		.file 4 "src/../h/syscall_c.hpp"
GAS LISTING /tmp/cc0VgBwq.s 			page 16


DEFINED SYMBOLS
                            *ABS*:0000000000000000 syscall_c.cpp
     /tmp/cc0VgBwq.s:9      .text:0000000000000000 _Z9mem_allocm
     /tmp/cc0VgBwq.s:13     .text:0000000000000000 .L0 
     /tmp/cc0VgBwq.s:15     .text:0000000000000000 .L0 
     /tmp/cc0VgBwq.s:16     .text:0000000000000004 .L0 
     /tmp/cc0VgBwq.s:18     .text:0000000000000008 .L0 
     /tmp/cc0VgBwq.s:20     .text:000000000000000c .L0 
     /tmp/cc0VgBwq.s:22     .text:000000000000000c .L0 
     /tmp/cc0VgBwq.s:23     .text:000000000000000c .L0 
     /tmp/cc0VgBwq.s:26     .text:0000000000000010 .L0 
     /tmp/cc0VgBwq.s:32     .text:0000000000000014 .L0 
     /tmp/cc0VgBwq.s:33     .text:0000000000000014 .L0 
  src/../h/riscv.hpp:243    .text:0000000000000014 .L0 
     /tmp/cc0VgBwq.s:45     .text:0000000000000018 .L0 
     /tmp/cc0VgBwq.s:46     .text:0000000000000018 .L0 
     /tmp/cc0VgBwq.s:47     .text:0000000000000018 .L0 
     /tmp/cc0VgBwq.s:57     .text:0000000000000020 .L0 
   src/syscall_c.cpp:10     .text:0000000000000020 .L0 
     /tmp/cc0VgBwq.s:63     .text:0000000000000024 .L0 
     /tmp/cc0VgBwq.s:64     .text:0000000000000024 .L0 
   src/syscall_c.cpp:13     .text:0000000000000024 .L0 
     /tmp/cc0VgBwq.s:71     .text:000000000000002c .L0 
     /tmp/cc0VgBwq.s:72     .text:000000000000002c .L0 
     /tmp/cc0VgBwq.s:75     .text:0000000000000030 .L0 
     /tmp/cc0VgBwq.s:76     .text:0000000000000034 .L0 
     /tmp/cc0VgBwq.s:77     .text:0000000000000034 .L0 
     /tmp/cc0VgBwq.s:79     .text:0000000000000038 .L0 
     /tmp/cc0VgBwq.s:81     .text:000000000000003c .L0 
     /tmp/cc0VgBwq.s:87     .text:000000000000003c _Z8mem_freePv
     /tmp/cc0VgBwq.s:90     .text:000000000000003c .L0 
     /tmp/cc0VgBwq.s:92     .text:000000000000003c .L0 
     /tmp/cc0VgBwq.s:93     .text:0000000000000040 .L0 
     /tmp/cc0VgBwq.s:95     .text:0000000000000044 .L0 
     /tmp/cc0VgBwq.s:97     .text:0000000000000048 .L0 
     /tmp/cc0VgBwq.s:102    .text:0000000000000048 .L0 
     /tmp/cc0VgBwq.s:103    .text:0000000000000048 .L0 
  src/../h/riscv.hpp:243    .text:0000000000000048 .L0 
     /tmp/cc0VgBwq.s:115    .text:000000000000004c .L0 
     /tmp/cc0VgBwq.s:116    .text:000000000000004c .L0 
     /tmp/cc0VgBwq.s:117    .text:000000000000004c .L0 
     /tmp/cc0VgBwq.s:127    .text:0000000000000054 .L0 
   src/syscall_c.cpp:22     .text:0000000000000054 .L0 
     /tmp/cc0VgBwq.s:133    .text:0000000000000058 .L0 
     /tmp/cc0VgBwq.s:134    .text:0000000000000058 .L0 
   src/syscall_c.cpp:25     .text:0000000000000058 .L0 
     /tmp/cc0VgBwq.s:141    .text:0000000000000060 .L0 
     /tmp/cc0VgBwq.s:142    .text:0000000000000060 .L0 
     /tmp/cc0VgBwq.s:145    .text:0000000000000064 .L0 
     /tmp/cc0VgBwq.s:147    .text:000000000000006c .L0 
     /tmp/cc0VgBwq.s:148    .text:000000000000006c .L0 
     /tmp/cc0VgBwq.s:150    .text:0000000000000070 .L0 
     /tmp/cc0VgBwq.s:152    .text:0000000000000074 .L0 
     /tmp/cc0VgBwq.s:158    .text:0000000000000074 _Z10toUserModev
     /tmp/cc0VgBwq.s:161    .text:0000000000000074 .L0 
     /tmp/cc0VgBwq.s:162    .text:0000000000000074 .L0 
     /tmp/cc0VgBwq.s:163    .text:0000000000000078 .L0 
GAS LISTING /tmp/cc0VgBwq.s 			page 17


     /tmp/cc0VgBwq.s:165    .text:000000000000007c .L0 
     /tmp/cc0VgBwq.s:167    .text:0000000000000080 .L0 
     /tmp/cc0VgBwq.s:172    .text:0000000000000080 .L0 
     /tmp/cc0VgBwq.s:173    .text:0000000000000080 .L0 
     /tmp/cc0VgBwq.s:174    .text:0000000000000080 .L0 
     /tmp/cc0VgBwq.s:184    .text:0000000000000088 .L0 
   src/syscall_c.cpp:31     .text:0000000000000088 .L0 
     /tmp/cc0VgBwq.s:191    .text:000000000000008c .L0 
     /tmp/cc0VgBwq.s:192    .text:0000000000000090 .L0 
     /tmp/cc0VgBwq.s:193    .text:0000000000000090 .L0 
     /tmp/cc0VgBwq.s:195    .text:0000000000000094 .L0 
     /tmp/cc0VgBwq.s:197    .text:0000000000000098 .L0 
     /tmp/cc0VgBwq.s:203    .text:0000000000000098 _Z13thread_createPP7_threadPFvPvES2_
     /tmp/cc0VgBwq.s:206    .text:0000000000000098 .L0 
     /tmp/cc0VgBwq.s:208    .text:0000000000000098 .L0 
     /tmp/cc0VgBwq.s:209    .text:000000000000009c .L0 
     /tmp/cc0VgBwq.s:211    .text:00000000000000a0 .L0 
     /tmp/cc0VgBwq.s:213    .text:00000000000000a4 .L0 
     /tmp/cc0VgBwq.s:218    .text:00000000000000a4 .L0 
     /tmp/cc0VgBwq.s:219    .text:00000000000000a4 .L0 
  src/../h/riscv.hpp:243    .text:00000000000000a4 .L0 
     /tmp/cc0VgBwq.s:231    .text:00000000000000a8 .L0 
     /tmp/cc0VgBwq.s:232    .text:00000000000000a8 .L0 
  src/../h/riscv.hpp:253    .text:00000000000000a8 .L0 
     /tmp/cc0VgBwq.s:244    .text:00000000000000ac .L0 
     /tmp/cc0VgBwq.s:245    .text:00000000000000ac .L0 
  src/../h/riscv.hpp:263    .text:00000000000000ac .L0 
     /tmp/cc0VgBwq.s:257    .text:00000000000000b0 .L0 
     /tmp/cc0VgBwq.s:258    .text:00000000000000b0 .L0 
     /tmp/cc0VgBwq.s:259    .text:00000000000000b0 .L0 
     /tmp/cc0VgBwq.s:269    .text:00000000000000b8 .L0 
   src/syscall_c.cpp:43     .text:00000000000000b8 .L0 
     /tmp/cc0VgBwq.s:278    .text:00000000000000bc .L0 
     /tmp/cc0VgBwq.s:279    .text:00000000000000bc .L0 
     /tmp/cc0VgBwq.s:280    .text:00000000000000bc .L0 
  src/../h/riscv.hpp:228    .text:00000000000000bc .L0 
     /tmp/cc0VgBwq.s:288    .text:00000000000000c4 .L0 
     /tmp/cc0VgBwq.s:289    .text:00000000000000c4 .L0 
     /tmp/cc0VgBwq.s:294    .text:00000000000000c8 .L0 
     /tmp/cc0VgBwq.s:296    .text:00000000000000d0 .L0 
     /tmp/cc0VgBwq.s:297    .text:00000000000000d0 .L0 
     /tmp/cc0VgBwq.s:299    .text:00000000000000d4 .L0 
     /tmp/cc0VgBwq.s:301    .text:00000000000000d8 .L0 
     /tmp/cc0VgBwq.s:307    .text:00000000000000d8 _Z11thread_exitv
     /tmp/cc0VgBwq.s:310    .text:00000000000000d8 .L0 
     /tmp/cc0VgBwq.s:311    .text:00000000000000d8 .L0 
     /tmp/cc0VgBwq.s:312    .text:00000000000000dc .L0 
     /tmp/cc0VgBwq.s:314    .text:00000000000000e0 .L0 
     /tmp/cc0VgBwq.s:316    .text:00000000000000e4 .L0 
     /tmp/cc0VgBwq.s:321    .text:00000000000000e4 .L0 
     /tmp/cc0VgBwq.s:322    .text:00000000000000e4 .L0 
     /tmp/cc0VgBwq.s:323    .text:00000000000000e4 .L0 
     /tmp/cc0VgBwq.s:333    .text:00000000000000ec .L0 
   src/syscall_c.cpp:54     .text:00000000000000ec .L0 
     /tmp/cc0VgBwq.s:342    .text:00000000000000f0 .L0 
     /tmp/cc0VgBwq.s:343    .text:00000000000000f0 .L0 
     /tmp/cc0VgBwq.s:344    .text:00000000000000f0 .L0 
GAS LISTING /tmp/cc0VgBwq.s 			page 18


  src/../h/riscv.hpp:228    .text:00000000000000f0 .L0 
     /tmp/cc0VgBwq.s:352    .text:00000000000000f8 .L0 
     /tmp/cc0VgBwq.s:353    .text:00000000000000f8 .L0 
     /tmp/cc0VgBwq.s:357    .text:00000000000000fc .L0 
     /tmp/cc0VgBwq.s:359    .text:0000000000000100 .L0 
     /tmp/cc0VgBwq.s:360    .text:0000000000000100 .L0 
     /tmp/cc0VgBwq.s:362    .text:0000000000000104 .L0 
     /tmp/cc0VgBwq.s:364    .text:000000000000010c .L0 
     /tmp/cc0VgBwq.s:365    .text:000000000000010c .L0 
     /tmp/cc0VgBwq.s:367    .text:0000000000000110 .L0 
     /tmp/cc0VgBwq.s:369    .text:0000000000000114 .L0 
     /tmp/cc0VgBwq.s:375    .text:0000000000000114 _Z15thread_dispatchv
     /tmp/cc0VgBwq.s:378    .text:0000000000000114 .L0 
     /tmp/cc0VgBwq.s:379    .text:0000000000000114 .L0 
     /tmp/cc0VgBwq.s:380    .text:0000000000000118 .L0 
     /tmp/cc0VgBwq.s:382    .text:000000000000011c .L0 
     /tmp/cc0VgBwq.s:384    .text:0000000000000120 .L0 
     /tmp/cc0VgBwq.s:389    .text:0000000000000120 .L0 
     /tmp/cc0VgBwq.s:390    .text:0000000000000120 .L0 
     /tmp/cc0VgBwq.s:391    .text:0000000000000120 .L0 
     /tmp/cc0VgBwq.s:401    .text:0000000000000128 .L0 
   src/syscall_c.cpp:61     .text:0000000000000128 .L0 
     /tmp/cc0VgBwq.s:408    .text:000000000000012c .L0 
     /tmp/cc0VgBwq.s:409    .text:0000000000000130 .L0 
     /tmp/cc0VgBwq.s:410    .text:0000000000000130 .L0 
     /tmp/cc0VgBwq.s:412    .text:0000000000000134 .L0 
     /tmp/cc0VgBwq.s:414    .text:0000000000000138 .L0 
     /tmp/cc0VgBwq.s:420    .text:0000000000000138 _Z11thread_joinP7_thread
     /tmp/cc0VgBwq.s:423    .text:0000000000000138 .L0 
     /tmp/cc0VgBwq.s:425    .text:0000000000000138 .L0 
     /tmp/cc0VgBwq.s:426    .text:000000000000013c .L0 
     /tmp/cc0VgBwq.s:428    .text:0000000000000140 .L0 
     /tmp/cc0VgBwq.s:430    .text:0000000000000144 .L0 
     /tmp/cc0VgBwq.s:435    .text:0000000000000144 .L0 
     /tmp/cc0VgBwq.s:436    .text:0000000000000144 .L0 
     /tmp/cc0VgBwq.s:437    .text:0000000000000144 .L0 
     /tmp/cc0VgBwq.s:447    .text:000000000000014c .L0 
     /tmp/cc0VgBwq.s:448    .text:0000000000000150 .L0 
     /tmp/cc0VgBwq.s:449    .text:0000000000000150 .L0 
     /tmp/cc0VgBwq.s:451    .text:0000000000000154 .L0 
     /tmp/cc0VgBwq.s:453    .text:0000000000000158 .L0 
     /tmp/cc0VgBwq.s:459    .text:0000000000000158 .L0 
     /tmp/cc0VgBwq.s:1328   .debug_abbrev:0000000000000000 .Ldebug_abbrev0
     /tmp/cc0VgBwq.s:2243   .debug_str:00000000000004cf .LASF100
     /tmp/cc0VgBwq.s:2169   .debug_str:00000000000002c0 .LASF101
     /tmp/cc0VgBwq.s:2247   .debug_str:00000000000005a7 .LASF102
     /tmp/cc0VgBwq.s:5      .text:0000000000000000 .Ltext0
     /tmp/cc0VgBwq.s:456    .text:0000000000000158 .Letext0
     /tmp/cc0VgBwq.s:2073   .debug_line:0000000000000000 .Ldebug_line0
     /tmp/cc0VgBwq.s:2129   .debug_str:00000000000001ba .LASF0
     /tmp/cc0VgBwq.s:2159   .debug_str:000000000000026f .LASF1
     /tmp/cc0VgBwq.s:2211   .debug_str:00000000000003f7 .LASF2
     /tmp/cc0VgBwq.s:2219   .debug_str:0000000000000437 .LASF4
     /tmp/cc0VgBwq.s:2137   .debug_str:00000000000001ee .LASF3
     /tmp/cc0VgBwq.s:2075   .debug_str:0000000000000000 .LASF5
     /tmp/cc0VgBwq.s:2193   .debug_str:000000000000036b .LASF6
     /tmp/cc0VgBwq.s:2151   .debug_str:0000000000000236 .LASF7
GAS LISTING /tmp/cc0VgBwq.s 			page 19


     /tmp/cc0VgBwq.s:2115   .debug_str:000000000000013d .LASF8
     /tmp/cc0VgBwq.s:2119   .debug_str:0000000000000169 .LASF9
     /tmp/cc0VgBwq.s:2089   .debug_str:0000000000000063 .LASF10
     /tmp/cc0VgBwq.s:2113   .debug_str:000000000000012e .LASF11
     /tmp/cc0VgBwq.s:2093   .debug_str:0000000000000085 .LASF12
     /tmp/cc0VgBwq.s:2087   .debug_str:0000000000000053 .LASF13
     /tmp/cc0VgBwq.s:2239   .debug_str:00000000000004ba .LASF14
     /tmp/cc0VgBwq.s:2107   .debug_str:00000000000000ed .LASF15
     /tmp/cc0VgBwq.s:2229   .debug_str:000000000000046d .LASF16
     /tmp/cc0VgBwq.s:2165   .debug_str:00000000000002af .LASF17
     /tmp/cc0VgBwq.s:2259   .debug_str:000000000000060a .LASF103
     /tmp/cc0VgBwq.s:2123   .debug_str:0000000000000185 .LASF18
     /tmp/cc0VgBwq.s:2127   .debug_str:00000000000001a2 .LASF20
     /tmp/cc0VgBwq.s:2225   .debug_str:0000000000000458 .LASF19
     /tmp/cc0VgBwq.s:2111   .debug_str:0000000000000113 .LASF21
     /tmp/cc0VgBwq.s:2131   .debug_str:00000000000001c7 .LASF22
     /tmp/cc0VgBwq.s:2271   .debug_str:000000000000062e .LASF23
     /tmp/cc0VgBwq.s:2253   .debug_str:00000000000005ee .LASF24
     /tmp/cc0VgBwq.s:2249   .debug_str:00000000000005ca .LASF26
     /tmp/cc0VgBwq.s:2207   .debug_str:00000000000003e3 .LASF28
     /tmp/cc0VgBwq.s:2183   .debug_str:0000000000000321 .LASF30
     /tmp/cc0VgBwq.s:2195   .debug_str:000000000000037e .LASF25
     /tmp/cc0VgBwq.s:2199   .debug_str:000000000000039e .LASF27
     /tmp/cc0VgBwq.s:2177   .debug_str:00000000000002fa .LASF29
     /tmp/cc0VgBwq.s:2153   .debug_str:0000000000000249 .LASF31
     /tmp/cc0VgBwq.s:2273   .debug_str:0000000000000648 .LASF32
     /tmp/cc0VgBwq.s:2245   .debug_str:0000000000000593 .LASF33
     /tmp/cc0VgBwq.s:2175   .debug_str:00000000000002f2 .LASF34
     /tmp/cc0VgBwq.s:2181   .debug_str:000000000000030d .LASF35
     /tmp/cc0VgBwq.s:2161   .debug_str:0000000000000282 .LASF36
     /tmp/cc0VgBwq.s:2201   .debug_str:00000000000003b1 .LASF37
     /tmp/cc0VgBwq.s:2285   .debug_str:00000000000006a5 .LASF38
     /tmp/cc0VgBwq.s:2135   .debug_str:00000000000001da .LASF39
     /tmp/cc0VgBwq.s:2233   .debug_str:0000000000000494 .LASF40
     /tmp/cc0VgBwq.s:2221   .debug_str:000000000000043e .LASF41
     /tmp/cc0VgBwq.s:2223   .debug_str:0000000000000451 .LASF42
     /tmp/cc0VgBwq.s:2091   .debug_str:0000000000000072 .LASF43
     /tmp/cc0VgBwq.s:2103   .debug_str:00000000000000de .LASF44
     /tmp/cc0VgBwq.s:2125   .debug_str:0000000000000190 .LASF45
     /tmp/cc0VgBwq.s:2133   .debug_str:00000000000001d4 .LASF46
     /tmp/cc0VgBwq.s:2097   .debug_str:00000000000000a2 .LASF47
     /tmp/cc0VgBwq.s:2077   .debug_str:0000000000000007 .LASF48
     /tmp/cc0VgBwq.s:2215   .debug_str:000000000000040c .LASF49
     /tmp/cc0VgBwq.s:2209   .debug_str:00000000000003ec .LASF50
     /tmp/cc0VgBwq.s:2283   .debug_str:000000000000068d .LASF51
     /tmp/cc0VgBwq.s:2261   .debug_str:0000000000000610 .LASF52
     /tmp/cc0VgBwq.s:2277   .debug_str:0000000000000657 .LASF53
     /tmp/cc0VgBwq.s:2257   .debug_str:0000000000000600 .LASF54
     /tmp/cc0VgBwq.s:2171   .debug_str:00000000000002d2 .LASF55
     /tmp/cc0VgBwq.s:2227   .debug_str:0000000000000466 .LASF56
     /tmp/cc0VgBwq.s:2217   .debug_str:0000000000000424 .LASF57
     /tmp/cc0VgBwq.s:2213   .debug_str:0000000000000405 .LASF58
     /tmp/cc0VgBwq.s:2085   .debug_str:0000000000000040 .LASF59
     /tmp/cc0VgBwq.s:2251   .debug_str:00000000000005df .LASF60
     /tmp/cc0VgBwq.s:2117   .debug_str:000000000000014d .LASF61
     /tmp/cc0VgBwq.s:2263   .debug_str:000000000000061a .LASF62
     /tmp/cc0VgBwq.s:2185   .debug_str:0000000000000336 .LASF63
GAS LISTING /tmp/cc0VgBwq.s 			page 20


     /tmp/cc0VgBwq.s:2141   .debug_str:0000000000000211 .LASF64
     /tmp/cc0VgBwq.s:2235   .debug_str:000000000000049b .LASF65
     /tmp/cc0VgBwq.s:2265   .debug_str:000000000000061f .LASF66
     /tmp/cc0VgBwq.s:2139   .debug_str:0000000000000200 .LASF67
     /tmp/cc0VgBwq.s:2143   .debug_str:0000000000000216 .LASF68
     /tmp/cc0VgBwq.s:2191   .debug_str:000000000000035a .LASF69
     /tmp/cc0VgBwq.s:2267   .debug_str:0000000000000624 .LASF70
     /tmp/cc0VgBwq.s:2083   .debug_str:000000000000002f .LASF71
     /tmp/cc0VgBwq.s:2145   .debug_str:000000000000021b .LASF72
     /tmp/cc0VgBwq.s:2149   .debug_str:0000000000000225 .LASF73
     /tmp/cc0VgBwq.s:2269   .debug_str:0000000000000629 .LASF74
     /tmp/cc0VgBwq.s:2287   .debug_str:00000000000006ad .LASF75
     /tmp/cc0VgBwq.s:2147   .debug_str:0000000000000220 .LASF76
     /tmp/cc0VgBwq.s:2101   .debug_str:00000000000000cd .LASF77
     /tmp/cc0VgBwq.s:2187   .debug_str:0000000000000347 .LASF78
     /tmp/cc0VgBwq.s:2279   .debug_str:000000000000066d .LASF79
     /tmp/cc0VgBwq.s:2281   .debug_str:0000000000000681 .LASF104
     /tmp/cc0VgBwq.s:2197   .debug_str:0000000000000385 .LASF105
     /tmp/cc0VgBwq.s:2105   .debug_str:00000000000000e4 .LASF80
     /tmp/cc0VgBwq.s:2255   .debug_str:00000000000005f7 .LASF81
     /tmp/cc0VgBwq.s:2081   .debug_str:0000000000000027 .LASF106
     /tmp/cc0VgBwq.s:2179   .debug_str:0000000000000301 .LASF82
     /tmp/cc0VgBwq.s:2099   .debug_str:00000000000000b4 .LASF84
     /tmp/cc0VgBwq.s:421    .text:0000000000000138 .LFB54
     /tmp/cc0VgBwq.s:454    .text:0000000000000158 .LFE54
     /tmp/cc0VgBwq.s:2275   .debug_str:0000000000000650 .LASF90
     /tmp/cc0VgBwq.s:433    .text:0000000000000144 .LBB56
     /tmp/cc0VgBwq.s:445    .text:000000000000014c .LBE56
     /tmp/cc0VgBwq.s:1902   .debug_loc:0000000000000000 .LLST15
     /tmp/cc0VgBwq.s:2203   .debug_str:00000000000003c5 .LASF83
     /tmp/cc0VgBwq.s:2079   .debug_str:0000000000000012 .LASF85
     /tmp/cc0VgBwq.s:376    .text:0000000000000114 .LFB53
     /tmp/cc0VgBwq.s:415    .text:0000000000000138 .LFE53
     /tmp/cc0VgBwq.s:387    .text:0000000000000120 .LBB54
     /tmp/cc0VgBwq.s:399    .text:0000000000000128 .LBE54
     /tmp/cc0VgBwq.s:1910   .debug_loc:0000000000000024 .LLST14
     /tmp/cc0VgBwq.s:2167   .debug_str:00000000000002b4 .LASF86
     /tmp/cc0VgBwq.s:2231   .debug_str:0000000000000483 .LASF88
     /tmp/cc0VgBwq.s:308    .text:00000000000000d8 .LFB52
     /tmp/cc0VgBwq.s:370    .text:0000000000000114 .LFE52
     /tmp/cc0VgBwq.s:319    .text:00000000000000e4 .LBB50
     /tmp/cc0VgBwq.s:331    .text:00000000000000ec .LBE50
     /tmp/cc0VgBwq.s:1918   .debug_loc:0000000000000048 .LLST13
     /tmp/cc0VgBwq.s:340    .text:00000000000000f0 .LBB52
     /tmp/cc0VgBwq.s:355    .text:00000000000000fc .LBE52
     /tmp/cc0VgBwq.s:2237   .debug_str:00000000000004ac .LASF87
     /tmp/cc0VgBwq.s:2163   .debug_str:000000000000028a .LASF89
     /tmp/cc0VgBwq.s:204    .text:0000000000000098 .LFB51
     /tmp/cc0VgBwq.s:302    .text:00000000000000d8 .LFE51
     /tmp/cc0VgBwq.s:1926   .debug_loc:000000000000006c .LLST8
     /tmp/cc0VgBwq.s:2155   .debug_str:000000000000025c .LASF91
     /tmp/cc0VgBwq.s:216    .text:00000000000000a4 .LBB40
     /tmp/cc0VgBwq.s:227    .text:00000000000000a8 .LBE40
     /tmp/cc0VgBwq.s:1940   .debug_loc:00000000000000a5 .LLST9
     /tmp/cc0VgBwq.s:229    .text:00000000000000a8 .LBB42
     /tmp/cc0VgBwq.s:240    .text:00000000000000ac .LBE42
     /tmp/cc0VgBwq.s:1947   .debug_loc:00000000000000c8 .LLST10
GAS LISTING /tmp/cc0VgBwq.s 			page 21


     /tmp/cc0VgBwq.s:242    .text:00000000000000ac .LBB44
     /tmp/cc0VgBwq.s:253    .text:00000000000000b0 .LBE44
     /tmp/cc0VgBwq.s:1954   .debug_loc:00000000000000eb .LLST11
     /tmp/cc0VgBwq.s:255    .text:00000000000000b0 .LBB46
     /tmp/cc0VgBwq.s:267    .text:00000000000000b8 .LBE46
     /tmp/cc0VgBwq.s:1961   .debug_loc:000000000000010e .LLST12
     /tmp/cc0VgBwq.s:276    .text:00000000000000bc .LBB48
     /tmp/cc0VgBwq.s:292    .text:00000000000000c8 .LBE48
     /tmp/cc0VgBwq.s:2189   .debug_str:000000000000034f .LASF92
     /tmp/cc0VgBwq.s:2109   .debug_str:0000000000000103 .LASF93
     /tmp/cc0VgBwq.s:159    .text:0000000000000074 .LFB50
     /tmp/cc0VgBwq.s:198    .text:0000000000000098 .LFE50
     /tmp/cc0VgBwq.s:170    .text:0000000000000080 .LBB38
     /tmp/cc0VgBwq.s:182    .text:0000000000000088 .LBE38
     /tmp/cc0VgBwq.s:1969   .debug_loc:0000000000000132 .LLST7
     /tmp/cc0VgBwq.s:2241   .debug_str:00000000000004c6 .LASF94
     /tmp/cc0VgBwq.s:2205   .debug_str:00000000000003d5 .LASF95
     /tmp/cc0VgBwq.s:88     .text:000000000000003c .LFB49
     /tmp/cc0VgBwq.s:153    .text:0000000000000074 .LFE49
     /tmp/cc0VgBwq.s:1978   .debug_loc:0000000000000157 .LLST4
     /tmp/cc0VgBwq.s:100    .text:0000000000000048 .LBB34
     /tmp/cc0VgBwq.s:111    .text:000000000000004c .LBE34
     /tmp/cc0VgBwq.s:1992   .debug_loc:0000000000000190 .LLST5
     /tmp/cc0VgBwq.s:113    .text:000000000000004c .LBB36
     /tmp/cc0VgBwq.s:125    .text:0000000000000054 .LBE36
     /tmp/cc0VgBwq.s:1999   .debug_loc:00000000000001b3 .LLST6
     /tmp/cc0VgBwq.s:2173   .debug_str:00000000000002e8 .LASF96
     /tmp/cc0VgBwq.s:2121   .debug_str:0000000000000177 .LASF97
     /tmp/cc0VgBwq.s:10     .text:0000000000000000 .LFB48
     /tmp/cc0VgBwq.s:82     .text:000000000000003c .LFE48
     /tmp/cc0VgBwq.s:2157   .debug_str:000000000000026a .LASF98
     /tmp/cc0VgBwq.s:2007   .debug_loc:00000000000001d7 .LLST0
     /tmp/cc0VgBwq.s:2095   .debug_str:0000000000000095 .LASF99
     /tmp/cc0VgBwq.s:2027   .debug_loc:0000000000000226 .LLST1
     /tmp/cc0VgBwq.s:29     .text:0000000000000014 .LBB30
     /tmp/cc0VgBwq.s:41     .text:0000000000000018 .LBE30
     /tmp/cc0VgBwq.s:2045   .debug_loc:0000000000000263 .LLST2
     /tmp/cc0VgBwq.s:43     .text:0000000000000018 .LBB32
     /tmp/cc0VgBwq.s:55     .text:0000000000000020 .LBE32
     /tmp/cc0VgBwq.s:2052   .debug_loc:0000000000000286 .LLST3
     /tmp/cc0VgBwq.s:432    .text:0000000000000144 .LVL25
     /tmp/cc0VgBwq.s:442    .text:000000000000014c .LVL26
     /tmp/cc0VgBwq.s:386    .text:0000000000000120 .LVL22
     /tmp/cc0VgBwq.s:396    .text:0000000000000128 .LVL23
     /tmp/cc0VgBwq.s:318    .text:00000000000000e4 .LVL20
     /tmp/cc0VgBwq.s:328    .text:00000000000000ec .LVL21
     /tmp/cc0VgBwq.s:207    .text:0000000000000098 .LVL13
     /tmp/cc0VgBwq.s:290    .text:00000000000000c8 .LVL19
     /tmp/cc0VgBwq.s:215    .text:00000000000000a4 .LVL14
     /tmp/cc0VgBwq.s:224    .text:00000000000000a8 .LVL15
     /tmp/cc0VgBwq.s:237    .text:00000000000000ac .LVL16
     /tmp/cc0VgBwq.s:250    .text:00000000000000b0 .LVL17
     /tmp/cc0VgBwq.s:264    .text:00000000000000b8 .LVL18
     /tmp/cc0VgBwq.s:169    .text:0000000000000080 .LVL11
     /tmp/cc0VgBwq.s:179    .text:0000000000000088 .LVL12
     /tmp/cc0VgBwq.s:91     .text:000000000000003c .LVL6
     /tmp/cc0VgBwq.s:143    .text:0000000000000064 .LVL10
GAS LISTING /tmp/cc0VgBwq.s 			page 22


     /tmp/cc0VgBwq.s:99     .text:0000000000000048 .LVL7
     /tmp/cc0VgBwq.s:108    .text:000000000000004c .LVL8
     /tmp/cc0VgBwq.s:122    .text:0000000000000054 .LVL9
     /tmp/cc0VgBwq.s:14     .text:0000000000000000 .LVL0
     /tmp/cc0VgBwq.s:24     .text:0000000000000010 .LVL1
     /tmp/cc0VgBwq.s:27     .text:0000000000000014 .LVL2
     /tmp/cc0VgBwq.s:73     .text:0000000000000030 .LVL5
     /tmp/cc0VgBwq.s:38     .text:0000000000000018 .LVL3
     /tmp/cc0VgBwq.s:52     .text:0000000000000020 .LVL4
     /tmp/cc0VgBwq.s:460    .debug_info:0000000000000000 .Ldebug_info0

NO UNDEFINED SYMBOLS
