GAS LISTING /tmp/cciKuavQ.s 			page 1


   1              		.file	"syscall_c.cpp"
   2              		.option pic
   3              		.option norelax
   4              		.text
   5              	.Ltext0:
   6              		.align	2
   7              		.globl	_Z9mem_allocm
   9              	_Z9mem_allocm:
  10              	.LFB48:
  11              		.file 1 "src/syscall_c.cpp"
   1:src/syscall_c.cpp **** #include "../h/syscall_c.hpp"
   2:src/syscall_c.cpp **** 
   3:src/syscall_c.cpp **** 
   4:src/syscall_c.cpp **** void *mem_alloc(size_t size) {
  12              		.loc 1 4 30
  13              		.cfi_startproc
  14              	.LVL0:
  15 0000 130101FE 		addi	sp,sp,-32
  16              		.cfi_def_cfa_offset 32
  17 0004 233C8100 		sd	s0,24(sp)
  18              		.cfi_offset 8, -8
  19 0008 13040102 		addi	s0,sp,32
  20              		.cfi_def_cfa 8, 0
   5:src/syscall_c.cpp ****     size_t sizeInBlocks = ((size + 16 + MEM_BLOCK_SIZE - 1) / MEM_BLOCK_SIZE);
  21              		.loc 1 5 5
  22              		.loc 1 5 56 is_stmt 0
  23 000c 1305F504 		addi	a0,a0,79
  24              	.LVL1:
  25              		.loc 1 5 12
  26 0010 13556500 		srli	a0,a0,6
  27              	.LVL2:
   6:src/syscall_c.cpp ****     Riscv::w_a0(0x01);
  28              		.loc 1 6 5 is_stmt 1
  29              	.LBB30:
  30              	.LBB31:
  31              		.file 2 "src/../h/riscv.hpp"
   1:src/../h/riscv.hpp **** #ifndef PROJECT_BASE_V1_1_RISCV_HPP
   2:src/../h/riscv.hpp **** #define PROJECT_BASE_V1_1_RISCV_HPP
   3:src/../h/riscv.hpp **** 
   4:src/../h/riscv.hpp **** 
   5:src/../h/riscv.hpp **** #include "../h/MemoryAllocator.hpp"
   6:src/../h/riscv.hpp **** #include "PCB.hpp"
   7:src/../h/riscv.hpp **** 
   8:src/../h/riscv.hpp **** 
   9:src/../h/riscv.hpp **** #define readUsrReg(reg, dst) __asm__ volatile("mv %0,"#reg : "=r" (dst));
  10:src/../h/riscv.hpp **** #define writeUsrReg(reg, src) __asm__ volatile("mv "#reg", %0" : : "r" (src));
  11:src/../h/riscv.hpp **** 
  12:src/../h/riscv.hpp **** 
  13:src/../h/riscv.hpp **** class Riscv
  14:src/../h/riscv.hpp **** {
  15:src/../h/riscv.hpp **** public:
  16:src/../h/riscv.hpp **** 
  17:src/../h/riscv.hpp **** 
  18:src/../h/riscv.hpp **** 
  19:src/../h/riscv.hpp ****     // pop sstatus.spp and sstatus.spie bits (has to be a non inline function)
  20:src/../h/riscv.hpp ****     static void popSppSpie();
  21:src/../h/riscv.hpp **** 
GAS LISTING /tmp/cciKuavQ.s 			page 2


  22:src/../h/riscv.hpp ****     // push x3..x31 registers onto stack
  23:src/../h/riscv.hpp ****     static void pushRegisters();
  24:src/../h/riscv.hpp **** 
  25:src/../h/riscv.hpp ****     // pop x3..x31 registers onto stack
  26:src/../h/riscv.hpp ****     static void popRegisters();
  27:src/../h/riscv.hpp **** 
  28:src/../h/riscv.hpp ****     // read register scause
  29:src/../h/riscv.hpp ****     static uint64 r_scause();
  30:src/../h/riscv.hpp **** 
  31:src/../h/riscv.hpp ****     // write register scause
  32:src/../h/riscv.hpp ****     static void w_scause(uint64 scause);
  33:src/../h/riscv.hpp **** 
  34:src/../h/riscv.hpp ****     // read register sepc
  35:src/../h/riscv.hpp ****     static uint64 r_sepc();
  36:src/../h/riscv.hpp **** 
  37:src/../h/riscv.hpp ****     // write register sepc
  38:src/../h/riscv.hpp ****     static void w_sepc(uint64 sepc);
  39:src/../h/riscv.hpp **** 
  40:src/../h/riscv.hpp ****     // read register stvec
  41:src/../h/riscv.hpp ****     static uint64 r_stvec();
  42:src/../h/riscv.hpp **** 
  43:src/../h/riscv.hpp ****     // write register stvec
  44:src/../h/riscv.hpp ****     static void w_stvec(uint64 stvec);
  45:src/../h/riscv.hpp **** 
  46:src/../h/riscv.hpp ****     // read register stval
  47:src/../h/riscv.hpp ****     static uint64 r_stval();
  48:src/../h/riscv.hpp **** 
  49:src/../h/riscv.hpp ****     // write register stval
  50:src/../h/riscv.hpp ****     static void w_stval(uint64 stval);
  51:src/../h/riscv.hpp **** 
  52:src/../h/riscv.hpp ****     enum BitMaskSip
  53:src/../h/riscv.hpp ****     {
  54:src/../h/riscv.hpp **** //        SIP_SSIE = (1 << 1),
  55:src/../h/riscv.hpp **** //        SIP_STIE = (1 << 5),
  56:src/../h/riscv.hpp **** //        SIP_SEIE = (1 << 9),
  57:src/../h/riscv.hpp ****         SIP_SSIP = (1<<1),
  58:src/../h/riscv.hpp ****         SIP_SEIP = (1<<9)
  59:src/../h/riscv.hpp ****     };
  60:src/../h/riscv.hpp **** 
  61:src/../h/riscv.hpp ****     // mask set register sip
  62:src/../h/riscv.hpp ****     static void ms_sip(uint64 mask);
  63:src/../h/riscv.hpp **** 
  64:src/../h/riscv.hpp ****     // mask clear register sip
  65:src/../h/riscv.hpp ****     static void mc_sip(uint64 mask);
  66:src/../h/riscv.hpp **** 
  67:src/../h/riscv.hpp ****     // read register sip
  68:src/../h/riscv.hpp ****     static uint64 r_sip();
  69:src/../h/riscv.hpp **** 
  70:src/../h/riscv.hpp ****     // write register sip
  71:src/../h/riscv.hpp ****     static void w_sip(uint64 sip);
  72:src/../h/riscv.hpp **** 
  73:src/../h/riscv.hpp ****     enum BitMaskSstatus
  74:src/../h/riscv.hpp ****     {
  75:src/../h/riscv.hpp ****         SSTATUS_SIE = (1 << 1),
  76:src/../h/riscv.hpp ****         SSTATUS_SPIE = (1 << 5),
  77:src/../h/riscv.hpp ****         SSTATUS_SPP = (1 << 8),
  78:src/../h/riscv.hpp ****     };
GAS LISTING /tmp/cciKuavQ.s 			page 3


  79:src/../h/riscv.hpp **** 
  80:src/../h/riscv.hpp ****     // mask set register sstatus
  81:src/../h/riscv.hpp ****     static void ms_sstatus(uint64 mask);
  82:src/../h/riscv.hpp **** 
  83:src/../h/riscv.hpp ****     // mask clear register sstatus
  84:src/../h/riscv.hpp ****     static void mc_sstatus(uint64 mask);
  85:src/../h/riscv.hpp **** 
  86:src/../h/riscv.hpp ****     // read register sstatus
  87:src/../h/riscv.hpp ****     static uint64 r_sstatus();
  88:src/../h/riscv.hpp **** 
  89:src/../h/riscv.hpp ****     // write register sstatus
  90:src/../h/riscv.hpp ****     static void w_sstatus(uint64 sstatus);
  91:src/../h/riscv.hpp **** 
  92:src/../h/riscv.hpp ****     // mask set register sie
  93:src/../h/riscv.hpp ****     static void ms_sie(uint64 mask);
  94:src/../h/riscv.hpp **** 
  95:src/../h/riscv.hpp ****     // mask clear register sie
  96:src/../h/riscv.hpp ****     static void mc_sie(uint64 mask);
  97:src/../h/riscv.hpp **** 
  98:src/../h/riscv.hpp ****     static void supervisorTrap();
  99:src/../h/riscv.hpp **** 
 100:src/../h/riscv.hpp ****     static long r_a0();
 101:src/../h/riscv.hpp **** 
 102:src/../h/riscv.hpp ****     static void w_a0(long a0);
 103:src/../h/riscv.hpp **** 
 104:src/../h/riscv.hpp ****     static uint64 r_a1();
 105:src/../h/riscv.hpp **** 
 106:src/../h/riscv.hpp ****     static void w_a1(uint64 a1);
 107:src/../h/riscv.hpp **** 
 108:src/../h/riscv.hpp ****     static uint64 r_a2();
 109:src/../h/riscv.hpp **** 
 110:src/../h/riscv.hpp ****     static void w_a2(uint64 a1);
 111:src/../h/riscv.hpp **** 
 112:src/../h/riscv.hpp ****     static uint64 r_a3();
 113:src/../h/riscv.hpp **** 
 114:src/../h/riscv.hpp ****     static void w_a3(uint64 a1);
 115:src/../h/riscv.hpp **** 
 116:src/../h/riscv.hpp ****     static void push_a0(long a0);
 117:src/../h/riscv.hpp **** 
 118:src/../h/riscv.hpp **** private:
 119:src/../h/riscv.hpp ****     static void trapHandler();
 120:src/../h/riscv.hpp **** 
 121:src/../h/riscv.hpp **** 
 122:src/../h/riscv.hpp **** };
 123:src/../h/riscv.hpp **** 
 124:src/../h/riscv.hpp **** inline uint64 Riscv::r_scause()
 125:src/../h/riscv.hpp **** {
 126:src/../h/riscv.hpp ****     uint64 volatile scause;
 127:src/../h/riscv.hpp ****     __asm__ volatile ("csrr %[scause], scause" : [scause] "=r"(scause));
 128:src/../h/riscv.hpp ****     return scause;
 129:src/../h/riscv.hpp **** }
 130:src/../h/riscv.hpp **** 
 131:src/../h/riscv.hpp **** inline void Riscv::w_scause(uint64 scause)
 132:src/../h/riscv.hpp **** {
 133:src/../h/riscv.hpp ****     __asm__ volatile ("csrw scause, %[scause]" : : [scause] "r"(scause));
 134:src/../h/riscv.hpp **** }
 135:src/../h/riscv.hpp **** 
GAS LISTING /tmp/cciKuavQ.s 			page 4


 136:src/../h/riscv.hpp **** inline uint64 Riscv::r_sepc()
 137:src/../h/riscv.hpp **** {
 138:src/../h/riscv.hpp ****     uint64 volatile sepc;
 139:src/../h/riscv.hpp ****     __asm__ volatile ("csrr %[sepc], sepc" : [sepc] "=r"(sepc));
 140:src/../h/riscv.hpp ****     return sepc;
 141:src/../h/riscv.hpp **** }
 142:src/../h/riscv.hpp **** 
 143:src/../h/riscv.hpp **** inline void Riscv::w_sepc(uint64 sepc)
 144:src/../h/riscv.hpp **** {
 145:src/../h/riscv.hpp ****     __asm__ volatile ("csrw sepc, %[sepc]" : : [sepc] "r"(sepc));
 146:src/../h/riscv.hpp **** }
 147:src/../h/riscv.hpp **** 
 148:src/../h/riscv.hpp **** inline uint64 Riscv::r_stvec()
 149:src/../h/riscv.hpp **** {
 150:src/../h/riscv.hpp ****     uint64 volatile stvec;
 151:src/../h/riscv.hpp ****     __asm__ volatile ("csrr %[stvec], stvec" : [stvec] "=r"(stvec));
 152:src/../h/riscv.hpp ****     return stvec;
 153:src/../h/riscv.hpp **** }
 154:src/../h/riscv.hpp **** 
 155:src/../h/riscv.hpp **** inline void Riscv::w_stvec(uint64 stvec)
 156:src/../h/riscv.hpp **** {
 157:src/../h/riscv.hpp ****     __asm__ volatile ("csrw stvec, %[stvec]" : : [stvec] "r"(stvec));
 158:src/../h/riscv.hpp **** }
 159:src/../h/riscv.hpp **** 
 160:src/../h/riscv.hpp **** inline uint64 Riscv::r_stval()
 161:src/../h/riscv.hpp **** {
 162:src/../h/riscv.hpp ****     uint64 volatile stval;
 163:src/../h/riscv.hpp ****     __asm__ volatile ("csrr %[stval], stval" : [stval] "=r"(stval));
 164:src/../h/riscv.hpp ****     return stval;
 165:src/../h/riscv.hpp **** }
 166:src/../h/riscv.hpp **** 
 167:src/../h/riscv.hpp **** inline void Riscv::w_stval(uint64 stval)
 168:src/../h/riscv.hpp **** {
 169:src/../h/riscv.hpp ****     __asm__ volatile ("csrw stval, %[stval]" : : [stval] "r"(stval));
 170:src/../h/riscv.hpp **** }
 171:src/../h/riscv.hpp **** 
 172:src/../h/riscv.hpp **** inline void Riscv::ms_sip(uint64 mask)
 173:src/../h/riscv.hpp **** {
 174:src/../h/riscv.hpp ****     __asm__ volatile ("csrs sip, %[mask]" : : [mask] "r"(mask));
 175:src/../h/riscv.hpp **** }
 176:src/../h/riscv.hpp **** 
 177:src/../h/riscv.hpp **** inline void Riscv::mc_sip(uint64 mask)
 178:src/../h/riscv.hpp **** {
 179:src/../h/riscv.hpp ****     __asm__ volatile ("csrc sip, %[mask]" : : [mask] "r"(mask));
 180:src/../h/riscv.hpp **** }
 181:src/../h/riscv.hpp **** 
 182:src/../h/riscv.hpp **** inline uint64 Riscv::r_sip()
 183:src/../h/riscv.hpp **** {
 184:src/../h/riscv.hpp ****     uint64 volatile sip;
 185:src/../h/riscv.hpp ****     __asm__ volatile ("csrr %[sip], sip" : [sip] "=r"(sip));
 186:src/../h/riscv.hpp ****     return sip;
 187:src/../h/riscv.hpp **** }
 188:src/../h/riscv.hpp **** 
 189:src/../h/riscv.hpp **** inline void Riscv::w_sip(uint64 sip)
 190:src/../h/riscv.hpp **** {
 191:src/../h/riscv.hpp ****     __asm__ volatile ("csrw sip, %[sip]" : : [sip] "r"(sip));
 192:src/../h/riscv.hpp **** }
GAS LISTING /tmp/cciKuavQ.s 			page 5


 193:src/../h/riscv.hpp **** 
 194:src/../h/riscv.hpp **** inline void Riscv::ms_sstatus(uint64 mask)
 195:src/../h/riscv.hpp **** {
 196:src/../h/riscv.hpp ****     __asm__ volatile ("csrs sstatus, %[mask]" : : [mask] "r"(mask));
 197:src/../h/riscv.hpp **** }
 198:src/../h/riscv.hpp **** 
 199:src/../h/riscv.hpp **** inline void Riscv::mc_sstatus(uint64 mask)
 200:src/../h/riscv.hpp **** {
 201:src/../h/riscv.hpp ****     __asm__ volatile ("csrc sstatus, %[mask]" : : [mask] "r"(mask));
 202:src/../h/riscv.hpp **** }
 203:src/../h/riscv.hpp **** 
 204:src/../h/riscv.hpp **** inline uint64 Riscv::r_sstatus()
 205:src/../h/riscv.hpp **** {
 206:src/../h/riscv.hpp ****     uint64 volatile sstatus;
 207:src/../h/riscv.hpp ****     __asm__ volatile ("csrr %[sstatus], sstatus" : [sstatus] "=r"(sstatus));
 208:src/../h/riscv.hpp ****     return sstatus;
 209:src/../h/riscv.hpp **** }
 210:src/../h/riscv.hpp **** 
 211:src/../h/riscv.hpp **** inline void Riscv::w_sstatus(uint64 sstatus)
 212:src/../h/riscv.hpp **** {
 213:src/../h/riscv.hpp ****     __asm__ volatile ("csrw sstatus, %[sstatus]" : : [sstatus] "r"(sstatus));
 214:src/../h/riscv.hpp **** }
 215:src/../h/riscv.hpp **** 
 216:src/../h/riscv.hpp **** inline void Riscv::ms_sie(uint64 mask)
 217:src/../h/riscv.hpp **** {
 218:src/../h/riscv.hpp ****     __asm__ volatile ("csrs sie, %[mask]" : : [mask] "r"(mask));
 219:src/../h/riscv.hpp **** }
 220:src/../h/riscv.hpp **** 
 221:src/../h/riscv.hpp **** inline void Riscv::mc_sie(uint64 mask)
 222:src/../h/riscv.hpp **** {
 223:src/../h/riscv.hpp ****     __asm__ volatile ("csrc sie, %[mask]" : : [mask] "r"(mask));
 224:src/../h/riscv.hpp **** }
 225:src/../h/riscv.hpp **** 
 226:src/../h/riscv.hpp **** inline long Riscv::r_a0() {
 227:src/../h/riscv.hpp ****     long volatile a0;
 228:src/../h/riscv.hpp ****     __asm__ volatile ("ld %0, 10*8(fp)" : "=r"(a0));
 229:src/../h/riscv.hpp ****     return a0;
 230:src/../h/riscv.hpp **** }
 231:src/../h/riscv.hpp **** 
 232:src/../h/riscv.hpp **** inline void Riscv::w_a0(long a0) {
 233:src/../h/riscv.hpp ****     __asm__ volatile ("mv a0, %0" : : "r"(a0));
  32              		.loc 2 233 5
  33              		.loc 2 233 47 is_stmt 0
  34 0014 93071000 		li	a5,1
  35              	#APP
  36              	# 233 "src/../h/riscv.hpp" 1
 234              	}
  37              		mv a0, a5
  38              	# 0 "" 2
  39              	.LVL3:
  40              	#NO_APP
  41              	.LBE31:
  42              	.LBE30:
   7:src/syscall_c.cpp ****     Riscv::w_a1((uint64) sizeInBlocks);
  43              		.loc 1 7 5 is_stmt 1
  44              	.LBB32:
  45              	.LBB33:
GAS LISTING /tmp/cciKuavQ.s 			page 6


 235:src/../h/riscv.hpp **** 
 236:src/../h/riscv.hpp **** inline uint64 Riscv::r_a1() {
 237:src/../h/riscv.hpp ****     uint64 volatile a1;
 238:src/../h/riscv.hpp ****     __asm__ volatile ("ld %0, 11*8(fp)" : "=r"(a1));
 239:src/../h/riscv.hpp ****     return a1;
 240:src/../h/riscv.hpp **** }
 241:src/../h/riscv.hpp **** 
 242:src/../h/riscv.hpp **** inline void Riscv::w_a1(uint64 a1) {
 243:src/../h/riscv.hpp ****     __asm__ volatile ("mv a1, %0" : : "r"(a1));
  46              		.loc 2 243 5
  47              		.loc 2 243 47 is_stmt 0
  48              	#APP
  49              	# 243 "src/../h/riscv.hpp" 1
 244              	}
  50              		mv a1, a0
  51              	# 0 "" 2
  52              	.LVL4:
  53              	#NO_APP
  54              	.LBE33:
  55              	.LBE32:
   8:src/syscall_c.cpp **** 
   9:src/syscall_c.cpp ****     __asm__ volatile ("ecall");
  56              		.loc 1 9 5 is_stmt 1
  57              		.loc 1 9 31 is_stmt 0
  58              	#APP
  59              	# 9 "src/syscall_c.cpp" 1
  10              	
  11:src/syscall_c.cpp ****     volatile long a0;
  60              		ecall
  61              	# 0 "" 2
  62              		.loc 1 11 5 is_stmt 1
  12:src/syscall_c.cpp ****     a0 = Riscv::r_a0();
  63              		.loc 1 12 5
  64              	#NO_APP
  65              	.LBB34:
  66              	.LBB35:
 227:src/../h/riscv.hpp ****     __asm__ volatile ("ld %0, 10*8(fp)" : "=r"(a0));
  67              		.loc 2 227 5
 228:src/../h/riscv.hpp ****     return a0;
  68              		.loc 2 228 5
 228:src/../h/riscv.hpp ****     return a0;
  69              		.loc 2 228 52 is_stmt 0
  70              	#APP
  71              	# 228 "src/../h/riscv.hpp" 1
  72              		ld a5, 10*8(fp)
  73              	# 0 "" 2
  74              	#NO_APP
  75 0028 2330F4FE 		sd	a5,-32(s0)
 229:src/../h/riscv.hpp **** }
  76              		.loc 2 229 5 is_stmt 1
 229:src/../h/riscv.hpp **** }
  77              		.loc 2 229 12 is_stmt 0
  78 002c 833704FE 		ld	a5,-32(s0)
  79              	.LBE35:
  80              	.LBE34:
  81              		.loc 1 12 8
  82 0030 2334F4FE 		sd	a5,-24(s0)
GAS LISTING /tmp/cciKuavQ.s 			page 7


  13:src/syscall_c.cpp ****     return (void *) a0;
  83              		.loc 1 13 5 is_stmt 1
  84              		.loc 1 13 21 is_stmt 0
  85 0034 033584FE 		ld	a0,-24(s0)
  86              	.LVL5:
  14:src/syscall_c.cpp **** }
  87              		.loc 1 14 1
  88 0038 03348101 		ld	s0,24(sp)
  89              		.cfi_restore 8
  90              		.cfi_def_cfa 2, 32
  91 003c 13010102 		addi	sp,sp,32
  92              		.cfi_def_cfa_offset 0
  93 0040 67800000 		jr	ra
  94              		.cfi_endproc
  95              	.LFE48:
  97              		.align	2
  98              		.globl	_Z8mem_freePv
 100              	_Z8mem_freePv:
 101              	.LFB49:
  15:src/syscall_c.cpp **** 
  16:src/syscall_c.cpp **** int mem_free(void *ptr) {
 102              		.loc 1 16 25 is_stmt 1
 103              		.cfi_startproc
 104              	.LVL6:
 105 0044 130101FE 		addi	sp,sp,-32
 106              		.cfi_def_cfa_offset 32
 107 0048 233C8100 		sd	s0,24(sp)
 108              		.cfi_offset 8, -8
 109 004c 13040102 		addi	s0,sp,32
 110              		.cfi_def_cfa 8, 0
  17:src/syscall_c.cpp ****     Riscv::w_a0(0x02);
 111              		.loc 1 17 5
 112              	.LVL7:
 113              	.LBB36:
 114              	.LBB37:
 233:src/../h/riscv.hpp **** }
 115              		.loc 2 233 5
 233:src/../h/riscv.hpp **** }
 116              		.loc 2 233 47 is_stmt 0
 117 0050 93072000 		li	a5,2
 118              	#APP
 119              	# 233 "src/../h/riscv.hpp" 1
 120              		mv a0, a5
 121              	# 0 "" 2
 122              	.LVL8:
 123              	#NO_APP
 124              	.LBE37:
 125              	.LBE36:
  18:src/syscall_c.cpp ****     Riscv::w_a1((uint64) ptr);
 126              		.loc 1 18 5 is_stmt 1
 127              	.LBB38:
 128              	.LBB39:
 243:src/../h/riscv.hpp **** }
 129              		.loc 2 243 5
 243:src/../h/riscv.hpp **** }
 130              		.loc 2 243 47 is_stmt 0
 131              	#APP
GAS LISTING /tmp/cciKuavQ.s 			page 8


 132              	# 243 "src/../h/riscv.hpp" 1
 133              		mv a1, a0
 134              	# 0 "" 2
 135              	.LVL9:
 136              	#NO_APP
 137              	.LBE39:
 138              	.LBE38:
  19:src/syscall_c.cpp **** 
  20:src/syscall_c.cpp ****     __asm__ volatile ("ecall");
 139              		.loc 1 20 5 is_stmt 1
 140              		.loc 1 20 31 is_stmt 0
 141              	#APP
 142              	# 20 "src/syscall_c.cpp" 1
  21              	
  22:src/syscall_c.cpp ****     volatile long a0;
 143              		ecall
 144              	# 0 "" 2
 145              		.loc 1 22 5 is_stmt 1
  23:src/syscall_c.cpp ****     a0 = Riscv::r_a0();
 146              		.loc 1 23 5
 147              	#NO_APP
 148              	.LBB40:
 149              	.LBB41:
 227:src/../h/riscv.hpp ****     __asm__ volatile ("ld %0, 10*8(fp)" : "=r"(a0));
 150              		.loc 2 227 5
 228:src/../h/riscv.hpp ****     return a0;
 151              		.loc 2 228 5
 228:src/../h/riscv.hpp ****     return a0;
 152              		.loc 2 228 52 is_stmt 0
 153              	#APP
 154              	# 228 "src/../h/riscv.hpp" 1
 155              		ld a5, 10*8(fp)
 156              	# 0 "" 2
 157              	#NO_APP
 158 0064 2330F4FE 		sd	a5,-32(s0)
 229:src/../h/riscv.hpp **** }
 159              		.loc 2 229 5 is_stmt 1
 229:src/../h/riscv.hpp **** }
 160              		.loc 2 229 12 is_stmt 0
 161 0068 833704FE 		ld	a5,-32(s0)
 162              	.LBE41:
 163              	.LBE40:
 164              		.loc 1 23 8
 165 006c 2334F4FE 		sd	a5,-24(s0)
  24:src/syscall_c.cpp ****     return a0;
 166              		.loc 1 24 5 is_stmt 1
 167              		.loc 1 24 12 is_stmt 0
 168 0070 033584FE 		ld	a0,-24(s0)
 169              	.LVL10:
  25:src/syscall_c.cpp **** }
 170              		.loc 1 25 1
 171 0074 1B050500 		sext.w	a0,a0
 172 0078 03348101 		ld	s0,24(sp)
 173              		.cfi_restore 8
 174              		.cfi_def_cfa 2, 32
 175 007c 13010102 		addi	sp,sp,32
 176              		.cfi_def_cfa_offset 0
GAS LISTING /tmp/cciKuavQ.s 			page 9


 177 0080 67800000 		jr	ra
 178              		.cfi_endproc
 179              	.LFE49:
 181              		.align	2
 182              		.globl	_Z13thread_createPP7_threadPFvPvES2_
 184              	_Z13thread_createPP7_threadPFvPvES2_:
 185              	.LFB50:
  26:src/syscall_c.cpp **** 
  27:src/syscall_c.cpp **** int thread_create(thread_t *handle, void(*start_routine)(void *), void *arg) {
 186              		.loc 1 27 78 is_stmt 1
 187              		.cfi_startproc
 188              	.LVL11:
  28:src/syscall_c.cpp ****     if(!handle)return -1;
 189              		.loc 1 28 5
 190 0084 63020504 		beqz	a0,.L7
  27:src/syscall_c.cpp ****     if(!handle)return -1;
 191              		.loc 1 27 78 is_stmt 0
 192 0088 130101FE 		addi	sp,sp,-32
 193              		.cfi_def_cfa_offset 32
 194 008c 233C8100 		sd	s0,24(sp)
 195              		.cfi_offset 8, -8
 196 0090 13040102 		addi	s0,sp,32
 197              		.cfi_def_cfa 8, 0
  29:src/syscall_c.cpp **** 
  30:src/syscall_c.cpp ****     Riscv::w_a0(0x11);
 198              		.loc 1 30 5 is_stmt 1
 199              	.LVL12:
 200              	.LBB42:
 201              	.LBB43:
 233:src/../h/riscv.hpp **** }
 202              		.loc 2 233 5
 233:src/../h/riscv.hpp **** }
 203              		.loc 2 233 47 is_stmt 0
 204 0094 93071001 		li	a5,17
 205              	#APP
 206              	# 233 "src/../h/riscv.hpp" 1
 207              		mv a0, a5
 208              	# 0 "" 2
 209              	.LVL13:
 210              	#NO_APP
 211              	.LBE43:
 212              	.LBE42:
  31:src/syscall_c.cpp ****     Riscv::w_a1((uint64) start_routine);
 213              		.loc 1 31 5 is_stmt 1
 214              	.LBB44:
 215              	.LBB45:
 243:src/../h/riscv.hpp **** }
 216              		.loc 2 243 5
 243:src/../h/riscv.hpp **** }
 217              		.loc 2 243 47 is_stmt 0
 218              	#APP
 219              	# 243 "src/../h/riscv.hpp" 1
 220              		mv a1, a1
 221              	# 0 "" 2
 222              	.LVL14:
 223              	#NO_APP
 224              	.LBE45:
GAS LISTING /tmp/cciKuavQ.s 			page 10


 225              	.LBE44:
  32:src/syscall_c.cpp ****     Riscv::w_a2((uint64) arg);
 226              		.loc 1 32 5 is_stmt 1
 227              	.LBB46:
 228              	.LBB47:
 245:src/../h/riscv.hpp **** 
 246:src/../h/riscv.hpp **** inline uint64 Riscv::r_a2() {
 247:src/../h/riscv.hpp ****     uint64 volatile a2;
 248:src/../h/riscv.hpp ****     __asm__ volatile ("ld %0, 12*8(fp)" : "=r"(a2));
 249:src/../h/riscv.hpp ****     return a2;
 250:src/../h/riscv.hpp **** }
 251:src/../h/riscv.hpp **** 
 252:src/../h/riscv.hpp **** inline void Riscv::w_a2(uint64 a2) {
 253:src/../h/riscv.hpp ****     __asm__ volatile ("mv a2, %0" : : "r"(a2));
 229              		.loc 2 253 5
 230              		.loc 2 253 47 is_stmt 0
 231              	#APP
 232              	# 253 "src/../h/riscv.hpp" 1
 254              	}
 233              		mv a2, a2
 234              	# 0 "" 2
 235              	.LVL15:
 236              	#NO_APP
 237              	.LBE47:
 238              	.LBE46:
  33:src/syscall_c.cpp **** 
  34:src/syscall_c.cpp ****     __asm__ volatile ("ecall");
 239              		.loc 1 34 5 is_stmt 1
 240              		.loc 1 34 31 is_stmt 0
 241              	#APP
 242              	# 34 "src/syscall_c.cpp" 1
  35              	
  36:src/syscall_c.cpp ****     *handle = (thread_t) Riscv::r_a0();
 243              		ecall
 244              	# 0 "" 2
 245              		.loc 1 36 5 is_stmt 1
 246              	#NO_APP
 247              	.LBB48:
 248              	.LBB49:
 227:src/../h/riscv.hpp ****     __asm__ volatile ("ld %0, 10*8(fp)" : "=r"(a0));
 249              		.loc 2 227 5
 228:src/../h/riscv.hpp ****     return a0;
 250              		.loc 2 228 5
 228:src/../h/riscv.hpp ****     return a0;
 251              		.loc 2 228 52 is_stmt 0
 252              	#APP
 253              	# 228 "src/../h/riscv.hpp" 1
 254              		ld a5, 10*8(fp)
 255              	# 0 "" 2
 256              	#NO_APP
 257 00ac 2334F4FE 		sd	a5,-24(s0)
 229:src/../h/riscv.hpp **** }
 258              		.loc 2 229 5 is_stmt 1
 229:src/../h/riscv.hpp **** }
 259              		.loc 2 229 12 is_stmt 0
 260 00b0 833784FE 		ld	a5,-24(s0)
 261              	.LBE49:
GAS LISTING /tmp/cciKuavQ.s 			page 11


 262              	.LBE48:
 263              		.loc 1 36 13
 264 00b4 2330F500 		sd	a5,0(a0)
  37:src/syscall_c.cpp **** 
  38:src/syscall_c.cpp ****     return 0;
 265              		.loc 1 38 5 is_stmt 1
 266              		.loc 1 38 12 is_stmt 0
 267 00b8 13050000 		li	a0,0
 268              	.LVL16:
  39:src/syscall_c.cpp **** 
  40:src/syscall_c.cpp **** }
 269              		.loc 1 40 1
 270 00bc 03348101 		ld	s0,24(sp)
 271              		.cfi_restore 8
 272              		.cfi_def_cfa 2, 32
 273 00c0 13010102 		addi	sp,sp,32
 274              		.cfi_def_cfa_offset 0
 275 00c4 67800000 		jr	ra
 276              	.LVL17:
 277              	.L7:
  28:src/syscall_c.cpp **** 
 278              		.loc 1 28 24
 279 00c8 1305F0FF 		li	a0,-1
 280              	.LVL18:
 281              		.loc 1 40 1
 282 00cc 67800000 		ret
 283              		.cfi_endproc
 284              	.LFE50:
 286              		.align	2
 287              		.globl	_Z11thread_exitv
 289              	_Z11thread_exitv:
 290              	.LFB51:
  41:src/syscall_c.cpp **** 
  42:src/syscall_c.cpp **** int thread_exit(){
 291              		.loc 1 42 18 is_stmt 1
 292              		.cfi_startproc
 293 00d0 130101FE 		addi	sp,sp,-32
 294              		.cfi_def_cfa_offset 32
 295 00d4 233C8100 		sd	s0,24(sp)
 296              		.cfi_offset 8, -8
 297 00d8 13040102 		addi	s0,sp,32
 298              		.cfi_def_cfa 8, 0
  43:src/syscall_c.cpp ****     Riscv::w_a0(0x12);
 299              		.loc 1 43 5
 300              	.LVL19:
 301              	.LBB50:
 302              	.LBB51:
 233:src/../h/riscv.hpp **** }
 303              		.loc 2 233 5
 233:src/../h/riscv.hpp **** }
 304              		.loc 2 233 47 is_stmt 0
 305 00dc 93072001 		li	a5,18
 306              	#APP
 307              	# 233 "src/../h/riscv.hpp" 1
 308              		mv a0, a5
 309              	# 0 "" 2
 310              	.LVL20:
GAS LISTING /tmp/cciKuavQ.s 			page 12


 311              	#NO_APP
 312              	.LBE51:
 313              	.LBE50:
  44:src/syscall_c.cpp ****     __asm__ volatile ("ecall");
 314              		.loc 1 44 5 is_stmt 1
 315              		.loc 1 44 31 is_stmt 0
 316              	#APP
 317              	# 44 "src/syscall_c.cpp" 1
  45              	    volatile uint64 a0 = Riscv::r_a0();
 318              		ecall
 319              	# 0 "" 2
 320              		.loc 1 45 5 is_stmt 1
 321              	#NO_APP
 322              	.LBB52:
 323              	.LBB53:
 227:src/../h/riscv.hpp ****     __asm__ volatile ("ld %0, 10*8(fp)" : "=r"(a0));
 324              		.loc 2 227 5
 228:src/../h/riscv.hpp ****     return a0;
 325              		.loc 2 228 5
 228:src/../h/riscv.hpp ****     return a0;
 326              		.loc 2 228 52 is_stmt 0
 327              	#APP
 328              	# 228 "src/../h/riscv.hpp" 1
 329              		ld a5, 10*8(fp)
 330              	# 0 "" 2
 331              	#NO_APP
 332 00ec 2330F4FE 		sd	a5,-32(s0)
 229:src/../h/riscv.hpp **** }
 333              		.loc 2 229 5 is_stmt 1
 229:src/../h/riscv.hpp **** }
 334              		.loc 2 229 12 is_stmt 0
 335 00f0 833704FE 		ld	a5,-32(s0)
 336              	.LBE53:
 337              	.LBE52:
 338              		.loc 1 45 38
 339 00f4 2334F4FE 		sd	a5,-24(s0)
  46:src/syscall_c.cpp ****     return a0;
 340              		.loc 1 46 5 is_stmt 1
 341              		.loc 1 46 12 is_stmt 0
 342 00f8 033584FE 		ld	a0,-24(s0)
  47:src/syscall_c.cpp **** }
 343              		.loc 1 47 1
 344 00fc 1B050500 		sext.w	a0,a0
 345 0100 03348101 		ld	s0,24(sp)
 346              		.cfi_restore 8
 347              		.cfi_def_cfa 2, 32
 348 0104 13010102 		addi	sp,sp,32
 349              		.cfi_def_cfa_offset 0
 350 0108 67800000 		jr	ra
 351              		.cfi_endproc
 352              	.LFE51:
 354              		.align	2
 355              		.globl	_Z15thread_dispatchv
 357              	_Z15thread_dispatchv:
 358              	.LFB52:
  48:src/syscall_c.cpp **** 
  49:src/syscall_c.cpp **** void thread_dispatch(){
GAS LISTING /tmp/cciKuavQ.s 			page 13


 359              		.loc 1 49 23 is_stmt 1
 360              		.cfi_startproc
 361 010c 130101FF 		addi	sp,sp,-16
 362              		.cfi_def_cfa_offset 16
 363 0110 23348100 		sd	s0,8(sp)
 364              		.cfi_offset 8, -8
 365 0114 13040101 		addi	s0,sp,16
 366              		.cfi_def_cfa 8, 0
  50:src/syscall_c.cpp ****     Riscv::w_a0(0x13);
 367              		.loc 1 50 5
 368              	.LVL21:
 369              	.LBB54:
 370              	.LBB55:
 233:src/../h/riscv.hpp **** }
 371              		.loc 2 233 5
 233:src/../h/riscv.hpp **** }
 372              		.loc 2 233 47 is_stmt 0
 373 0118 93073001 		li	a5,19
 374              	#APP
 375              	# 233 "src/../h/riscv.hpp" 1
 376              		mv a0, a5
 377              	# 0 "" 2
 378              	.LVL22:
 379              	#NO_APP
 380              	.LBE55:
 381              	.LBE54:
  51:src/syscall_c.cpp ****     __asm__ volatile ("ecall");
 382              		.loc 1 51 5 is_stmt 1
 383              		.loc 1 51 31 is_stmt 0
 384              	#APP
 385              	# 51 "src/syscall_c.cpp" 1
  52              	}
 386              		ecall
 387              	# 0 "" 2
 388              		.loc 1 52 1
 389              	#NO_APP
 390 0124 03348100 		ld	s0,8(sp)
 391              		.cfi_restore 8
 392              		.cfi_def_cfa 2, 16
 393 0128 13010101 		addi	sp,sp,16
 394              		.cfi_def_cfa_offset 0
 395 012c 67800000 		jr	ra
 396              		.cfi_endproc
 397              	.LFE52:
 399              		.align	2
 400              		.globl	_Z11thread_joinP7_thread
 402              	_Z11thread_joinP7_thread:
 403              	.LFB53:
  53:src/syscall_c.cpp **** 
  54:src/syscall_c.cpp **** void thread_join(thread_t handle){
 404              		.loc 1 54 34 is_stmt 1
 405              		.cfi_startproc
 406              	.LVL23:
 407 0130 130101FF 		addi	sp,sp,-16
 408              		.cfi_def_cfa_offset 16
 409 0134 23348100 		sd	s0,8(sp)
 410              		.cfi_offset 8, -8
GAS LISTING /tmp/cciKuavQ.s 			page 14


 411 0138 13040101 		addi	s0,sp,16
 412              		.cfi_def_cfa 8, 0
  55:src/syscall_c.cpp ****     Riscv::w_a0(0x14);
 413              		.loc 1 55 5
 414              	.LVL24:
 415              	.LBB56:
 416              	.LBB57:
 233:src/../h/riscv.hpp **** }
 417              		.loc 2 233 5
 233:src/../h/riscv.hpp **** }
 418              		.loc 2 233 47 is_stmt 0
 419 013c 93074001 		li	a5,20
 420              	#APP
 421              	# 233 "src/../h/riscv.hpp" 1
 422              		mv a0, a5
 423              	# 0 "" 2
 424              	.LVL25:
 425              	#NO_APP
 426              	.LBE57:
 427              	.LBE56:
  56:src/syscall_c.cpp **** 
  57:src/syscall_c.cpp **** }...
 428              		.loc 1 57 1
 429 0144 03348100 		ld	s0,8(sp)
 430              		.cfi_restore 8
 431              		.cfi_def_cfa 2, 16
 432 0148 13010101 		addi	sp,sp,16
 433              		.cfi_def_cfa_offset 0
 434 014c 67800000 		jr	ra
 435              		.cfi_endproc
 436              	.LFE53:
 438              	.Letext0:
 439              		.file 3 "src/../h/../h/../lib/hw.h"
 440              		.file 4 "src/../h/syscall_c.hpp"
GAS LISTING /tmp/cciKuavQ.s 			page 15


DEFINED SYMBOLS
                            *ABS*:0000000000000000 syscall_c.cpp
     /tmp/cciKuavQ.s:9      .text:0000000000000000 _Z9mem_allocm
     /tmp/cciKuavQ.s:13     .text:0000000000000000 .L0 
     /tmp/cciKuavQ.s:15     .text:0000000000000000 .L0 
     /tmp/cciKuavQ.s:16     .text:0000000000000004 .L0 
     /tmp/cciKuavQ.s:18     .text:0000000000000008 .L0 
     /tmp/cciKuavQ.s:20     .text:000000000000000c .L0 
     /tmp/cciKuavQ.s:22     .text:000000000000000c .L0 
     /tmp/cciKuavQ.s:23     .text:000000000000000c .L0 
     /tmp/cciKuavQ.s:26     .text:0000000000000010 .L0 
     /tmp/cciKuavQ.s:32     .text:0000000000000014 .L0 
     /tmp/cciKuavQ.s:33     .text:0000000000000014 .L0 
     /tmp/cciKuavQ.s:34     .text:0000000000000014 .L0 
     /tmp/cciKuavQ.s:46     .text:000000000000001c .L0 
     /tmp/cciKuavQ.s:47     .text:000000000000001c .L0 
  src/../h/riscv.hpp:243    .text:000000000000001c .L0 
     /tmp/cciKuavQ.s:57     .text:0000000000000020 .L0 
   src/syscall_c.cpp:9      .text:0000000000000020 .L0 
     /tmp/cciKuavQ.s:63     .text:0000000000000024 .L0 
     /tmp/cciKuavQ.s:67     .text:0000000000000024 .L0 
     /tmp/cciKuavQ.s:68     .text:0000000000000024 .L0 
     /tmp/cciKuavQ.s:69     .text:0000000000000024 .L0 
  src/../h/riscv.hpp:228    .text:0000000000000024 .L0 
     /tmp/cciKuavQ.s:77     .text:000000000000002c .L0 
     /tmp/cciKuavQ.s:78     .text:000000000000002c .L0 
     /tmp/cciKuavQ.s:82     .text:0000000000000030 .L0 
     /tmp/cciKuavQ.s:84     .text:0000000000000034 .L0 
     /tmp/cciKuavQ.s:85     .text:0000000000000034 .L0 
     /tmp/cciKuavQ.s:88     .text:0000000000000038 .L0 
     /tmp/cciKuavQ.s:89     .text:000000000000003c .L0 
     /tmp/cciKuavQ.s:90     .text:000000000000003c .L0 
     /tmp/cciKuavQ.s:92     .text:0000000000000040 .L0 
     /tmp/cciKuavQ.s:94     .text:0000000000000044 .L0 
     /tmp/cciKuavQ.s:100    .text:0000000000000044 _Z8mem_freePv
     /tmp/cciKuavQ.s:103    .text:0000000000000044 .L0 
     /tmp/cciKuavQ.s:105    .text:0000000000000044 .L0 
     /tmp/cciKuavQ.s:106    .text:0000000000000048 .L0 
     /tmp/cciKuavQ.s:108    .text:000000000000004c .L0 
     /tmp/cciKuavQ.s:110    .text:0000000000000050 .L0 
     /tmp/cciKuavQ.s:115    .text:0000000000000050 .L0 
     /tmp/cciKuavQ.s:116    .text:0000000000000050 .L0 
     /tmp/cciKuavQ.s:117    .text:0000000000000050 .L0 
     /tmp/cciKuavQ.s:129    .text:0000000000000058 .L0 
     /tmp/cciKuavQ.s:130    .text:0000000000000058 .L0 
  src/../h/riscv.hpp:243    .text:0000000000000058 .L0 
     /tmp/cciKuavQ.s:140    .text:000000000000005c .L0 
   src/syscall_c.cpp:20     .text:000000000000005c .L0 
     /tmp/cciKuavQ.s:146    .text:0000000000000060 .L0 
     /tmp/cciKuavQ.s:150    .text:0000000000000060 .L0 
     /tmp/cciKuavQ.s:151    .text:0000000000000060 .L0 
     /tmp/cciKuavQ.s:152    .text:0000000000000060 .L0 
  src/../h/riscv.hpp:228    .text:0000000000000060 .L0 
     /tmp/cciKuavQ.s:160    .text:0000000000000068 .L0 
     /tmp/cciKuavQ.s:161    .text:0000000000000068 .L0 
     /tmp/cciKuavQ.s:165    .text:000000000000006c .L0 
     /tmp/cciKuavQ.s:167    .text:0000000000000070 .L0 
GAS LISTING /tmp/cciKuavQ.s 			page 16


     /tmp/cciKuavQ.s:168    .text:0000000000000070 .L0 
     /tmp/cciKuavQ.s:171    .text:0000000000000074 .L0 
     /tmp/cciKuavQ.s:173    .text:000000000000007c .L0 
     /tmp/cciKuavQ.s:174    .text:000000000000007c .L0 
     /tmp/cciKuavQ.s:176    .text:0000000000000080 .L0 
     /tmp/cciKuavQ.s:178    .text:0000000000000084 .L0 
     /tmp/cciKuavQ.s:184    .text:0000000000000084 _Z13thread_createPP7_threadPFvPvES2_
     /tmp/cciKuavQ.s:187    .text:0000000000000084 .L0 
     /tmp/cciKuavQ.s:189    .text:0000000000000084 .L0 
     /tmp/cciKuavQ.s:190    .text:0000000000000084 .L0 
     /tmp/cciKuavQ.s:192    .text:0000000000000088 .L0 
     /tmp/cciKuavQ.s:193    .text:000000000000008c .L0 
     /tmp/cciKuavQ.s:195    .text:0000000000000090 .L0 
     /tmp/cciKuavQ.s:197    .text:0000000000000094 .L0 
     /tmp/cciKuavQ.s:202    .text:0000000000000094 .L0 
     /tmp/cciKuavQ.s:203    .text:0000000000000094 .L0 
     /tmp/cciKuavQ.s:204    .text:0000000000000094 .L0 
     /tmp/cciKuavQ.s:216    .text:000000000000009c .L0 
     /tmp/cciKuavQ.s:217    .text:000000000000009c .L0 
  src/../h/riscv.hpp:243    .text:000000000000009c .L0 
     /tmp/cciKuavQ.s:229    .text:00000000000000a0 .L0 
     /tmp/cciKuavQ.s:230    .text:00000000000000a0 .L0 
  src/../h/riscv.hpp:253    .text:00000000000000a0 .L0 
     /tmp/cciKuavQ.s:240    .text:00000000000000a4 .L0 
   src/syscall_c.cpp:34     .text:00000000000000a4 .L0 
     /tmp/cciKuavQ.s:249    .text:00000000000000a8 .L0 
     /tmp/cciKuavQ.s:250    .text:00000000000000a8 .L0 
     /tmp/cciKuavQ.s:251    .text:00000000000000a8 .L0 
  src/../h/riscv.hpp:228    .text:00000000000000a8 .L0 
     /tmp/cciKuavQ.s:259    .text:00000000000000b0 .L0 
     /tmp/cciKuavQ.s:260    .text:00000000000000b0 .L0 
     /tmp/cciKuavQ.s:264    .text:00000000000000b4 .L0 
     /tmp/cciKuavQ.s:266    .text:00000000000000b8 .L0 
     /tmp/cciKuavQ.s:267    .text:00000000000000b8 .L0 
     /tmp/cciKuavQ.s:270    .text:00000000000000bc .L0 
     /tmp/cciKuavQ.s:271    .text:00000000000000c0 .L0 
     /tmp/cciKuavQ.s:272    .text:00000000000000c0 .L0 
     /tmp/cciKuavQ.s:274    .text:00000000000000c4 .L0 
     /tmp/cciKuavQ.s:279    .text:00000000000000c8 .L0 
     /tmp/cciKuavQ.s:282    .text:00000000000000cc .L0 
     /tmp/cciKuavQ.s:283    .text:00000000000000d0 .L0 
     /tmp/cciKuavQ.s:289    .text:00000000000000d0 _Z11thread_exitv
     /tmp/cciKuavQ.s:292    .text:00000000000000d0 .L0 
     /tmp/cciKuavQ.s:293    .text:00000000000000d0 .L0 
     /tmp/cciKuavQ.s:294    .text:00000000000000d4 .L0 
     /tmp/cciKuavQ.s:296    .text:00000000000000d8 .L0 
     /tmp/cciKuavQ.s:298    .text:00000000000000dc .L0 
     /tmp/cciKuavQ.s:303    .text:00000000000000dc .L0 
     /tmp/cciKuavQ.s:304    .text:00000000000000dc .L0 
     /tmp/cciKuavQ.s:305    .text:00000000000000dc .L0 
     /tmp/cciKuavQ.s:315    .text:00000000000000e4 .L0 
   src/syscall_c.cpp:44     .text:00000000000000e4 .L0 
     /tmp/cciKuavQ.s:324    .text:00000000000000e8 .L0 
     /tmp/cciKuavQ.s:325    .text:00000000000000e8 .L0 
     /tmp/cciKuavQ.s:326    .text:00000000000000e8 .L0 
  src/../h/riscv.hpp:228    .text:00000000000000e8 .L0 
     /tmp/cciKuavQ.s:334    .text:00000000000000f0 .L0 
GAS LISTING /tmp/cciKuavQ.s 			page 17


     /tmp/cciKuavQ.s:335    .text:00000000000000f0 .L0 
     /tmp/cciKuavQ.s:339    .text:00000000000000f4 .L0 
     /tmp/cciKuavQ.s:341    .text:00000000000000f8 .L0 
     /tmp/cciKuavQ.s:342    .text:00000000000000f8 .L0 
     /tmp/cciKuavQ.s:344    .text:00000000000000fc .L0 
     /tmp/cciKuavQ.s:346    .text:0000000000000104 .L0 
     /tmp/cciKuavQ.s:347    .text:0000000000000104 .L0 
     /tmp/cciKuavQ.s:349    .text:0000000000000108 .L0 
     /tmp/cciKuavQ.s:351    .text:000000000000010c .L0 
     /tmp/cciKuavQ.s:357    .text:000000000000010c _Z15thread_dispatchv
     /tmp/cciKuavQ.s:360    .text:000000000000010c .L0 
     /tmp/cciKuavQ.s:361    .text:000000000000010c .L0 
     /tmp/cciKuavQ.s:362    .text:0000000000000110 .L0 
     /tmp/cciKuavQ.s:364    .text:0000000000000114 .L0 
     /tmp/cciKuavQ.s:366    .text:0000000000000118 .L0 
     /tmp/cciKuavQ.s:371    .text:0000000000000118 .L0 
     /tmp/cciKuavQ.s:372    .text:0000000000000118 .L0 
     /tmp/cciKuavQ.s:373    .text:0000000000000118 .L0 
     /tmp/cciKuavQ.s:383    .text:0000000000000120 .L0 
   src/syscall_c.cpp:51     .text:0000000000000120 .L0 
     /tmp/cciKuavQ.s:390    .text:0000000000000124 .L0 
     /tmp/cciKuavQ.s:391    .text:0000000000000128 .L0 
     /tmp/cciKuavQ.s:392    .text:0000000000000128 .L0 
     /tmp/cciKuavQ.s:394    .text:000000000000012c .L0 
     /tmp/cciKuavQ.s:396    .text:0000000000000130 .L0 
     /tmp/cciKuavQ.s:402    .text:0000000000000130 _Z11thread_joinP7_thread
     /tmp/cciKuavQ.s:405    .text:0000000000000130 .L0 
     /tmp/cciKuavQ.s:407    .text:0000000000000130 .L0 
     /tmp/cciKuavQ.s:408    .text:0000000000000134 .L0 
     /tmp/cciKuavQ.s:410    .text:0000000000000138 .L0 
     /tmp/cciKuavQ.s:412    .text:000000000000013c .L0 
     /tmp/cciKuavQ.s:417    .text:000000000000013c .L0 
     /tmp/cciKuavQ.s:418    .text:000000000000013c .L0 
     /tmp/cciKuavQ.s:419    .text:000000000000013c .L0 
     /tmp/cciKuavQ.s:429    .text:0000000000000144 .L0 
     /tmp/cciKuavQ.s:430    .text:0000000000000148 .L0 
     /tmp/cciKuavQ.s:431    .text:0000000000000148 .L0 
     /tmp/cciKuavQ.s:433    .text:000000000000014c .L0 
     /tmp/cciKuavQ.s:435    .text:0000000000000150 .L0 
     /tmp/cciKuavQ.s:441    .text:0000000000000150 .L0 
     /tmp/cciKuavQ.s:277    .text:00000000000000c8 .L7
     /tmp/cciKuavQ.s:1290   .debug_abbrev:0000000000000000 .Ldebug_abbrev0
     /tmp/cciKuavQ.s:2188   .debug_str:000000000000053b .LASF98
     /tmp/cciKuavQ.s:2098   .debug_str:00000000000002bd .LASF99
     /tmp/cciKuavQ.s:2050   .debug_str:0000000000000137 .LASF100
     /tmp/cciKuavQ.s:5      .text:0000000000000000 .Ltext0
     /tmp/cciKuavQ.s:438    .text:0000000000000150 .Letext0
     /tmp/cciKuavQ.s:2000   .debug_line:0000000000000000 .Ldebug_line0
     /tmp/cciKuavQ.s:2126   .debug_str:0000000000000398 .LASF0
     /tmp/cciKuavQ.s:2136   .debug_str:00000000000003dc .LASF1
     /tmp/cciKuavQ.s:2112   .debug_str:0000000000000329 .LASF2
     /tmp/cciKuavQ.s:2096   .debug_str:00000000000002b6 .LASF4
     /tmp/cciKuavQ.s:2168   .debug_str:00000000000004b9 .LASF3
     /tmp/cciKuavQ.s:2024   .debug_str:000000000000008b .LASF5
     /tmp/cciKuavQ.s:2140   .debug_str:0000000000000400 .LASF6
     /tmp/cciKuavQ.s:2124   .debug_str:0000000000000385 .LASF7
     /tmp/cciKuavQ.s:2194   .debug_str:000000000000061f .LASF8
GAS LISTING /tmp/cciKuavQ.s 			page 18


     /tmp/cciKuavQ.s:2086   .debug_str:0000000000000260 .LASF9
     /tmp/cciKuavQ.s:2150   .debug_str:0000000000000432 .LASF10
     /tmp/cciKuavQ.s:2190   .debug_str:00000000000005ff .LASF11
     /tmp/cciKuavQ.s:2030   .debug_str:000000000000009c .LASF12
     /tmp/cciKuavQ.s:2008   .debug_str:000000000000002b .LASF13
     /tmp/cciKuavQ.s:2042   .debug_str:00000000000000fc .LASF14
     /tmp/cciKuavQ.s:2160   .debug_str:000000000000046d .LASF15
     /tmp/cciKuavQ.s:2052   .debug_str:000000000000015a .LASF16
     /tmp/cciKuavQ.s:2074   .debug_str:0000000000000217 .LASF17
     /tmp/cciKuavQ.s:2134   .debug_str:00000000000003d6 .LASF101
     /tmp/cciKuavQ.s:2158   .debug_str:0000000000000462 .LASF18
     /tmp/cciKuavQ.s:2202   .debug_str:0000000000000655 .LASF20
     /tmp/cciKuavQ.s:2022   .debug_str:000000000000007d .LASF19
     /tmp/cciKuavQ.s:2066   .debug_str:00000000000001cf .LASF21
     /tmp/cciKuavQ.s:2176   .debug_str:00000000000004f6 .LASF22
     /tmp/cciKuavQ.s:2006   .debug_str:0000000000000011 .LASF23
     /tmp/cciKuavQ.s:2010   .debug_str:000000000000003b .LASF24
     /tmp/cciKuavQ.s:2174   .debug_str:00000000000004e1 .LASF26
     /tmp/cciKuavQ.s:2062   .debug_str:00000000000001ba .LASF28
     /tmp/cciKuavQ.s:2060   .debug_str:00000000000001a5 .LASF30
     /tmp/cciKuavQ.s:2170   .debug_str:00000000000004cb .LASF25
     /tmp/cciKuavQ.s:2154   .debug_str:000000000000044a .LASF27
     /tmp/cciKuavQ.s:2186   .debug_str:0000000000000534 .LASF29
     /tmp/cciKuavQ.s:2180   .debug_str:000000000000050a .LASF31
     /tmp/cciKuavQ.s:2080   .debug_str:0000000000000244 .LASF32
     /tmp/cciKuavQ.s:2054   .debug_str:0000000000000170 .LASF33
     /tmp/cciKuavQ.s:2004   .debug_str:0000000000000009 .LASF34
     /tmp/cciKuavQ.s:2090   .debug_str:0000000000000284 .LASF35
     /tmp/cciKuavQ.s:2070   .debug_str:00000000000001fb .LASF36
     /tmp/cciKuavQ.s:2036   .debug_str:00000000000000c2 .LASF37
     /tmp/cciKuavQ.s:2208   .debug_str:0000000000000689 .LASF38
     /tmp/cciKuavQ.s:2072   .debug_str:0000000000000203 .LASF39
     /tmp/cciKuavQ.s:2128   .debug_str:00000000000003a5 .LASF40
     /tmp/cciKuavQ.s:2200   .debug_str:0000000000000642 .LASF41
     /tmp/cciKuavQ.s:2020   .debug_str:0000000000000076 .LASF42
     /tmp/cciKuavQ.s:2078   .debug_str:0000000000000231 .LASF43
     /tmp/cciKuavQ.s:2084   .debug_str:000000000000025a .LASF44
     /tmp/cciKuavQ.s:2184   .debug_str:0000000000000522 .LASF45
     /tmp/cciKuavQ.s:2018   .debug_str:0000000000000070 .LASF46
     /tmp/cciKuavQ.s:2210   .debug_str:0000000000000691 .LASF47
     /tmp/cciKuavQ.s:2206   .debug_str:000000000000067e .LASF48
     /tmp/cciKuavQ.s:2166   .debug_str:00000000000004a1 .LASF49
     /tmp/cciKuavQ.s:2102   .debug_str:00000000000002e0 .LASF50
     /tmp/cciKuavQ.s:2110   .debug_str:0000000000000311 .LASF51
     /tmp/cciKuavQ.s:2040   .debug_str:00000000000000f2 .LASF52
     /tmp/cciKuavQ.s:2092   .debug_str:0000000000000298 .LASF53
     /tmp/cciKuavQ.s:2116   .debug_str:000000000000034a .LASF54
     /tmp/cciKuavQ.s:2088   .debug_str:000000000000026e .LASF55
     /tmp/cciKuavQ.s:2146   .debug_str:000000000000041d .LASF56
     /tmp/cciKuavQ.s:2056   .debug_str:0000000000000184 .LASF57
     /tmp/cciKuavQ.s:2012   .debug_str:0000000000000044 .LASF58
     /tmp/cciKuavQ.s:2114   .debug_str:0000000000000337 .LASF59
     /tmp/cciKuavQ.s:2172   .debug_str:00000000000004d2 .LASF60
     /tmp/cciKuavQ.s:2038   .debug_str:00000000000000d6 .LASF61
     /tmp/cciKuavQ.s:2182   .debug_str:000000000000051d .LASF62
     /tmp/cciKuavQ.s:2068   .debug_str:00000000000001ea .LASF63
     /tmp/cciKuavQ.s:2026   .debug_str:0000000000000092 .LASF64
GAS LISTING /tmp/cciKuavQ.s 			page 19


     /tmp/cciKuavQ.s:2118   .debug_str:0000000000000354 .LASF65
     /tmp/cciKuavQ.s:2108   .debug_str:000000000000030c .LASF66
     /tmp/cciKuavQ.s:2204   .debug_str:000000000000066d .LASF67
     /tmp/cciKuavQ.s:2028   .debug_str:0000000000000097 .LASF68
     /tmp/cciKuavQ.s:2100   .debug_str:00000000000002cf .LASF69
     /tmp/cciKuavQ.s:2142   .debug_str:0000000000000413 .LASF70
     /tmp/cciKuavQ.s:2192   .debug_str:000000000000060e .LASF71
     /tmp/cciKuavQ.s:2132   .debug_str:00000000000003d1 .LASF72
     /tmp/cciKuavQ.s:2034   .debug_str:00000000000000b1 .LASF73
     /tmp/cciKuavQ.s:2144   .debug_str:0000000000000418 .LASF74
     /tmp/cciKuavQ.s:2162   .debug_str:0000000000000483 .LASF75
     /tmp/cciKuavQ.s:2032   .debug_str:00000000000000ac .LASF76
     /tmp/cciKuavQ.s:2044   .debug_str:0000000000000108 .LASF77
     /tmp/cciKuavQ.s:2104   .debug_str:00000000000002eb .LASF78
     /tmp/cciKuavQ.s:2122   .debug_str:0000000000000371 .LASF79
     /tmp/cciKuavQ.s:2120   .debug_str:0000000000000365 .LASF102
     /tmp/cciKuavQ.s:2106   .debug_str:00000000000002f3 .LASF103
     /tmp/cciKuavQ.s:2198   .debug_str:0000000000000639 .LASF80
     /tmp/cciKuavQ.s:2002   .debug_str:0000000000000000 .LASF81
     /tmp/cciKuavQ.s:2094   .debug_str:00000000000002ae .LASF104
     /tmp/cciKuavQ.s:2064   .debug_str:00000000000001c3 .LASF82
     /tmp/cciKuavQ.s:2014   .debug_str:000000000000004b .LASF84
     /tmp/cciKuavQ.s:403    .text:0000000000000130 .LFB53
     /tmp/cciKuavQ.s:436    .text:0000000000000150 .LFE53
     /tmp/cciKuavQ.s:2178   .debug_str:0000000000000503 .LASF90
     /tmp/cciKuavQ.s:415    .text:000000000000013c .LBB56
     /tmp/cciKuavQ.s:427    .text:0000000000000144 .LBE56
     /tmp/cciKuavQ.s:1834   .debug_loc:0000000000000000 .LLST13
     /tmp/cciKuavQ.s:2046   .debug_str:0000000000000119 .LASF83
     /tmp/cciKuavQ.s:2076   .debug_str:000000000000021c .LASF85
     /tmp/cciKuavQ.s:358    .text:000000000000010c .LFB52
     /tmp/cciKuavQ.s:397    .text:0000000000000130 .LFE52
     /tmp/cciKuavQ.s:369    .text:0000000000000118 .LBB54
     /tmp/cciKuavQ.s:381    .text:0000000000000120 .LBE54
     /tmp/cciKuavQ.s:1842   .debug_loc:0000000000000024 .LLST12
     /tmp/cciKuavQ.s:2016   .debug_str:0000000000000064 .LASF86
     /tmp/cciKuavQ.s:2138   .debug_str:00000000000003ef .LASF88
     /tmp/cciKuavQ.s:290    .text:00000000000000d0 .LFB51
     /tmp/cciKuavQ.s:352    .text:000000000000010c .LFE51
     /tmp/cciKuavQ.s:301    .text:00000000000000dc .LBB50
     /tmp/cciKuavQ.s:313    .text:00000000000000e4 .LBE50
     /tmp/cciKuavQ.s:1850   .debug_loc:0000000000000048 .LLST11
     /tmp/cciKuavQ.s:322    .text:00000000000000e8 .LBB52
     /tmp/cciKuavQ.s:337    .text:00000000000000f4 .LBE52
     /tmp/cciKuavQ.s:2058   .debug_str:0000000000000197 .LASF87
     /tmp/cciKuavQ.s:2130   .debug_str:00000000000003ac .LASF89
     /tmp/cciKuavQ.s:185    .text:0000000000000084 .LFB50
     /tmp/cciKuavQ.s:284    .text:00000000000000d0 .LFE50
     /tmp/cciKuavQ.s:1858   .debug_loc:000000000000006c .LLST7
     /tmp/cciKuavQ.s:2082   .debug_str:000000000000024c .LASF91
     /tmp/cciKuavQ.s:200    .text:0000000000000094 .LBB42
     /tmp/cciKuavQ.s:212    .text:000000000000009c .LBE42
     /tmp/cciKuavQ.s:1883   .debug_loc:00000000000000ce .LLST8
     /tmp/cciKuavQ.s:214    .text:000000000000009c .LBB44
     /tmp/cciKuavQ.s:225    .text:00000000000000a0 .LBE44
     /tmp/cciKuavQ.s:1891   .debug_loc:00000000000000f2 .LLST9
     /tmp/cciKuavQ.s:227    .text:00000000000000a0 .LBB46
GAS LISTING /tmp/cciKuavQ.s 			page 20


     /tmp/cciKuavQ.s:238    .text:00000000000000a4 .LBE46
     /tmp/cciKuavQ.s:1898   .debug_loc:0000000000000115 .LLST10
     /tmp/cciKuavQ.s:247    .text:00000000000000a8 .LBB48
     /tmp/cciKuavQ.s:262    .text:00000000000000b4 .LBE48
     /tmp/cciKuavQ.s:2152   .debug_str:0000000000000441 .LASF92
     /tmp/cciKuavQ.s:2148   .debug_str:0000000000000424 .LASF93
     /tmp/cciKuavQ.s:101    .text:0000000000000044 .LFB49
     /tmp/cciKuavQ.s:179    .text:0000000000000084 .LFE49
     /tmp/cciKuavQ.s:1905   .debug_loc:0000000000000138 .LLST4
     /tmp/cciKuavQ.s:113    .text:0000000000000050 .LBB36
     /tmp/cciKuavQ.s:125    .text:0000000000000058 .LBE36
     /tmp/cciKuavQ.s:1919   .debug_loc:0000000000000171 .LLST5
     /tmp/cciKuavQ.s:127    .text:0000000000000058 .LBB38
     /tmp/cciKuavQ.s:138    .text:000000000000005c .LBE38
     /tmp/cciKuavQ.s:1927   .debug_loc:0000000000000195 .LLST6
     /tmp/cciKuavQ.s:148    .text:0000000000000060 .LBB40
     /tmp/cciKuavQ.s:163    .text:000000000000006c .LBE40
     /tmp/cciKuavQ.s:2196   .debug_str:000000000000062f .LASF94
     /tmp/cciKuavQ.s:2048   .debug_str:0000000000000129 .LASF95
     /tmp/cciKuavQ.s:10     .text:0000000000000000 .LFB48
     /tmp/cciKuavQ.s:95     .text:0000000000000044 .LFE48
     /tmp/cciKuavQ.s:2156   .debug_str:000000000000045d .LASF96
     /tmp/cciKuavQ.s:1934   .debug_loc:00000000000001b8 .LLST0
     /tmp/cciKuavQ.s:2164   .debug_str:0000000000000494 .LASF97
     /tmp/cciKuavQ.s:1954   .debug_loc:0000000000000207 .LLST1
     /tmp/cciKuavQ.s:29     .text:0000000000000014 .LBB30
     /tmp/cciKuavQ.s:42     .text:000000000000001c .LBE30
     /tmp/cciKuavQ.s:1972   .debug_loc:0000000000000244 .LLST2
     /tmp/cciKuavQ.s:44     .text:000000000000001c .LBB32
     /tmp/cciKuavQ.s:55     .text:0000000000000020 .LBE32
     /tmp/cciKuavQ.s:1980   .debug_loc:0000000000000268 .LLST3
     /tmp/cciKuavQ.s:65     .text:0000000000000024 .LBB34
     /tmp/cciKuavQ.s:80     .text:0000000000000030 .LBE34
     /tmp/cciKuavQ.s:414    .text:000000000000013c .LVL24
     /tmp/cciKuavQ.s:424    .text:0000000000000144 .LVL25
     /tmp/cciKuavQ.s:368    .text:0000000000000118 .LVL21
     /tmp/cciKuavQ.s:378    .text:0000000000000120 .LVL22
     /tmp/cciKuavQ.s:300    .text:00000000000000dc .LVL19
     /tmp/cciKuavQ.s:310    .text:00000000000000e4 .LVL20
     /tmp/cciKuavQ.s:188    .text:0000000000000084 .LVL11
     /tmp/cciKuavQ.s:268    .text:00000000000000bc .LVL16
     /tmp/cciKuavQ.s:276    .text:00000000000000c8 .LVL17
     /tmp/cciKuavQ.s:280    .text:00000000000000cc .LVL18
     /tmp/cciKuavQ.s:199    .text:0000000000000094 .LVL12
     /tmp/cciKuavQ.s:209    .text:000000000000009c .LVL13
     /tmp/cciKuavQ.s:222    .text:00000000000000a0 .LVL14
     /tmp/cciKuavQ.s:235    .text:00000000000000a4 .LVL15
     /tmp/cciKuavQ.s:104    .text:0000000000000044 .LVL6
     /tmp/cciKuavQ.s:169    .text:0000000000000074 .LVL10
     /tmp/cciKuavQ.s:112    .text:0000000000000050 .LVL7
     /tmp/cciKuavQ.s:122    .text:0000000000000058 .LVL8
     /tmp/cciKuavQ.s:135    .text:000000000000005c .LVL9
     /tmp/cciKuavQ.s:14     .text:0000000000000000 .LVL0
     /tmp/cciKuavQ.s:24     .text:0000000000000010 .LVL1
     /tmp/cciKuavQ.s:27     .text:0000000000000014 .LVL2
     /tmp/cciKuavQ.s:86     .text:0000000000000038 .LVL5
     /tmp/cciKuavQ.s:39     .text:000000000000001c .LVL3
GAS LISTING /tmp/cciKuavQ.s 			page 21


     /tmp/cciKuavQ.s:52     .text:0000000000000020 .LVL4
     /tmp/cciKuavQ.s:442    .debug_info:0000000000000000 .Ldebug_info0

NO UNDEFINED SYMBOLS
