GAS LISTING /tmp/ccnEk0wq.s 			page 1


   1              		.file	"syscall_c.cpp"
   2              		.option pic
   3              		.option norelax
   4              		.text
   5              	.Ltext0:
   6              		.align	2
   7              		.globl	_Z9mem_allocm
   9              	_Z9mem_allocm:
  10              	.LFB48:
  11              		.file 1 "src/syscall_c.cpp"
   1:src/syscall_c.cpp **** #include "../h/syscall_c.hpp"
   2:src/syscall_c.cpp **** 
   3:src/syscall_c.cpp **** 
   4:src/syscall_c.cpp **** 
   5:src/syscall_c.cpp **** void *mem_alloc(size_t size) {
  12              		.loc 1 5 30
  13              		.cfi_startproc
  14              	.LVL0:
  15 0000 130101FE 		addi	sp,sp,-32
  16              		.cfi_def_cfa_offset 32
  17 0004 233C8100 		sd	s0,24(sp)
  18              		.cfi_offset 8, -8
  19 0008 13040102 		addi	s0,sp,32
  20              		.cfi_def_cfa 8, 0
   6:src/syscall_c.cpp ****     size_t sizeInBlocks = ((size + 16 + MEM_BLOCK_SIZE - 1) / MEM_BLOCK_SIZE);
  21              		.loc 1 6 5
  22              		.loc 1 6 56 is_stmt 0
  23 000c 1305F504 		addi	a0,a0,79
  24              	.LVL1:
  25              		.loc 1 6 12
  26 0010 13556500 		srli	a0,a0,6
  27              	.LVL2:
   7:src/syscall_c.cpp ****     Riscv::w_a1((uint64) sizeInBlocks);
  28              		.loc 1 7 5 is_stmt 1
  29              	.LBB52:
  30              	.LBB53:
  31              		.file 2 "src/../h/riscv.hpp"
   1:src/../h/riscv.hpp **** #ifndef PROJECT_BASE_V1_1_RISCV_HPP
   2:src/../h/riscv.hpp **** #define PROJECT_BASE_V1_1_RISCV_HPP
   3:src/../h/riscv.hpp **** 
   4:src/../h/riscv.hpp **** 
   5:src/../h/riscv.hpp **** #include "../h/MemoryAllocator.hpp"
   6:src/../h/riscv.hpp **** #include "_thread.hpp"
   7:src/../h/riscv.hpp **** 
   8:src/../h/riscv.hpp **** 
   9:src/../h/riscv.hpp **** #define readUsrReg(reg, dst) __asm__ volatile("mv %0,"#reg : "=r" (dst));
  10:src/../h/riscv.hpp **** #define writeUsrReg(reg, src) __asm__ volatile("mv "#reg", %0" : : "r" (src));
  11:src/../h/riscv.hpp **** 
  12:src/../h/riscv.hpp **** 
  13:src/../h/riscv.hpp **** class Riscv
  14:src/../h/riscv.hpp **** {
  15:src/../h/riscv.hpp **** public:
  16:src/../h/riscv.hpp **** 
  17:src/../h/riscv.hpp **** 
  18:src/../h/riscv.hpp **** 
  19:src/../h/riscv.hpp ****     // pop sstatus.spp and sstatus.spie bits (has to be a non inline function)
  20:src/../h/riscv.hpp ****     static void popSppSpie();
GAS LISTING /tmp/ccnEk0wq.s 			page 2


  21:src/../h/riscv.hpp **** 
  22:src/../h/riscv.hpp ****     // push x3..x31 registers onto stack
  23:src/../h/riscv.hpp ****     static void pushRegisters();
  24:src/../h/riscv.hpp **** 
  25:src/../h/riscv.hpp ****     // pop x3..x31 registers onto stack
  26:src/../h/riscv.hpp ****     static void popRegisters();
  27:src/../h/riscv.hpp **** 
  28:src/../h/riscv.hpp ****     // read register scause
  29:src/../h/riscv.hpp ****     static uint64 r_scause();
  30:src/../h/riscv.hpp **** 
  31:src/../h/riscv.hpp ****     // write register scause
  32:src/../h/riscv.hpp ****     static void w_scause(uint64 scause);
  33:src/../h/riscv.hpp **** 
  34:src/../h/riscv.hpp ****     // read register sepc
  35:src/../h/riscv.hpp ****     static uint64 r_sepc();
  36:src/../h/riscv.hpp **** 
  37:src/../h/riscv.hpp ****     // write register sepc
  38:src/../h/riscv.hpp ****     static void w_sepc(uint64 sepc);
  39:src/../h/riscv.hpp **** 
  40:src/../h/riscv.hpp ****     // read register stvec
  41:src/../h/riscv.hpp ****     static uint64 r_stvec();
  42:src/../h/riscv.hpp **** 
  43:src/../h/riscv.hpp ****     // write register stvec
  44:src/../h/riscv.hpp ****     static void w_stvec(uint64 stvec);
  45:src/../h/riscv.hpp **** 
  46:src/../h/riscv.hpp ****     // read register stval
  47:src/../h/riscv.hpp ****     static uint64 r_stval();
  48:src/../h/riscv.hpp **** 
  49:src/../h/riscv.hpp ****     // write register stval
  50:src/../h/riscv.hpp ****     static void w_stval(uint64 stval);
  51:src/../h/riscv.hpp **** 
  52:src/../h/riscv.hpp ****     enum BitMaskSip
  53:src/../h/riscv.hpp ****     {
  54:src/../h/riscv.hpp **** //        SIP_SSIE = (1 << 1),
  55:src/../h/riscv.hpp **** //        SIP_STIE = (1 << 5),
  56:src/../h/riscv.hpp **** //        SIP_SEIE = (1 << 9),
  57:src/../h/riscv.hpp ****         SIP_SSIP = (1<<1),
  58:src/../h/riscv.hpp ****         SIP_SEIP = (1<<9)
  59:src/../h/riscv.hpp ****     };
  60:src/../h/riscv.hpp **** 
  61:src/../h/riscv.hpp ****     // mask set register sip
  62:src/../h/riscv.hpp ****     static void ms_sip(uint64 mask);
  63:src/../h/riscv.hpp **** 
  64:src/../h/riscv.hpp ****     // mask clear register sip
  65:src/../h/riscv.hpp ****     static void mc_sip(uint64 mask);
  66:src/../h/riscv.hpp **** 
  67:src/../h/riscv.hpp ****     // read register sip
  68:src/../h/riscv.hpp ****     static uint64 r_sip();
  69:src/../h/riscv.hpp **** 
  70:src/../h/riscv.hpp ****     // write register sip
  71:src/../h/riscv.hpp ****     static void w_sip(uint64 sip);
  72:src/../h/riscv.hpp **** 
  73:src/../h/riscv.hpp ****     enum BitMaskSstatus
  74:src/../h/riscv.hpp ****     {
  75:src/../h/riscv.hpp ****         SSTATUS_SIE = (1 << 1),
  76:src/../h/riscv.hpp ****         SSTATUS_SPIE = (1 << 5),
  77:src/../h/riscv.hpp ****         SSTATUS_SPP = (1 << 8),
GAS LISTING /tmp/ccnEk0wq.s 			page 3


  78:src/../h/riscv.hpp ****     };
  79:src/../h/riscv.hpp **** 
  80:src/../h/riscv.hpp ****     // mask set register sstatus
  81:src/../h/riscv.hpp ****     static void ms_sstatus(uint64 mask);
  82:src/../h/riscv.hpp **** 
  83:src/../h/riscv.hpp ****     // mask clear register sstatus
  84:src/../h/riscv.hpp ****     static void mc_sstatus(uint64 mask);
  85:src/../h/riscv.hpp **** 
  86:src/../h/riscv.hpp ****     // read register sstatus
  87:src/../h/riscv.hpp ****     static uint64 r_sstatus();
  88:src/../h/riscv.hpp **** 
  89:src/../h/riscv.hpp ****     // write register sstatus
  90:src/../h/riscv.hpp ****     static void w_sstatus(uint64 sstatus);
  91:src/../h/riscv.hpp **** 
  92:src/../h/riscv.hpp ****     // mask set register sie
  93:src/../h/riscv.hpp ****     static void ms_sie(uint64 mask);
  94:src/../h/riscv.hpp **** 
  95:src/../h/riscv.hpp ****     // mask clear register sie
  96:src/../h/riscv.hpp ****     static void mc_sie(uint64 mask);
  97:src/../h/riscv.hpp **** 
  98:src/../h/riscv.hpp ****     static void supervisorTrap();
  99:src/../h/riscv.hpp **** 
 100:src/../h/riscv.hpp ****     static long r_a0();
 101:src/../h/riscv.hpp **** 
 102:src/../h/riscv.hpp ****     static void w_a0(long a0);
 103:src/../h/riscv.hpp **** 
 104:src/../h/riscv.hpp ****     static uint64 r_a1();
 105:src/../h/riscv.hpp **** 
 106:src/../h/riscv.hpp ****     static void w_a1(uint64 a1);
 107:src/../h/riscv.hpp **** 
 108:src/../h/riscv.hpp ****     static uint64 r_a2();
 109:src/../h/riscv.hpp **** 
 110:src/../h/riscv.hpp ****     static void w_a2(uint64 a1);
 111:src/../h/riscv.hpp **** 
 112:src/../h/riscv.hpp ****     static uint64 r_a7();
 113:src/../h/riscv.hpp **** 
 114:src/../h/riscv.hpp ****     static void w_a7(uint64 a7);
 115:src/../h/riscv.hpp **** 
 116:src/../h/riscv.hpp ****     static void push_a0(long a0);
 117:src/../h/riscv.hpp **** 
 118:src/../h/riscv.hpp **** private:
 119:src/../h/riscv.hpp ****     static void trapHandler();
 120:src/../h/riscv.hpp **** 
 121:src/../h/riscv.hpp **** 
 122:src/../h/riscv.hpp **** };
 123:src/../h/riscv.hpp **** 
 124:src/../h/riscv.hpp **** inline uint64 Riscv::r_scause()
 125:src/../h/riscv.hpp **** {
 126:src/../h/riscv.hpp ****     uint64 volatile scause;
 127:src/../h/riscv.hpp ****     __asm__ volatile ("csrr %[scause], scause" : [scause] "=r"(scause));
 128:src/../h/riscv.hpp ****     return scause;
 129:src/../h/riscv.hpp **** }
 130:src/../h/riscv.hpp **** 
 131:src/../h/riscv.hpp **** inline void Riscv::w_scause(uint64 scause)
 132:src/../h/riscv.hpp **** {
 133:src/../h/riscv.hpp ****     __asm__ volatile ("csrw scause, %[scause]" : : [scause] "r"(scause));
 134:src/../h/riscv.hpp **** }
GAS LISTING /tmp/ccnEk0wq.s 			page 4


 135:src/../h/riscv.hpp **** 
 136:src/../h/riscv.hpp **** inline uint64 Riscv::r_sepc()
 137:src/../h/riscv.hpp **** {
 138:src/../h/riscv.hpp ****     uint64 volatile sepc;
 139:src/../h/riscv.hpp ****     __asm__ volatile ("csrr %[sepc], sepc" : [sepc] "=r"(sepc));
 140:src/../h/riscv.hpp ****     return sepc;
 141:src/../h/riscv.hpp **** }
 142:src/../h/riscv.hpp **** 
 143:src/../h/riscv.hpp **** inline void Riscv::w_sepc(uint64 sepc)
 144:src/../h/riscv.hpp **** {
 145:src/../h/riscv.hpp ****     __asm__ volatile ("csrw sepc, %[sepc]" : : [sepc] "r"(sepc));
 146:src/../h/riscv.hpp **** }
 147:src/../h/riscv.hpp **** 
 148:src/../h/riscv.hpp **** inline uint64 Riscv::r_stvec()
 149:src/../h/riscv.hpp **** {
 150:src/../h/riscv.hpp ****     uint64 volatile stvec;
 151:src/../h/riscv.hpp ****     __asm__ volatile ("csrr %[stvec], stvec" : [stvec] "=r"(stvec));
 152:src/../h/riscv.hpp ****     return stvec;
 153:src/../h/riscv.hpp **** }
 154:src/../h/riscv.hpp **** 
 155:src/../h/riscv.hpp **** inline void Riscv::w_stvec(uint64 stvec)
 156:src/../h/riscv.hpp **** {
 157:src/../h/riscv.hpp ****     __asm__ volatile ("csrw stvec, %[stvec]" : : [stvec] "r"(stvec));
 158:src/../h/riscv.hpp **** }
 159:src/../h/riscv.hpp **** 
 160:src/../h/riscv.hpp **** inline uint64 Riscv::r_stval()
 161:src/../h/riscv.hpp **** {
 162:src/../h/riscv.hpp ****     uint64 volatile stval;
 163:src/../h/riscv.hpp ****     __asm__ volatile ("csrr %[stval], stval" : [stval] "=r"(stval));
 164:src/../h/riscv.hpp ****     return stval;
 165:src/../h/riscv.hpp **** }
 166:src/../h/riscv.hpp **** 
 167:src/../h/riscv.hpp **** inline void Riscv::w_stval(uint64 stval)
 168:src/../h/riscv.hpp **** {
 169:src/../h/riscv.hpp ****     __asm__ volatile ("csrw stval, %[stval]" : : [stval] "r"(stval));
 170:src/../h/riscv.hpp **** }
 171:src/../h/riscv.hpp **** 
 172:src/../h/riscv.hpp **** inline void Riscv::ms_sip(uint64 mask)
 173:src/../h/riscv.hpp **** {
 174:src/../h/riscv.hpp ****     __asm__ volatile ("csrs sip, %[mask]" : : [mask] "r"(mask));
 175:src/../h/riscv.hpp **** }
 176:src/../h/riscv.hpp **** 
 177:src/../h/riscv.hpp **** inline void Riscv::mc_sip(uint64 mask)
 178:src/../h/riscv.hpp **** {
 179:src/../h/riscv.hpp ****     __asm__ volatile ("csrc sip, %[mask]" : : [mask] "r"(mask));
 180:src/../h/riscv.hpp **** }
 181:src/../h/riscv.hpp **** 
 182:src/../h/riscv.hpp **** inline uint64 Riscv::r_sip()
 183:src/../h/riscv.hpp **** {
 184:src/../h/riscv.hpp ****     uint64 volatile sip;
 185:src/../h/riscv.hpp ****     __asm__ volatile ("csrr %[sip], sip" : [sip] "=r"(sip));
 186:src/../h/riscv.hpp ****     return sip;
 187:src/../h/riscv.hpp **** }
 188:src/../h/riscv.hpp **** 
 189:src/../h/riscv.hpp **** inline void Riscv::w_sip(uint64 sip)
 190:src/../h/riscv.hpp **** {
 191:src/../h/riscv.hpp ****     __asm__ volatile ("csrw sip, %[sip]" : : [sip] "r"(sip));
GAS LISTING /tmp/ccnEk0wq.s 			page 5


 192:src/../h/riscv.hpp **** }
 193:src/../h/riscv.hpp **** 
 194:src/../h/riscv.hpp **** inline void Riscv::ms_sstatus(uint64 mask)
 195:src/../h/riscv.hpp **** {
 196:src/../h/riscv.hpp ****     __asm__ volatile ("csrs sstatus, %[mask]" : : [mask] "r"(mask));
 197:src/../h/riscv.hpp **** }
 198:src/../h/riscv.hpp **** 
 199:src/../h/riscv.hpp **** inline void Riscv::mc_sstatus(uint64 mask)
 200:src/../h/riscv.hpp **** {
 201:src/../h/riscv.hpp ****     __asm__ volatile ("csrc sstatus, %[mask]" : : [mask] "r"(mask));
 202:src/../h/riscv.hpp **** }
 203:src/../h/riscv.hpp **** 
 204:src/../h/riscv.hpp **** inline uint64 Riscv::r_sstatus()
 205:src/../h/riscv.hpp **** {
 206:src/../h/riscv.hpp ****     uint64 volatile sstatus;
 207:src/../h/riscv.hpp ****     __asm__ volatile ("csrr %[sstatus], sstatus" : [sstatus] "=r"(sstatus));
 208:src/../h/riscv.hpp ****     return sstatus;
 209:src/../h/riscv.hpp **** }
 210:src/../h/riscv.hpp **** 
 211:src/../h/riscv.hpp **** inline void Riscv::w_sstatus(uint64 sstatus)
 212:src/../h/riscv.hpp **** {
 213:src/../h/riscv.hpp ****     __asm__ volatile ("csrw sstatus, %[sstatus]" : : [sstatus] "r"(sstatus));
 214:src/../h/riscv.hpp **** }
 215:src/../h/riscv.hpp **** 
 216:src/../h/riscv.hpp **** inline void Riscv::ms_sie(uint64 mask)
 217:src/../h/riscv.hpp **** {
 218:src/../h/riscv.hpp ****     __asm__ volatile ("csrs sie, %[mask]" : : [mask] "r"(mask));
 219:src/../h/riscv.hpp **** }
 220:src/../h/riscv.hpp **** 
 221:src/../h/riscv.hpp **** inline void Riscv::mc_sie(uint64 mask)
 222:src/../h/riscv.hpp **** {
 223:src/../h/riscv.hpp ****     __asm__ volatile ("csrc sie, %[mask]" : : [mask] "r"(mask));
 224:src/../h/riscv.hpp **** }
 225:src/../h/riscv.hpp **** 
 226:src/../h/riscv.hpp **** inline long Riscv::r_a0() {
 227:src/../h/riscv.hpp ****     long volatile a0;
 228:src/../h/riscv.hpp ****     __asm__ volatile("mv %0, a0" : "=r"(a0));
 229:src/../h/riscv.hpp ****     return a0;
 230:src/../h/riscv.hpp **** }
 231:src/../h/riscv.hpp **** 
 232:src/../h/riscv.hpp **** inline void Riscv::w_a0(long a0) {
 233:src/../h/riscv.hpp ****     __asm__ volatile ("mv a0, %0" : : "r"(a0));
 234:src/../h/riscv.hpp **** }
 235:src/../h/riscv.hpp **** 
 236:src/../h/riscv.hpp **** inline uint64 Riscv::r_a1() {
 237:src/../h/riscv.hpp ****     uint64 volatile a1;
 238:src/../h/riscv.hpp ****     __asm__ volatile("mv %0, a1" : "=r"(a1));
 239:src/../h/riscv.hpp ****     return a1;
 240:src/../h/riscv.hpp **** }
 241:src/../h/riscv.hpp **** 
 242:src/../h/riscv.hpp **** inline void Riscv::w_a1(uint64 a1) {
 243:src/../h/riscv.hpp ****     __asm__ volatile ("mv a1, %0" : : "r"(a1));
  32              		.loc 2 243 5
  33              		.loc 2 243 47 is_stmt 0
  34              	#APP
  35              	# 243 "src/../h/riscv.hpp" 1
 244              	}
GAS LISTING /tmp/ccnEk0wq.s 			page 6


  36              		mv a1, a0
  37              	# 0 "" 2
  38              	.LVL3:
  39              	#NO_APP
  40              	.LBE53:
  41              	.LBE52:
   8:src/syscall_c.cpp ****     Riscv::w_a0(0x01);
  42              		.loc 1 8 5 is_stmt 1
  43              	.LBB54:
  44              	.LBB55:
 233:src/../h/riscv.hpp **** }
  45              		.loc 2 233 5
 233:src/../h/riscv.hpp **** }
  46              		.loc 2 233 47 is_stmt 0
  47 0018 93071000 		li	a5,1
  48              	#APP
  49              	# 233 "src/../h/riscv.hpp" 1
  50              		mv a0, a5
  51              	# 0 "" 2
  52              	.LVL4:
  53              	#NO_APP
  54              	.LBE55:
  55              	.LBE54:
   9:src/syscall_c.cpp **** 
  10:src/syscall_c.cpp **** 
  11:src/syscall_c.cpp ****     __asm__ volatile ("ecall");
  56              		.loc 1 11 5 is_stmt 1
  57              		.loc 1 11 31 is_stmt 0
  58              	#APP
  59              	# 11 "src/syscall_c.cpp" 1
  12              	
  13:src/syscall_c.cpp ****     volatile long a0;
  60              		ecall
  61              	# 0 "" 2
  62              		.loc 1 13 5 is_stmt 1
  14:src/syscall_c.cpp ****     __asm__ volatile ("mv %0, a0" : "=r"(a0));
  63              		.loc 1 14 5
  64              		.loc 1 14 46 is_stmt 0
  65              	# 14 "src/syscall_c.cpp" 1
  15              	    return (void *) a0;
  66              		mv a5, a0
  67              	# 0 "" 2
  68              	#NO_APP
  69 0028 2334F4FE 		sd	a5,-24(s0)
  70              		.loc 1 15 5 is_stmt 1
  71              		.loc 1 15 21 is_stmt 0
  72 002c 033584FE 		ld	a0,-24(s0)
  73              	.LVL5:
  16:src/syscall_c.cpp **** }
  74              		.loc 1 16 1
  75 0030 03348101 		ld	s0,24(sp)
  76              		.cfi_restore 8
  77              		.cfi_def_cfa 2, 32
  78 0034 13010102 		addi	sp,sp,32
  79              		.cfi_def_cfa_offset 0
  80 0038 67800000 		jr	ra
  81              		.cfi_endproc
GAS LISTING /tmp/ccnEk0wq.s 			page 7


  82              	.LFE48:
  84              		.align	2
  85              		.globl	_Z8mem_freePv
  87              	_Z8mem_freePv:
  88              	.LFB49:
  17:src/syscall_c.cpp **** 
  18:src/syscall_c.cpp **** int mem_free(void *ptr) {
  89              		.loc 1 18 25 is_stmt 1
  90              		.cfi_startproc
  91              	.LVL6:
  92 003c 130101FE 		addi	sp,sp,-32
  93              		.cfi_def_cfa_offset 32
  94 0040 233C8100 		sd	s0,24(sp)
  95              		.cfi_offset 8, -8
  96 0044 13040102 		addi	s0,sp,32
  97              		.cfi_def_cfa 8, 0
  19:src/syscall_c.cpp ****     Riscv::w_a1((uint64) ptr);
  98              		.loc 1 19 5
  99              	.LVL7:
 100              	.LBB56:
 101              	.LBB57:
 243:src/../h/riscv.hpp **** }
 102              		.loc 2 243 5
 243:src/../h/riscv.hpp **** }
 103              		.loc 2 243 47 is_stmt 0
 104              	#APP
 105              	# 243 "src/../h/riscv.hpp" 1
 106              		mv a1, a0
 107              	# 0 "" 2
 108              	.LVL8:
 109              	#NO_APP
 110              	.LBE57:
 111              	.LBE56:
  20:src/syscall_c.cpp ****     Riscv::w_a0(0x02);
 112              		.loc 1 20 5 is_stmt 1
 113              	.LBB58:
 114              	.LBB59:
 233:src/../h/riscv.hpp **** }
 115              		.loc 2 233 5
 233:src/../h/riscv.hpp **** }
 116              		.loc 2 233 47 is_stmt 0
 117 004c 93072000 		li	a5,2
 118              	#APP
 119              	# 233 "src/../h/riscv.hpp" 1
 120              		mv a0, a5
 121              	# 0 "" 2
 122              	.LVL9:
 123              	#NO_APP
 124              	.LBE59:
 125              	.LBE58:
  21:src/syscall_c.cpp **** 
  22:src/syscall_c.cpp **** 
  23:src/syscall_c.cpp ****     __asm__ volatile ("ecall");
 126              		.loc 1 23 5 is_stmt 1
 127              		.loc 1 23 31 is_stmt 0
 128              	#APP
 129              	# 23 "src/syscall_c.cpp" 1
GAS LISTING /tmp/ccnEk0wq.s 			page 8


  24              	
  25:src/syscall_c.cpp ****     volatile long a0;
 130              		ecall
 131              	# 0 "" 2
 132              		.loc 1 25 5 is_stmt 1
  26:src/syscall_c.cpp ****     __asm__ volatile ("mv %0, a0" : "=r"(a0));
 133              		.loc 1 26 5
 134              		.loc 1 26 46 is_stmt 0
 135              	# 26 "src/syscall_c.cpp" 1
  27              	    return a0;
 136              		mv a5, a0
 137              	# 0 "" 2
 138              	#NO_APP
 139 005c 2334F4FE 		sd	a5,-24(s0)
 140              		.loc 1 27 5 is_stmt 1
 141              		.loc 1 27 12 is_stmt 0
 142 0060 033584FE 		ld	a0,-24(s0)
 143              	.LVL10:
  28:src/syscall_c.cpp **** }
 144              		.loc 1 28 1
 145 0064 1B050500 		sext.w	a0,a0
 146 0068 03348101 		ld	s0,24(sp)
 147              		.cfi_restore 8
 148              		.cfi_def_cfa 2, 32
 149 006c 13010102 		addi	sp,sp,32
 150              		.cfi_def_cfa_offset 0
 151 0070 67800000 		jr	ra
 152              		.cfi_endproc
 153              	.LFE49:
 155              		.align	2
 156              		.globl	_Z10toUserModev
 158              	_Z10toUserModev:
 159              	.LFB50:
  29:src/syscall_c.cpp **** 
  30:src/syscall_c.cpp **** void toUserMode(){
 160              		.loc 1 30 18 is_stmt 1
 161              		.cfi_startproc
 162 0074 130101FF 		addi	sp,sp,-16
 163              		.cfi_def_cfa_offset 16
 164 0078 23348100 		sd	s0,8(sp)
 165              		.cfi_offset 8, -8
 166 007c 13040101 		addi	s0,sp,16
 167              		.cfi_def_cfa 8, 0
  31:src/syscall_c.cpp ****     Riscv::w_a0(0x51);
 168              		.loc 1 31 5
 169              	.LVL11:
 170              	.LBB60:
 171              	.LBB61:
 233:src/../h/riscv.hpp **** }
 172              		.loc 2 233 5
 233:src/../h/riscv.hpp **** }
 173              		.loc 2 233 47 is_stmt 0
 174 0080 93071005 		li	a5,81
 175              	#APP
 176              	# 233 "src/../h/riscv.hpp" 1
 177              		mv a0, a5
 178              	# 0 "" 2
GAS LISTING /tmp/ccnEk0wq.s 			page 9


 179              	.LVL12:
 180              	#NO_APP
 181              	.LBE61:
 182              	.LBE60:
  32:src/syscall_c.cpp ****     __asm__ volatile ("ecall");
 183              		.loc 1 32 5 is_stmt 1
 184              		.loc 1 32 31 is_stmt 0
 185              	#APP
 186              	# 32 "src/syscall_c.cpp" 1
  33              	}
 187              		ecall
 188              	# 0 "" 2
 189              		.loc 1 33 1
 190              	#NO_APP
 191 008c 03348100 		ld	s0,8(sp)
 192              		.cfi_restore 8
 193              		.cfi_def_cfa 2, 16
 194 0090 13010101 		addi	sp,sp,16
 195              		.cfi_def_cfa_offset 0
 196 0094 67800000 		jr	ra
 197              		.cfi_endproc
 198              	.LFE50:
 200              		.align	2
 201              		.globl	_Z13thread_createPP7_threadPFvPvES2_
 203              	_Z13thread_createPP7_threadPFvPvES2_:
 204              	.LFB51:
  34:src/syscall_c.cpp **** 
  35:src/syscall_c.cpp **** int thread_create(thread_t *handle, void(*start_routine)(void *), void *arg) {
 205              		.loc 1 35 78 is_stmt 1
 206              		.cfi_startproc
 207              	.LVL13:
 208 0098 130101FE 		addi	sp,sp,-32
 209              		.cfi_def_cfa_offset 32
 210 009c 233C8100 		sd	s0,24(sp)
 211              		.cfi_offset 8, -8
 212 00a0 13040102 		addi	s0,sp,32
 213              		.cfi_def_cfa 8, 0
  36:src/syscall_c.cpp **** 
  37:src/syscall_c.cpp **** 
  38:src/syscall_c.cpp ****     Riscv::w_a1((uint64) start_routine);
 214              		.loc 1 38 5
 215              	.LVL14:
 216              	.LBB62:
 217              	.LBB63:
 243:src/../h/riscv.hpp **** }
 218              		.loc 2 243 5
 243:src/../h/riscv.hpp **** }
 219              		.loc 2 243 47 is_stmt 0
 220              	#APP
 221              	# 243 "src/../h/riscv.hpp" 1
 222              		mv a1, a1
 223              	# 0 "" 2
 224              	.LVL15:
 225              	#NO_APP
 226              	.LBE63:
 227              	.LBE62:
  39:src/syscall_c.cpp ****     Riscv::w_a2((uint64) arg);
GAS LISTING /tmp/ccnEk0wq.s 			page 10


 228              		.loc 1 39 5 is_stmt 1
 229              	.LBB64:
 230              	.LBB65:
 245:src/../h/riscv.hpp **** 
 246:src/../h/riscv.hpp **** inline uint64 Riscv::r_a2() {
 247:src/../h/riscv.hpp ****     uint64 volatile a2;
 248:src/../h/riscv.hpp ****     __asm__ volatile("mv %0, a2" : "=r"(a2));
 249:src/../h/riscv.hpp ****     return a2;
 250:src/../h/riscv.hpp **** }
 251:src/../h/riscv.hpp **** 
 252:src/../h/riscv.hpp **** inline void Riscv::w_a2(uint64 a2) {
 253:src/../h/riscv.hpp ****     __asm__ volatile ("mv a2, %0" : : "r"(a2));
 231              		.loc 2 253 5
 232              		.loc 2 253 47 is_stmt 0
 233              	#APP
 234              	# 253 "src/../h/riscv.hpp" 1
 254              	}
 235              		mv a2, a2
 236              	# 0 "" 2
 237              	.LVL16:
 238              	#NO_APP
 239              	.LBE65:
 240              	.LBE64:
  40:src/syscall_c.cpp ****     //thread_t* t = handle;
  41:src/syscall_c.cpp ****     Riscv::w_a7((uint64) handle);
 241              		.loc 1 41 5 is_stmt 1
 242              	.LBB66:
 243              	.LBB67:
 255:src/../h/riscv.hpp **** 
 256:src/../h/riscv.hpp **** inline uint64 Riscv::r_a7() {
 257:src/../h/riscv.hpp ****     uint64 volatile a7;
 258:src/../h/riscv.hpp ****     __asm__ volatile("mv %0, a7" : "=r"(a7));
 259:src/../h/riscv.hpp ****     return a7;
 260:src/../h/riscv.hpp **** }
 261:src/../h/riscv.hpp **** 
 262:src/../h/riscv.hpp **** inline void Riscv::w_a7(uint64 a7) {
 263:src/../h/riscv.hpp ****     __asm__ volatile ("mv a7, %0" : : "r"(a7));
 244              		.loc 2 263 5
 245              		.loc 2 263 47 is_stmt 0
 246              	#APP
 247              	# 263 "src/../h/riscv.hpp" 1
 264              	}
 248              		mv a7, a0
 249              	# 0 "" 2
 250              	.LVL17:
 251              	#NO_APP
 252              	.LBE67:
 253              	.LBE66:
  42:src/syscall_c.cpp ****     Riscv::w_a0(0x11);
 254              		.loc 1 42 5 is_stmt 1
 255              	.LBB68:
 256              	.LBB69:
 233:src/../h/riscv.hpp **** }
 257              		.loc 2 233 5
 233:src/../h/riscv.hpp **** }
 258              		.loc 2 233 47 is_stmt 0
 259 00b0 93071001 		li	a5,17
GAS LISTING /tmp/ccnEk0wq.s 			page 11


 260              	#APP
 261              	# 233 "src/../h/riscv.hpp" 1
 262              		mv a0, a5
 263              	# 0 "" 2
 264              	.LVL18:
 265              	#NO_APP
 266              	.LBE69:
 267              	.LBE68:
  43:src/syscall_c.cpp **** 
  44:src/syscall_c.cpp ****     __asm__ volatile ("ecall");
 268              		.loc 1 44 5 is_stmt 1
 269              		.loc 1 44 31 is_stmt 0
 270              	#APP
 271              	# 44 "src/syscall_c.cpp" 1
  45              	
  46:src/syscall_c.cpp ****     return Riscv::r_a0();
 272              		ecall
 273              	# 0 "" 2
 274              		.loc 1 46 5 is_stmt 1
 275              	#NO_APP
 276              	.LBB70:
 277              	.LBB71:
 227:src/../h/riscv.hpp ****     __asm__ volatile("mv %0, a0" : "=r"(a0));
 278              		.loc 2 227 5
 228:src/../h/riscv.hpp ****     return a0;
 279              		.loc 2 228 5
 228:src/../h/riscv.hpp ****     return a0;
 280              		.loc 2 228 45 is_stmt 0
 281              	#APP
 282              	# 228 "src/../h/riscv.hpp" 1
 283              		mv a5, a0
 284              	# 0 "" 2
 285              	#NO_APP
 286 00c0 2334F4FE 		sd	a5,-24(s0)
 229:src/../h/riscv.hpp **** }
 287              		.loc 2 229 5 is_stmt 1
 229:src/../h/riscv.hpp **** }
 288              		.loc 2 229 12 is_stmt 0
 289 00c4 033584FE 		ld	a0,-24(s0)
 290              	.LVL19:
 291              	.LBE71:
 292              	.LBE70:
  47:src/syscall_c.cpp **** 
  48:src/syscall_c.cpp **** 
  49:src/syscall_c.cpp ****     //return 0;
  50:src/syscall_c.cpp **** 
  51:src/syscall_c.cpp **** }
 293              		.loc 1 51 1
 294 00c8 1B050500 		sext.w	a0,a0
 295 00cc 03348101 		ld	s0,24(sp)
 296              		.cfi_restore 8
 297              		.cfi_def_cfa 2, 32
 298 00d0 13010102 		addi	sp,sp,32
 299              		.cfi_def_cfa_offset 0
 300 00d4 67800000 		jr	ra
 301              		.cfi_endproc
 302              	.LFE51:
GAS LISTING /tmp/ccnEk0wq.s 			page 12


 304              		.align	2
 305              		.globl	_Z11thread_exitv
 307              	_Z11thread_exitv:
 308              	.LFB52:
  52:src/syscall_c.cpp **** 
  53:src/syscall_c.cpp **** int thread_exit(){
 309              		.loc 1 53 18 is_stmt 1
 310              		.cfi_startproc
 311 00d8 130101FE 		addi	sp,sp,-32
 312              		.cfi_def_cfa_offset 32
 313 00dc 233C8100 		sd	s0,24(sp)
 314              		.cfi_offset 8, -8
 315 00e0 13040102 		addi	s0,sp,32
 316              		.cfi_def_cfa 8, 0
  54:src/syscall_c.cpp ****     Riscv::w_a0(0x12);
 317              		.loc 1 54 5
 318              	.LVL20:
 319              	.LBB72:
 320              	.LBB73:
 233:src/../h/riscv.hpp **** }
 321              		.loc 2 233 5
 233:src/../h/riscv.hpp **** }
 322              		.loc 2 233 47 is_stmt 0
 323 00e4 93072001 		li	a5,18
 324              	#APP
 325              	# 233 "src/../h/riscv.hpp" 1
 326              		mv a0, a5
 327              	# 0 "" 2
 328              	.LVL21:
 329              	#NO_APP
 330              	.LBE73:
 331              	.LBE72:
  55:src/syscall_c.cpp ****     __asm__ volatile ("ecall");
 332              		.loc 1 55 5 is_stmt 1
 333              		.loc 1 55 31 is_stmt 0
 334              	#APP
 335              	# 55 "src/syscall_c.cpp" 1
  56              	    volatile uint64 a0 = Riscv::r_a0();
 336              		ecall
 337              	# 0 "" 2
 338              		.loc 1 56 5 is_stmt 1
 339              	#NO_APP
 340              	.LBB74:
 341              	.LBB75:
 227:src/../h/riscv.hpp ****     __asm__ volatile("mv %0, a0" : "=r"(a0));
 342              		.loc 2 227 5
 228:src/../h/riscv.hpp ****     return a0;
 343              		.loc 2 228 5
 228:src/../h/riscv.hpp ****     return a0;
 344              		.loc 2 228 45 is_stmt 0
 345              	#APP
 346              	# 228 "src/../h/riscv.hpp" 1
 347              		mv a5, a0
 348              	# 0 "" 2
 349              	#NO_APP
 350 00f4 2330F4FE 		sd	a5,-32(s0)
 229:src/../h/riscv.hpp **** }
GAS LISTING /tmp/ccnEk0wq.s 			page 13


 351              		.loc 2 229 5 is_stmt 1
 229:src/../h/riscv.hpp **** }
 352              		.loc 2 229 12 is_stmt 0
 353 00f8 833704FE 		ld	a5,-32(s0)
 354              	.LBE75:
 355              	.LBE74:
 356              		.loc 1 56 38
 357 00fc 2334F4FE 		sd	a5,-24(s0)
  57:src/syscall_c.cpp ****     return a0;
 358              		.loc 1 57 5 is_stmt 1
 359              		.loc 1 57 12 is_stmt 0
 360 0100 033584FE 		ld	a0,-24(s0)
  58:src/syscall_c.cpp **** }
 361              		.loc 1 58 1
 362 0104 1B050500 		sext.w	a0,a0
 363 0108 03348101 		ld	s0,24(sp)
 364              		.cfi_restore 8
 365              		.cfi_def_cfa 2, 32
 366 010c 13010102 		addi	sp,sp,32
 367              		.cfi_def_cfa_offset 0
 368 0110 67800000 		jr	ra
 369              		.cfi_endproc
 370              	.LFE52:
 372              		.align	2
 373              		.globl	_Z15thread_dispatchv
 375              	_Z15thread_dispatchv:
 376              	.LFB53:
  59:src/syscall_c.cpp **** 
  60:src/syscall_c.cpp **** void thread_dispatch(){
 377              		.loc 1 60 23 is_stmt 1
 378              		.cfi_startproc
 379 0114 130101FF 		addi	sp,sp,-16
 380              		.cfi_def_cfa_offset 16
 381 0118 23348100 		sd	s0,8(sp)
 382              		.cfi_offset 8, -8
 383 011c 13040101 		addi	s0,sp,16
 384              		.cfi_def_cfa 8, 0
  61:src/syscall_c.cpp ****     Riscv::w_a0(0x13);
 385              		.loc 1 61 5
 386              	.LVL22:
 387              	.LBB76:
 388              	.LBB77:
 233:src/../h/riscv.hpp **** }
 389              		.loc 2 233 5
 233:src/../h/riscv.hpp **** }
 390              		.loc 2 233 47 is_stmt 0
 391 0120 93073001 		li	a5,19
 392              	#APP
 393              	# 233 "src/../h/riscv.hpp" 1
 394              		mv a0, a5
 395              	# 0 "" 2
 396              	.LVL23:
 397              	#NO_APP
 398              	.LBE77:
 399              	.LBE76:
  62:src/syscall_c.cpp ****     __asm__ volatile ("ecall");
 400              		.loc 1 62 5 is_stmt 1
GAS LISTING /tmp/ccnEk0wq.s 			page 14


 401              		.loc 1 62 31 is_stmt 0
 402              	#APP
 403              	# 62 "src/syscall_c.cpp" 1
  63              	}
 404              		ecall
 405              	# 0 "" 2
 406              		.loc 1 63 1
 407              	#NO_APP
 408 012c 03348100 		ld	s0,8(sp)
 409              		.cfi_restore 8
 410              		.cfi_def_cfa 2, 16
 411 0130 13010101 		addi	sp,sp,16
 412              		.cfi_def_cfa_offset 0
 413 0134 67800000 		jr	ra
 414              		.cfi_endproc
 415              	.LFE53:
 417              		.align	2
 418              		.globl	_Z11thread_joinP7_thread
 420              	_Z11thread_joinP7_thread:
 421              	.LFB54:
  64:src/syscall_c.cpp **** 
  65:src/syscall_c.cpp **** void thread_join(thread_t handle){
 422              		.loc 1 65 34 is_stmt 1
 423              		.cfi_startproc
 424              	.LVL24:
 425 0138 130101FF 		addi	sp,sp,-16
 426              		.cfi_def_cfa_offset 16
 427 013c 23348100 		sd	s0,8(sp)
 428              		.cfi_offset 8, -8
 429 0140 13040101 		addi	s0,sp,16
 430              		.cfi_def_cfa 8, 0
  66:src/syscall_c.cpp ****     Riscv::w_a1((uint64)handle);
 431              		.loc 1 66 5
 432              	.LVL25:
 433              	.LBB78:
 434              	.LBB79:
 243:src/../h/riscv.hpp **** }
 435              		.loc 2 243 5
 243:src/../h/riscv.hpp **** }
 436              		.loc 2 243 47 is_stmt 0
 437              	#APP
 438              	# 243 "src/../h/riscv.hpp" 1
 439              		mv a1, a0
 440              	# 0 "" 2
 441              	.LVL26:
 442              	#NO_APP
 443              	.LBE79:
 444              	.LBE78:
  67:src/syscall_c.cpp ****     Riscv::w_a0(0x14);
 445              		.loc 1 67 5 is_stmt 1
 446              	.LBB80:
 447              	.LBB81:
 233:src/../h/riscv.hpp **** }
 448              		.loc 2 233 5
 233:src/../h/riscv.hpp **** }
 449              		.loc 2 233 47 is_stmt 0
 450 0148 93074001 		li	a5,20
GAS LISTING /tmp/ccnEk0wq.s 			page 15


 451              	#APP
 452              	# 233 "src/../h/riscv.hpp" 1
 453              		mv a0, a5
 454              	# 0 "" 2
 455              	.LVL27:
 456              	#NO_APP
 457              	.LBE81:
 458              	.LBE80:
  68:src/syscall_c.cpp **** 
  69:src/syscall_c.cpp ****     __asm__ volatile ("ecall");
 459              		.loc 1 69 5 is_stmt 1
 460              		.loc 1 69 31 is_stmt 0
 461              	#APP
 462              	# 69 "src/syscall_c.cpp" 1
  70              	
  71:src/syscall_c.cpp **** }
 463              		ecall
 464              	# 0 "" 2
 465              		.loc 1 71 1
 466              	#NO_APP
 467 0154 03348100 		ld	s0,8(sp)
 468              		.cfi_restore 8
 469              		.cfi_def_cfa 2, 16
 470 0158 13010101 		addi	sp,sp,16
 471              		.cfi_def_cfa_offset 0
 472 015c 67800000 		jr	ra
 473              		.cfi_endproc
 474              	.LFE54:
 476              		.align	2
 477              		.globl	_Z8sem_openPP4_semj
 479              	_Z8sem_openPP4_semj:
 480              	.LFB55:
  72:src/syscall_c.cpp **** 
  73:src/syscall_c.cpp **** int sem_open(sem_t* handle, unsigned init){
 481              		.loc 1 73 43 is_stmt 1
 482              		.cfi_startproc
 483              	.LVL28:
 484 0160 130101FE 		addi	sp,sp,-32
 485              		.cfi_def_cfa_offset 32
 486 0164 233C8100 		sd	s0,24(sp)
 487              		.cfi_offset 8, -8
 488 0168 13040102 		addi	s0,sp,32
 489              		.cfi_def_cfa 8, 0
  74:src/syscall_c.cpp ****     Riscv::w_a2(init);
 490              		.loc 1 74 5
 491              		.loc 1 74 16 is_stmt 0
 492 016c 93950502 		slli	a1,a1,32
 493              	.LVL29:
 494 0170 93D50502 		srli	a1,a1,32
 495              	.LVL30:
 496              	.LBB82:
 497              	.LBB83:
 253:src/../h/riscv.hpp **** }
 498              		.loc 2 253 5 is_stmt 1
 253:src/../h/riscv.hpp **** }
 499              		.loc 2 253 47 is_stmt 0
 500              	#APP
GAS LISTING /tmp/ccnEk0wq.s 			page 16


 501              	# 253 "src/../h/riscv.hpp" 1
 502              		mv a2, a1
 503              	# 0 "" 2
 504              	.LVL31:
 505              	#NO_APP
 506              	.LBE83:
 507              	.LBE82:
  75:src/syscall_c.cpp ****     Riscv::w_a1((uint64)handle);
 508              		.loc 1 75 5 is_stmt 1
 509              	.LBB84:
 510              	.LBB85:
 243:src/../h/riscv.hpp **** }
 511              		.loc 2 243 5
 243:src/../h/riscv.hpp **** }
 512              		.loc 2 243 47 is_stmt 0
 513              	#APP
 514              	# 243 "src/../h/riscv.hpp" 1
 515              		mv a1, a0
 516              	# 0 "" 2
 517              	.LVL32:
 518              	#NO_APP
 519              	.LBE85:
 520              	.LBE84:
  76:src/syscall_c.cpp ****     Riscv::w_a0(0x21);
 521              		.loc 1 76 5 is_stmt 1
 522              	.LBB86:
 523              	.LBB87:
 233:src/../h/riscv.hpp **** }
 524              		.loc 2 233 5
 233:src/../h/riscv.hpp **** }
 525              		.loc 2 233 47 is_stmt 0
 526 017c 93071002 		li	a5,33
 527              	#APP
 528              	# 233 "src/../h/riscv.hpp" 1
 529              		mv a0, a5
 530              	# 0 "" 2
 531              	.LVL33:
 532              	#NO_APP
 533              	.LBE87:
 534              	.LBE86:
  77:src/syscall_c.cpp **** 
  78:src/syscall_c.cpp ****     __asm__ volatile ("ecall");
 535              		.loc 1 78 5 is_stmt 1
 536              		.loc 1 78 31 is_stmt 0
 537              	#APP
 538              	# 78 "src/syscall_c.cpp" 1
  79              	
  80:src/syscall_c.cpp ****     volatile long a0;
 539              		ecall
 540              	# 0 "" 2
 541              		.loc 1 80 5 is_stmt 1
  81:src/syscall_c.cpp ****     __asm__ volatile ("mv %0, a0" : "=r"(a0));
 542              		.loc 1 81 5
 543              		.loc 1 81 46 is_stmt 0
 544              	# 81 "src/syscall_c.cpp" 1
  82              	    return a0;
 545              		mv a5, a0
GAS LISTING /tmp/ccnEk0wq.s 			page 17


 546              	# 0 "" 2
 547              	#NO_APP
 548 018c 2334F4FE 		sd	a5,-24(s0)
 549              		.loc 1 82 5 is_stmt 1
 550              		.loc 1 82 12 is_stmt 0
 551 0190 033584FE 		ld	a0,-24(s0)
 552              	.LVL34:
  83:src/syscall_c.cpp **** }
 553              		.loc 1 83 1
 554 0194 1B050500 		sext.w	a0,a0
 555 0198 03348101 		ld	s0,24(sp)
 556              		.cfi_restore 8
 557              		.cfi_def_cfa 2, 32
 558 019c 13010102 		addi	sp,sp,32
 559              		.cfi_def_cfa_offset 0
 560 01a0 67800000 		jr	ra
 561              		.cfi_endproc
 562              	.LFE55:
 564              		.align	2
 565              		.globl	_Z9sem_closeP4_sem
 567              	_Z9sem_closeP4_sem:
 568              	.LFB56:
  84:src/syscall_c.cpp **** 
  85:src/syscall_c.cpp **** int sem_close(sem_t handle){
 569              		.loc 1 85 28 is_stmt 1
 570              		.cfi_startproc
 571              	.LVL35:
 572 01a4 130101FE 		addi	sp,sp,-32
 573              		.cfi_def_cfa_offset 32
 574 01a8 233C8100 		sd	s0,24(sp)
 575              		.cfi_offset 8, -8
 576 01ac 13040102 		addi	s0,sp,32
 577              		.cfi_def_cfa 8, 0
  86:src/syscall_c.cpp ****     Riscv::w_a1((uint64)handle);
 578              		.loc 1 86 5
 579              	.LVL36:
 580              	.LBB88:
 581              	.LBB89:
 243:src/../h/riscv.hpp **** }
 582              		.loc 2 243 5
 243:src/../h/riscv.hpp **** }
 583              		.loc 2 243 47 is_stmt 0
 584              	#APP
 585              	# 243 "src/../h/riscv.hpp" 1
 586              		mv a1, a0
 587              	# 0 "" 2
 588              	.LVL37:
 589              	#NO_APP
 590              	.LBE89:
 591              	.LBE88:
  87:src/syscall_c.cpp ****     Riscv::w_a0(0x22);
 592              		.loc 1 87 5 is_stmt 1
 593              	.LBB90:
 594              	.LBB91:
 233:src/../h/riscv.hpp **** }
 595              		.loc 2 233 5
 233:src/../h/riscv.hpp **** }
GAS LISTING /tmp/ccnEk0wq.s 			page 18


 596              		.loc 2 233 47 is_stmt 0
 597 01b4 93072002 		li	a5,34
 598              	#APP
 599              	# 233 "src/../h/riscv.hpp" 1
 600              		mv a0, a5
 601              	# 0 "" 2
 602              	.LVL38:
 603              	#NO_APP
 604              	.LBE91:
 605              	.LBE90:
  88:src/syscall_c.cpp **** 
  89:src/syscall_c.cpp ****     __asm__ volatile ("ecall");
 606              		.loc 1 89 5 is_stmt 1
 607              		.loc 1 89 31 is_stmt 0
 608              	#APP
 609              	# 89 "src/syscall_c.cpp" 1
  90              	
  91:src/syscall_c.cpp ****     volatile long a0;
 610              		ecall
 611              	# 0 "" 2
 612              		.loc 1 91 5 is_stmt 1
  92:src/syscall_c.cpp ****     __asm__ volatile ("mv %0, a0" : "=r"(a0));
 613              		.loc 1 92 5
 614              		.loc 1 92 46 is_stmt 0
 615              	# 92 "src/syscall_c.cpp" 1
  93              	    return a0;
 616              		mv a5, a0
 617              	# 0 "" 2
 618              	#NO_APP
 619 01c4 2334F4FE 		sd	a5,-24(s0)
 620              		.loc 1 93 5 is_stmt 1
 621              		.loc 1 93 12 is_stmt 0
 622 01c8 033584FE 		ld	a0,-24(s0)
 623              	.LVL39:
  94:src/syscall_c.cpp **** }
 624              		.loc 1 94 1
 625 01cc 1B050500 		sext.w	a0,a0
 626 01d0 03348101 		ld	s0,24(sp)
 627              		.cfi_restore 8
 628              		.cfi_def_cfa 2, 32
 629 01d4 13010102 		addi	sp,sp,32
 630              		.cfi_def_cfa_offset 0
 631 01d8 67800000 		jr	ra
 632              		.cfi_endproc
 633              	.LFE56:
 635              		.align	2
 636              		.globl	_Z8sem_waitP4_sem
 638              	_Z8sem_waitP4_sem:
 639              	.LFB57:
  95:src/syscall_c.cpp **** 
  96:src/syscall_c.cpp **** int sem_wait(sem_t id){
 640              		.loc 1 96 23 is_stmt 1
 641              		.cfi_startproc
 642              	.LVL40:
 643 01dc 130101FE 		addi	sp,sp,-32
 644              		.cfi_def_cfa_offset 32
 645 01e0 233C8100 		sd	s0,24(sp)
GAS LISTING /tmp/ccnEk0wq.s 			page 19


 646              		.cfi_offset 8, -8
 647 01e4 13040102 		addi	s0,sp,32
 648              		.cfi_def_cfa 8, 0
  97:src/syscall_c.cpp ****     Riscv::w_a1((uint64)id);
 649              		.loc 1 97 5
 650              	.LVL41:
 651              	.LBB92:
 652              	.LBB93:
 243:src/../h/riscv.hpp **** }
 653              		.loc 2 243 5
 243:src/../h/riscv.hpp **** }
 654              		.loc 2 243 47 is_stmt 0
 655              	#APP
 656              	# 243 "src/../h/riscv.hpp" 1
 657              		mv a1, a0
 658              	# 0 "" 2
 659              	.LVL42:
 660              	#NO_APP
 661              	.LBE93:
 662              	.LBE92:
  98:src/syscall_c.cpp ****     Riscv::w_a0(0x23);
 663              		.loc 1 98 5 is_stmt 1
 664              	.LBB94:
 665              	.LBB95:
 233:src/../h/riscv.hpp **** }
 666              		.loc 2 233 5
 233:src/../h/riscv.hpp **** }
 667              		.loc 2 233 47 is_stmt 0
 668 01ec 93073002 		li	a5,35
 669              	#APP
 670              	# 233 "src/../h/riscv.hpp" 1
 671              		mv a0, a5
 672              	# 0 "" 2
 673              	.LVL43:
 674              	#NO_APP
 675              	.LBE95:
 676              	.LBE94:
  99:src/syscall_c.cpp **** 
 100:src/syscall_c.cpp ****     __asm__ volatile ("ecall");
 677              		.loc 1 100 5 is_stmt 1
 678              		.loc 1 100 31 is_stmt 0
 679              	#APP
 680              	# 100 "src/syscall_c.cpp" 1
 101              	
 102:src/syscall_c.cpp ****     volatile long a0;
 681              		ecall
 682              	# 0 "" 2
 683              		.loc 1 102 5 is_stmt 1
 103:src/syscall_c.cpp ****     __asm__ volatile ("mv %0, a0" : "=r"(a0));
 684              		.loc 1 103 5
 685              		.loc 1 103 46 is_stmt 0
 686              	# 103 "src/syscall_c.cpp" 1
 104              	    return a0;
 687              		mv a5, a0
 688              	# 0 "" 2
 689              	#NO_APP
 690 01fc 2334F4FE 		sd	a5,-24(s0)
GAS LISTING /tmp/ccnEk0wq.s 			page 20


 691              		.loc 1 104 5 is_stmt 1
 692              		.loc 1 104 12 is_stmt 0
 693 0200 033584FE 		ld	a0,-24(s0)
 694              	.LVL44:
 105:src/syscall_c.cpp **** }
 695              		.loc 1 105 1
 696 0204 1B050500 		sext.w	a0,a0
 697 0208 03348101 		ld	s0,24(sp)
 698              		.cfi_restore 8
 699              		.cfi_def_cfa 2, 32
 700 020c 13010102 		addi	sp,sp,32
 701              		.cfi_def_cfa_offset 0
 702 0210 67800000 		jr	ra
 703              		.cfi_endproc
 704              	.LFE57:
 706              		.align	2
 707              		.globl	_Z10sem_signalP4_sem
 709              	_Z10sem_signalP4_sem:
 710              	.LFB58:
 106:src/syscall_c.cpp **** 
 107:src/syscall_c.cpp **** int sem_signal(sem_t id){
 711              		.loc 1 107 25 is_stmt 1
 712              		.cfi_startproc
 713              	.LVL45:
 714 0214 130101FE 		addi	sp,sp,-32
 715              		.cfi_def_cfa_offset 32
 716 0218 233C8100 		sd	s0,24(sp)
 717              		.cfi_offset 8, -8
 718 021c 13040102 		addi	s0,sp,32
 719              		.cfi_def_cfa 8, 0
 108:src/syscall_c.cpp ****     Riscv::w_a1((uint64)id);
 720              		.loc 1 108 5
 721              	.LVL46:
 722              	.LBB96:
 723              	.LBB97:
 243:src/../h/riscv.hpp **** }
 724              		.loc 2 243 5
 243:src/../h/riscv.hpp **** }
 725              		.loc 2 243 47 is_stmt 0
 726              	#APP
 727              	# 243 "src/../h/riscv.hpp" 1
 728              		mv a1, a0
 729              	# 0 "" 2
 730              	.LVL47:
 731              	#NO_APP
 732              	.LBE97:
 733              	.LBE96:
 109:src/syscall_c.cpp ****     Riscv::w_a0(0x24);
 734              		.loc 1 109 5 is_stmt 1
 735              	.LBB98:
 736              	.LBB99:
 233:src/../h/riscv.hpp **** }
 737              		.loc 2 233 5
 233:src/../h/riscv.hpp **** }
 738              		.loc 2 233 47 is_stmt 0
 739 0224 93074002 		li	a5,36
 740              	#APP
GAS LISTING /tmp/ccnEk0wq.s 			page 21


 741              	# 233 "src/../h/riscv.hpp" 1
 742              		mv a0, a5
 743              	# 0 "" 2
 744              	.LVL48:
 745              	#NO_APP
 746              	.LBE99:
 747              	.LBE98:
 110:src/syscall_c.cpp **** 
 111:src/syscall_c.cpp ****     __asm__ volatile ("ecall");
 748              		.loc 1 111 5 is_stmt 1
 749              		.loc 1 111 31 is_stmt 0
 750              	#APP
 751              	# 111 "src/syscall_c.cpp" 1
 112              	
 113:src/syscall_c.cpp ****     volatile long a0;
 752              		ecall
 753              	# 0 "" 2
 754              		.loc 1 113 5 is_stmt 1
 114:src/syscall_c.cpp ****     __asm__ volatile ("mv %0, a0" : "=r"(a0));
 755              		.loc 1 114 5
 756              		.loc 1 114 46 is_stmt 0
 757              	# 114 "src/syscall_c.cpp" 1
 115              	    return a0;
 758              		mv a5, a0
 759              	# 0 "" 2
 760              	#NO_APP
 761 0234 2334F4FE 		sd	a5,-24(s0)
 762              		.loc 1 115 5 is_stmt 1
 763              		.loc 1 115 12 is_stmt 0
 764 0238 033584FE 		ld	a0,-24(s0)
 765              	.LVL49:
 116:src/syscall_c.cpp **** }
 766              		.loc 1 116 1
 767 023c 1B050500 		sext.w	a0,a0
 768 0240 03348101 		ld	s0,24(sp)
 769              		.cfi_restore 8
 770              		.cfi_def_cfa 2, 32
 771 0244 13010102 		addi	sp,sp,32
 772              		.cfi_def_cfa_offset 0
 773 0248 67800000 		jr	ra
 774              		.cfi_endproc
 775              	.LFE58:
 777              		.align	2
 778              		.globl	_Z4getcv
 780              	_Z4getcv:
 781              	.LFB59:
 117:src/syscall_c.cpp **** 
 118:src/syscall_c.cpp **** char getc(){
 782              		.loc 1 118 12 is_stmt 1
 783              		.cfi_startproc
 784 024c 130101FE 		addi	sp,sp,-32
 785              		.cfi_def_cfa_offset 32
 786 0250 233C8100 		sd	s0,24(sp)
 787              		.cfi_offset 8, -8
 788 0254 13040102 		addi	s0,sp,32
 789              		.cfi_def_cfa 8, 0
 119:src/syscall_c.cpp ****     Riscv::w_a0(0x41);
GAS LISTING /tmp/ccnEk0wq.s 			page 22


 790              		.loc 1 119 5
 791              	.LVL50:
 792              	.LBB100:
 793              	.LBB101:
 233:src/../h/riscv.hpp **** }
 794              		.loc 2 233 5
 233:src/../h/riscv.hpp **** }
 795              		.loc 2 233 47 is_stmt 0
 796 0258 93071004 		li	a5,65
 797              	#APP
 798              	# 233 "src/../h/riscv.hpp" 1
 799              		mv a0, a5
 800              	# 0 "" 2
 801              	.LVL51:
 802              	#NO_APP
 803              	.LBE101:
 804              	.LBE100:
 120:src/syscall_c.cpp **** 
 121:src/syscall_c.cpp ****     __asm__ volatile ("ecall");
 805              		.loc 1 121 5 is_stmt 1
 806              		.loc 1 121 31 is_stmt 0
 807              	#APP
 808              	# 121 "src/syscall_c.cpp" 1
 122              	
 123:src/syscall_c.cpp ****     volatile long a0;
 809              		ecall
 810              	# 0 "" 2
 811              		.loc 1 123 5 is_stmt 1
 124:src/syscall_c.cpp ****     __asm__ volatile ("mv %0, a0" : "=r"(a0));
 812              		.loc 1 124 5
 813              		.loc 1 124 46 is_stmt 0
 814              	# 124 "src/syscall_c.cpp" 1
 125              	    return (char)a0;
 815              		mv a5, a0
 816              	# 0 "" 2
 817              	#NO_APP
 818 0268 2334F4FE 		sd	a5,-24(s0)
 819              		.loc 1 125 5 is_stmt 1
 820              		.loc 1 125 18 is_stmt 0
 821 026c 033584FE 		ld	a0,-24(s0)
 126:src/syscall_c.cpp **** }
 822              		.loc 1 126 1
 823 0270 1375F50F 		andi	a0,a0,0xff
 824 0274 03348101 		ld	s0,24(sp)
 825              		.cfi_restore 8
 826              		.cfi_def_cfa 2, 32
 827 0278 13010102 		addi	sp,sp,32
 828              		.cfi_def_cfa_offset 0
 829 027c 67800000 		jr	ra
 830              		.cfi_endproc
 831              	.LFE59:
 833              		.align	2
 834              		.globl	_Z4putcc
 836              	_Z4putcc:
 837              	.LFB60:
 127:src/syscall_c.cpp **** 
 128:src/syscall_c.cpp **** void putc(char c){
GAS LISTING /tmp/ccnEk0wq.s 			page 23


 838              		.loc 1 128 18 is_stmt 1
 839              		.cfi_startproc
 840              	.LVL52:
 841 0280 130101FF 		addi	sp,sp,-16
 842              		.cfi_def_cfa_offset 16
 843 0284 23341100 		sd	ra,8(sp)
 844 0288 23308100 		sd	s0,0(sp)
 845              		.cfi_offset 1, -8
 846              		.cfi_offset 8, -16
 847 028c 13040101 		addi	s0,sp,16
 848              		.cfi_def_cfa 8, 0
 129:src/syscall_c.cpp ****     __putc(c);
 849              		.loc 1 129 5
 850              		.loc 1 129 11 is_stmt 0
 851 0290 97000000 		call	__putc@plt
 851      E7800000 
 852              	.LVL53:
 130:src/syscall_c.cpp **** //    __asm__ volatile ("mv a7, %0" : : "r"(c));
 131:src/syscall_c.cpp **** //    Riscv::w_a0(0x42);
 132:src/syscall_c.cpp **** //    __asm__ volatile ("ecall");
 133:src/syscall_c.cpp **** }...
 853              		.loc 1 133 1
 854 0298 83308100 		ld	ra,8(sp)
 855              		.cfi_restore 1
 856 029c 03340100 		ld	s0,0(sp)
 857              		.cfi_restore 8
 858              		.cfi_def_cfa 2, 16
 859 02a0 13010101 		addi	sp,sp,16
 860              		.cfi_def_cfa_offset 0
 861 02a4 67800000 		jr	ra
 862              		.cfi_endproc
 863              	.LFE60:
 865              	.Letext0:
 866              		.file 3 "src/../h/../h/../lib/hw.h"
 867              		.file 4 "src/../h/list.hpp"
 868              		.file 5 "src/../h/_thread.hpp"
 869              		.file 6 "src/../h/_sem.hpp"
 870              		.file 7 "src/../h/syscall_c.hpp"
 871              		.file 8 "src/../h/../h/../lib/console.h"
GAS LISTING /tmp/ccnEk0wq.s 			page 24


DEFINED SYMBOLS
                            *ABS*:0000000000000000 syscall_c.cpp
     /tmp/ccnEk0wq.s:9      .text:0000000000000000 _Z9mem_allocm
     /tmp/ccnEk0wq.s:13     .text:0000000000000000 .L0 
     /tmp/ccnEk0wq.s:15     .text:0000000000000000 .L0 
     /tmp/ccnEk0wq.s:16     .text:0000000000000004 .L0 
     /tmp/ccnEk0wq.s:18     .text:0000000000000008 .L0 
     /tmp/ccnEk0wq.s:20     .text:000000000000000c .L0 
     /tmp/ccnEk0wq.s:22     .text:000000000000000c .L0 
     /tmp/ccnEk0wq.s:23     .text:000000000000000c .L0 
     /tmp/ccnEk0wq.s:26     .text:0000000000000010 .L0 
     /tmp/ccnEk0wq.s:32     .text:0000000000000014 .L0 
     /tmp/ccnEk0wq.s:33     .text:0000000000000014 .L0 
  src/../h/riscv.hpp:243    .text:0000000000000014 .L0 
     /tmp/ccnEk0wq.s:45     .text:0000000000000018 .L0 
     /tmp/ccnEk0wq.s:46     .text:0000000000000018 .L0 
     /tmp/ccnEk0wq.s:47     .text:0000000000000018 .L0 
     /tmp/ccnEk0wq.s:57     .text:0000000000000020 .L0 
   src/syscall_c.cpp:11     .text:0000000000000020 .L0 
     /tmp/ccnEk0wq.s:63     .text:0000000000000024 .L0 
     /tmp/ccnEk0wq.s:64     .text:0000000000000024 .L0 
   src/syscall_c.cpp:14     .text:0000000000000024 .L0 
     /tmp/ccnEk0wq.s:71     .text:000000000000002c .L0 
     /tmp/ccnEk0wq.s:72     .text:000000000000002c .L0 
     /tmp/ccnEk0wq.s:75     .text:0000000000000030 .L0 
     /tmp/ccnEk0wq.s:76     .text:0000000000000034 .L0 
     /tmp/ccnEk0wq.s:77     .text:0000000000000034 .L0 
     /tmp/ccnEk0wq.s:79     .text:0000000000000038 .L0 
     /tmp/ccnEk0wq.s:81     .text:000000000000003c .L0 
     /tmp/ccnEk0wq.s:87     .text:000000000000003c _Z8mem_freePv
     /tmp/ccnEk0wq.s:90     .text:000000000000003c .L0 
     /tmp/ccnEk0wq.s:92     .text:000000000000003c .L0 
     /tmp/ccnEk0wq.s:93     .text:0000000000000040 .L0 
     /tmp/ccnEk0wq.s:95     .text:0000000000000044 .L0 
     /tmp/ccnEk0wq.s:97     .text:0000000000000048 .L0 
     /tmp/ccnEk0wq.s:102    .text:0000000000000048 .L0 
     /tmp/ccnEk0wq.s:103    .text:0000000000000048 .L0 
  src/../h/riscv.hpp:243    .text:0000000000000048 .L0 
     /tmp/ccnEk0wq.s:115    .text:000000000000004c .L0 
     /tmp/ccnEk0wq.s:116    .text:000000000000004c .L0 
     /tmp/ccnEk0wq.s:117    .text:000000000000004c .L0 
     /tmp/ccnEk0wq.s:127    .text:0000000000000054 .L0 
   src/syscall_c.cpp:23     .text:0000000000000054 .L0 
     /tmp/ccnEk0wq.s:133    .text:0000000000000058 .L0 
     /tmp/ccnEk0wq.s:134    .text:0000000000000058 .L0 
   src/syscall_c.cpp:26     .text:0000000000000058 .L0 
     /tmp/ccnEk0wq.s:141    .text:0000000000000060 .L0 
     /tmp/ccnEk0wq.s:142    .text:0000000000000060 .L0 
     /tmp/ccnEk0wq.s:145    .text:0000000000000064 .L0 
     /tmp/ccnEk0wq.s:147    .text:000000000000006c .L0 
     /tmp/ccnEk0wq.s:148    .text:000000000000006c .L0 
     /tmp/ccnEk0wq.s:150    .text:0000000000000070 .L0 
     /tmp/ccnEk0wq.s:152    .text:0000000000000074 .L0 
     /tmp/ccnEk0wq.s:158    .text:0000000000000074 _Z10toUserModev
     /tmp/ccnEk0wq.s:161    .text:0000000000000074 .L0 
     /tmp/ccnEk0wq.s:162    .text:0000000000000074 .L0 
     /tmp/ccnEk0wq.s:163    .text:0000000000000078 .L0 
GAS LISTING /tmp/ccnEk0wq.s 			page 25


     /tmp/ccnEk0wq.s:165    .text:000000000000007c .L0 
     /tmp/ccnEk0wq.s:167    .text:0000000000000080 .L0 
     /tmp/ccnEk0wq.s:172    .text:0000000000000080 .L0 
     /tmp/ccnEk0wq.s:173    .text:0000000000000080 .L0 
     /tmp/ccnEk0wq.s:174    .text:0000000000000080 .L0 
     /tmp/ccnEk0wq.s:184    .text:0000000000000088 .L0 
   src/syscall_c.cpp:32     .text:0000000000000088 .L0 
     /tmp/ccnEk0wq.s:191    .text:000000000000008c .L0 
     /tmp/ccnEk0wq.s:192    .text:0000000000000090 .L0 
     /tmp/ccnEk0wq.s:193    .text:0000000000000090 .L0 
     /tmp/ccnEk0wq.s:195    .text:0000000000000094 .L0 
     /tmp/ccnEk0wq.s:197    .text:0000000000000098 .L0 
     /tmp/ccnEk0wq.s:203    .text:0000000000000098 _Z13thread_createPP7_threadPFvPvES2_
     /tmp/ccnEk0wq.s:206    .text:0000000000000098 .L0 
     /tmp/ccnEk0wq.s:208    .text:0000000000000098 .L0 
     /tmp/ccnEk0wq.s:209    .text:000000000000009c .L0 
     /tmp/ccnEk0wq.s:211    .text:00000000000000a0 .L0 
     /tmp/ccnEk0wq.s:213    .text:00000000000000a4 .L0 
     /tmp/ccnEk0wq.s:218    .text:00000000000000a4 .L0 
     /tmp/ccnEk0wq.s:219    .text:00000000000000a4 .L0 
  src/../h/riscv.hpp:243    .text:00000000000000a4 .L0 
     /tmp/ccnEk0wq.s:231    .text:00000000000000a8 .L0 
     /tmp/ccnEk0wq.s:232    .text:00000000000000a8 .L0 
  src/../h/riscv.hpp:253    .text:00000000000000a8 .L0 
     /tmp/ccnEk0wq.s:244    .text:00000000000000ac .L0 
     /tmp/ccnEk0wq.s:245    .text:00000000000000ac .L0 
  src/../h/riscv.hpp:263    .text:00000000000000ac .L0 
     /tmp/ccnEk0wq.s:257    .text:00000000000000b0 .L0 
     /tmp/ccnEk0wq.s:258    .text:00000000000000b0 .L0 
     /tmp/ccnEk0wq.s:259    .text:00000000000000b0 .L0 
     /tmp/ccnEk0wq.s:269    .text:00000000000000b8 .L0 
   src/syscall_c.cpp:44     .text:00000000000000b8 .L0 
     /tmp/ccnEk0wq.s:278    .text:00000000000000bc .L0 
     /tmp/ccnEk0wq.s:279    .text:00000000000000bc .L0 
     /tmp/ccnEk0wq.s:280    .text:00000000000000bc .L0 
  src/../h/riscv.hpp:228    .text:00000000000000bc .L0 
     /tmp/ccnEk0wq.s:288    .text:00000000000000c4 .L0 
     /tmp/ccnEk0wq.s:289    .text:00000000000000c4 .L0 
     /tmp/ccnEk0wq.s:294    .text:00000000000000c8 .L0 
     /tmp/ccnEk0wq.s:296    .text:00000000000000d0 .L0 
     /tmp/ccnEk0wq.s:297    .text:00000000000000d0 .L0 
     /tmp/ccnEk0wq.s:299    .text:00000000000000d4 .L0 
     /tmp/ccnEk0wq.s:301    .text:00000000000000d8 .L0 
     /tmp/ccnEk0wq.s:307    .text:00000000000000d8 _Z11thread_exitv
     /tmp/ccnEk0wq.s:310    .text:00000000000000d8 .L0 
     /tmp/ccnEk0wq.s:311    .text:00000000000000d8 .L0 
     /tmp/ccnEk0wq.s:312    .text:00000000000000dc .L0 
     /tmp/ccnEk0wq.s:314    .text:00000000000000e0 .L0 
     /tmp/ccnEk0wq.s:316    .text:00000000000000e4 .L0 
     /tmp/ccnEk0wq.s:321    .text:00000000000000e4 .L0 
     /tmp/ccnEk0wq.s:322    .text:00000000000000e4 .L0 
     /tmp/ccnEk0wq.s:323    .text:00000000000000e4 .L0 
     /tmp/ccnEk0wq.s:333    .text:00000000000000ec .L0 
   src/syscall_c.cpp:55     .text:00000000000000ec .L0 
     /tmp/ccnEk0wq.s:342    .text:00000000000000f0 .L0 
     /tmp/ccnEk0wq.s:343    .text:00000000000000f0 .L0 
     /tmp/ccnEk0wq.s:344    .text:00000000000000f0 .L0 
GAS LISTING /tmp/ccnEk0wq.s 			page 26


  src/../h/riscv.hpp:228    .text:00000000000000f0 .L0 
     /tmp/ccnEk0wq.s:352    .text:00000000000000f8 .L0 
     /tmp/ccnEk0wq.s:353    .text:00000000000000f8 .L0 
     /tmp/ccnEk0wq.s:357    .text:00000000000000fc .L0 
     /tmp/ccnEk0wq.s:359    .text:0000000000000100 .L0 
     /tmp/ccnEk0wq.s:360    .text:0000000000000100 .L0 
     /tmp/ccnEk0wq.s:362    .text:0000000000000104 .L0 
     /tmp/ccnEk0wq.s:364    .text:000000000000010c .L0 
     /tmp/ccnEk0wq.s:365    .text:000000000000010c .L0 
     /tmp/ccnEk0wq.s:367    .text:0000000000000110 .L0 
     /tmp/ccnEk0wq.s:369    .text:0000000000000114 .L0 
     /tmp/ccnEk0wq.s:375    .text:0000000000000114 _Z15thread_dispatchv
     /tmp/ccnEk0wq.s:378    .text:0000000000000114 .L0 
     /tmp/ccnEk0wq.s:379    .text:0000000000000114 .L0 
     /tmp/ccnEk0wq.s:380    .text:0000000000000118 .L0 
     /tmp/ccnEk0wq.s:382    .text:000000000000011c .L0 
     /tmp/ccnEk0wq.s:384    .text:0000000000000120 .L0 
     /tmp/ccnEk0wq.s:389    .text:0000000000000120 .L0 
     /tmp/ccnEk0wq.s:390    .text:0000000000000120 .L0 
     /tmp/ccnEk0wq.s:391    .text:0000000000000120 .L0 
     /tmp/ccnEk0wq.s:401    .text:0000000000000128 .L0 
   src/syscall_c.cpp:62     .text:0000000000000128 .L0 
     /tmp/ccnEk0wq.s:408    .text:000000000000012c .L0 
     /tmp/ccnEk0wq.s:409    .text:0000000000000130 .L0 
     /tmp/ccnEk0wq.s:410    .text:0000000000000130 .L0 
     /tmp/ccnEk0wq.s:412    .text:0000000000000134 .L0 
     /tmp/ccnEk0wq.s:414    .text:0000000000000138 .L0 
     /tmp/ccnEk0wq.s:420    .text:0000000000000138 _Z11thread_joinP7_thread
     /tmp/ccnEk0wq.s:423    .text:0000000000000138 .L0 
     /tmp/ccnEk0wq.s:425    .text:0000000000000138 .L0 
     /tmp/ccnEk0wq.s:426    .text:000000000000013c .L0 
     /tmp/ccnEk0wq.s:428    .text:0000000000000140 .L0 
     /tmp/ccnEk0wq.s:430    .text:0000000000000144 .L0 
     /tmp/ccnEk0wq.s:435    .text:0000000000000144 .L0 
     /tmp/ccnEk0wq.s:436    .text:0000000000000144 .L0 
  src/../h/riscv.hpp:243    .text:0000000000000144 .L0 
     /tmp/ccnEk0wq.s:448    .text:0000000000000148 .L0 
     /tmp/ccnEk0wq.s:449    .text:0000000000000148 .L0 
     /tmp/ccnEk0wq.s:450    .text:0000000000000148 .L0 
     /tmp/ccnEk0wq.s:460    .text:0000000000000150 .L0 
   src/syscall_c.cpp:69     .text:0000000000000150 .L0 
     /tmp/ccnEk0wq.s:467    .text:0000000000000154 .L0 
     /tmp/ccnEk0wq.s:468    .text:0000000000000158 .L0 
     /tmp/ccnEk0wq.s:469    .text:0000000000000158 .L0 
     /tmp/ccnEk0wq.s:471    .text:000000000000015c .L0 
     /tmp/ccnEk0wq.s:473    .text:0000000000000160 .L0 
     /tmp/ccnEk0wq.s:479    .text:0000000000000160 _Z8sem_openPP4_semj
     /tmp/ccnEk0wq.s:482    .text:0000000000000160 .L0 
     /tmp/ccnEk0wq.s:484    .text:0000000000000160 .L0 
     /tmp/ccnEk0wq.s:485    .text:0000000000000164 .L0 
     /tmp/ccnEk0wq.s:487    .text:0000000000000168 .L0 
     /tmp/ccnEk0wq.s:489    .text:000000000000016c .L0 
     /tmp/ccnEk0wq.s:491    .text:000000000000016c .L0 
     /tmp/ccnEk0wq.s:492    .text:000000000000016c .L0 
     /tmp/ccnEk0wq.s:499    .text:0000000000000174 .L0 
  src/../h/riscv.hpp:253    .text:0000000000000174 .L0 
     /tmp/ccnEk0wq.s:511    .text:0000000000000178 .L0 
GAS LISTING /tmp/ccnEk0wq.s 			page 27


     /tmp/ccnEk0wq.s:512    .text:0000000000000178 .L0 
  src/../h/riscv.hpp:243    .text:0000000000000178 .L0 
     /tmp/ccnEk0wq.s:524    .text:000000000000017c .L0 
     /tmp/ccnEk0wq.s:525    .text:000000000000017c .L0 
     /tmp/ccnEk0wq.s:526    .text:000000000000017c .L0 
     /tmp/ccnEk0wq.s:536    .text:0000000000000184 .L0 
   src/syscall_c.cpp:78     .text:0000000000000184 .L0 
     /tmp/ccnEk0wq.s:542    .text:0000000000000188 .L0 
     /tmp/ccnEk0wq.s:543    .text:0000000000000188 .L0 
   src/syscall_c.cpp:81     .text:0000000000000188 .L0 
     /tmp/ccnEk0wq.s:550    .text:0000000000000190 .L0 
     /tmp/ccnEk0wq.s:551    .text:0000000000000190 .L0 
     /tmp/ccnEk0wq.s:554    .text:0000000000000194 .L0 
     /tmp/ccnEk0wq.s:556    .text:000000000000019c .L0 
     /tmp/ccnEk0wq.s:557    .text:000000000000019c .L0 
     /tmp/ccnEk0wq.s:559    .text:00000000000001a0 .L0 
     /tmp/ccnEk0wq.s:561    .text:00000000000001a4 .L0 
     /tmp/ccnEk0wq.s:567    .text:00000000000001a4 _Z9sem_closeP4_sem
     /tmp/ccnEk0wq.s:570    .text:00000000000001a4 .L0 
     /tmp/ccnEk0wq.s:572    .text:00000000000001a4 .L0 
     /tmp/ccnEk0wq.s:573    .text:00000000000001a8 .L0 
     /tmp/ccnEk0wq.s:575    .text:00000000000001ac .L0 
     /tmp/ccnEk0wq.s:577    .text:00000000000001b0 .L0 
     /tmp/ccnEk0wq.s:582    .text:00000000000001b0 .L0 
     /tmp/ccnEk0wq.s:583    .text:00000000000001b0 .L0 
  src/../h/riscv.hpp:243    .text:00000000000001b0 .L0 
     /tmp/ccnEk0wq.s:595    .text:00000000000001b4 .L0 
     /tmp/ccnEk0wq.s:596    .text:00000000000001b4 .L0 
     /tmp/ccnEk0wq.s:597    .text:00000000000001b4 .L0 
     /tmp/ccnEk0wq.s:607    .text:00000000000001bc .L0 
   src/syscall_c.cpp:89     .text:00000000000001bc .L0 
     /tmp/ccnEk0wq.s:613    .text:00000000000001c0 .L0 
     /tmp/ccnEk0wq.s:614    .text:00000000000001c0 .L0 
   src/syscall_c.cpp:92     .text:00000000000001c0 .L0 
     /tmp/ccnEk0wq.s:621    .text:00000000000001c8 .L0 
     /tmp/ccnEk0wq.s:622    .text:00000000000001c8 .L0 
     /tmp/ccnEk0wq.s:625    .text:00000000000001cc .L0 
     /tmp/ccnEk0wq.s:627    .text:00000000000001d4 .L0 
     /tmp/ccnEk0wq.s:628    .text:00000000000001d4 .L0 
     /tmp/ccnEk0wq.s:630    .text:00000000000001d8 .L0 
     /tmp/ccnEk0wq.s:632    .text:00000000000001dc .L0 
     /tmp/ccnEk0wq.s:638    .text:00000000000001dc _Z8sem_waitP4_sem
     /tmp/ccnEk0wq.s:641    .text:00000000000001dc .L0 
     /tmp/ccnEk0wq.s:643    .text:00000000000001dc .L0 
     /tmp/ccnEk0wq.s:644    .text:00000000000001e0 .L0 
     /tmp/ccnEk0wq.s:646    .text:00000000000001e4 .L0 
     /tmp/ccnEk0wq.s:648    .text:00000000000001e8 .L0 
     /tmp/ccnEk0wq.s:653    .text:00000000000001e8 .L0 
     /tmp/ccnEk0wq.s:654    .text:00000000000001e8 .L0 
  src/../h/riscv.hpp:243    .text:00000000000001e8 .L0 
     /tmp/ccnEk0wq.s:666    .text:00000000000001ec .L0 
     /tmp/ccnEk0wq.s:667    .text:00000000000001ec .L0 
     /tmp/ccnEk0wq.s:668    .text:00000000000001ec .L0 
     /tmp/ccnEk0wq.s:678    .text:00000000000001f4 .L0 
   src/syscall_c.cpp:100    .text:00000000000001f4 .L0 
     /tmp/ccnEk0wq.s:684    .text:00000000000001f8 .L0 
     /tmp/ccnEk0wq.s:685    .text:00000000000001f8 .L0 
GAS LISTING /tmp/ccnEk0wq.s 			page 28


   src/syscall_c.cpp:103    .text:00000000000001f8 .L0 
     /tmp/ccnEk0wq.s:692    .text:0000000000000200 .L0 
     /tmp/ccnEk0wq.s:693    .text:0000000000000200 .L0 
     /tmp/ccnEk0wq.s:696    .text:0000000000000204 .L0 
     /tmp/ccnEk0wq.s:698    .text:000000000000020c .L0 
     /tmp/ccnEk0wq.s:699    .text:000000000000020c .L0 
     /tmp/ccnEk0wq.s:701    .text:0000000000000210 .L0 
     /tmp/ccnEk0wq.s:703    .text:0000000000000214 .L0 
     /tmp/ccnEk0wq.s:709    .text:0000000000000214 _Z10sem_signalP4_sem
     /tmp/ccnEk0wq.s:712    .text:0000000000000214 .L0 
     /tmp/ccnEk0wq.s:714    .text:0000000000000214 .L0 
     /tmp/ccnEk0wq.s:715    .text:0000000000000218 .L0 
     /tmp/ccnEk0wq.s:717    .text:000000000000021c .L0 
     /tmp/ccnEk0wq.s:719    .text:0000000000000220 .L0 
     /tmp/ccnEk0wq.s:724    .text:0000000000000220 .L0 
     /tmp/ccnEk0wq.s:725    .text:0000000000000220 .L0 
  src/../h/riscv.hpp:243    .text:0000000000000220 .L0 
     /tmp/ccnEk0wq.s:737    .text:0000000000000224 .L0 
     /tmp/ccnEk0wq.s:738    .text:0000000000000224 .L0 
     /tmp/ccnEk0wq.s:739    .text:0000000000000224 .L0 
     /tmp/ccnEk0wq.s:749    .text:000000000000022c .L0 
   src/syscall_c.cpp:111    .text:000000000000022c .L0 
     /tmp/ccnEk0wq.s:755    .text:0000000000000230 .L0 
     /tmp/ccnEk0wq.s:756    .text:0000000000000230 .L0 
   src/syscall_c.cpp:114    .text:0000000000000230 .L0 
     /tmp/ccnEk0wq.s:763    .text:0000000000000238 .L0 
     /tmp/ccnEk0wq.s:764    .text:0000000000000238 .L0 
     /tmp/ccnEk0wq.s:767    .text:000000000000023c .L0 
     /tmp/ccnEk0wq.s:769    .text:0000000000000244 .L0 
     /tmp/ccnEk0wq.s:770    .text:0000000000000244 .L0 
     /tmp/ccnEk0wq.s:772    .text:0000000000000248 .L0 
     /tmp/ccnEk0wq.s:774    .text:000000000000024c .L0 
     /tmp/ccnEk0wq.s:780    .text:000000000000024c _Z4getcv
     /tmp/ccnEk0wq.s:783    .text:000000000000024c .L0 
     /tmp/ccnEk0wq.s:784    .text:000000000000024c .L0 
     /tmp/ccnEk0wq.s:785    .text:0000000000000250 .L0 
     /tmp/ccnEk0wq.s:787    .text:0000000000000254 .L0 
     /tmp/ccnEk0wq.s:789    .text:0000000000000258 .L0 
     /tmp/ccnEk0wq.s:794    .text:0000000000000258 .L0 
     /tmp/ccnEk0wq.s:795    .text:0000000000000258 .L0 
     /tmp/ccnEk0wq.s:796    .text:0000000000000258 .L0 
     /tmp/ccnEk0wq.s:806    .text:0000000000000260 .L0 
   src/syscall_c.cpp:121    .text:0000000000000260 .L0 
     /tmp/ccnEk0wq.s:812    .text:0000000000000264 .L0 
     /tmp/ccnEk0wq.s:813    .text:0000000000000264 .L0 
   src/syscall_c.cpp:124    .text:0000000000000264 .L0 
     /tmp/ccnEk0wq.s:820    .text:000000000000026c .L0 
     /tmp/ccnEk0wq.s:821    .text:000000000000026c .L0 
     /tmp/ccnEk0wq.s:823    .text:0000000000000270 .L0 
     /tmp/ccnEk0wq.s:825    .text:0000000000000278 .L0 
     /tmp/ccnEk0wq.s:826    .text:0000000000000278 .L0 
     /tmp/ccnEk0wq.s:828    .text:000000000000027c .L0 
     /tmp/ccnEk0wq.s:830    .text:0000000000000280 .L0 
     /tmp/ccnEk0wq.s:836    .text:0000000000000280 _Z4putcc
     /tmp/ccnEk0wq.s:839    .text:0000000000000280 .L0 
     /tmp/ccnEk0wq.s:841    .text:0000000000000280 .L0 
     /tmp/ccnEk0wq.s:842    .text:0000000000000284 .L0 
GAS LISTING /tmp/ccnEk0wq.s 			page 29


     /tmp/ccnEk0wq.s:845    .text:000000000000028c .L0 
     /tmp/ccnEk0wq.s:846    .text:000000000000028c .L0 
     /tmp/ccnEk0wq.s:848    .text:0000000000000290 .L0 
     /tmp/ccnEk0wq.s:850    .text:0000000000000290 .L0 
     /tmp/ccnEk0wq.s:851    .text:0000000000000290 .L0 
     /tmp/ccnEk0wq.s:854    .text:0000000000000298 .L0 
     /tmp/ccnEk0wq.s:855    .text:000000000000029c .L0 
     /tmp/ccnEk0wq.s:857    .text:00000000000002a0 .L0 
     /tmp/ccnEk0wq.s:858    .text:00000000000002a0 .L0 
     /tmp/ccnEk0wq.s:860    .text:00000000000002a4 .L0 
     /tmp/ccnEk0wq.s:862    .text:00000000000002a8 .L0 
     /tmp/ccnEk0wq.s:872    .text:00000000000002a8 .L0 
     /tmp/ccnEk0wq.s:2577   .debug_abbrev:0000000000000000 .Ldebug_abbrev0
     /tmp/ccnEk0wq.s:4133   .debug_str:000000000000080c .LASF181
     /tmp/ccnEk0wq.s:3997   .debug_str:00000000000004a2 .LASF182
     /tmp/ccnEk0wq.s:4141   .debug_str:00000000000008f8 .LASF183
     /tmp/ccnEk0wq.s:5      .text:0000000000000000 .Ltext0
     /tmp/ccnEk0wq.s:865    .text:00000000000002a8 .Letext0
     /tmp/ccnEk0wq.s:3829   .debug_line:0000000000000000 .Ldebug_line0
     /tmp/ccnEk0wq.s:3931   .debug_str:00000000000002d2 .LASF0
     /tmp/ccnEk0wq.s:3973   .debug_str:000000000000041c .LASF1
     /tmp/ccnEk0wq.s:4065   .debug_str:0000000000000683 .LASF2
     /tmp/ccnEk0wq.s:4075   .debug_str:00000000000006c9 .LASF4
     /tmp/ccnEk0wq.s:3943   .debug_str:000000000000031d .LASF3
     /tmp/ccnEk0wq.s:3835   .debug_str:0000000000000018 .LASF5
     /tmp/ccnEk0wq.s:4037   .debug_str:00000000000005b2 .LASF6
     /tmp/ccnEk0wq.s:3959   .debug_str:00000000000003a8 .LASF7
     /tmp/ccnEk0wq.s:3905   .debug_str:0000000000000209 .LASF8
     /tmp/ccnEk0wq.s:3913   .debug_str:000000000000024c .LASF9
     /tmp/ccnEk0wq.s:3859   .debug_str:00000000000000b4 .LASF10
     /tmp/ccnEk0wq.s:3899   .debug_str:00000000000001d2 .LASF11
     /tmp/ccnEk0wq.s:3867   .debug_str:00000000000000f9 .LASF12
     /tmp/ccnEk0wq.s:3857   .debug_str:00000000000000a4 .LASF13
     /tmp/ccnEk0wq.s:4109   .debug_str:00000000000007ad .LASF14
     /tmp/ccnEk0wq.s:3893   .debug_str:0000000000000191 .LASF15
     /tmp/ccnEk0wq.s:4095   .debug_str:0000000000000735 .LASF16
     /tmp/ccnEk0wq.s:4211   .debug_str:0000000000000b0d .LASF34
     /tmp/ccnEk0wq.s:4155   .debug_str:000000000000095b .LASF184
     /tmp/ccnEk0wq.s:4101   .debug_str:000000000000076e .LASF17
     /tmp/ccnEk0wq.s:4013   .debug_str:000000000000050c .LASF18
     /tmp/ccnEk0wq.s:4005   .debug_str:00000000000004e5 .LASF19
     /tmp/ccnEk0wq.s:4159   .debug_str:0000000000000968 .LASF21
     /tmp/ccnEk0wq.s:4051   .debug_str:000000000000061e .LASF26
     /tmp/ccnEk0wq.s:4067   .debug_str:0000000000000691 .LASF150
     /tmp/ccnEk0wq.s:3919   .debug_str:0000000000000273 .LASF152
     /tmp/ccnEk0wq.s:3967   .debug_str:0000000000000400 .LASF20
     /tmp/ccnEk0wq.s:4203   .debug_str:0000000000000ac3 .LASF22
     /tmp/ccnEk0wq.s:3983   .debug_str:000000000000045f .LASF23
     /tmp/ccnEk0wq.s:4165   .debug_str:000000000000099c .LASF24
     /tmp/ccnEk0wq.s:4031   .debug_str:0000000000000588 .LASF25
     /tmp/ccnEk0wq.s:3961   .debug_str:00000000000003bb .LASF27
     /tmp/ccnEk0wq.s:4213   .debug_str:0000000000000b1b .LASF28
     /tmp/ccnEk0wq.s:4191   .debug_str:0000000000000a6a .LASF29
     /tmp/ccnEk0wq.s:4083   .debug_str:00000000000006f8 .LASF30
     /tmp/ccnEk0wq.s:3901   .debug_str:00000000000001e1 .LASF31
     /tmp/ccnEk0wq.s:4055   .debug_str:000000000000064d .LASF32
     /tmp/ccnEk0wq.s:3863   .debug_str:00000000000000d6 .LASF33
GAS LISTING /tmp/ccnEk0wq.s 			page 30


     /tmp/ccnEk0wq.s:3843   .debug_str:0000000000000045 .LASF35
     /tmp/ccnEk0wq.s:4119   .debug_str:00000000000007d7 .LASF185
     /tmp/ccnEk0wq.s:4127   .debug_str:00000000000007f4 .LASF186
     /tmp/ccnEk0wq.s:3853   .debug_str:000000000000008b .LASF36
     /tmp/ccnEk0wq.s:4085   .debug_str:0000000000000703 .LASF37
     /tmp/ccnEk0wq.s:4135   .debug_str:00000000000008d0 .LASF38
     /tmp/ccnEk0wq.s:3849   .debug_str:0000000000000071 .LASF39
     /tmp/ccnEk0wq.s:4113   .debug_str:00000000000007c2 .LASF40
     /tmp/ccnEk0wq.s:3965   .debug_str:00000000000003f0 .LASF41
     /tmp/ccnEk0wq.s:4121   .debug_str:00000000000007df .LASF42
     /tmp/ccnEk0wq.s:4103   .debug_str:0000000000000773 .LASF43
     /tmp/ccnEk0wq.s:4071   .debug_str:00000000000006b3 .LASF44
     /tmp/ccnEk0wq.s:4023   .debug_str:000000000000054d .LASF45
     /tmp/ccnEk0wq.s:3877   .debug_str:0000000000000147 .LASF58
     /tmp/ccnEk0wq.s:3871   .debug_str:0000000000000117 .LASF60
     /tmp/ccnEk0wq.s:4091   .debug_str:0000000000000729 .LASF66
     /tmp/ccnEk0wq.s:3833   .debug_str:0000000000000005 .LASF68
     /tmp/ccnEk0wq.s:3955   .debug_str:000000000000037d .LASF46
     /tmp/ccnEk0wq.s:4025   .debug_str:000000000000056d .LASF187
     /tmp/ccnEk0wq.s:4197   .debug_str:0000000000000aab .LASF47
     /tmp/ccnEk0wq.s:4043   .debug_str:00000000000005d7 .LASF48
     /tmp/ccnEk0wq.s:4131   .debug_str:0000000000000804 .LASF188
     /tmp/ccnEk0wq.s:3939   .debug_str:0000000000000306 .LASF49
     /tmp/ccnEk0wq.s:3953   .debug_str:000000000000036a .LASF50
     /tmp/ccnEk0wq.s:3869   .debug_str:0000000000000109 .LASF189
     /tmp/ccnEk0wq.s:3945   .debug_str:000000000000032f .LASF190
     /tmp/ccnEk0wq.s:4157   .debug_str:0000000000000960 .LASF124
     /tmp/ccnEk0wq.s:4171   .debug_str:00000000000009cc .LASF126
     /tmp/ccnEk0wq.s:3831   .debug_str:0000000000000000 .LASF51
     /tmp/ccnEk0wq.s:4201   .debug_str:0000000000000abd .LASF52
     /tmp/ccnEk0wq.s:4117   .debug_str:00000000000007d2 .LASF53
     /tmp/ccnEk0wq.s:4145   .debug_str:0000000000000920 .LASF54
     /tmp/ccnEk0wq.s:3883   .debug_str:000000000000016e .LASF55
     /tmp/ccnEk0wq.s:3989   .debug_str:000000000000047f .LASF56
     /tmp/ccnEk0wq.s:4169   .debug_str:00000000000009c6 .LASF57
     /tmp/ccnEk0wq.s:3921   .debug_str:000000000000028e .LASF59
     /tmp/ccnEk0wq.s:3929   .debug_str:00000000000002ba .LASF61
     /tmp/ccnEk0wq.s:4081   .debug_str:00000000000006ea .LASF62
     /tmp/ccnEk0wq.s:3897   .debug_str:00000000000001b7 .LASF63
     /tmp/ccnEk0wq.s:3933   .debug_str:00000000000002df .LASF64
     /tmp/ccnEk0wq.s:4181   .debug_str:0000000000000a16 .LASF65
     /tmp/ccnEk0wq.s:4153   .debug_str:0000000000000952 .LASF67
     /tmp/ccnEk0wq.s:4147   .debug_str:0000000000000928 .LASF69
     /tmp/ccnEk0wq.s:4061   .debug_str:000000000000066f .LASF72
     /tmp/ccnEk0wq.s:4021   .debug_str:0000000000000538 .LASF74
     /tmp/ccnEk0wq.s:4045   .debug_str:00000000000005eb .LASF70
     /tmp/ccnEk0wq.s:4049   .debug_str:000000000000060b .LASF71
     /tmp/ccnEk0wq.s:4015   .debug_str:0000000000000511 .LASF73
     /tmp/ccnEk0wq.s:3963   .debug_str:00000000000003dd .LASF75
     /tmp/ccnEk0wq.s:4183   .debug_str:0000000000000a30 .LASF76
     /tmp/ccnEk0wq.s:4137   .debug_str:00000000000008da .LASF77
     /tmp/ccnEk0wq.s:4011   .debug_str:0000000000000504 .LASF78
     /tmp/ccnEk0wq.s:4019   .debug_str:0000000000000524 .LASF79
     /tmp/ccnEk0wq.s:3977   .debug_str:0000000000000439 .LASF80
     /tmp/ccnEk0wq.s:4053   .debug_str:0000000000000639 .LASF81
     /tmp/ccnEk0wq.s:4209   .debug_str:0000000000000b05 .LASF82
     /tmp/ccnEk0wq.s:3937   .debug_str:00000000000002f2 .LASF83
GAS LISTING /tmp/ccnEk0wq.s 			page 31


     /tmp/ccnEk0wq.s:3873   .debug_str:000000000000012e .LASF84
     /tmp/ccnEk0wq.s:4077   .debug_str:00000000000006d0 .LASF85
     /tmp/ccnEk0wq.s:4079   .debug_str:00000000000006e3 .LASF86
     /tmp/ccnEk0wq.s:3861   .debug_str:00000000000000c3 .LASF87
     /tmp/ccnEk0wq.s:3885   .debug_str:0000000000000174 .LASF88
     /tmp/ccnEk0wq.s:3925   .debug_str:000000000000029f .LASF89
     /tmp/ccnEk0wq.s:3935   .debug_str:00000000000002ec .LASF90
     /tmp/ccnEk0wq.s:3875   .debug_str:0000000000000135 .LASF91
     /tmp/ccnEk0wq.s:3837   .debug_str:000000000000001f .LASF92
     /tmp/ccnEk0wq.s:4069   .debug_str:000000000000069b .LASF93
     /tmp/ccnEk0wq.s:4063   .debug_str:0000000000000678 .LASF94
     /tmp/ccnEk0wq.s:4205   .debug_str:0000000000000ae4 .LASF95
     /tmp/ccnEk0wq.s:4129   .debug_str:00000000000007fa .LASF96
     /tmp/ccnEk0wq.s:4187   .debug_str:0000000000000a3f .LASF97
     /tmp/ccnEk0wq.s:4167   .debug_str:00000000000009bc .LASF98
     /tmp/ccnEk0wq.s:3999   .debug_str:00000000000004b4 .LASF99
     /tmp/ccnEk0wq.s:4093   .debug_str:000000000000072e .LASF100
     /tmp/ccnEk0wq.s:3979   .debug_str:0000000000000441 .LASF101
     /tmp/ccnEk0wq.s:3903   .debug_str:0000000000000202 .LASF102
     /tmp/ccnEk0wq.s:3855   .debug_str:0000000000000091 .LASF103
     /tmp/ccnEk0wq.s:4149   .debug_str:000000000000093d .LASF104
     /tmp/ccnEk0wq.s:3911   .debug_str:0000000000000230 .LASF105
     /tmp/ccnEk0wq.s:4173   .debug_str:00000000000009e2 .LASF106
     /tmp/ccnEk0wq.s:4027   .debug_str:0000000000000572 .LASF107
     /tmp/ccnEk0wq.s:3947   .debug_str:000000000000035b .LASF108
     /tmp/ccnEk0wq.s:4105   .debug_str:000000000000078e .LASF109
     /tmp/ccnEk0wq.s:4175   .debug_str:00000000000009e7 .LASF110
     /tmp/ccnEk0wq.s:3985   .debug_str:0000000000000467 .LASF111
     /tmp/ccnEk0wq.s:3949   .debug_str:0000000000000360 .LASF112
     /tmp/ccnEk0wq.s:4033   .debug_str:0000000000000594 .LASF113
     /tmp/ccnEk0wq.s:4177   .debug_str:00000000000009ec .LASF114
     /tmp/ccnEk0wq.s:3851   .debug_str:000000000000007a .LASF115
     /tmp/ccnEk0wq.s:3951   .debug_str:0000000000000365 .LASF116
     /tmp/ccnEk0wq.s:3957   .debug_str:0000000000000397 .LASF117
     /tmp/ccnEk0wq.s:4029   .debug_str:0000000000000583 .LASF118
     /tmp/ccnEk0wq.s:3909   .debug_str:000000000000021f .LASF119
     /tmp/ccnEk0wq.s:4143   .debug_str:000000000000091b .LASF120
     /tmp/ccnEk0wq.s:4003   .debug_str:00000000000004d4 .LASF121
     /tmp/ccnEk0wq.s:3889   .debug_str:0000000000000183 .LASF122
     /tmp/ccnEk0wq.s:4193   .debug_str:0000000000000a89 .LASF123
     /tmp/ccnEk0wq.s:4199   .debug_str:0000000000000ab1 .LASF125
     /tmp/ccnEk0wq.s:4047   .debug_str:00000000000005f2 .LASF127
     /tmp/ccnEk0wq.s:3887   .debug_str:000000000000017a .LASF128
     /tmp/ccnEk0wq.s:4123   .debug_str:00000000000007ea .LASF129
     /tmp/ccnEk0wq.s:3923   .debug_str:0000000000000299 .LASF130
     /tmp/ccnEk0wq.s:4009   .debug_str:00000000000004fa .LASF131
     /tmp/ccnEk0wq.s:4151   .debug_str:000000000000094c .LASF132
     /tmp/ccnEk0wq.s:4073   .debug_str:00000000000006bc .LASF133
     /tmp/ccnEk0wq.s:4039   .debug_str:00000000000005c5 .LASF134
     /tmp/ccnEk0wq.s:3891   .debug_str:000000000000018b .LASF135
     /tmp/ccnEk0wq.s:3993   .debug_str:0000000000000490 .LASF136
     /tmp/ccnEk0wq.s:3879   .debug_str:0000000000000150 .LASF137
     /tmp/ccnEk0wq.s:4007   .debug_str:00000000000004ea .LASF138
     /tmp/ccnEk0wq.s:4115   .debug_str:00000000000007cb .LASF139
     /tmp/ccnEk0wq.s:4099   .debug_str:000000000000075c .LASF140
     /tmp/ccnEk0wq.s:3841   .debug_str:000000000000003f .LASF141
     /tmp/ccnEk0wq.s:3845   .debug_str:000000000000004d .LASF142
GAS LISTING /tmp/ccnEk0wq.s 			page 32


     /tmp/ccnEk0wq.s:4139   .debug_str:00000000000008ee .LASF143
     /tmp/ccnEk0wq.s:4189   .debug_str:0000000000000a55 .LASF144
     /tmp/ccnEk0wq.s:4207   .debug_str:0000000000000afc .LASF145
     /tmp/ccnEk0wq.s:3907   .debug_str:0000000000000219 .LASF146
     /tmp/ccnEk0wq.s:3995   .debug_str:000000000000049d .LASF147
     /tmp/ccnEk0wq.s:4111   .debug_str:00000000000007b9 .LASF148
     /tmp/ccnEk0wq.s:837    .text:0000000000000280 .LFB60
     /tmp/ccnEk0wq.s:863    .text:00000000000002a8 .LFE60
     /tmp/ccnEk0wq.s:3487   .debug_loc:0000000000000000 .LLST32
     /tmp/ccnEk0wq.s:852    .text:0000000000000298 .LVL53
     /tmp/ccnEk0wq.s:4125   .debug_str:00000000000007ef .LASF149
     /tmp/ccnEk0wq.s:3865   .debug_str:00000000000000f4 .LASF151
     /tmp/ccnEk0wq.s:4161   .debug_str:000000000000097f .LASF153
     /tmp/ccnEk0wq.s:781    .text:000000000000024c .LFB59
     /tmp/ccnEk0wq.s:831    .text:0000000000000280 .LFE59
     /tmp/ccnEk0wq.s:792    .text:0000000000000258 .LBB100
     /tmp/ccnEk0wq.s:804    .text:0000000000000260 .LBE100
     /tmp/ccnEk0wq.s:3501   .debug_loc:0000000000000039 .LLST31
     /tmp/ccnEk0wq.s:3917   .debug_str:0000000000000268 .LASF154
     /tmp/ccnEk0wq.s:4089   .debug_str:0000000000000714 .LASF155
     /tmp/ccnEk0wq.s:710    .text:0000000000000214 .LFB58
     /tmp/ccnEk0wq.s:775    .text:000000000000024c .LFE58
     /tmp/ccnEk0wq.s:3510   .debug_loc:000000000000005e .LLST28
     /tmp/ccnEk0wq.s:722    .text:0000000000000220 .LBB96
     /tmp/ccnEk0wq.s:733    .text:0000000000000224 .LBE96
     /tmp/ccnEk0wq.s:3524   .debug_loc:0000000000000097 .LLST29
     /tmp/ccnEk0wq.s:735    .text:0000000000000224 .LBB98
     /tmp/ccnEk0wq.s:747    .text:000000000000022c .LBE98
     /tmp/ccnEk0wq.s:3531   .debug_loc:00000000000000ba .LLST30
     /tmp/ccnEk0wq.s:4087   .debug_str:000000000000070b .LASF156
     /tmp/ccnEk0wq.s:3941   .debug_str:000000000000030b .LASF157
     /tmp/ccnEk0wq.s:639    .text:00000000000001dc .LFB57
     /tmp/ccnEk0wq.s:704    .text:0000000000000214 .LFE57
     /tmp/ccnEk0wq.s:3540   .debug_loc:00000000000000df .LLST25
     /tmp/ccnEk0wq.s:651    .text:00000000000001e8 .LBB92
     /tmp/ccnEk0wq.s:662    .text:00000000000001ec .LBE92
     /tmp/ccnEk0wq.s:3554   .debug_loc:0000000000000118 .LLST26
     /tmp/ccnEk0wq.s:664    .text:00000000000001ec .LBB94
     /tmp/ccnEk0wq.s:676    .text:00000000000001f4 .LBE94
     /tmp/ccnEk0wq.s:3561   .debug_loc:000000000000013b .LLST27
     /tmp/ccnEk0wq.s:3975   .debug_str:000000000000042f .LASF158
     /tmp/ccnEk0wq.s:3847   .debug_str:000000000000005e .LASF159
     /tmp/ccnEk0wq.s:568    .text:00000000000001a4 .LFB56
     /tmp/ccnEk0wq.s:633    .text:00000000000001dc .LFE56
     /tmp/ccnEk0wq.s:4185   .debug_str:0000000000000a38 .LASF160
     /tmp/ccnEk0wq.s:3570   .debug_loc:0000000000000160 .LLST22
     /tmp/ccnEk0wq.s:580    .text:00000000000001b0 .LBB88
     /tmp/ccnEk0wq.s:591    .text:00000000000001b4 .LBE88
     /tmp/ccnEk0wq.s:3584   .debug_loc:0000000000000199 .LLST23
     /tmp/ccnEk0wq.s:593    .text:00000000000001b4 .LBB90
     /tmp/ccnEk0wq.s:605    .text:00000000000001bc .LBE90
     /tmp/ccnEk0wq.s:3591   .debug_loc:00000000000001bc .LLST24
     /tmp/ccnEk0wq.s:4059   .debug_str:0000000000000666 .LASF161
     /tmp/ccnEk0wq.s:4163   .debug_str:0000000000000988 .LASF162
     /tmp/ccnEk0wq.s:480    .text:0000000000000160 .LFB55
     /tmp/ccnEk0wq.s:562    .text:00000000000001a4 .LFE55
     /tmp/ccnEk0wq.s:3600   .debug_loc:00000000000001e1 .LLST17
GAS LISTING /tmp/ccnEk0wq.s 			page 33


     /tmp/ccnEk0wq.s:4041   .debug_str:00000000000005d2 .LASF163
     /tmp/ccnEk0wq.s:3614   .debug_loc:000000000000021a .LLST18
     /tmp/ccnEk0wq.s:496    .text:0000000000000174 .LBB82
     /tmp/ccnEk0wq.s:507    .text:0000000000000178 .LBE82
     /tmp/ccnEk0wq.s:3628   .debug_loc:0000000000000253 .LLST19
     /tmp/ccnEk0wq.s:509    .text:0000000000000178 .LBB84
     /tmp/ccnEk0wq.s:520    .text:000000000000017c .LBE84
     /tmp/ccnEk0wq.s:3635   .debug_loc:0000000000000276 .LLST20
     /tmp/ccnEk0wq.s:522    .text:000000000000017c .LBB86
     /tmp/ccnEk0wq.s:534    .text:0000000000000184 .LBE86
     /tmp/ccnEk0wq.s:3642   .debug_loc:0000000000000299 .LLST21
     /tmp/ccnEk0wq.s:4017   .debug_str:0000000000000518 .LASF164
     /tmp/ccnEk0wq.s:3881   .debug_str:0000000000000155 .LASF165
     /tmp/ccnEk0wq.s:421    .text:0000000000000138 .LFB54
     /tmp/ccnEk0wq.s:474    .text:0000000000000160 .LFE54
     /tmp/ccnEk0wq.s:433    .text:0000000000000144 .LBB78
     /tmp/ccnEk0wq.s:444    .text:0000000000000148 .LBE78
     /tmp/ccnEk0wq.s:3651   .debug_loc:00000000000002be .LLST15
     /tmp/ccnEk0wq.s:446    .text:0000000000000148 .LBB80
     /tmp/ccnEk0wq.s:458    .text:0000000000000150 .LBE80
     /tmp/ccnEk0wq.s:3658   .debug_loc:00000000000002e1 .LLST16
     /tmp/ccnEk0wq.s:4057   .debug_str:0000000000000656 .LASF166
     /tmp/ccnEk0wq.s:3839   .debug_str:000000000000002a .LASF167
     /tmp/ccnEk0wq.s:376    .text:0000000000000114 .LFB53
     /tmp/ccnEk0wq.s:415    .text:0000000000000138 .LFE53
     /tmp/ccnEk0wq.s:387    .text:0000000000000120 .LBB76
     /tmp/ccnEk0wq.s:399    .text:0000000000000128 .LBE76
     /tmp/ccnEk0wq.s:3666   .debug_loc:0000000000000305 .LLST14
     /tmp/ccnEk0wq.s:3991   .debug_str:0000000000000484 .LASF168
     /tmp/ccnEk0wq.s:4097   .debug_str:000000000000074b .LASF169
     /tmp/ccnEk0wq.s:308    .text:00000000000000d8 .LFB52
     /tmp/ccnEk0wq.s:370    .text:0000000000000114 .LFE52
     /tmp/ccnEk0wq.s:319    .text:00000000000000e4 .LBB72
     /tmp/ccnEk0wq.s:331    .text:00000000000000ec .LBE72
     /tmp/ccnEk0wq.s:3674   .debug_loc:0000000000000329 .LLST13
     /tmp/ccnEk0wq.s:340    .text:00000000000000f0 .LBB74
     /tmp/ccnEk0wq.s:355    .text:00000000000000fc .LBE74
     /tmp/ccnEk0wq.s:4107   .debug_str:000000000000079f .LASF170
     /tmp/ccnEk0wq.s:4179   .debug_str:00000000000009f1 .LASF171
     /tmp/ccnEk0wq.s:204    .text:0000000000000098 .LFB51
     /tmp/ccnEk0wq.s:302    .text:00000000000000d8 .LFE51
     /tmp/ccnEk0wq.s:3682   .debug_loc:000000000000034d .LLST8
     /tmp/ccnEk0wq.s:3969   .debug_str:0000000000000409 .LASF172
     /tmp/ccnEk0wq.s:216    .text:00000000000000a4 .LBB62
     /tmp/ccnEk0wq.s:227    .text:00000000000000a8 .LBE62
     /tmp/ccnEk0wq.s:3696   .debug_loc:0000000000000386 .LLST9
     /tmp/ccnEk0wq.s:229    .text:00000000000000a8 .LBB64
     /tmp/ccnEk0wq.s:240    .text:00000000000000ac .LBE64
     /tmp/ccnEk0wq.s:3703   .debug_loc:00000000000003a9 .LLST10
     /tmp/ccnEk0wq.s:242    .text:00000000000000ac .LBB66
     /tmp/ccnEk0wq.s:253    .text:00000000000000b0 .LBE66
     /tmp/ccnEk0wq.s:3710   .debug_loc:00000000000003cc .LLST11
     /tmp/ccnEk0wq.s:255    .text:00000000000000b0 .LBB68
     /tmp/ccnEk0wq.s:267    .text:00000000000000b8 .LBE68
     /tmp/ccnEk0wq.s:3717   .debug_loc:00000000000003ef .LLST12
     /tmp/ccnEk0wq.s:276    .text:00000000000000bc .LBB70
     /tmp/ccnEk0wq.s:292    .text:00000000000000c8 .LBE70
GAS LISTING /tmp/ccnEk0wq.s 			page 34


     /tmp/ccnEk0wq.s:3981   .debug_str:0000000000000454 .LASF173
     /tmp/ccnEk0wq.s:3895   .debug_str:00000000000001a7 .LASF174
     /tmp/ccnEk0wq.s:159    .text:0000000000000074 .LFB50
     /tmp/ccnEk0wq.s:198    .text:0000000000000098 .LFE50
     /tmp/ccnEk0wq.s:170    .text:0000000000000080 .LBB60
     /tmp/ccnEk0wq.s:182    .text:0000000000000088 .LBE60
     /tmp/ccnEk0wq.s:3725   .debug_loc:0000000000000413 .LLST7
     /tmp/ccnEk0wq.s:3927   .debug_str:00000000000002b1 .LASF175
     /tmp/ccnEk0wq.s:4195   .debug_str:0000000000000a9d .LASF176
     /tmp/ccnEk0wq.s:88     .text:000000000000003c .LFB49
     /tmp/ccnEk0wq.s:153    .text:0000000000000074 .LFE49
     /tmp/ccnEk0wq.s:3734   .debug_loc:0000000000000438 .LLST4
     /tmp/ccnEk0wq.s:100    .text:0000000000000048 .LBB56
     /tmp/ccnEk0wq.s:111    .text:000000000000004c .LBE56
     /tmp/ccnEk0wq.s:3748   .debug_loc:0000000000000471 .LLST5
     /tmp/ccnEk0wq.s:113    .text:000000000000004c .LBB58
     /tmp/ccnEk0wq.s:125    .text:0000000000000054 .LBE58
     /tmp/ccnEk0wq.s:3755   .debug_loc:0000000000000494 .LLST6
     /tmp/ccnEk0wq.s:4001   .debug_str:00000000000004ca .LASF177
     /tmp/ccnEk0wq.s:3915   .debug_str:000000000000025a .LASF178
     /tmp/ccnEk0wq.s:10     .text:0000000000000000 .LFB48
     /tmp/ccnEk0wq.s:82     .text:000000000000003c .LFE48
     /tmp/ccnEk0wq.s:3971   .debug_str:0000000000000417 .LASF179
     /tmp/ccnEk0wq.s:3763   .debug_loc:00000000000004b8 .LLST0
     /tmp/ccnEk0wq.s:4035   .debug_str:00000000000005a5 .LASF180
     /tmp/ccnEk0wq.s:3783   .debug_loc:0000000000000507 .LLST1
     /tmp/ccnEk0wq.s:29     .text:0000000000000014 .LBB52
     /tmp/ccnEk0wq.s:41     .text:0000000000000018 .LBE52
     /tmp/ccnEk0wq.s:3801   .debug_loc:0000000000000544 .LLST2
     /tmp/ccnEk0wq.s:43     .text:0000000000000018 .LBB54
     /tmp/ccnEk0wq.s:55     .text:0000000000000020 .LBE54
     /tmp/ccnEk0wq.s:3808   .debug_loc:0000000000000567 .LLST3
     /tmp/ccnEk0wq.s:3987   .debug_str:0000000000000478 .LASF191
     /tmp/ccnEk0wq.s:840    .text:0000000000000280 .LVL52
     /tmp/ccnEk0wq.s:791    .text:0000000000000258 .LVL50
     /tmp/ccnEk0wq.s:801    .text:0000000000000260 .LVL51
     /tmp/ccnEk0wq.s:713    .text:0000000000000214 .LVL45
     /tmp/ccnEk0wq.s:765    .text:000000000000023c .LVL49
     /tmp/ccnEk0wq.s:721    .text:0000000000000220 .LVL46
     /tmp/ccnEk0wq.s:730    .text:0000000000000224 .LVL47
     /tmp/ccnEk0wq.s:744    .text:000000000000022c .LVL48
     /tmp/ccnEk0wq.s:642    .text:00000000000001dc .LVL40
     /tmp/ccnEk0wq.s:694    .text:0000000000000204 .LVL44
     /tmp/ccnEk0wq.s:650    .text:00000000000001e8 .LVL41
     /tmp/ccnEk0wq.s:659    .text:00000000000001ec .LVL42
     /tmp/ccnEk0wq.s:673    .text:00000000000001f4 .LVL43
     /tmp/ccnEk0wq.s:571    .text:00000000000001a4 .LVL35
     /tmp/ccnEk0wq.s:623    .text:00000000000001cc .LVL39
     /tmp/ccnEk0wq.s:579    .text:00000000000001b0 .LVL36
     /tmp/ccnEk0wq.s:588    .text:00000000000001b4 .LVL37
     /tmp/ccnEk0wq.s:602    .text:00000000000001bc .LVL38
     /tmp/ccnEk0wq.s:483    .text:0000000000000160 .LVL28
     /tmp/ccnEk0wq.s:552    .text:0000000000000194 .LVL34
     /tmp/ccnEk0wq.s:493    .text:0000000000000170 .LVL29
     /tmp/ccnEk0wq.s:495    .text:0000000000000174 .LVL30
     /tmp/ccnEk0wq.s:504    .text:0000000000000178 .LVL31
     /tmp/ccnEk0wq.s:517    .text:000000000000017c .LVL32
GAS LISTING /tmp/ccnEk0wq.s 			page 35


     /tmp/ccnEk0wq.s:531    .text:0000000000000184 .LVL33
     /tmp/ccnEk0wq.s:432    .text:0000000000000144 .LVL25
     /tmp/ccnEk0wq.s:441    .text:0000000000000148 .LVL26
     /tmp/ccnEk0wq.s:455    .text:0000000000000150 .LVL27
     /tmp/ccnEk0wq.s:386    .text:0000000000000120 .LVL22
     /tmp/ccnEk0wq.s:396    .text:0000000000000128 .LVL23
     /tmp/ccnEk0wq.s:318    .text:00000000000000e4 .LVL20
     /tmp/ccnEk0wq.s:328    .text:00000000000000ec .LVL21
     /tmp/ccnEk0wq.s:207    .text:0000000000000098 .LVL13
     /tmp/ccnEk0wq.s:290    .text:00000000000000c8 .LVL19
     /tmp/ccnEk0wq.s:215    .text:00000000000000a4 .LVL14
     /tmp/ccnEk0wq.s:224    .text:00000000000000a8 .LVL15
     /tmp/ccnEk0wq.s:237    .text:00000000000000ac .LVL16
     /tmp/ccnEk0wq.s:250    .text:00000000000000b0 .LVL17
     /tmp/ccnEk0wq.s:264    .text:00000000000000b8 .LVL18
     /tmp/ccnEk0wq.s:169    .text:0000000000000080 .LVL11
     /tmp/ccnEk0wq.s:179    .text:0000000000000088 .LVL12
     /tmp/ccnEk0wq.s:91     .text:000000000000003c .LVL6
     /tmp/ccnEk0wq.s:143    .text:0000000000000064 .LVL10
     /tmp/ccnEk0wq.s:99     .text:0000000000000048 .LVL7
     /tmp/ccnEk0wq.s:108    .text:000000000000004c .LVL8
     /tmp/ccnEk0wq.s:122    .text:0000000000000054 .LVL9
     /tmp/ccnEk0wq.s:14     .text:0000000000000000 .LVL0
     /tmp/ccnEk0wq.s:24     .text:0000000000000010 .LVL1
     /tmp/ccnEk0wq.s:27     .text:0000000000000014 .LVL2
     /tmp/ccnEk0wq.s:73     .text:0000000000000030 .LVL5
     /tmp/ccnEk0wq.s:38     .text:0000000000000018 .LVL3
     /tmp/ccnEk0wq.s:52     .text:0000000000000020 .LVL4
     /tmp/ccnEk0wq.s:873    .debug_info:0000000000000000 .Ldebug_info0

UNDEFINED SYMBOLS
__putc
