GAS LISTING /tmp/ccz6bSbf.s 			page 1


   1              		.file	"syscall_cpp.cpp"
   2              		.option pic
   3              		.option norelax
   4              		.text
   5              	.Ltext0:
   6              		.section	.text._ZN6Thread3runEv,"axG",@progbits,_ZN6Thread3runEv,comdat
   7              		.align	2
   8              		.weak	_ZN6Thread3runEv
  10              	_ZN6Thread3runEv:
  11              	.LFB51:
  12              		.file 1 "src/../h/syscall_cpp.hpp"
   1:src/../h/syscall_cpp.hpp **** #ifndef PROJECT_BASE_V1_1_SYSCALL_CPP_HPP
   2:src/../h/syscall_cpp.hpp **** #define PROJECT_BASE_V1_1_SYSCALL_CPP_HPP
   3:src/../h/syscall_cpp.hpp **** 
   4:src/../h/syscall_cpp.hpp **** #include "syscall_c.hpp"
   5:src/../h/syscall_cpp.hpp **** 
   6:src/../h/syscall_cpp.hpp **** void *operator new(size_t size);
   7:src/../h/syscall_cpp.hpp **** 
   8:src/../h/syscall_cpp.hpp **** void *operator new[](size_t size);
   9:src/../h/syscall_cpp.hpp **** 
  10:src/../h/syscall_cpp.hpp **** void operator delete(void *ptr);
  11:src/../h/syscall_cpp.hpp **** 
  12:src/../h/syscall_cpp.hpp **** void operator delete[](void *ptr);
  13:src/../h/syscall_cpp.hpp **** 
  14:src/../h/syscall_cpp.hpp **** void switchToUserMode();
  15:src/../h/syscall_cpp.hpp **** 
  16:src/../h/syscall_cpp.hpp **** class Thread {
  17:src/../h/syscall_cpp.hpp **** public:
  18:src/../h/syscall_cpp.hpp ****     Thread(void (*body)(void *), void *arg);
  19:src/../h/syscall_cpp.hpp **** 
  20:src/../h/syscall_cpp.hpp ****     virtual ~Thread();
  21:src/../h/syscall_cpp.hpp **** 
  22:src/../h/syscall_cpp.hpp ****     int start();
  23:src/../h/syscall_cpp.hpp **** 
  24:src/../h/syscall_cpp.hpp ****     void join();
  25:src/../h/syscall_cpp.hpp **** 
  26:src/../h/syscall_cpp.hpp ****     static void dispatch();
  27:src/../h/syscall_cpp.hpp **** 
  28:src/../h/syscall_cpp.hpp **** 
  29:src/../h/syscall_cpp.hpp **** protected:
  30:src/../h/syscall_cpp.hpp ****     Thread();
  31:src/../h/syscall_cpp.hpp **** 
  32:src/../h/syscall_cpp.hpp ****     virtual void run() {}
  13              		.loc 1 32 18
  14              		.cfi_startproc
  15              	.LVL0:
  16 0000 130101FF 		addi	sp,sp,-16
  17              		.cfi_def_cfa_offset 16
  18 0004 23348100 		sd	s0,8(sp)
  19              		.cfi_offset 8, -8
  20 0008 13040101 		addi	s0,sp,16
  21              		.cfi_def_cfa 8, 0
  22              		.loc 1 32 25 is_stmt 0
  23 000c 03348100 		ld	s0,8(sp)
  24              		.cfi_restore 8
  25              		.cfi_def_cfa 2, 16
  26 0010 13010101 		addi	sp,sp,16
GAS LISTING /tmp/ccz6bSbf.s 			page 2


  27              		.cfi_def_cfa_offset 0
  28 0014 67800000 		jr	ra
  29              		.cfi_endproc
  30              	.LFE51:
  32              		.text
  33              		.align	2
  34              		.globl	_ZN6Thread13threadWrapperEPv
  36              	_ZN6Thread13threadWrapperEPv:
  37              	.LFB63:
  38              		.file 2 "src/syscall_cpp.cpp"
   1:src/syscall_cpp.cpp **** //
   2:src/syscall_cpp.cpp **** // Created by os on 2/2/23.
   3:src/syscall_cpp.cpp **** //
   4:src/syscall_cpp.cpp **** 
   5:src/syscall_cpp.cpp **** #include "../h/syscall_cpp.hpp"
   6:src/syscall_cpp.cpp **** 
   7:src/syscall_cpp.cpp **** void* operator new(size_t size) {
   8:src/syscall_cpp.cpp ****     return mem_alloc(size);
   9:src/syscall_cpp.cpp **** }
  10:src/syscall_cpp.cpp **** 
  11:src/syscall_cpp.cpp **** void* operator new[](size_t size) {
  12:src/syscall_cpp.cpp ****     return mem_alloc(size);
  13:src/syscall_cpp.cpp **** }
  14:src/syscall_cpp.cpp **** 
  15:src/syscall_cpp.cpp **** void operator delete(void *ptr) { mem_free(ptr); }
  16:src/syscall_cpp.cpp **** 
  17:src/syscall_cpp.cpp **** void operator delete[](void *ptr) { mem_free(ptr); }
  18:src/syscall_cpp.cpp **** 
  19:src/syscall_cpp.cpp **** void switchToUserMode(){ toUserMode();}
  20:src/syscall_cpp.cpp **** 
  21:src/syscall_cpp.cpp **** Thread::Thread(void (*body)(void*), void* arg) {
  22:src/syscall_cpp.cpp ****     thread_create(&myHandle, body, arg);
  23:src/syscall_cpp.cpp ****     Scheduler::remove();
  24:src/syscall_cpp.cpp **** }
  25:src/syscall_cpp.cpp **** 
  26:src/syscall_cpp.cpp **** Thread::Thread() : Thread(threadWrapper, this){}
  27:src/syscall_cpp.cpp **** 
  28:src/syscall_cpp.cpp **** void Thread::threadWrapper(void *t) {
  39              		.loc 2 28 37 is_stmt 1
  40              		.cfi_startproc
  41              	.LVL1:
  42 0000 130101FF 		addi	sp,sp,-16
  43              		.cfi_def_cfa_offset 16
  44 0004 23341100 		sd	ra,8(sp)
  45 0008 23308100 		sd	s0,0(sp)
  46              		.cfi_offset 1, -8
  47              		.cfi_offset 8, -16
  48 000c 13040101 		addi	s0,sp,16
  49              		.cfi_def_cfa 8, 0
  29:src/syscall_cpp.cpp ****     ((Thread*)t)->run();
  50              		.loc 2 29 5
  51              		.loc 2 29 23 is_stmt 0
  52 0010 83370500 		ld	a5,0(a0)
  53 0014 83B70701 		ld	a5,16(a5)
  54              		.loc 2 29 22
  55 0018 E7800700 		jalr	a5
  56              	.LVL2:
GAS LISTING /tmp/ccz6bSbf.s 			page 3


  30:src/syscall_cpp.cpp **** }
  57              		.loc 2 30 1
  58 001c 83308100 		ld	ra,8(sp)
  59              		.cfi_restore 1
  60 0020 03340100 		ld	s0,0(sp)
  61              		.cfi_restore 8
  62              		.cfi_def_cfa 2, 16
  63 0024 13010101 		addi	sp,sp,16
  64              		.cfi_def_cfa_offset 0
  65 0028 67800000 		jr	ra
  66              		.cfi_endproc
  67              	.LFE63:
  69              		.align	2
  70              		.globl	_Znwm
  72              	_Znwm:
  73              	.LFB52:
   7:src/syscall_cpp.cpp ****     return mem_alloc(size);
  74              		.loc 2 7 33 is_stmt 1
  75              		.cfi_startproc
  76              	.LVL3:
  77 002c 130101FF 		addi	sp,sp,-16
  78              		.cfi_def_cfa_offset 16
  79 0030 23341100 		sd	ra,8(sp)
  80 0034 23308100 		sd	s0,0(sp)
  81              		.cfi_offset 1, -8
  82              		.cfi_offset 8, -16
  83 0038 13040101 		addi	s0,sp,16
  84              		.cfi_def_cfa 8, 0
   8:src/syscall_cpp.cpp **** }
  85              		.loc 2 8 5
   8:src/syscall_cpp.cpp **** }
  86              		.loc 2 8 21 is_stmt 0
  87 003c 97000000 		call	_Z9mem_allocm@plt
  87      E7800000 
  88              	.LVL4:
   9:src/syscall_cpp.cpp **** 
  89              		.loc 2 9 1
  90 0044 83308100 		ld	ra,8(sp)
  91              		.cfi_restore 1
  92 0048 03340100 		ld	s0,0(sp)
  93              		.cfi_restore 8
  94              		.cfi_def_cfa 2, 16
  95 004c 13010101 		addi	sp,sp,16
  96              		.cfi_def_cfa_offset 0
  97 0050 67800000 		jr	ra
  98              		.cfi_endproc
  99              	.LFE52:
 101              		.align	2
 102              		.globl	_Znam
 104              	_Znam:
 105              	.LFB53:
  11:src/syscall_cpp.cpp ****     return mem_alloc(size);
 106              		.loc 2 11 35 is_stmt 1
 107              		.cfi_startproc
 108              	.LVL5:
 109 0054 130101FF 		addi	sp,sp,-16
 110              		.cfi_def_cfa_offset 16
GAS LISTING /tmp/ccz6bSbf.s 			page 4


 111 0058 23341100 		sd	ra,8(sp)
 112 005c 23308100 		sd	s0,0(sp)
 113              		.cfi_offset 1, -8
 114              		.cfi_offset 8, -16
 115 0060 13040101 		addi	s0,sp,16
 116              		.cfi_def_cfa 8, 0
  12:src/syscall_cpp.cpp **** }
 117              		.loc 2 12 5
  12:src/syscall_cpp.cpp **** }
 118              		.loc 2 12 21 is_stmt 0
 119 0064 97000000 		call	_Z9mem_allocm@plt
 119      E7800000 
 120              	.LVL6:
  13:src/syscall_cpp.cpp **** 
 121              		.loc 2 13 1
 122 006c 83308100 		ld	ra,8(sp)
 123              		.cfi_restore 1
 124 0070 03340100 		ld	s0,0(sp)
 125              		.cfi_restore 8
 126              		.cfi_def_cfa 2, 16
 127 0074 13010101 		addi	sp,sp,16
 128              		.cfi_def_cfa_offset 0
 129 0078 67800000 		jr	ra
 130              		.cfi_endproc
 131              	.LFE53:
 133              		.align	2
 134              		.globl	_ZdlPv
 136              	_ZdlPv:
 137              	.LFB54:
  15:src/syscall_cpp.cpp **** 
 138              		.loc 2 15 33 is_stmt 1
 139              		.cfi_startproc
 140              	.LVL7:
 141 007c 130101FF 		addi	sp,sp,-16
 142              		.cfi_def_cfa_offset 16
 143 0080 23341100 		sd	ra,8(sp)
 144 0084 23308100 		sd	s0,0(sp)
 145              		.cfi_offset 1, -8
 146              		.cfi_offset 8, -16
 147 0088 13040101 		addi	s0,sp,16
 148              		.cfi_def_cfa 8, 0
  15:src/syscall_cpp.cpp **** 
 149              		.loc 2 15 35
  15:src/syscall_cpp.cpp **** 
 150              		.loc 2 15 43 is_stmt 0
 151 008c 97000000 		call	_Z8mem_freePv@plt
 151      E7800000 
 152              	.LVL8:
  15:src/syscall_cpp.cpp **** 
 153              		.loc 2 15 50
 154 0094 83308100 		ld	ra,8(sp)
 155              		.cfi_restore 1
 156 0098 03340100 		ld	s0,0(sp)
 157              		.cfi_restore 8
 158              		.cfi_def_cfa 2, 16
 159 009c 13010101 		addi	sp,sp,16
 160              		.cfi_def_cfa_offset 0
GAS LISTING /tmp/ccz6bSbf.s 			page 5


 161 00a0 67800000 		jr	ra
 162              		.cfi_endproc
 163              	.LFE54:
 165              		.align	2
 166              		.globl	_ZdaPv
 168              	_ZdaPv:
 169              	.LFB55:
  17:src/syscall_cpp.cpp **** 
 170              		.loc 2 17 35 is_stmt 1
 171              		.cfi_startproc
 172              	.LVL9:
 173 00a4 130101FF 		addi	sp,sp,-16
 174              		.cfi_def_cfa_offset 16
 175 00a8 23341100 		sd	ra,8(sp)
 176 00ac 23308100 		sd	s0,0(sp)
 177              		.cfi_offset 1, -8
 178              		.cfi_offset 8, -16
 179 00b0 13040101 		addi	s0,sp,16
 180              		.cfi_def_cfa 8, 0
  17:src/syscall_cpp.cpp **** 
 181              		.loc 2 17 37
  17:src/syscall_cpp.cpp **** 
 182              		.loc 2 17 45 is_stmt 0
 183 00b4 97000000 		call	_Z8mem_freePv@plt
 183      E7800000 
 184              	.LVL10:
  17:src/syscall_cpp.cpp **** 
 185              		.loc 2 17 52
 186 00bc 83308100 		ld	ra,8(sp)
 187              		.cfi_restore 1
 188 00c0 03340100 		ld	s0,0(sp)
 189              		.cfi_restore 8
 190              		.cfi_def_cfa 2, 16
 191 00c4 13010101 		addi	sp,sp,16
 192              		.cfi_def_cfa_offset 0
 193 00c8 67800000 		jr	ra
 194              		.cfi_endproc
 195              	.LFE55:
 197              		.align	2
 198              		.globl	_ZN6ThreadD2Ev
 200              	_ZN6ThreadD2Ev:
 201              	.LFB68:
  31:src/syscall_cpp.cpp **** 
  32:src/syscall_cpp.cpp **** int Thread::start() {
  33:src/syscall_cpp.cpp ****     Scheduler::put((PCB*)myHandle);
  34:src/syscall_cpp.cpp **** 
  35:src/syscall_cpp.cpp ****     return 0;
  36:src/syscall_cpp.cpp **** }
  37:src/syscall_cpp.cpp **** 
  38:src/syscall_cpp.cpp **** void Thread::join() {
  39:src/syscall_cpp.cpp ****     thread_join(myHandle);
  40:src/syscall_cpp.cpp **** }
  41:src/syscall_cpp.cpp **** 
  42:src/syscall_cpp.cpp **** void Thread::dispatch() {
  43:src/syscall_cpp.cpp ****     thread_dispatch();
  44:src/syscall_cpp.cpp **** }
  45:src/syscall_cpp.cpp **** 
GAS LISTING /tmp/ccz6bSbf.s 			page 6


  46:src/syscall_cpp.cpp **** Thread::~Thread() {
 202              		.loc 2 46 1 is_stmt 1
 203              		.cfi_startproc
 204              		.cfi_personality 0x9b,DW.ref.__gxx_personality_v0
 205              		.cfi_lsda 0x1b,.LLSDA68
 206              	.LVL11:
 207 00cc 130101FE 		addi	sp,sp,-32
 208              		.cfi_def_cfa_offset 32
 209 00d0 233C1100 		sd	ra,24(sp)
 210 00d4 23388100 		sd	s0,16(sp)
 211 00d8 23349100 		sd	s1,8(sp)
 212              		.cfi_offset 1, -8
 213              		.cfi_offset 8, -16
 214              		.cfi_offset 9, -24
 215 00dc 13040102 		addi	s0,sp,32
 216              		.cfi_def_cfa 8, 0
 217 00e0 93040500 		mv	s1,a0
 218              	.LBB6:
 219              		.loc 2 46 17 is_stmt 0
 220 00e4 97070000 		lla	a5,_ZTV6Thread+16
 220      93870700 
 221 00ec 2330F500 		sd	a5,0(a0)
  47:src/syscall_cpp.cpp ****     thread_exit();
 222              		.loc 2 47 5 is_stmt 1
 223              		.loc 2 47 16 is_stmt 0
 224 00f0 97000000 		call	_Z11thread_exitv@plt
 224      E7800000 
 225              	.LVL12:
  48:src/syscall_cpp.cpp ****     delete (PCB*)myHandle;
 226              		.loc 2 48 5 is_stmt 1
 227              		.loc 2 48 18 is_stmt 0
 228 00f8 83B48400 		ld	s1,8(s1)
 229              	.LVL13:
 230              		.loc 2 48 26
 231 00fc 63800402 		beqz	s1,.L13
 232              	.LVL14:
 233              	.LBB7:
 234              	.LBB8:
 235              		.file 3 "src/../h/PCB.hpp"
   1:src/../h/PCB.hpp **** #ifndef PROJECT_BASE_V1_1_PCB_HPP
   2:src/../h/PCB.hpp **** #define PROJECT_BASE_V1_1_PCB_HPP
   3:src/../h/PCB.hpp **** 
   4:src/../h/PCB.hpp **** 
   5:src/../h/PCB.hpp **** #include "Scheduler.hpp"
   6:src/../h/PCB.hpp **** #include "riscv.hpp"
   7:src/../h/PCB.hpp **** #include "../h/syscall_c.hpp"
   8:src/../h/PCB.hpp **** 
   9:src/../h/PCB.hpp **** class Sem;
  10:src/../h/PCB.hpp **** 
  11:src/../h/PCB.hpp **** class PCB {
  12:src/../h/PCB.hpp **** public:
  13:src/../h/PCB.hpp ****     struct Context {
  14:src/../h/PCB.hpp ****         uint64 ra;
  15:src/../h/PCB.hpp ****         uint64 sp;
  16:src/../h/PCB.hpp ****     };
  17:src/../h/PCB.hpp **** 
  18:src/../h/PCB.hpp ****     enum State {
GAS LISTING /tmp/ccz6bSbf.s 			page 7


  19:src/../h/PCB.hpp ****         READY,
  20:src/../h/PCB.hpp ****         RUNNING,
  21:src/../h/PCB.hpp ****         SUSPENDED,
  22:src/../h/PCB.hpp ****         FINISHED
  23:src/../h/PCB.hpp ****     };
  24:src/../h/PCB.hpp **** 
  25:src/../h/PCB.hpp ****     ~PCB() { delete[] stack; }
 236              		.loc 3 25 14 is_stmt 1
 237              		.loc 3 25 23 is_stmt 0
 238 0100 03B50401 		ld	a0,16(s1)
 239              		.loc 3 25 28
 240 0104 63060500 		beqz	a0,.L15
 241              		.loc 3 25 23
 242 0108 97000000 		call	_ZdaPv
 242      E7800000 
 243              	.LVL15:
 244              	.L15:
 245              	.LBE8:
 246              	.LBE7:
 247              		.loc 2 48 18
 248 0110 13850400 		mv	a0,s1
 249 0114 97000000 		call	_ZdlPv
 249      E7800000 
 250              	.LVL16:
 251              	.L13:
 252              	.LBE6:
  49:src/syscall_cpp.cpp **** }
 253              		.loc 2 49 1
 254 011c 83308101 		ld	ra,24(sp)
 255              		.cfi_restore 1
 256 0120 03340101 		ld	s0,16(sp)
 257              		.cfi_restore 8
 258              		.cfi_def_cfa 2, 32
 259 0124 83348100 		ld	s1,8(sp)
 260              		.cfi_restore 9
 261 0128 13010102 		addi	sp,sp,32
 262              		.cfi_def_cfa_offset 0
 263 012c 67800000 		jr	ra
 264              		.cfi_endproc
 265              	.LFE68:
 266              		.globl	__gxx_personality_v0
 267              		.section	.gcc_except_table,"a",@progbits
 268              	.LLSDA68:
 269 0000 FF       		.byte	0xff
 270 0001 FF       		.byte	0xff
 271 0002 03       		.byte	0x3
 272 0003 00       		.byte	0
 273              		.text
 275              		.globl	_ZN6ThreadD1Ev
 276              		.set	_ZN6ThreadD1Ev,_ZN6ThreadD2Ev
 277              		.align	2
 278              		.globl	_ZN6ThreadD0Ev
 280              	_ZN6ThreadD0Ev:
 281              	.LFB70:
  46:src/syscall_cpp.cpp ****     thread_exit();
 282              		.loc 2 46 1 is_stmt 1
 283              		.cfi_startproc
GAS LISTING /tmp/ccz6bSbf.s 			page 8


 284              	.LVL17:
 285 0130 130101FE 		addi	sp,sp,-32
 286              		.cfi_def_cfa_offset 32
 287 0134 233C1100 		sd	ra,24(sp)
 288 0138 23388100 		sd	s0,16(sp)
 289 013c 23349100 		sd	s1,8(sp)
 290              		.cfi_offset 1, -8
 291              		.cfi_offset 8, -16
 292              		.cfi_offset 9, -24
 293 0140 13040102 		addi	s0,sp,32
 294              		.cfi_def_cfa 8, 0
 295 0144 93040500 		mv	s1,a0
 296              		.loc 2 49 1 is_stmt 0
 297 0148 97000000 		call	_ZN6ThreadD1Ev
 297      E7800000 
 298              	.LVL18:
 299 0150 13850400 		mv	a0,s1
 300 0154 97000000 		call	_ZdlPv
 300      E7800000 
 301              	.LVL19:
 302 015c 83308101 		ld	ra,24(sp)
 303              		.cfi_restore 1
 304 0160 03340101 		ld	s0,16(sp)
 305              		.cfi_restore 8
 306              		.cfi_def_cfa 2, 32
 307 0164 83348100 		ld	s1,8(sp)
 308              		.cfi_restore 9
 309              	.LVL20:
 310 0168 13010102 		addi	sp,sp,32
 311              		.cfi_def_cfa_offset 0
 312 016c 67800000 		jr	ra
 313              		.cfi_endproc
 314              	.LFE70:
 316              		.align	2
 317              		.globl	_Z16switchToUserModev
 319              	_Z16switchToUserModev:
 320              	.LFB56:
  19:src/syscall_cpp.cpp **** 
 321              		.loc 2 19 24 is_stmt 1
 322              		.cfi_startproc
 323 0170 130101FF 		addi	sp,sp,-16
 324              		.cfi_def_cfa_offset 16
 325 0174 23341100 		sd	ra,8(sp)
 326 0178 23308100 		sd	s0,0(sp)
 327              		.cfi_offset 1, -8
 328              		.cfi_offset 8, -16
 329 017c 13040101 		addi	s0,sp,16
 330              		.cfi_def_cfa 8, 0
  19:src/syscall_cpp.cpp **** 
 331              		.loc 2 19 26
  19:src/syscall_cpp.cpp **** 
 332              		.loc 2 19 36 is_stmt 0
 333 0180 97000000 		call	_Z10toUserModev@plt
 333      E7800000 
 334              	.LVL21:
  19:src/syscall_cpp.cpp **** 
 335              		.loc 2 19 39
GAS LISTING /tmp/ccz6bSbf.s 			page 9


 336 0188 83308100 		ld	ra,8(sp)
 337              		.cfi_restore 1
 338 018c 03340100 		ld	s0,0(sp)
 339              		.cfi_restore 8
 340              		.cfi_def_cfa 2, 16
 341 0190 13010101 		addi	sp,sp,16
 342              		.cfi_def_cfa_offset 0
 343 0194 67800000 		jr	ra
 344              		.cfi_endproc
 345              	.LFE56:
 347              		.align	2
 348              		.globl	_ZN6ThreadC2EPFvPvES0_
 350              	_ZN6ThreadC2EPFvPvES0_:
 351              	.LFB58:
  21:src/syscall_cpp.cpp ****     thread_create(&myHandle, body, arg);
 352              		.loc 2 21 1 is_stmt 1
 353              		.cfi_startproc
 354              	.LVL22:
 355 0198 130101FF 		addi	sp,sp,-16
 356              		.cfi_def_cfa_offset 16
 357 019c 23341100 		sd	ra,8(sp)
 358 01a0 23308100 		sd	s0,0(sp)
 359              		.cfi_offset 1, -8
 360              		.cfi_offset 8, -16
 361 01a4 13040101 		addi	s0,sp,16
 362              		.cfi_def_cfa 8, 0
 363              	.LBB9:
  21:src/syscall_cpp.cpp ****     thread_create(&myHandle, body, arg);
 364              		.loc 2 21 46 is_stmt 0
 365 01a8 97070000 		lla	a5,_ZTV6Thread+16
 365      93870700 
 366 01b0 2330F500 		sd	a5,0(a0)
  22:src/syscall_cpp.cpp ****     Scheduler::remove();
 367              		.loc 2 22 5 is_stmt 1
  22:src/syscall_cpp.cpp ****     Scheduler::remove();
 368              		.loc 2 22 18 is_stmt 0
 369 01b4 13058500 		addi	a0,a0,8
 370              	.LVL23:
 371 01b8 97000000 		call	_Z13thread_createPP7_threadPFvPvES2_@plt
 371      E7800000 
 372              	.LVL24:
  23:src/syscall_cpp.cpp **** }
 373              		.loc 2 23 5 is_stmt 1
  23:src/syscall_cpp.cpp **** }
 374              		.loc 2 23 22 is_stmt 0
 375 01c0 97000000 		call	_ZN9Scheduler6removeEv@plt
 375      E7800000 
 376              	.LVL25:
 377              	.LBE9:
  24:src/syscall_cpp.cpp **** 
 378              		.loc 2 24 1
 379 01c8 83308100 		ld	ra,8(sp)
 380              		.cfi_restore 1
 381 01cc 03340100 		ld	s0,0(sp)
 382              		.cfi_restore 8
 383              		.cfi_def_cfa 2, 16
 384 01d0 13010101 		addi	sp,sp,16
GAS LISTING /tmp/ccz6bSbf.s 			page 10


 385              		.cfi_def_cfa_offset 0
 386 01d4 67800000 		jr	ra
 387              		.cfi_endproc
 388              	.LFE58:
 390              		.globl	_ZN6ThreadC1EPFvPvES0_
 391              		.set	_ZN6ThreadC1EPFvPvES0_,_ZN6ThreadC2EPFvPvES0_
 392              		.align	2
 393              		.globl	_ZN6ThreadC2Ev
 395              	_ZN6ThreadC2Ev:
 396              	.LFB61:
  26:src/syscall_cpp.cpp **** 
 397              		.loc 2 26 1 is_stmt 1
 398              		.cfi_startproc
 399              	.LVL26:
 400 01d8 130101FF 		addi	sp,sp,-16
 401              		.cfi_def_cfa_offset 16
 402 01dc 23341100 		sd	ra,8(sp)
 403 01e0 23308100 		sd	s0,0(sp)
 404              		.cfi_offset 1, -8
 405              		.cfi_offset 8, -16
 406 01e4 13040101 		addi	s0,sp,16
 407              		.cfi_def_cfa 8, 0
 408 01e8 13060500 		mv	a2,a0
 409              	.LBB10:
  26:src/syscall_cpp.cpp **** 
 410              		.loc 2 26 46 is_stmt 0
 411 01ec 97050000 		lla	a1,_ZN6Thread13threadWrapperEPv
 411      93850500 
 412 01f4 97000000 		call	_ZN6ThreadC1EPFvPvES0_
 412      E7800000 
 413              	.LVL27:
 414              	.LBE10:
  26:src/syscall_cpp.cpp **** 
 415              		.loc 2 26 48
 416 01fc 83308100 		ld	ra,8(sp)
 417              		.cfi_restore 1
 418 0200 03340100 		ld	s0,0(sp)
 419              		.cfi_restore 8
 420              		.cfi_def_cfa 2, 16
 421 0204 13010101 		addi	sp,sp,16
 422              		.cfi_def_cfa_offset 0
 423 0208 67800000 		jr	ra
 424              		.cfi_endproc
 425              	.LFE61:
 427              		.globl	_ZN6ThreadC1Ev
 428              		.set	_ZN6ThreadC1Ev,_ZN6ThreadC2Ev
 429              		.align	2
 430              		.globl	_ZN6Thread5startEv
 432              	_ZN6Thread5startEv:
 433              	.LFB64:
  32:src/syscall_cpp.cpp ****     Scheduler::put((PCB*)myHandle);
 434              		.loc 2 32 21 is_stmt 1
 435              		.cfi_startproc
 436              	.LVL28:
 437 020c 130101FF 		addi	sp,sp,-16
 438              		.cfi_def_cfa_offset 16
 439 0210 23341100 		sd	ra,8(sp)
GAS LISTING /tmp/ccz6bSbf.s 			page 11


 440 0214 23308100 		sd	s0,0(sp)
 441              		.cfi_offset 1, -8
 442              		.cfi_offset 8, -16
 443 0218 13040101 		addi	s0,sp,16
 444              		.cfi_def_cfa 8, 0
  33:src/syscall_cpp.cpp **** 
 445              		.loc 2 33 5
  33:src/syscall_cpp.cpp **** 
 446              		.loc 2 33 19 is_stmt 0
 447 021c 03358500 		ld	a0,8(a0)
 448              	.LVL29:
 449 0220 97000000 		call	_ZN9Scheduler3putEP3PCB@plt
 449      E7800000 
 450              	.LVL30:
  35:src/syscall_cpp.cpp **** }
 451              		.loc 2 35 5 is_stmt 1
  36:src/syscall_cpp.cpp **** 
 452              		.loc 2 36 1 is_stmt 0
 453 0228 13050000 		li	a0,0
 454 022c 83308100 		ld	ra,8(sp)
 455              		.cfi_restore 1
 456 0230 03340100 		ld	s0,0(sp)
 457              		.cfi_restore 8
 458              		.cfi_def_cfa 2, 16
 459 0234 13010101 		addi	sp,sp,16
 460              		.cfi_def_cfa_offset 0
 461 0238 67800000 		jr	ra
 462              		.cfi_endproc
 463              	.LFE64:
 465              		.align	2
 466              		.globl	_ZN6Thread4joinEv
 468              	_ZN6Thread4joinEv:
 469              	.LFB65:
  38:src/syscall_cpp.cpp ****     thread_join(myHandle);
 470              		.loc 2 38 21 is_stmt 1
 471              		.cfi_startproc
 472              	.LVL31:
 473 023c 130101FF 		addi	sp,sp,-16
 474              		.cfi_def_cfa_offset 16
 475 0240 23341100 		sd	ra,8(sp)
 476 0244 23308100 		sd	s0,0(sp)
 477              		.cfi_offset 1, -8
 478              		.cfi_offset 8, -16
 479 0248 13040101 		addi	s0,sp,16
 480              		.cfi_def_cfa 8, 0
  39:src/syscall_cpp.cpp **** }
 481              		.loc 2 39 5
  39:src/syscall_cpp.cpp **** }
 482              		.loc 2 39 16 is_stmt 0
 483 024c 03358500 		ld	a0,8(a0)
 484              	.LVL32:
 485 0250 97000000 		call	_Z11thread_joinP7_thread@plt
 485      E7800000 
 486              	.LVL33:
  40:src/syscall_cpp.cpp **** 
 487              		.loc 2 40 1
 488 0258 83308100 		ld	ra,8(sp)
GAS LISTING /tmp/ccz6bSbf.s 			page 12


 489              		.cfi_restore 1
 490 025c 03340100 		ld	s0,0(sp)
 491              		.cfi_restore 8
 492              		.cfi_def_cfa 2, 16
 493 0260 13010101 		addi	sp,sp,16
 494              		.cfi_def_cfa_offset 0
 495 0264 67800000 		jr	ra
 496              		.cfi_endproc
 497              	.LFE65:
 499              		.align	2
 500              		.globl	_ZN6Thread8dispatchEv
 502              	_ZN6Thread8dispatchEv:
 503              	.LFB66:
  42:src/syscall_cpp.cpp ****     thread_dispatch();
 504              		.loc 2 42 25 is_stmt 1
 505              		.cfi_startproc
 506 0268 130101FF 		addi	sp,sp,-16
 507              		.cfi_def_cfa_offset 16
 508 026c 23341100 		sd	ra,8(sp)
 509 0270 23308100 		sd	s0,0(sp)
 510              		.cfi_offset 1, -8
 511              		.cfi_offset 8, -16
 512 0274 13040101 		addi	s0,sp,16
 513              		.cfi_def_cfa 8, 0
  43:src/syscall_cpp.cpp **** }
 514              		.loc 2 43 5
  43:src/syscall_cpp.cpp **** }
 515              		.loc 2 43 20 is_stmt 0
 516 0278 97000000 		call	_Z15thread_dispatchv@plt
 516      E7800000 
 517              	.LVL34:
  44:src/syscall_cpp.cpp **** 
 518              		.loc 2 44 1
 519 0280 83308100 		ld	ra,8(sp)
 520              		.cfi_restore 1
 521 0284 03340100 		ld	s0,0(sp)
 522              		.cfi_restore 8
 523              		.cfi_def_cfa 2, 16
 524 0288 13010101 		addi	sp,sp,16
 525              		.cfi_def_cfa_offset 0
 526 028c 67800000 		jr	ra
 527              		.cfi_endproc
 528              	.LFE66:
 530              		.weak	_ZTV6Thread
 531              		.section	.data.rel.ro.local._ZTV6Thread,"awG",@progbits,_ZTV6Thread,comdat
 532              		.align	3
 535              	_ZTV6Thread:
 536 0000 00000000 		.dword	0
 536      00000000 
 537 0008 00000000 		.dword	0
 537      00000000 
 538 0010 00000000 		.dword	_ZN6ThreadD1Ev
 538      00000000 
 539 0018 00000000 		.dword	_ZN6ThreadD0Ev
 539      00000000 
 540 0020 00000000 		.dword	_ZN6Thread3runEv
 540      00000000 
GAS LISTING /tmp/ccz6bSbf.s 			page 13


 541              		.text
 542              	.Letext0:
 543              		.file 4 "src/../h/../h/../lib/hw.h"
 544              		.file 5 "src/../h/Scheduler.hpp"
 545              		.file 6 "src/../h/list.hpp"
 546              		.file 7 "src/../h/Sem.hpp"
 547              		.file 8 "src/../h/syscall_c.hpp"
 3591              		.align	3
 3594              	DW.ref.__gxx_personality_v0:
 3595 0000 00000000 		.dword	__gxx_personality_v0
 3595      00000000 
 3596              		.ident	"GCC: (Ubuntu 9.4.0-1ubuntu1~20.04) 9.4.0"
 3597              		.section	.note.GNU-stack,"",@progbits
GAS LISTING /tmp/ccz6bSbf.s 			page 14

