GAS LISTING /tmp/cchmtwv7.s 			page 1


   1              		.file	"syscall_cpp.cpp"
   2              		.option pic
   3              		.option norelax
   4              		.text
   5              	.Ltext0:
   6              		.section	.text._ZN6Thread3runEv,"axG",@progbits,_ZN6Thread3runEv,comdat
   7              		.align	2
   8              		.weak	_ZN6Thread3runEv
  10              	_ZN6Thread3runEv:
  11              	.LFB48:
  12              		.file 1 "src/../h/syscall_cpp.hpp"
   1:src/../h/syscall_cpp.hpp **** #ifndef PROJECT_BASE_V1_1_SYSCALL_CPP_HPP
   2:src/../h/syscall_cpp.hpp **** #define PROJECT_BASE_V1_1_SYSCALL_CPP_HPP
   3:src/../h/syscall_cpp.hpp **** 
   4:src/../h/syscall_cpp.hpp **** #include "syscall_c.hpp"
   5:src/../h/syscall_cpp.hpp **** 
   6:src/../h/syscall_cpp.hpp **** void *operator new(size_t size);
   7:src/../h/syscall_cpp.hpp **** 
   8:src/../h/syscall_cpp.hpp **** void *operator new[](size_t size);
   9:src/../h/syscall_cpp.hpp **** 
  10:src/../h/syscall_cpp.hpp **** void operator delete(void *ptr);
  11:src/../h/syscall_cpp.hpp **** 
  12:src/../h/syscall_cpp.hpp **** void operator delete[](void *ptr);
  13:src/../h/syscall_cpp.hpp **** 
  14:src/../h/syscall_cpp.hpp **** void switchToUserMode();
  15:src/../h/syscall_cpp.hpp **** 
  16:src/../h/syscall_cpp.hpp **** class Thread {
  17:src/../h/syscall_cpp.hpp **** public:
  18:src/../h/syscall_cpp.hpp ****     Thread(void (*body)(void *), void *arg);
  19:src/../h/syscall_cpp.hpp **** 
  20:src/../h/syscall_cpp.hpp ****     virtual ~Thread();
  21:src/../h/syscall_cpp.hpp **** 
  22:src/../h/syscall_cpp.hpp ****     int start();
  23:src/../h/syscall_cpp.hpp **** 
  24:src/../h/syscall_cpp.hpp ****     void join();
  25:src/../h/syscall_cpp.hpp **** 
  26:src/../h/syscall_cpp.hpp ****     static void dispatch();
  27:src/../h/syscall_cpp.hpp **** 
  28:src/../h/syscall_cpp.hpp **** 
  29:src/../h/syscall_cpp.hpp **** protected:
  30:src/../h/syscall_cpp.hpp ****     Thread();
  31:src/../h/syscall_cpp.hpp **** 
  32:src/../h/syscall_cpp.hpp ****     virtual void run() {}
  13              		.loc 1 32 18
  14              		.cfi_startproc
  15              	.LVL0:
  16 0000 130101FF 		addi	sp,sp,-16
  17              		.cfi_def_cfa_offset 16
  18 0004 23348100 		sd	s0,8(sp)
  19              		.cfi_offset 8, -8
  20 0008 13040101 		addi	s0,sp,16
  21              		.cfi_def_cfa 8, 0
  22              		.loc 1 32 25 is_stmt 0
  23 000c 03348100 		ld	s0,8(sp)
  24              		.cfi_restore 8
  25              		.cfi_def_cfa 2, 16
  26 0010 13010101 		addi	sp,sp,16
GAS LISTING /tmp/cchmtwv7.s 			page 2


  27              		.cfi_def_cfa_offset 0
  28 0014 67800000 		jr	ra
  29              		.cfi_endproc
  30              	.LFE48:
  32              		.text
  33              		.align	2
  34              		.globl	_Znwm
  36              	_Znwm:
  37              	.LFB49:
  38              		.file 2 "src/syscall_cpp.cpp"
   1:src/syscall_cpp.cpp **** //
   2:src/syscall_cpp.cpp **** // Created by os on 2/2/23.
   3:src/syscall_cpp.cpp **** //
   4:src/syscall_cpp.cpp **** 
   5:src/syscall_cpp.cpp **** #include "../h/syscall_cpp.hpp"
   6:src/syscall_cpp.cpp **** 
   7:src/syscall_cpp.cpp **** void* operator new(size_t size) {
  39              		.loc 2 7 33 is_stmt 1
  40              		.cfi_startproc
  41              	.LVL1:
  42 0000 130101FF 		addi	sp,sp,-16
  43              		.cfi_def_cfa_offset 16
  44 0004 23341100 		sd	ra,8(sp)
  45 0008 23308100 		sd	s0,0(sp)
  46              		.cfi_offset 1, -8
  47              		.cfi_offset 8, -16
  48 000c 13040101 		addi	s0,sp,16
  49              		.cfi_def_cfa 8, 0
   8:src/syscall_cpp.cpp ****     return mem_alloc(size);
  50              		.loc 2 8 5
  51              		.loc 2 8 21 is_stmt 0
  52 0010 97000000 		call	_Z9mem_allocm@plt
  52      E7800000 
  53              	.LVL2:
   9:src/syscall_cpp.cpp **** }
  54              		.loc 2 9 1
  55 0018 83308100 		ld	ra,8(sp)
  56              		.cfi_restore 1
  57 001c 03340100 		ld	s0,0(sp)
  58              		.cfi_restore 8
  59              		.cfi_def_cfa 2, 16
  60 0020 13010101 		addi	sp,sp,16
  61              		.cfi_def_cfa_offset 0
  62 0024 67800000 		jr	ra
  63              		.cfi_endproc
  64              	.LFE49:
  66              		.align	2
  67              		.globl	_Znam
  69              	_Znam:
  70              	.LFB50:
  10:src/syscall_cpp.cpp **** 
  11:src/syscall_cpp.cpp **** void* operator new[](size_t size) {
  71              		.loc 2 11 35 is_stmt 1
  72              		.cfi_startproc
  73              	.LVL3:
  74 0028 130101FF 		addi	sp,sp,-16
  75              		.cfi_def_cfa_offset 16
GAS LISTING /tmp/cchmtwv7.s 			page 3


  76 002c 23341100 		sd	ra,8(sp)
  77 0030 23308100 		sd	s0,0(sp)
  78              		.cfi_offset 1, -8
  79              		.cfi_offset 8, -16
  80 0034 13040101 		addi	s0,sp,16
  81              		.cfi_def_cfa 8, 0
  12:src/syscall_cpp.cpp ****     return mem_alloc(size);
  82              		.loc 2 12 5
  83              		.loc 2 12 21 is_stmt 0
  84 0038 97000000 		call	_Z9mem_allocm@plt
  84      E7800000 
  85              	.LVL4:
  13:src/syscall_cpp.cpp **** }
  86              		.loc 2 13 1
  87 0040 83308100 		ld	ra,8(sp)
  88              		.cfi_restore 1
  89 0044 03340100 		ld	s0,0(sp)
  90              		.cfi_restore 8
  91              		.cfi_def_cfa 2, 16
  92 0048 13010101 		addi	sp,sp,16
  93              		.cfi_def_cfa_offset 0
  94 004c 67800000 		jr	ra
  95              		.cfi_endproc
  96              	.LFE50:
  98              		.align	2
  99              		.globl	_ZdlPv
 101              	_ZdlPv:
 102              	.LFB51:
  14:src/syscall_cpp.cpp **** 
  15:src/syscall_cpp.cpp **** void operator delete(void *ptr) { mem_free(ptr); }
 103              		.loc 2 15 33 is_stmt 1
 104              		.cfi_startproc
 105              	.LVL5:
 106 0050 130101FF 		addi	sp,sp,-16
 107              		.cfi_def_cfa_offset 16
 108 0054 23341100 		sd	ra,8(sp)
 109 0058 23308100 		sd	s0,0(sp)
 110              		.cfi_offset 1, -8
 111              		.cfi_offset 8, -16
 112 005c 13040101 		addi	s0,sp,16
 113              		.cfi_def_cfa 8, 0
 114              		.loc 2 15 35
 115              		.loc 2 15 43 is_stmt 0
 116 0060 97000000 		call	_Z8mem_freePv@plt
 116      E7800000 
 117              	.LVL6:
 118              		.loc 2 15 50
 119 0068 83308100 		ld	ra,8(sp)
 120              		.cfi_restore 1
 121 006c 03340100 		ld	s0,0(sp)
 122              		.cfi_restore 8
 123              		.cfi_def_cfa 2, 16
 124 0070 13010101 		addi	sp,sp,16
 125              		.cfi_def_cfa_offset 0
 126 0074 67800000 		jr	ra
 127              		.cfi_endproc
 128              	.LFE51:
GAS LISTING /tmp/cchmtwv7.s 			page 4


 130              		.align	2
 131              		.globl	_ZdaPv
 133              	_ZdaPv:
 134              	.LFB52:
  16:src/syscall_cpp.cpp **** 
  17:src/syscall_cpp.cpp **** void operator delete[](void *ptr) { mem_free(ptr); }
 135              		.loc 2 17 35 is_stmt 1
 136              		.cfi_startproc
 137              	.LVL7:
 138 0078 130101FF 		addi	sp,sp,-16
 139              		.cfi_def_cfa_offset 16
 140 007c 23341100 		sd	ra,8(sp)
 141 0080 23308100 		sd	s0,0(sp)
 142              		.cfi_offset 1, -8
 143              		.cfi_offset 8, -16
 144 0084 13040101 		addi	s0,sp,16
 145              		.cfi_def_cfa 8, 0
 146              		.loc 2 17 37
 147              		.loc 2 17 45 is_stmt 0
 148 0088 97000000 		call	_Z8mem_freePv@plt
 148      E7800000 
 149              	.LVL8:
 150              		.loc 2 17 52
 151 0090 83308100 		ld	ra,8(sp)
 152              		.cfi_restore 1
 153 0094 03340100 		ld	s0,0(sp)
 154              		.cfi_restore 8
 155              		.cfi_def_cfa 2, 16
 156 0098 13010101 		addi	sp,sp,16
 157              		.cfi_def_cfa_offset 0
 158 009c 67800000 		jr	ra
 159              		.cfi_endproc
 160              	.LFE52:
 162              		.align	2
 163              		.globl	_ZN6ThreadD2Ev
 165              	_ZN6ThreadD2Ev:
 166              	.LFB64:
  18:src/syscall_cpp.cpp **** 
  19:src/syscall_cpp.cpp **** void switchToUserMode(){ toUserMode();}
  20:src/syscall_cpp.cpp **** 
  21:src/syscall_cpp.cpp **** Thread::Thread(void (*body)(void*), void* arg) {
  22:src/syscall_cpp.cpp ****     thread_create(&myHandle, body, arg);
  23:src/syscall_cpp.cpp ****     Scheduler::remove();
  24:src/syscall_cpp.cpp **** }
  25:src/syscall_cpp.cpp **** 
  26:src/syscall_cpp.cpp **** Thread::Thread() {
  27:src/syscall_cpp.cpp ****     new Thread(nullptr, nullptr);
  28:src/syscall_cpp.cpp **** }
  29:src/syscall_cpp.cpp **** 
  30:src/syscall_cpp.cpp **** int Thread::start() {
  31:src/syscall_cpp.cpp ****     Scheduler::put((PCB*)myHandle);
  32:src/syscall_cpp.cpp **** 
  33:src/syscall_cpp.cpp ****     return 0;
  34:src/syscall_cpp.cpp **** }
  35:src/syscall_cpp.cpp **** 
  36:src/syscall_cpp.cpp **** void Thread::join() {
  37:src/syscall_cpp.cpp ****     thread_join(myHandle);
GAS LISTING /tmp/cchmtwv7.s 			page 5


  38:src/syscall_cpp.cpp **** }
  39:src/syscall_cpp.cpp **** 
  40:src/syscall_cpp.cpp **** void Thread::dispatch() {
  41:src/syscall_cpp.cpp ****     thread_dispatch();
  42:src/syscall_cpp.cpp **** }
  43:src/syscall_cpp.cpp **** 
  44:src/syscall_cpp.cpp **** Thread::~Thread() {
 167              		.loc 2 44 1 is_stmt 1
 168              		.cfi_startproc
 169              		.cfi_personality 0x9b,DW.ref.__gxx_personality_v0
 170              		.cfi_lsda 0x1b,.LLSDA64
 171              	.LVL9:
 172 00a0 130101FE 		addi	sp,sp,-32
 173              		.cfi_def_cfa_offset 32
 174 00a4 233C1100 		sd	ra,24(sp)
 175 00a8 23388100 		sd	s0,16(sp)
 176 00ac 23349100 		sd	s1,8(sp)
 177              		.cfi_offset 1, -8
 178              		.cfi_offset 8, -16
 179              		.cfi_offset 9, -24
 180 00b0 13040102 		addi	s0,sp,32
 181              		.cfi_def_cfa 8, 0
 182              	.LBB6:
 183              		.loc 2 44 17 is_stmt 0
 184 00b4 97070000 		lla	a5,_ZTV6Thread+16
 184      93870700 
 185 00bc 2330F500 		sd	a5,0(a0)
  45:src/syscall_cpp.cpp ****     delete (PCB*)myHandle;
 186              		.loc 2 45 5 is_stmt 1
 187              		.loc 2 45 18 is_stmt 0
 188 00c0 83348500 		ld	s1,8(a0)
 189              		.loc 2 45 26
 190 00c4 63800402 		beqz	s1,.L11
 191              	.LVL10:
 192              	.LBB7:
 193              	.LBB8:
 194              		.file 3 "src/../h/PCB.hpp"
   1:src/../h/PCB.hpp **** #ifndef PROJECT_BASE_V1_1_PCB_HPP
   2:src/../h/PCB.hpp **** #define PROJECT_BASE_V1_1_PCB_HPP
   3:src/../h/PCB.hpp **** 
   4:src/../h/PCB.hpp **** 
   5:src/../h/PCB.hpp **** #include "Scheduler.hpp"
   6:src/../h/PCB.hpp **** #include "riscv.hpp"
   7:src/../h/PCB.hpp **** #include "../h/syscall_c.hpp"
   8:src/../h/PCB.hpp **** 
   9:src/../h/PCB.hpp **** 
  10:src/../h/PCB.hpp **** class PCB {
  11:src/../h/PCB.hpp **** public:
  12:src/../h/PCB.hpp ****     struct Context {
  13:src/../h/PCB.hpp ****         uint64 ra;
  14:src/../h/PCB.hpp ****         uint64 sp;
  15:src/../h/PCB.hpp ****     };
  16:src/../h/PCB.hpp **** 
  17:src/../h/PCB.hpp ****     enum State {
  18:src/../h/PCB.hpp ****         READY,
  19:src/../h/PCB.hpp ****         RUNNING,
  20:src/../h/PCB.hpp ****         SUSPENDED,
GAS LISTING /tmp/cchmtwv7.s 			page 6


  21:src/../h/PCB.hpp ****         FINISHED
  22:src/../h/PCB.hpp ****     };
  23:src/../h/PCB.hpp **** 
  24:src/../h/PCB.hpp ****     ~PCB() { delete[] stack; }
 195              		.loc 3 24 14 is_stmt 1
 196              		.loc 3 24 23 is_stmt 0
 197 00c8 03B58400 		ld	a0,8(s1)
 198              	.LVL11:
 199              		.loc 3 24 28
 200 00cc 63060500 		beqz	a0,.L13
 201              		.loc 3 24 23
 202 00d0 97000000 		call	_ZdaPv
 202      E7800000 
 203              	.LVL12:
 204              	.L13:
 205              	.LBE8:
 206              	.LBE7:
 207              		.loc 2 45 18
 208 00d8 13850400 		mv	a0,s1
 209 00dc 97000000 		call	_ZdlPv
 209      E7800000 
 210              	.LVL13:
 211              	.L11:
 212              	.LBE6:
  46:src/syscall_cpp.cpp **** }
 213              		.loc 2 46 1
 214 00e4 83308101 		ld	ra,24(sp)
 215              		.cfi_restore 1
 216 00e8 03340101 		ld	s0,16(sp)
 217              		.cfi_restore 8
 218              		.cfi_def_cfa 2, 32
 219 00ec 83348100 		ld	s1,8(sp)
 220              		.cfi_restore 9
 221 00f0 13010102 		addi	sp,sp,32
 222              		.cfi_def_cfa_offset 0
 223 00f4 67800000 		jr	ra
 224              		.cfi_endproc
 225              	.LFE64:
 226              		.globl	__gxx_personality_v0
 227              		.section	.gcc_except_table,"a",@progbits
 228              	.LLSDA64:
 229 0000 FF       		.byte	0xff
 230 0001 FF       		.byte	0xff
 231 0002 03       		.byte	0x3
 232 0003 00       		.byte	0
 233              		.text
 235              		.globl	_ZN6ThreadD1Ev
 236              		.set	_ZN6ThreadD1Ev,_ZN6ThreadD2Ev
 237              		.align	2
 238              		.globl	_ZN6ThreadD0Ev
 240              	_ZN6ThreadD0Ev:
 241              	.LFB66:
  44:src/syscall_cpp.cpp ****     delete (PCB*)myHandle;
 242              		.loc 2 44 1 is_stmt 1
 243              		.cfi_startproc
 244              	.LVL14:
 245 00f8 130101FE 		addi	sp,sp,-32
GAS LISTING /tmp/cchmtwv7.s 			page 7


 246              		.cfi_def_cfa_offset 32
 247 00fc 233C1100 		sd	ra,24(sp)
 248 0100 23388100 		sd	s0,16(sp)
 249 0104 23349100 		sd	s1,8(sp)
 250              		.cfi_offset 1, -8
 251              		.cfi_offset 8, -16
 252              		.cfi_offset 9, -24
 253 0108 13040102 		addi	s0,sp,32
 254              		.cfi_def_cfa 8, 0
 255 010c 93040500 		mv	s1,a0
 256              		.loc 2 46 1 is_stmt 0
 257 0110 97000000 		call	_ZN6ThreadD1Ev
 257      E7800000 
 258              	.LVL15:
 259 0118 13850400 		mv	a0,s1
 260 011c 97000000 		call	_ZdlPv
 260      E7800000 
 261              	.LVL16:
 262 0124 83308101 		ld	ra,24(sp)
 263              		.cfi_restore 1
 264 0128 03340101 		ld	s0,16(sp)
 265              		.cfi_restore 8
 266              		.cfi_def_cfa 2, 32
 267 012c 83348100 		ld	s1,8(sp)
 268              		.cfi_restore 9
 269              	.LVL17:
 270 0130 13010102 		addi	sp,sp,32
 271              		.cfi_def_cfa_offset 0
 272 0134 67800000 		jr	ra
 273              		.cfi_endproc
 274              	.LFE66:
 276              		.align	2
 277              		.globl	_Z16switchToUserModev
 279              	_Z16switchToUserModev:
 280              	.LFB53:
  19:src/syscall_cpp.cpp **** 
 281              		.loc 2 19 24 is_stmt 1
 282              		.cfi_startproc
 283 0138 130101FF 		addi	sp,sp,-16
 284              		.cfi_def_cfa_offset 16
 285 013c 23341100 		sd	ra,8(sp)
 286 0140 23308100 		sd	s0,0(sp)
 287              		.cfi_offset 1, -8
 288              		.cfi_offset 8, -16
 289 0144 13040101 		addi	s0,sp,16
 290              		.cfi_def_cfa 8, 0
  19:src/syscall_cpp.cpp **** 
 291              		.loc 2 19 26
  19:src/syscall_cpp.cpp **** 
 292              		.loc 2 19 36 is_stmt 0
 293 0148 97000000 		call	_Z10toUserModev@plt
 293      E7800000 
 294              	.LVL18:
  19:src/syscall_cpp.cpp **** 
 295              		.loc 2 19 39
 296 0150 83308100 		ld	ra,8(sp)
 297              		.cfi_restore 1
GAS LISTING /tmp/cchmtwv7.s 			page 8


 298 0154 03340100 		ld	s0,0(sp)
 299              		.cfi_restore 8
 300              		.cfi_def_cfa 2, 16
 301 0158 13010101 		addi	sp,sp,16
 302              		.cfi_def_cfa_offset 0
 303 015c 67800000 		jr	ra
 304              		.cfi_endproc
 305              	.LFE53:
 307              		.align	2
 308              		.globl	_ZN6ThreadC2EPFvPvES0_
 310              	_ZN6ThreadC2EPFvPvES0_:
 311              	.LFB55:
  21:src/syscall_cpp.cpp ****     thread_create(&myHandle, body, arg);
 312              		.loc 2 21 1 is_stmt 1
 313              		.cfi_startproc
 314              	.LVL19:
 315 0160 130101FF 		addi	sp,sp,-16
 316              		.cfi_def_cfa_offset 16
 317 0164 23341100 		sd	ra,8(sp)
 318 0168 23308100 		sd	s0,0(sp)
 319              		.cfi_offset 1, -8
 320              		.cfi_offset 8, -16
 321 016c 13040101 		addi	s0,sp,16
 322              		.cfi_def_cfa 8, 0
 323              	.LBB9:
  21:src/syscall_cpp.cpp ****     thread_create(&myHandle, body, arg);
 324              		.loc 2 21 46 is_stmt 0
 325 0170 97070000 		lla	a5,_ZTV6Thread+16
 325      93870700 
 326 0178 2330F500 		sd	a5,0(a0)
  22:src/syscall_cpp.cpp ****     Scheduler::remove();
 327              		.loc 2 22 5 is_stmt 1
  22:src/syscall_cpp.cpp ****     Scheduler::remove();
 328              		.loc 2 22 18 is_stmt 0
 329 017c 13058500 		addi	a0,a0,8
 330              	.LVL20:
 331 0180 97000000 		call	_Z13thread_createPP7_threadPFvPvES2_@plt
 331      E7800000 
 332              	.LVL21:
  23:src/syscall_cpp.cpp **** }
 333              		.loc 2 23 5 is_stmt 1
  23:src/syscall_cpp.cpp **** }
 334              		.loc 2 23 22 is_stmt 0
 335 0188 97000000 		call	_ZN9Scheduler6removeEv@plt
 335      E7800000 
 336              	.LVL22:
 337              	.LBE9:
  24:src/syscall_cpp.cpp **** 
 338              		.loc 2 24 1
 339 0190 83308100 		ld	ra,8(sp)
 340              		.cfi_restore 1
 341 0194 03340100 		ld	s0,0(sp)
 342              		.cfi_restore 8
 343              		.cfi_def_cfa 2, 16
 344 0198 13010101 		addi	sp,sp,16
 345              		.cfi_def_cfa_offset 0
 346 019c 67800000 		jr	ra
GAS LISTING /tmp/cchmtwv7.s 			page 9


 347              		.cfi_endproc
 348              	.LFE55:
 350              		.globl	_ZN6ThreadC1EPFvPvES0_
 351              		.set	_ZN6ThreadC1EPFvPvES0_,_ZN6ThreadC2EPFvPvES0_
 352              		.align	2
 353              		.globl	_ZN6ThreadC2Ev
 355              	_ZN6ThreadC2Ev:
 356              	.LFB58:
  26:src/syscall_cpp.cpp ****     new Thread(nullptr, nullptr);
 357              		.loc 2 26 1 is_stmt 1
 358              		.cfi_startproc
 359              		.cfi_personality 0x9b,DW.ref.__gxx_personality_v0
 360              		.cfi_lsda 0x1b,.LLSDA58
 361              	.LVL23:
 362 01a0 130101FE 		addi	sp,sp,-32
 363              		.cfi_def_cfa_offset 32
 364 01a4 233C1100 		sd	ra,24(sp)
 365 01a8 23388100 		sd	s0,16(sp)
 366 01ac 23349100 		sd	s1,8(sp)
 367 01b0 23302101 		sd	s2,0(sp)
 368              		.cfi_offset 1, -8
 369              		.cfi_offset 8, -16
 370              		.cfi_offset 9, -24
 371              		.cfi_offset 18, -32
 372 01b4 13040102 		addi	s0,sp,32
 373              		.cfi_def_cfa 8, 0
 374              	.LBB10:
  26:src/syscall_cpp.cpp ****     new Thread(nullptr, nullptr);
 375              		.loc 2 26 16 is_stmt 0
 376 01b8 97070000 		lla	a5,_ZTV6Thread+16
 376      93870700 
 377 01c0 2330F500 		sd	a5,0(a0)
  27:src/syscall_cpp.cpp **** }
 378              		.loc 2 27 5 is_stmt 1
  27:src/syscall_cpp.cpp **** }
 379              		.loc 2 27 32 is_stmt 0
 380 01c4 13050002 		li	a0,32
 381              	.LVL24:
 382              	.LEHB0:
 383 01c8 97000000 		call	_Znwm
 383      E7800000 
 384              	.LVL25:
 385              	.LEHE0:
 386 01d0 93040500 		mv	s1,a0
 387 01d4 13060000 		li	a2,0
 388 01d8 93050000 		li	a1,0
 389              	.LEHB1:
 390 01dc 97000000 		call	_ZN6ThreadC1EPFvPvES0_
 390      E7800000 
 391              	.LVL26:
 392              	.LEHE1:
 393 01e4 6F000002 		j	.L26
 394              	.L23:
 395 01e8 13090500 		mv	s2,a0
 396 01ec 13850400 		mv	a0,s1
 397 01f0 97000000 		call	_ZdlPv
 397      E7800000 
GAS LISTING /tmp/cchmtwv7.s 			page 10


 398              	.LVL27:
 399 01f8 13050900 		mv	a0,s2
 400              	.LEHB2:
 401 01fc 97000000 		call	_Unwind_Resume@plt
 401      E7800000 
 402              	.LVL28:
 403              	.LEHE2:
 404              	.L26:
 405              	.LBE10:
  28:src/syscall_cpp.cpp **** 
 406              		.loc 2 28 1
 407 0204 83308101 		ld	ra,24(sp)
 408              		.cfi_restore 1
 409 0208 03340101 		ld	s0,16(sp)
 410              		.cfi_restore 8
 411              		.cfi_def_cfa 2, 32
 412 020c 83348100 		ld	s1,8(sp)
 413              		.cfi_restore 9
 414 0210 03390100 		ld	s2,0(sp)
 415              		.cfi_restore 18
 416 0214 13010102 		addi	sp,sp,32
 417              		.cfi_def_cfa_offset 0
 418 0218 67800000 		jr	ra
 419              		.cfi_endproc
 420              	.LFE58:
 421              		.section	.gcc_except_table
 422              	.LLSDA58:
 423 0004 FF       		.byte	0xff
 424 0005 FF       		.byte	0xff
 425 0006 03       		.byte	0x3
 426 0007 27       		.byte	0x27
 427 0008 00000000 		.4byte	.LEHB0-.LFB58
 428 000c 00000000 		.4byte	.LEHE0-.LEHB0
 429 0010 00000000 		.4byte	0
 430 0014 00       		.byte	0
 431 0015 00000000 		.4byte	.LEHB1-.LFB58
 432 0019 00000000 		.4byte	.LEHE1-.LEHB1
 433 001d 00000000 		.4byte	.L23-.LFB58
 434 0021 00       		.byte	0
 435 0022 00000000 		.4byte	.LEHB2-.LFB58
 436 0026 00000000 		.4byte	.LEHE2-.LEHB2
 437 002a 00000000 		.4byte	0
 438 002e 00       		.byte	0
 439              		.text
 441              		.globl	_ZN6ThreadC1Ev
 442              		.set	_ZN6ThreadC1Ev,_ZN6ThreadC2Ev
 443              		.align	2
 444              		.globl	_ZN6Thread5startEv
 446              	_ZN6Thread5startEv:
 447              	.LFB60:
  30:src/syscall_cpp.cpp ****     Scheduler::put((PCB*)myHandle);
 448              		.loc 2 30 21 is_stmt 1
 449              		.cfi_startproc
 450              	.LVL29:
 451 021c 130101FF 		addi	sp,sp,-16
 452              		.cfi_def_cfa_offset 16
 453 0220 23341100 		sd	ra,8(sp)
GAS LISTING /tmp/cchmtwv7.s 			page 11


 454 0224 23308100 		sd	s0,0(sp)
 455              		.cfi_offset 1, -8
 456              		.cfi_offset 8, -16
 457 0228 13040101 		addi	s0,sp,16
 458              		.cfi_def_cfa 8, 0
  31:src/syscall_cpp.cpp **** 
 459              		.loc 2 31 5
  31:src/syscall_cpp.cpp **** 
 460              		.loc 2 31 19 is_stmt 0
 461 022c 03358500 		ld	a0,8(a0)
 462              	.LVL30:
 463 0230 97000000 		call	_ZN9Scheduler3putEP3PCB@plt
 463      E7800000 
 464              	.LVL31:
  33:src/syscall_cpp.cpp **** }
 465              		.loc 2 33 5 is_stmt 1
  34:src/syscall_cpp.cpp **** 
 466              		.loc 2 34 1 is_stmt 0
 467 0238 13050000 		li	a0,0
 468 023c 83308100 		ld	ra,8(sp)
 469              		.cfi_restore 1
 470 0240 03340100 		ld	s0,0(sp)
 471              		.cfi_restore 8
 472              		.cfi_def_cfa 2, 16
 473 0244 13010101 		addi	sp,sp,16
 474              		.cfi_def_cfa_offset 0
 475 0248 67800000 		jr	ra
 476              		.cfi_endproc
 477              	.LFE60:
 479              		.align	2
 480              		.globl	_ZN6Thread4joinEv
 482              	_ZN6Thread4joinEv:
 483              	.LFB61:
  36:src/syscall_cpp.cpp ****     thread_join(myHandle);
 484              		.loc 2 36 21 is_stmt 1
 485              		.cfi_startproc
 486              	.LVL32:
 487 024c 130101FF 		addi	sp,sp,-16
 488              		.cfi_def_cfa_offset 16
 489 0250 23341100 		sd	ra,8(sp)
 490 0254 23308100 		sd	s0,0(sp)
 491              		.cfi_offset 1, -8
 492              		.cfi_offset 8, -16
 493 0258 13040101 		addi	s0,sp,16
 494              		.cfi_def_cfa 8, 0
  37:src/syscall_cpp.cpp **** }
 495              		.loc 2 37 5
  37:src/syscall_cpp.cpp **** }
 496              		.loc 2 37 16 is_stmt 0
 497 025c 03358500 		ld	a0,8(a0)
 498              	.LVL33:
 499 0260 97000000 		call	_Z11thread_joinP7_thread@plt
 499      E7800000 
 500              	.LVL34:
  38:src/syscall_cpp.cpp **** 
 501              		.loc 2 38 1
 502 0268 83308100 		ld	ra,8(sp)
GAS LISTING /tmp/cchmtwv7.s 			page 12


 503              		.cfi_restore 1
 504 026c 03340100 		ld	s0,0(sp)
 505              		.cfi_restore 8
 506              		.cfi_def_cfa 2, 16
 507 0270 13010101 		addi	sp,sp,16
 508              		.cfi_def_cfa_offset 0
 509 0274 67800000 		jr	ra
 510              		.cfi_endproc
 511              	.LFE61:
 513              		.align	2
 514              		.globl	_ZN6Thread8dispatchEv
 516              	_ZN6Thread8dispatchEv:
 517              	.LFB62:
  40:src/syscall_cpp.cpp ****     thread_dispatch();
 518              		.loc 2 40 25 is_stmt 1
 519              		.cfi_startproc
 520 0278 130101FF 		addi	sp,sp,-16
 521              		.cfi_def_cfa_offset 16
 522 027c 23341100 		sd	ra,8(sp)
 523 0280 23308100 		sd	s0,0(sp)
 524              		.cfi_offset 1, -8
 525              		.cfi_offset 8, -16
 526 0284 13040101 		addi	s0,sp,16
 527              		.cfi_def_cfa 8, 0
  41:src/syscall_cpp.cpp **** }
 528              		.loc 2 41 5
  41:src/syscall_cpp.cpp **** }
 529              		.loc 2 41 20 is_stmt 0
 530 0288 97000000 		call	_Z15thread_dispatchv@plt
 530      E7800000 
 531              	.LVL35:
  42:src/syscall_cpp.cpp **** 
 532              		.loc 2 42 1
 533 0290 83308100 		ld	ra,8(sp)
 534              		.cfi_restore 1
 535 0294 03340100 		ld	s0,0(sp)
 536              		.cfi_restore 8
 537              		.cfi_def_cfa 2, 16
 538 0298 13010101 		addi	sp,sp,16
 539              		.cfi_def_cfa_offset 0
 540 029c 67800000 		jr	ra
 541              		.cfi_endproc
 542              	.LFE62:
 544              		.weak	_ZTV6Thread
 545              		.section	.data.rel.ro.local._ZTV6Thread,"awG",@progbits,_ZTV6Thread,comdat
 546              		.align	3
 549              	_ZTV6Thread:
 550 0000 00000000 		.dword	0
 550      00000000 
 551 0008 00000000 		.dword	0
 551      00000000 
 552 0010 00000000 		.dword	_ZN6ThreadD1Ev
 552      00000000 
 553 0018 00000000 		.dword	_ZN6ThreadD0Ev
 553      00000000 
 554 0020 00000000 		.dword	_ZN6Thread3runEv
 554      00000000 
GAS LISTING /tmp/cchmtwv7.s 			page 13


 555              		.text
 556              	.Letext0:
 557              		.file 4 "src/../h/../h/../lib/hw.h"
 558              		.file 5 "src/../h/Scheduler.hpp"
 559              		.file 6 "src/../h/syscall_c.hpp"
 3158              		.align	3
 3161              	DW.ref.__gxx_personality_v0:
 3162 0000 00000000 		.dword	__gxx_personality_v0
 3162      00000000 
 3163              		.ident	"GCC: (Ubuntu 9.4.0-1ubuntu1~20.04) 9.4.0"
 3164              		.section	.note.GNU-stack,"",@progbits
GAS LISTING /tmp/cchmtwv7.s 			page 14


DEFINED SYMBOLS
                            *ABS*:0000000000000000 syscall_cpp.cpp
     /tmp/cchmtwv7.s:10     .text._ZN6Thread3runEv:0000000000000000 _ZN6Thread3runEv
     /tmp/cchmtwv7.s:14     .text._ZN6Thread3runEv:0000000000000000 .L0 
     /tmp/cchmtwv7.s:16     .text._ZN6Thread3runEv:0000000000000000 .L0 
     /tmp/cchmtwv7.s:17     .text._ZN6Thread3runEv:0000000000000004 .L0 
     /tmp/cchmtwv7.s:19     .text._ZN6Thread3runEv:0000000000000008 .L0 
     /tmp/cchmtwv7.s:21     .text._ZN6Thread3runEv:000000000000000c .L0 
     /tmp/cchmtwv7.s:23     .text._ZN6Thread3runEv:000000000000000c .L0 
     /tmp/cchmtwv7.s:24     .text._ZN6Thread3runEv:0000000000000010 .L0 
     /tmp/cchmtwv7.s:25     .text._ZN6Thread3runEv:0000000000000010 .L0 
     /tmp/cchmtwv7.s:27     .text._ZN6Thread3runEv:0000000000000014 .L0 
     /tmp/cchmtwv7.s:29     .text._ZN6Thread3runEv:0000000000000018 .L0 
     /tmp/cchmtwv7.s:36     .text:0000000000000000 _Znwm
     /tmp/cchmtwv7.s:40     .text:0000000000000000 .L0 
     /tmp/cchmtwv7.s:42     .text:0000000000000000 .L0 
     /tmp/cchmtwv7.s:43     .text:0000000000000004 .L0 
     /tmp/cchmtwv7.s:46     .text:000000000000000c .L0 
     /tmp/cchmtwv7.s:47     .text:000000000000000c .L0 
     /tmp/cchmtwv7.s:49     .text:0000000000000010 .L0 
     /tmp/cchmtwv7.s:51     .text:0000000000000010 .L0 
     /tmp/cchmtwv7.s:52     .text:0000000000000010 .L0 
     /tmp/cchmtwv7.s:55     .text:0000000000000018 .L0 
     /tmp/cchmtwv7.s:56     .text:000000000000001c .L0 
     /tmp/cchmtwv7.s:58     .text:0000000000000020 .L0 
     /tmp/cchmtwv7.s:59     .text:0000000000000020 .L0 
     /tmp/cchmtwv7.s:61     .text:0000000000000024 .L0 
     /tmp/cchmtwv7.s:63     .text:0000000000000028 .L0 
     /tmp/cchmtwv7.s:69     .text:0000000000000028 _Znam
     /tmp/cchmtwv7.s:72     .text:0000000000000028 .L0 
     /tmp/cchmtwv7.s:74     .text:0000000000000028 .L0 
     /tmp/cchmtwv7.s:75     .text:000000000000002c .L0 
     /tmp/cchmtwv7.s:78     .text:0000000000000034 .L0 
     /tmp/cchmtwv7.s:79     .text:0000000000000034 .L0 
     /tmp/cchmtwv7.s:81     .text:0000000000000038 .L0 
     /tmp/cchmtwv7.s:83     .text:0000000000000038 .L0 
     /tmp/cchmtwv7.s:84     .text:0000000000000038 .L0 
     /tmp/cchmtwv7.s:87     .text:0000000000000040 .L0 
     /tmp/cchmtwv7.s:88     .text:0000000000000044 .L0 
     /tmp/cchmtwv7.s:90     .text:0000000000000048 .L0 
     /tmp/cchmtwv7.s:91     .text:0000000000000048 .L0 
     /tmp/cchmtwv7.s:93     .text:000000000000004c .L0 
     /tmp/cchmtwv7.s:95     .text:0000000000000050 .L0 
     /tmp/cchmtwv7.s:101    .text:0000000000000050 _ZdlPv
     /tmp/cchmtwv7.s:104    .text:0000000000000050 .L0 
     /tmp/cchmtwv7.s:106    .text:0000000000000050 .L0 
     /tmp/cchmtwv7.s:107    .text:0000000000000054 .L0 
     /tmp/cchmtwv7.s:110    .text:000000000000005c .L0 
     /tmp/cchmtwv7.s:111    .text:000000000000005c .L0 
     /tmp/cchmtwv7.s:113    .text:0000000000000060 .L0 
     /tmp/cchmtwv7.s:115    .text:0000000000000060 .L0 
     /tmp/cchmtwv7.s:116    .text:0000000000000060 .L0 
     /tmp/cchmtwv7.s:119    .text:0000000000000068 .L0 
     /tmp/cchmtwv7.s:120    .text:000000000000006c .L0 
     /tmp/cchmtwv7.s:122    .text:0000000000000070 .L0 
     /tmp/cchmtwv7.s:123    .text:0000000000000070 .L0 
     /tmp/cchmtwv7.s:125    .text:0000000000000074 .L0 
GAS LISTING /tmp/cchmtwv7.s 			page 15


     /tmp/cchmtwv7.s:127    .text:0000000000000078 .L0 
     /tmp/cchmtwv7.s:133    .text:0000000000000078 _ZdaPv
     /tmp/cchmtwv7.s:136    .text:0000000000000078 .L0 
     /tmp/cchmtwv7.s:138    .text:0000000000000078 .L0 
     /tmp/cchmtwv7.s:139    .text:000000000000007c .L0 
     /tmp/cchmtwv7.s:142    .text:0000000000000084 .L0 
     /tmp/cchmtwv7.s:143    .text:0000000000000084 .L0 
     /tmp/cchmtwv7.s:145    .text:0000000000000088 .L0 
     /tmp/cchmtwv7.s:147    .text:0000000000000088 .L0 
     /tmp/cchmtwv7.s:148    .text:0000000000000088 .L0 
     /tmp/cchmtwv7.s:151    .text:0000000000000090 .L0 
     /tmp/cchmtwv7.s:152    .text:0000000000000094 .L0 
     /tmp/cchmtwv7.s:154    .text:0000000000000098 .L0 
     /tmp/cchmtwv7.s:155    .text:0000000000000098 .L0 
     /tmp/cchmtwv7.s:157    .text:000000000000009c .L0 
     /tmp/cchmtwv7.s:159    .text:00000000000000a0 .L0 
     /tmp/cchmtwv7.s:165    .text:00000000000000a0 _ZN6ThreadD2Ev
     /tmp/cchmtwv7.s:168    .text:00000000000000a0 .L0 
     /tmp/cchmtwv7.s:3161   .data.rel.local.DW.ref.__gxx_personality_v0:0000000000000000 DW.ref.__gxx_personality_v0
     /tmp/cchmtwv7.s:172    .text:00000000000000a0 .L0 
     /tmp/cchmtwv7.s:173    .text:00000000000000a4 .L0 
     /tmp/cchmtwv7.s:177    .text:00000000000000b0 .L0 
     /tmp/cchmtwv7.s:178    .text:00000000000000b0 .L0 
     /tmp/cchmtwv7.s:179    .text:00000000000000b0 .L0 
     /tmp/cchmtwv7.s:181    .text:00000000000000b4 .L0 
     /tmp/cchmtwv7.s:549    .data.rel.ro.local._ZTV6Thread:0000000000000000 _ZTV6Thread
     /tmp/cchmtwv7.s:184    .text:00000000000000b4 .L0 
     /tmp/cchmtwv7.s:187    .text:00000000000000c0 .L0 
     /tmp/cchmtwv7.s:188    .text:00000000000000c0 .L0 
     /tmp/cchmtwv7.s:190    .text:00000000000000c4 .L0 
     /tmp/cchmtwv7.s:196    .text:00000000000000c8 .L0 
     /tmp/cchmtwv7.s:197    .text:00000000000000c8 .L0 
     /tmp/cchmtwv7.s:200    .text:00000000000000cc .L0 
     /tmp/cchmtwv7.s:202    .text:00000000000000d0 .L0 
     /tmp/cchmtwv7.s:208    .text:00000000000000d8 .L0 
     /tmp/cchmtwv7.s:214    .text:00000000000000e4 .L0 
     /tmp/cchmtwv7.s:215    .text:00000000000000e8 .L0 
     /tmp/cchmtwv7.s:217    .text:00000000000000ec .L0 
     /tmp/cchmtwv7.s:218    .text:00000000000000ec .L0 
     /tmp/cchmtwv7.s:220    .text:00000000000000f0 .L0 
     /tmp/cchmtwv7.s:222    .text:00000000000000f4 .L0 
     /tmp/cchmtwv7.s:224    .text:00000000000000f8 .L0 
     /tmp/cchmtwv7.s:165    .text:00000000000000a0 _ZN6ThreadD1Ev
     /tmp/cchmtwv7.s:240    .text:00000000000000f8 _ZN6ThreadD0Ev
     /tmp/cchmtwv7.s:243    .text:00000000000000f8 .L0 
     /tmp/cchmtwv7.s:245    .text:00000000000000f8 .L0 
     /tmp/cchmtwv7.s:246    .text:00000000000000fc .L0 
     /tmp/cchmtwv7.s:250    .text:0000000000000108 .L0 
     /tmp/cchmtwv7.s:251    .text:0000000000000108 .L0 
     /tmp/cchmtwv7.s:252    .text:0000000000000108 .L0 
     /tmp/cchmtwv7.s:254    .text:000000000000010c .L0 
     /tmp/cchmtwv7.s:257    .text:0000000000000110 .L0 
     /tmp/cchmtwv7.s:263    .text:0000000000000128 .L0 
     /tmp/cchmtwv7.s:265    .text:000000000000012c .L0 
     /tmp/cchmtwv7.s:266    .text:000000000000012c .L0 
     /tmp/cchmtwv7.s:268    .text:0000000000000130 .L0 
     /tmp/cchmtwv7.s:271    .text:0000000000000134 .L0 
GAS LISTING /tmp/cchmtwv7.s 			page 16


     /tmp/cchmtwv7.s:273    .text:0000000000000138 .L0 
     /tmp/cchmtwv7.s:279    .text:0000000000000138 _Z16switchToUserModev
     /tmp/cchmtwv7.s:282    .text:0000000000000138 .L0 
     /tmp/cchmtwv7.s:283    .text:0000000000000138 .L0 
     /tmp/cchmtwv7.s:284    .text:000000000000013c .L0 
     /tmp/cchmtwv7.s:287    .text:0000000000000144 .L0 
     /tmp/cchmtwv7.s:288    .text:0000000000000144 .L0 
     /tmp/cchmtwv7.s:290    .text:0000000000000148 .L0 
     /tmp/cchmtwv7.s:292    .text:0000000000000148 .L0 
     /tmp/cchmtwv7.s:293    .text:0000000000000148 .L0 
     /tmp/cchmtwv7.s:296    .text:0000000000000150 .L0 
     /tmp/cchmtwv7.s:297    .text:0000000000000154 .L0 
     /tmp/cchmtwv7.s:299    .text:0000000000000158 .L0 
     /tmp/cchmtwv7.s:300    .text:0000000000000158 .L0 
     /tmp/cchmtwv7.s:302    .text:000000000000015c .L0 
     /tmp/cchmtwv7.s:304    .text:0000000000000160 .L0 
     /tmp/cchmtwv7.s:310    .text:0000000000000160 _ZN6ThreadC2EPFvPvES0_
     /tmp/cchmtwv7.s:313    .text:0000000000000160 .L0 
     /tmp/cchmtwv7.s:315    .text:0000000000000160 .L0 
     /tmp/cchmtwv7.s:316    .text:0000000000000164 .L0 
     /tmp/cchmtwv7.s:319    .text:000000000000016c .L0 
     /tmp/cchmtwv7.s:320    .text:000000000000016c .L0 
     /tmp/cchmtwv7.s:322    .text:0000000000000170 .L0 
     /tmp/cchmtwv7.s:325    .text:0000000000000170 .L0 
     /tmp/cchmtwv7.s:328    .text:000000000000017c .L0 
     /tmp/cchmtwv7.s:329    .text:000000000000017c .L0 
     /tmp/cchmtwv7.s:334    .text:0000000000000188 .L0 
     /tmp/cchmtwv7.s:335    .text:0000000000000188 .L0 
     /tmp/cchmtwv7.s:339    .text:0000000000000190 .L0 
     /tmp/cchmtwv7.s:340    .text:0000000000000194 .L0 
     /tmp/cchmtwv7.s:342    .text:0000000000000198 .L0 
     /tmp/cchmtwv7.s:343    .text:0000000000000198 .L0 
     /tmp/cchmtwv7.s:345    .text:000000000000019c .L0 
     /tmp/cchmtwv7.s:347    .text:00000000000001a0 .L0 
     /tmp/cchmtwv7.s:310    .text:0000000000000160 _ZN6ThreadC1EPFvPvES0_
     /tmp/cchmtwv7.s:355    .text:00000000000001a0 _ZN6ThreadC2Ev
     /tmp/cchmtwv7.s:358    .text:00000000000001a0 .L0 
     /tmp/cchmtwv7.s:362    .text:00000000000001a0 .L0 
     /tmp/cchmtwv7.s:363    .text:00000000000001a4 .L0 
     /tmp/cchmtwv7.s:368    .text:00000000000001b4 .L0 
     /tmp/cchmtwv7.s:369    .text:00000000000001b4 .L0 
     /tmp/cchmtwv7.s:370    .text:00000000000001b4 .L0 
     /tmp/cchmtwv7.s:371    .text:00000000000001b4 .L0 
     /tmp/cchmtwv7.s:373    .text:00000000000001b8 .L0 
     /tmp/cchmtwv7.s:376    .text:00000000000001b8 .L0 
     /tmp/cchmtwv7.s:379    .text:00000000000001c4 .L0 
     /tmp/cchmtwv7.s:380    .text:00000000000001c4 .L0 
     /tmp/cchmtwv7.s:407    .text:0000000000000204 .L0 
     /tmp/cchmtwv7.s:408    .text:0000000000000208 .L0 
     /tmp/cchmtwv7.s:410    .text:000000000000020c .L0 
     /tmp/cchmtwv7.s:411    .text:000000000000020c .L0 
     /tmp/cchmtwv7.s:413    .text:0000000000000210 .L0 
     /tmp/cchmtwv7.s:415    .text:0000000000000214 .L0 
     /tmp/cchmtwv7.s:417    .text:0000000000000218 .L0 
     /tmp/cchmtwv7.s:419    .text:000000000000021c .L0 
     /tmp/cchmtwv7.s:355    .text:00000000000001a0 _ZN6ThreadC1Ev
     /tmp/cchmtwv7.s:446    .text:000000000000021c _ZN6Thread5startEv
GAS LISTING /tmp/cchmtwv7.s 			page 17


     /tmp/cchmtwv7.s:449    .text:000000000000021c .L0 
     /tmp/cchmtwv7.s:451    .text:000000000000021c .L0 
     /tmp/cchmtwv7.s:452    .text:0000000000000220 .L0 
     /tmp/cchmtwv7.s:455    .text:0000000000000228 .L0 
     /tmp/cchmtwv7.s:456    .text:0000000000000228 .L0 
     /tmp/cchmtwv7.s:458    .text:000000000000022c .L0 
     /tmp/cchmtwv7.s:460    .text:000000000000022c .L0 
     /tmp/cchmtwv7.s:461    .text:000000000000022c .L0 
     /tmp/cchmtwv7.s:466    .text:0000000000000238 .L0 
     /tmp/cchmtwv7.s:467    .text:0000000000000238 .L0 
     /tmp/cchmtwv7.s:469    .text:0000000000000240 .L0 
     /tmp/cchmtwv7.s:471    .text:0000000000000244 .L0 
     /tmp/cchmtwv7.s:472    .text:0000000000000244 .L0 
     /tmp/cchmtwv7.s:474    .text:0000000000000248 .L0 
     /tmp/cchmtwv7.s:476    .text:000000000000024c .L0 
     /tmp/cchmtwv7.s:482    .text:000000000000024c _ZN6Thread4joinEv
     /tmp/cchmtwv7.s:485    .text:000000000000024c .L0 
     /tmp/cchmtwv7.s:487    .text:000000000000024c .L0 
     /tmp/cchmtwv7.s:488    .text:0000000000000250 .L0 
     /tmp/cchmtwv7.s:491    .text:0000000000000258 .L0 
     /tmp/cchmtwv7.s:492    .text:0000000000000258 .L0 
     /tmp/cchmtwv7.s:494    .text:000000000000025c .L0 
     /tmp/cchmtwv7.s:496    .text:000000000000025c .L0 
     /tmp/cchmtwv7.s:497    .text:000000000000025c .L0 
     /tmp/cchmtwv7.s:502    .text:0000000000000268 .L0 
     /tmp/cchmtwv7.s:503    .text:000000000000026c .L0 
     /tmp/cchmtwv7.s:505    .text:0000000000000270 .L0 
     /tmp/cchmtwv7.s:506    .text:0000000000000270 .L0 
     /tmp/cchmtwv7.s:508    .text:0000000000000274 .L0 
     /tmp/cchmtwv7.s:510    .text:0000000000000278 .L0 
     /tmp/cchmtwv7.s:516    .text:0000000000000278 _ZN6Thread8dispatchEv
     /tmp/cchmtwv7.s:519    .text:0000000000000278 .L0 
     /tmp/cchmtwv7.s:520    .text:0000000000000278 .L0 
     /tmp/cchmtwv7.s:521    .text:000000000000027c .L0 
     /tmp/cchmtwv7.s:524    .text:0000000000000284 .L0 
     /tmp/cchmtwv7.s:525    .text:0000000000000284 .L0 
     /tmp/cchmtwv7.s:527    .text:0000000000000288 .L0 
     /tmp/cchmtwv7.s:529    .text:0000000000000288 .L0 
     /tmp/cchmtwv7.s:530    .text:0000000000000288 .L0 
     /tmp/cchmtwv7.s:533    .text:0000000000000290 .L0 
     /tmp/cchmtwv7.s:534    .text:0000000000000294 .L0 
     /tmp/cchmtwv7.s:536    .text:0000000000000298 .L0 
     /tmp/cchmtwv7.s:537    .text:0000000000000298 .L0 
     /tmp/cchmtwv7.s:539    .text:000000000000029c .L0 
     /tmp/cchmtwv7.s:541    .text:00000000000002a0 .L0 
     /tmp/cchmtwv7.s:32     .text._ZN6Thread3runEv:0000000000000018 .L0 
     /tmp/cchmtwv7.s:560    .text:00000000000002a0 .L0 
     /tmp/cchmtwv7.s:184    .text:00000000000000b4 .L0 
     /tmp/cchmtwv7.s:325    .text:0000000000000170 .L0 
     /tmp/cchmtwv7.s:376    .text:00000000000001b8 .L0 
     /tmp/cchmtwv7.s:211    .text:00000000000000e4 .L11
     /tmp/cchmtwv7.s:204    .text:00000000000000d8 .L13
     /tmp/cchmtwv7.s:404    .text:0000000000000204 .L26
     /tmp/cchmtwv7.s:382    .text:00000000000001c8 .LEHB0
     /tmp/cchmtwv7.s:356    .text:00000000000001a0 .LFB58
     /tmp/cchmtwv7.s:385    .text:00000000000001d0 .LEHE0
     /tmp/cchmtwv7.s:389    .text:00000000000001dc .LEHB1
GAS LISTING /tmp/cchmtwv7.s 			page 18


     /tmp/cchmtwv7.s:392    .text:00000000000001e4 .LEHE1
     /tmp/cchmtwv7.s:394    .text:00000000000001e8 .L23
     /tmp/cchmtwv7.s:400    .text:00000000000001fc .LEHB2
     /tmp/cchmtwv7.s:403    .text:0000000000000204 .LEHE2
     /tmp/cchmtwv7.s:1630   .debug_abbrev:0000000000000000 .Ldebug_abbrev0
     /tmp/cchmtwv7.s:3121   .debug_str:00000000000004cb .LASF85
     /tmp/cchmtwv7.s:3033   .debug_str:0000000000000259 .LASF86
     /tmp/cchmtwv7.s:3127   .debug_str:00000000000005b6 .LASF87
     /tmp/cchmtwv7.s:2931   .debug_ranges:0000000000000000 .Ldebug_ranges0
     /tmp/cchmtwv7.s:2939   .debug_line:0000000000000000 .Ldebug_line0
     /tmp/cchmtwv7.s:3027   .debug_str:0000000000000238 .LASF0
     /tmp/cchmtwv7.s:3041   .debug_str:0000000000000297 .LASF1
     /tmp/cchmtwv7.s:3079   .debug_str:00000000000003b7 .LASF2
     /tmp/cchmtwv7.s:3087   .debug_str:00000000000003ec .LASF4
     /tmp/cchmtwv7.s:3035   .debug_str:000000000000026d .LASF3
     /tmp/cchmtwv7.s:2949   .debug_str:0000000000000034 .LASF5
     /tmp/cchmtwv7.s:3065   .debug_str:0000000000000342 .LASF6
     /tmp/cchmtwv7.s:3037   .debug_str:000000000000027f .LASF7
     /tmp/cchmtwv7.s:3013   .debug_str:00000000000001d4 .LASF8
     /tmp/cchmtwv7.s:3017   .debug_str:00000000000001fc .LASF9
     /tmp/cchmtwv7.s:2969   .debug_str:00000000000000cf .LASF10
     /tmp/cchmtwv7.s:3007   .debug_str:00000000000001b6 .LASF11
     /tmp/cchmtwv7.s:2977   .debug_str:0000000000000105 .LASF12
     /tmp/cchmtwv7.s:2967   .debug_str:00000000000000bf .LASF13
     /tmp/cchmtwv7.s:3107   .debug_str:0000000000000486 .LASF14
     /tmp/cchmtwv7.s:2997   .debug_str:0000000000000172 .LASF15
     /tmp/cchmtwv7.s:3101   .debug_str:0000000000000446 .LASF16
     /tmp/cchmtwv7.s:3011   .debug_str:00000000000001ca .LASF17
     /tmp/cchmtwv7.s:2975   .debug_str:00000000000000fa .LASF31
     /tmp/cchmtwv7.s:3147   .debug_str:0000000000000645 .LASF88
     /tmp/cchmtwv7.s:2951   .debug_str:000000000000003b .LASF89
     /tmp/cchmtwv7.s:2941   .debug_str:0000000000000000 .LASF26
     /tmp/cchmtwv7.s:3091   .debug_str:0000000000000409 .LASF28
     /tmp/cchmtwv7.s:2965   .debug_str:00000000000000b5 .LASF41
     /tmp/cchmtwv7.s:3111   .debug_str:00000000000004a4 .LASF90
     /tmp/cchmtwv7.s:3117   .debug_str:00000000000004bd .LASF91
     /tmp/cchmtwv7.s:2963   .debug_str:00000000000000af .LASF18
     /tmp/cchmtwv7.s:3093   .debug_str:0000000000000420 .LASF19
     /tmp/cchmtwv7.s:2971   .debug_str:00000000000000de .LASF20
     /tmp/cchmtwv7.s:2959   .debug_str:0000000000000096 .LASF21
     /tmp/cchmtwv7.s:3039   .debug_str:0000000000000292 .LASF22
     /tmp/cchmtwv7.s:3149   .debug_str:0000000000000659 .LASF24
     /tmp/cchmtwv7.s:3113   .debug_str:00000000000004ac .LASF46
     /tmp/cchmtwv7.s:3139   .debug_str:0000000000000608 .LASF47
     /tmp/cchmtwv7.s:3085   .debug_str:00000000000003e3 .LASF23
     /tmp/cchmtwv7.s:3103   .debug_str:000000000000045c .LASF25
     /tmp/cchmtwv7.s:2987   .debug_str:0000000000000139 .LASF27
     /tmp/cchmtwv7.s:2953   .debug_str:0000000000000053 .LASF29
     /tmp/cchmtwv7.s:3097   .debug_str:000000000000042e .LASF30
     /tmp/cchmtwv7.s:3083   .debug_str:00000000000003d4 .LASF92
     /tmp/cchmtwv7.s:3119   .debug_str:00000000000004c3 .LASF93
     /tmp/cchmtwv7.s:2981   .debug_str:000000000000011a .LASF43
     /tmp/cchmtwv7.s:2955   .debug_str:0000000000000066 .LASF94
     /tmp/cchmtwv7.s:3133   .debug_str:00000000000005e6 .LASF95
     /tmp/cchmtwv7.s:3109   .debug_str:0000000000000492 .LASF96
     /tmp/cchmtwv7.s:3089   .debug_str:00000000000003f3 .LASF97
     /tmp/cchmtwv7.s:3059   .debug_str:000000000000031c .LASF98
GAS LISTING /tmp/cchmtwv7.s 			page 19


     /tmp/cchmtwv7.s:2985   .debug_str:0000000000000134 .LASF32
     /tmp/cchmtwv7.s:3095   .debug_str:0000000000000428 .LASF33
     /tmp/cchmtwv7.s:3131   .debug_str:00000000000005e1 .LASF34
     /tmp/cchmtwv7.s:3129   .debug_str:00000000000005d9 .LASF35
     /tmp/cchmtwv7.s:2991   .debug_str:000000000000015b .LASF36
     /tmp/cchmtwv7.s:3145   .debug_str:000000000000063f .LASF37
     /tmp/cchmtwv7.s:3123   .debug_str:000000000000058f .LASF99
     /tmp/cchmtwv7.s:3047   .debug_str:00000000000002de .LASF38
     /tmp/cchmtwv7.s:2993   .debug_str:0000000000000161 .LASF39
     /tmp/cchmtwv7.s:3135   .debug_str:00000000000005ee .LASF40
     /tmp/cchmtwv7.s:2957   .debug_str:000000000000008e .LASF42
     /tmp/cchmtwv7.s:3021   .debug_str:0000000000000218 .LASF44
     /tmp/cchmtwv7.s:2973   .debug_str:00000000000000e8 .LASF100
     /tmp/cchmtwv7.s:3077   .debug_str:00000000000003aa .LASF101
     /tmp/cchmtwv7.s:3153   .debug_str:0000000000000672 .LASF45
     /tmp/cchmtwv7.s:2995   .debug_str:000000000000016a .LASF66
     /tmp/cchmtwv7.s:3003   .debug_str:00000000000001a1 .LASF68
     /tmp/cchmtwv7.s:2945   .debug_str:0000000000000017 .LASF48
     /tmp/cchmtwv7.s:3029   .debug_str:0000000000000245 .LASF49
     /tmp/cchmtwv7.s:3067   .debug_str:0000000000000355 .LASF50
     /tmp/cchmtwv7.s:3061   .debug_str:0000000000000321 .LASF51
     /tmp/cchmtwv7.s:3031   .debug_str:000000000000024a .LASF52
     /tmp/cchmtwv7.s:3141   .debug_str:000000000000061f .LASF102
     /tmp/cchmtwv7.s:2999   .debug_str:0000000000000188 .LASF53
     /tmp/cchmtwv7.s:3025   .debug_str:0000000000000228 .LASF103
     /tmp/cchmtwv7.s:3009   .debug_str:00000000000001c5 .LASF54
     /tmp/cchmtwv7.s:2947   .debug_str:000000000000002a .LASF55
     /tmp/cchmtwv7.s:3043   .debug_str:00000000000002aa .LASF56
     /tmp/cchmtwv7.s:241    .text:00000000000000f8 .LFB66
     /tmp/cchmtwv7.s:274    .text:0000000000000138 .LFE66
     /tmp/cchmtwv7.s:2731   .debug_loc:0000000000000000 .LLST6
     /tmp/cchmtwv7.s:258    .text:0000000000000118 .LVL15
     /tmp/cchmtwv7.s:261    .text:0000000000000124 .LVL16
     /tmp/cchmtwv7.s:3069   .debug_str:0000000000000367 .LASF57
     /tmp/cchmtwv7.s:166    .text:00000000000000a0 .LFB64
     /tmp/cchmtwv7.s:225    .text:00000000000000f8 .LFE64
     /tmp/cchmtwv7.s:2749   .debug_loc:000000000000004c .LLST4
     /tmp/cchmtwv7.s:192    .text:00000000000000c8 .LBB7
     /tmp/cchmtwv7.s:206    .text:00000000000000d8 .LBE7
     /tmp/cchmtwv7.s:2763   .debug_loc:0000000000000085 .LLST5
     /tmp/cchmtwv7.s:203    .text:00000000000000d8 .LVL12
     /tmp/cchmtwv7.s:210    .text:00000000000000e4 .LVL13
     /tmp/cchmtwv7.s:517    .text:0000000000000278 .LFB62
     /tmp/cchmtwv7.s:542    .text:00000000000002a0 .LFE62
     /tmp/cchmtwv7.s:531    .text:0000000000000290 .LVL35
     /tmp/cchmtwv7.s:483    .text:000000000000024c .LFB61
     /tmp/cchmtwv7.s:511    .text:0000000000000278 .LFE61
     /tmp/cchmtwv7.s:2770   .debug_loc:00000000000000a8 .LLST12
     /tmp/cchmtwv7.s:500    .text:0000000000000268 .LVL34
     /tmp/cchmtwv7.s:447    .text:000000000000021c .LFB60
     /tmp/cchmtwv7.s:477    .text:000000000000024c .LFE60
     /tmp/cchmtwv7.s:2784   .debug_loc:00000000000000e1 .LLST11
     /tmp/cchmtwv7.s:464    .text:0000000000000238 .LVL31
     /tmp/cchmtwv7.s:3081   .debug_str:00000000000003c5 .LASF58
     /tmp/cchmtwv7.s:420    .text:000000000000021c .LFE58
     /tmp/cchmtwv7.s:2798   .debug_loc:000000000000011a .LLST10
     /tmp/cchmtwv7.s:384    .text:00000000000001d0 .LVL25
GAS LISTING /tmp/cchmtwv7.s 			page 20


     /tmp/cchmtwv7.s:391    .text:00000000000001e4 .LVL26
     /tmp/cchmtwv7.s:398    .text:00000000000001f8 .LVL27
     /tmp/cchmtwv7.s:402    .text:0000000000000204 .LVL28
     /tmp/cchmtwv7.s:3125   .debug_str:000000000000059f .LASF59
     /tmp/cchmtwv7.s:311    .text:0000000000000160 .LFB55
     /tmp/cchmtwv7.s:348    .text:00000000000001a0 .LFE55
     /tmp/cchmtwv7.s:2812   .debug_loc:0000000000000153 .LLST7
     /tmp/cchmtwv7.s:2832   .debug_loc:00000000000001a1 .LLST8
     /tmp/cchmtwv7.s:2846   .debug_loc:00000000000001da .LLST9
     /tmp/cchmtwv7.s:332    .text:0000000000000188 .LVL21
     /tmp/cchmtwv7.s:336    .text:0000000000000190 .LVL22
     /tmp/cchmtwv7.s:3137   .debug_str:00000000000005f7 .LASF60
     /tmp/cchmtwv7.s:3071   .debug_str:0000000000000376 .LASF61
     /tmp/cchmtwv7.s:280    .text:0000000000000138 .LFB53
     /tmp/cchmtwv7.s:305    .text:0000000000000160 .LFE53
     /tmp/cchmtwv7.s:294    .text:0000000000000150 .LVL18
     /tmp/cchmtwv7.s:3099   .debug_str:0000000000000433 .LASF62
     /tmp/cchmtwv7.s:3055   .debug_str:000000000000030e .LASF63
     /tmp/cchmtwv7.s:134    .text:0000000000000078 .LFB52
     /tmp/cchmtwv7.s:160    .text:00000000000000a0 .LFE52
     /tmp/cchmtwv7.s:2860   .debug_loc:0000000000000213 .LLST3
     /tmp/cchmtwv7.s:149    .text:0000000000000090 .LVL8
     /tmp/cchmtwv7.s:2943   .debug_str:0000000000000007 .LASF64
     /tmp/cchmtwv7.s:3057   .debug_str:0000000000000315 .LASF65
     /tmp/cchmtwv7.s:102    .text:0000000000000050 .LFB51
     /tmp/cchmtwv7.s:128    .text:0000000000000078 .LFE51
     /tmp/cchmtwv7.s:2874   .debug_loc:000000000000024c .LLST2
     /tmp/cchmtwv7.s:117    .text:0000000000000068 .LVL6
     /tmp/cchmtwv7.s:2961   .debug_str:000000000000009f .LASF67
     /tmp/cchmtwv7.s:3115   .debug_str:00000000000004b7 .LASF69
     /tmp/cchmtwv7.s:70     .text:0000000000000028 .LFB50
     /tmp/cchmtwv7.s:96     .text:0000000000000050 .LFE50
     /tmp/cchmtwv7.s:2979   .debug_str:0000000000000115 .LASF70
     /tmp/cchmtwv7.s:2888   .debug_loc:0000000000000285 .LLST1
     /tmp/cchmtwv7.s:85     .text:0000000000000040 .LVL4
     /tmp/cchmtwv7.s:3151   .debug_str:0000000000000665 .LASF71
     /tmp/cchmtwv7.s:3005   .debug_str:00000000000001b0 .LASF72
     /tmp/cchmtwv7.s:37     .text:0000000000000000 .LFB49
     /tmp/cchmtwv7.s:64     .text:0000000000000028 .LFE49
     /tmp/cchmtwv7.s:2902   .debug_loc:00000000000002be .LLST0
     /tmp/cchmtwv7.s:53     .text:0000000000000018 .LVL2
     /tmp/cchmtwv7.s:11     .text._ZN6Thread3runEv:0000000000000000 .LFB48
     /tmp/cchmtwv7.s:30     .text._ZN6Thread3runEv:0000000000000018 .LFE48
     /tmp/cchmtwv7.s:2983   .debug_str:0000000000000128 .LASF104
     /tmp/cchmtwv7.s:3051   .debug_str:00000000000002ed .LASF73
     /tmp/cchmtwv7.s:3073   .debug_str:000000000000038c .LASF75
     /tmp/cchmtwv7.s:2989   .debug_str:0000000000000142 .LASF74
     /tmp/cchmtwv7.s:3053   .debug_str:0000000000000302 .LASF76
     /tmp/cchmtwv7.s:3143   .debug_str:0000000000000630 .LASF105
     /tmp/cchmtwv7.s:3015   .debug_str:00000000000001e4 .LASF106
     /tmp/cchmtwv7.s:3045   .debug_str:00000000000002b9 .LASF77
     /tmp/cchmtwv7.s:3105   .debug_str:0000000000000478 .LASF78
     /tmp/cchmtwv7.s:3001   .debug_str:0000000000000191 .LASF79
     /tmp/cchmtwv7.s:3063   .debug_str:0000000000000337 .LASF80
     /tmp/cchmtwv7.s:3075   .debug_str:000000000000039c .LASF81
     /tmp/cchmtwv7.s:3023   .debug_str:000000000000021f .LASF82
     /tmp/cchmtwv7.s:3019   .debug_str:000000000000020a .LASF83
GAS LISTING /tmp/cchmtwv7.s 			page 21


     /tmp/cchmtwv7.s:3049   .debug_str:00000000000002e3 .LASF84
     /tmp/cchmtwv7.s:244    .text:00000000000000f8 .LVL14
     /tmp/cchmtwv7.s:269    .text:0000000000000130 .LVL17
     /tmp/cchmtwv7.s:171    .text:00000000000000a0 .LVL9
     /tmp/cchmtwv7.s:198    .text:00000000000000cc .LVL11
     /tmp/cchmtwv7.s:191    .text:00000000000000c8 .LVL10
     /tmp/cchmtwv7.s:486    .text:000000000000024c .LVL32
     /tmp/cchmtwv7.s:498    .text:0000000000000260 .LVL33
     /tmp/cchmtwv7.s:450    .text:000000000000021c .LVL29
     /tmp/cchmtwv7.s:462    .text:0000000000000230 .LVL30
     /tmp/cchmtwv7.s:361    .text:00000000000001a0 .LVL23
     /tmp/cchmtwv7.s:381    .text:00000000000001c8 .LVL24
     /tmp/cchmtwv7.s:314    .text:0000000000000160 .LVL19
     /tmp/cchmtwv7.s:330    .text:0000000000000180 .LVL20
     /tmp/cchmtwv7.s:137    .text:0000000000000078 .LVL7
     /tmp/cchmtwv7.s:105    .text:0000000000000050 .LVL5
     /tmp/cchmtwv7.s:73     .text:0000000000000028 .LVL3
     /tmp/cchmtwv7.s:41     .text:0000000000000000 .LVL1
     /tmp/cchmtwv7.s:561    .debug_info:0000000000000000 .Ldebug_info0
     /tmp/cchmtwv7.s:5      .text:0000000000000000 .Ltext0
     /tmp/cchmtwv7.s:556    .text:00000000000002a0 .Letext0
     /tmp/cchmtwv7.s:228    .gcc_except_table:0000000000000000 .LLSDA64
     /tmp/cchmtwv7.s:422    .gcc_except_table:0000000000000004 .LLSDA58

UNDEFINED SYMBOLS
_Z9mem_allocm
_Z8mem_freePv
__gxx_personality_v0
_Z10toUserModev
_Z13thread_createPP7_threadPFvPvES2_
_ZN9Scheduler6removeEv
_Unwind_Resume
_ZN9Scheduler3putEP3PCB
_Z11thread_joinP7_thread
_Z15thread_dispatchv
