GAS LISTING /tmp/ccnNhRRq.s 			page 1


   1              		.file	"syscall_cpp.cpp"
   2              		.option pic
   3              		.option norelax
   4              		.text
   5              	.Ltext0:
   6              		.section	.text._ZN6Thread3runEv,"axG",@progbits,_ZN6Thread3runEv,comdat
   7              		.align	2
   8              		.weak	_ZN6Thread3runEv
  10              	_ZN6Thread3runEv:
  11              	.LFB48:
  12              		.file 1 "src/../h/syscall_cpp.hpp"
   1:src/../h/syscall_cpp.hpp **** #ifndef PROJECT_BASE_V1_1_SYSCALL_CPP_HPP
   2:src/../h/syscall_cpp.hpp **** #define PROJECT_BASE_V1_1_SYSCALL_CPP_HPP
   3:src/../h/syscall_cpp.hpp **** 
   4:src/../h/syscall_cpp.hpp **** #include "syscall_c.hpp"
   5:src/../h/syscall_cpp.hpp **** 
   6:src/../h/syscall_cpp.hpp **** void *operator new(size_t size);
   7:src/../h/syscall_cpp.hpp **** 
   8:src/../h/syscall_cpp.hpp **** void *operator new[](size_t size);
   9:src/../h/syscall_cpp.hpp **** 
  10:src/../h/syscall_cpp.hpp **** void operator delete(void *ptr);
  11:src/../h/syscall_cpp.hpp **** 
  12:src/../h/syscall_cpp.hpp **** void operator delete[](void *ptr);
  13:src/../h/syscall_cpp.hpp **** 
  14:src/../h/syscall_cpp.hpp **** void switchToUserMode();
  15:src/../h/syscall_cpp.hpp **** 
  16:src/../h/syscall_cpp.hpp **** class Thread {
  17:src/../h/syscall_cpp.hpp **** public:
  18:src/../h/syscall_cpp.hpp ****     Thread(void (*body)(void *), void *arg);
  19:src/../h/syscall_cpp.hpp **** 
  20:src/../h/syscall_cpp.hpp ****     virtual ~Thread();
  21:src/../h/syscall_cpp.hpp **** 
  22:src/../h/syscall_cpp.hpp ****     int start();
  23:src/../h/syscall_cpp.hpp **** 
  24:src/../h/syscall_cpp.hpp ****     void join();
  25:src/../h/syscall_cpp.hpp **** 
  26:src/../h/syscall_cpp.hpp ****     static void dispatch();
  27:src/../h/syscall_cpp.hpp **** 
  28:src/../h/syscall_cpp.hpp **** 
  29:src/../h/syscall_cpp.hpp **** protected:
  30:src/../h/syscall_cpp.hpp ****     Thread();
  31:src/../h/syscall_cpp.hpp **** 
  32:src/../h/syscall_cpp.hpp ****     virtual void run() {}
  13              		.loc 1 32 18
  14              		.cfi_startproc
  15              	.LVL0:
  16 0000 130101FF 		addi	sp,sp,-16
  17              		.cfi_def_cfa_offset 16
  18 0004 23348100 		sd	s0,8(sp)
  19              		.cfi_offset 8, -8
  20 0008 13040101 		addi	s0,sp,16
  21              		.cfi_def_cfa 8, 0
  22              		.loc 1 32 25 is_stmt 0
  23 000c 03348100 		ld	s0,8(sp)
  24              		.cfi_restore 8
  25              		.cfi_def_cfa 2, 16
  26 0010 13010101 		addi	sp,sp,16
GAS LISTING /tmp/ccnNhRRq.s 			page 2


  27              		.cfi_def_cfa_offset 0
  28 0014 67800000 		jr	ra
  29              		.cfi_endproc
  30              	.LFE48:
  32              		.text
  33              		.align	2
  34              		.globl	_ZN6Thread13threadWrapperEPv
  36              	_ZN6Thread13threadWrapperEPv:
  37              	.LFB60:
  38              		.file 2 "src/syscall_cpp.cpp"
   1:src/syscall_cpp.cpp **** //
   2:src/syscall_cpp.cpp **** // Created by os on 2/2/23.
   3:src/syscall_cpp.cpp **** //
   4:src/syscall_cpp.cpp **** 
   5:src/syscall_cpp.cpp **** #include "../h/syscall_cpp.hpp"
   6:src/syscall_cpp.cpp **** 
   7:src/syscall_cpp.cpp **** void* operator new(size_t size) {
   8:src/syscall_cpp.cpp ****     return mem_alloc(size);
   9:src/syscall_cpp.cpp **** }
  10:src/syscall_cpp.cpp **** 
  11:src/syscall_cpp.cpp **** void* operator new[](size_t size) {
  12:src/syscall_cpp.cpp ****     return mem_alloc(size);
  13:src/syscall_cpp.cpp **** }
  14:src/syscall_cpp.cpp **** 
  15:src/syscall_cpp.cpp **** void operator delete(void *ptr) { mem_free(ptr); }
  16:src/syscall_cpp.cpp **** 
  17:src/syscall_cpp.cpp **** void operator delete[](void *ptr) { mem_free(ptr); }
  18:src/syscall_cpp.cpp **** 
  19:src/syscall_cpp.cpp **** void switchToUserMode(){ toUserMode();}
  20:src/syscall_cpp.cpp **** 
  21:src/syscall_cpp.cpp **** Thread::Thread(void (*body)(void*), void* arg) {
  22:src/syscall_cpp.cpp ****     thread_create(&myHandle, body, arg);
  23:src/syscall_cpp.cpp ****     Scheduler::remove();
  24:src/syscall_cpp.cpp **** }
  25:src/syscall_cpp.cpp **** 
  26:src/syscall_cpp.cpp **** Thread::Thread() : Thread(threadWrapper, this){}
  27:src/syscall_cpp.cpp **** 
  28:src/syscall_cpp.cpp **** void Thread::threadWrapper(void *t) {
  39              		.loc 2 28 37 is_stmt 1
  40              		.cfi_startproc
  41              	.LVL1:
  42 0000 130101FF 		addi	sp,sp,-16
  43              		.cfi_def_cfa_offset 16
  44 0004 23341100 		sd	ra,8(sp)
  45 0008 23308100 		sd	s0,0(sp)
  46              		.cfi_offset 1, -8
  47              		.cfi_offset 8, -16
  48 000c 13040101 		addi	s0,sp,16
  49              		.cfi_def_cfa 8, 0
  29:src/syscall_cpp.cpp ****     ((Thread*)t)->run();
  50              		.loc 2 29 5
  51              		.loc 2 29 23 is_stmt 0
  52 0010 83370500 		ld	a5,0(a0)
  53 0014 83B70701 		ld	a5,16(a5)
  54              		.loc 2 29 22
  55 0018 E7800700 		jalr	a5
  56              	.LVL2:
GAS LISTING /tmp/ccnNhRRq.s 			page 3


  30:src/syscall_cpp.cpp **** }
  57              		.loc 2 30 1
  58 001c 83308100 		ld	ra,8(sp)
  59              		.cfi_restore 1
  60 0020 03340100 		ld	s0,0(sp)
  61              		.cfi_restore 8
  62              		.cfi_def_cfa 2, 16
  63 0024 13010101 		addi	sp,sp,16
  64              		.cfi_def_cfa_offset 0
  65 0028 67800000 		jr	ra
  66              		.cfi_endproc
  67              	.LFE60:
  69              		.align	2
  70              		.globl	_Znwm
  72              	_Znwm:
  73              	.LFB49:
   7:src/syscall_cpp.cpp ****     return mem_alloc(size);
  74              		.loc 2 7 33 is_stmt 1
  75              		.cfi_startproc
  76              	.LVL3:
  77 002c 130101FF 		addi	sp,sp,-16
  78              		.cfi_def_cfa_offset 16
  79 0030 23341100 		sd	ra,8(sp)
  80 0034 23308100 		sd	s0,0(sp)
  81              		.cfi_offset 1, -8
  82              		.cfi_offset 8, -16
  83 0038 13040101 		addi	s0,sp,16
  84              		.cfi_def_cfa 8, 0
   8:src/syscall_cpp.cpp **** }
  85              		.loc 2 8 5
   8:src/syscall_cpp.cpp **** }
  86              		.loc 2 8 21 is_stmt 0
  87 003c 97000000 		call	_Z9mem_allocm@plt
  87      E7800000 
  88              	.LVL4:
   9:src/syscall_cpp.cpp **** 
  89              		.loc 2 9 1
  90 0044 83308100 		ld	ra,8(sp)
  91              		.cfi_restore 1
  92 0048 03340100 		ld	s0,0(sp)
  93              		.cfi_restore 8
  94              		.cfi_def_cfa 2, 16
  95 004c 13010101 		addi	sp,sp,16
  96              		.cfi_def_cfa_offset 0
  97 0050 67800000 		jr	ra
  98              		.cfi_endproc
  99              	.LFE49:
 101              		.align	2
 102              		.globl	_Znam
 104              	_Znam:
 105              	.LFB50:
  11:src/syscall_cpp.cpp ****     return mem_alloc(size);
 106              		.loc 2 11 35 is_stmt 1
 107              		.cfi_startproc
 108              	.LVL5:
 109 0054 130101FF 		addi	sp,sp,-16
 110              		.cfi_def_cfa_offset 16
GAS LISTING /tmp/ccnNhRRq.s 			page 4


 111 0058 23341100 		sd	ra,8(sp)
 112 005c 23308100 		sd	s0,0(sp)
 113              		.cfi_offset 1, -8
 114              		.cfi_offset 8, -16
 115 0060 13040101 		addi	s0,sp,16
 116              		.cfi_def_cfa 8, 0
  12:src/syscall_cpp.cpp **** }
 117              		.loc 2 12 5
  12:src/syscall_cpp.cpp **** }
 118              		.loc 2 12 21 is_stmt 0
 119 0064 97000000 		call	_Z9mem_allocm@plt
 119      E7800000 
 120              	.LVL6:
  13:src/syscall_cpp.cpp **** 
 121              		.loc 2 13 1
 122 006c 83308100 		ld	ra,8(sp)
 123              		.cfi_restore 1
 124 0070 03340100 		ld	s0,0(sp)
 125              		.cfi_restore 8
 126              		.cfi_def_cfa 2, 16
 127 0074 13010101 		addi	sp,sp,16
 128              		.cfi_def_cfa_offset 0
 129 0078 67800000 		jr	ra
 130              		.cfi_endproc
 131              	.LFE50:
 133              		.align	2
 134              		.globl	_ZdlPv
 136              	_ZdlPv:
 137              	.LFB51:
  15:src/syscall_cpp.cpp **** 
 138              		.loc 2 15 33 is_stmt 1
 139              		.cfi_startproc
 140              	.LVL7:
 141 007c 130101FF 		addi	sp,sp,-16
 142              		.cfi_def_cfa_offset 16
 143 0080 23341100 		sd	ra,8(sp)
 144 0084 23308100 		sd	s0,0(sp)
 145              		.cfi_offset 1, -8
 146              		.cfi_offset 8, -16
 147 0088 13040101 		addi	s0,sp,16
 148              		.cfi_def_cfa 8, 0
  15:src/syscall_cpp.cpp **** 
 149              		.loc 2 15 35
  15:src/syscall_cpp.cpp **** 
 150              		.loc 2 15 43 is_stmt 0
 151 008c 97000000 		call	_Z8mem_freePv@plt
 151      E7800000 
 152              	.LVL8:
  15:src/syscall_cpp.cpp **** 
 153              		.loc 2 15 50
 154 0094 83308100 		ld	ra,8(sp)
 155              		.cfi_restore 1
 156 0098 03340100 		ld	s0,0(sp)
 157              		.cfi_restore 8
 158              		.cfi_def_cfa 2, 16
 159 009c 13010101 		addi	sp,sp,16
 160              		.cfi_def_cfa_offset 0
GAS LISTING /tmp/ccnNhRRq.s 			page 5


 161 00a0 67800000 		jr	ra
 162              		.cfi_endproc
 163              	.LFE51:
 165              		.align	2
 166              		.globl	_ZdaPv
 168              	_ZdaPv:
 169              	.LFB52:
  17:src/syscall_cpp.cpp **** 
 170              		.loc 2 17 35 is_stmt 1
 171              		.cfi_startproc
 172              	.LVL9:
 173 00a4 130101FF 		addi	sp,sp,-16
 174              		.cfi_def_cfa_offset 16
 175 00a8 23341100 		sd	ra,8(sp)
 176 00ac 23308100 		sd	s0,0(sp)
 177              		.cfi_offset 1, -8
 178              		.cfi_offset 8, -16
 179 00b0 13040101 		addi	s0,sp,16
 180              		.cfi_def_cfa 8, 0
  17:src/syscall_cpp.cpp **** 
 181              		.loc 2 17 37
  17:src/syscall_cpp.cpp **** 
 182              		.loc 2 17 45 is_stmt 0
 183 00b4 97000000 		call	_Z8mem_freePv@plt
 183      E7800000 
 184              	.LVL10:
  17:src/syscall_cpp.cpp **** 
 185              		.loc 2 17 52
 186 00bc 83308100 		ld	ra,8(sp)
 187              		.cfi_restore 1
 188 00c0 03340100 		ld	s0,0(sp)
 189              		.cfi_restore 8
 190              		.cfi_def_cfa 2, 16
 191 00c4 13010101 		addi	sp,sp,16
 192              		.cfi_def_cfa_offset 0
 193 00c8 67800000 		jr	ra
 194              		.cfi_endproc
 195              	.LFE52:
 197              		.align	2
 198              		.globl	_ZN6ThreadD2Ev
 200              	_ZN6ThreadD2Ev:
 201              	.LFB65:
  31:src/syscall_cpp.cpp **** 
  32:src/syscall_cpp.cpp **** int Thread::start() {
  33:src/syscall_cpp.cpp ****     Scheduler::put((PCB*)myHandle);
  34:src/syscall_cpp.cpp **** 
  35:src/syscall_cpp.cpp ****     return 0;
  36:src/syscall_cpp.cpp **** }
  37:src/syscall_cpp.cpp **** 
  38:src/syscall_cpp.cpp **** void Thread::join() {
  39:src/syscall_cpp.cpp ****     thread_join(myHandle);
  40:src/syscall_cpp.cpp **** }
  41:src/syscall_cpp.cpp **** 
  42:src/syscall_cpp.cpp **** void Thread::dispatch() {
  43:src/syscall_cpp.cpp ****     thread_dispatch();
  44:src/syscall_cpp.cpp **** }
  45:src/syscall_cpp.cpp **** 
GAS LISTING /tmp/ccnNhRRq.s 			page 6


  46:src/syscall_cpp.cpp **** Thread::~Thread() {
 202              		.loc 2 46 1 is_stmt 1
 203              		.cfi_startproc
 204              		.cfi_personality 0x9b,DW.ref.__gxx_personality_v0
 205              		.cfi_lsda 0x1b,.LLSDA65
 206              	.LVL11:
 207 00cc 130101FE 		addi	sp,sp,-32
 208              		.cfi_def_cfa_offset 32
 209 00d0 233C1100 		sd	ra,24(sp)
 210 00d4 23388100 		sd	s0,16(sp)
 211 00d8 23349100 		sd	s1,8(sp)
 212              		.cfi_offset 1, -8
 213              		.cfi_offset 8, -16
 214              		.cfi_offset 9, -24
 215 00dc 13040102 		addi	s0,sp,32
 216              		.cfi_def_cfa 8, 0
 217 00e0 93040500 		mv	s1,a0
 218              	.LBB6:
 219              		.loc 2 46 17 is_stmt 0
 220 00e4 97070000 		lla	a5,_ZTV6Thread+16
 220      93870700 
 221 00ec 2330F500 		sd	a5,0(a0)
  47:src/syscall_cpp.cpp ****     thread_exit();
 222              		.loc 2 47 5 is_stmt 1
 223              		.loc 2 47 16 is_stmt 0
 224 00f0 97000000 		call	_Z11thread_exitv@plt
 224      E7800000 
 225              	.LVL12:
  48:src/syscall_cpp.cpp ****     delete (PCB*)myHandle;
 226              		.loc 2 48 5 is_stmt 1
 227              		.loc 2 48 18 is_stmt 0
 228 00f8 83B48400 		ld	s1,8(s1)
 229              	.LVL13:
 230              		.loc 2 48 26
 231 00fc 63800402 		beqz	s1,.L13
 232              	.LVL14:
 233              	.LBB7:
 234              	.LBB8:
 235              		.file 3 "src/../h/PCB.hpp"
   1:src/../h/PCB.hpp **** #ifndef PROJECT_BASE_V1_1_PCB_HPP
   2:src/../h/PCB.hpp **** #define PROJECT_BASE_V1_1_PCB_HPP
   3:src/../h/PCB.hpp **** 
   4:src/../h/PCB.hpp **** 
   5:src/../h/PCB.hpp **** #include "Scheduler.hpp"
   6:src/../h/PCB.hpp **** #include "riscv.hpp"
   7:src/../h/PCB.hpp **** #include "../h/syscall_c.hpp"
   8:src/../h/PCB.hpp **** 
   9:src/../h/PCB.hpp **** 
  10:src/../h/PCB.hpp **** class PCB {
  11:src/../h/PCB.hpp **** public:
  12:src/../h/PCB.hpp ****     struct Context {
  13:src/../h/PCB.hpp ****         uint64 ra;
  14:src/../h/PCB.hpp ****         uint64 sp;
  15:src/../h/PCB.hpp ****     };
  16:src/../h/PCB.hpp **** 
  17:src/../h/PCB.hpp ****     enum State {
  18:src/../h/PCB.hpp ****         READY,
GAS LISTING /tmp/ccnNhRRq.s 			page 7


  19:src/../h/PCB.hpp ****         RUNNING,
  20:src/../h/PCB.hpp ****         SUSPENDED,
  21:src/../h/PCB.hpp ****         FINISHED
  22:src/../h/PCB.hpp ****     };
  23:src/../h/PCB.hpp **** 
  24:src/../h/PCB.hpp ****     ~PCB() { delete[] stack; }
 236              		.loc 3 24 14 is_stmt 1
 237              		.loc 3 24 23 is_stmt 0
 238 0100 03B58400 		ld	a0,8(s1)
 239              		.loc 3 24 28
 240 0104 63060500 		beqz	a0,.L15
 241              		.loc 3 24 23
 242 0108 97000000 		call	_ZdaPv
 242      E7800000 
 243              	.LVL15:
 244              	.L15:
 245              	.LBE8:
 246              	.LBE7:
 247              		.loc 2 48 18
 248 0110 13850400 		mv	a0,s1
 249 0114 97000000 		call	_ZdlPv
 249      E7800000 
 250              	.LVL16:
 251              	.L13:
 252              	.LBE6:
  49:src/syscall_cpp.cpp **** }
 253              		.loc 2 49 1
 254 011c 83308101 		ld	ra,24(sp)
 255              		.cfi_restore 1
 256 0120 03340101 		ld	s0,16(sp)
 257              		.cfi_restore 8
 258              		.cfi_def_cfa 2, 32
 259 0124 83348100 		ld	s1,8(sp)
 260              		.cfi_restore 9
 261 0128 13010102 		addi	sp,sp,32
 262              		.cfi_def_cfa_offset 0
 263 012c 67800000 		jr	ra
 264              		.cfi_endproc
 265              	.LFE65:
 266              		.globl	__gxx_personality_v0
 267              		.section	.gcc_except_table,"a",@progbits
 268              	.LLSDA65:
 269 0000 FF       		.byte	0xff
 270 0001 FF       		.byte	0xff
 271 0002 03       		.byte	0x3
 272 0003 00       		.byte	0
 273              		.text
 275              		.globl	_ZN6ThreadD1Ev
 276              		.set	_ZN6ThreadD1Ev,_ZN6ThreadD2Ev
 277              		.align	2
 278              		.globl	_ZN6ThreadD0Ev
 280              	_ZN6ThreadD0Ev:
 281              	.LFB67:
  46:src/syscall_cpp.cpp ****     thread_exit();
 282              		.loc 2 46 1 is_stmt 1
 283              		.cfi_startproc
 284              	.LVL17:
GAS LISTING /tmp/ccnNhRRq.s 			page 8


 285 0130 130101FE 		addi	sp,sp,-32
 286              		.cfi_def_cfa_offset 32
 287 0134 233C1100 		sd	ra,24(sp)
 288 0138 23388100 		sd	s0,16(sp)
 289 013c 23349100 		sd	s1,8(sp)
 290              		.cfi_offset 1, -8
 291              		.cfi_offset 8, -16
 292              		.cfi_offset 9, -24
 293 0140 13040102 		addi	s0,sp,32
 294              		.cfi_def_cfa 8, 0
 295 0144 93040500 		mv	s1,a0
 296              		.loc 2 49 1 is_stmt 0
 297 0148 97000000 		call	_ZN6ThreadD1Ev
 297      E7800000 
 298              	.LVL18:
 299 0150 13850400 		mv	a0,s1
 300 0154 97000000 		call	_ZdlPv
 300      E7800000 
 301              	.LVL19:
 302 015c 83308101 		ld	ra,24(sp)
 303              		.cfi_restore 1
 304 0160 03340101 		ld	s0,16(sp)
 305              		.cfi_restore 8
 306              		.cfi_def_cfa 2, 32
 307 0164 83348100 		ld	s1,8(sp)
 308              		.cfi_restore 9
 309              	.LVL20:
 310 0168 13010102 		addi	sp,sp,32
 311              		.cfi_def_cfa_offset 0
 312 016c 67800000 		jr	ra
 313              		.cfi_endproc
 314              	.LFE67:
 316              		.align	2
 317              		.globl	_Z16switchToUserModev
 319              	_Z16switchToUserModev:
 320              	.LFB53:
  19:src/syscall_cpp.cpp **** 
 321              		.loc 2 19 24 is_stmt 1
 322              		.cfi_startproc
 323 0170 130101FF 		addi	sp,sp,-16
 324              		.cfi_def_cfa_offset 16
 325 0174 23341100 		sd	ra,8(sp)
 326 0178 23308100 		sd	s0,0(sp)
 327              		.cfi_offset 1, -8
 328              		.cfi_offset 8, -16
 329 017c 13040101 		addi	s0,sp,16
 330              		.cfi_def_cfa 8, 0
  19:src/syscall_cpp.cpp **** 
 331              		.loc 2 19 26
  19:src/syscall_cpp.cpp **** 
 332              		.loc 2 19 36 is_stmt 0
 333 0180 97000000 		call	_Z10toUserModev@plt
 333      E7800000 
 334              	.LVL21:
  19:src/syscall_cpp.cpp **** 
 335              		.loc 2 19 39
 336 0188 83308100 		ld	ra,8(sp)
GAS LISTING /tmp/ccnNhRRq.s 			page 9


 337              		.cfi_restore 1
 338 018c 03340100 		ld	s0,0(sp)
 339              		.cfi_restore 8
 340              		.cfi_def_cfa 2, 16
 341 0190 13010101 		addi	sp,sp,16
 342              		.cfi_def_cfa_offset 0
 343 0194 67800000 		jr	ra
 344              		.cfi_endproc
 345              	.LFE53:
 347              		.align	2
 348              		.globl	_ZN6ThreadC2EPFvPvES0_
 350              	_ZN6ThreadC2EPFvPvES0_:
 351              	.LFB55:
  21:src/syscall_cpp.cpp ****     thread_create(&myHandle, body, arg);
 352              		.loc 2 21 1 is_stmt 1
 353              		.cfi_startproc
 354              	.LVL22:
 355 0198 130101FF 		addi	sp,sp,-16
 356              		.cfi_def_cfa_offset 16
 357 019c 23341100 		sd	ra,8(sp)
 358 01a0 23308100 		sd	s0,0(sp)
 359              		.cfi_offset 1, -8
 360              		.cfi_offset 8, -16
 361 01a4 13040101 		addi	s0,sp,16
 362              		.cfi_def_cfa 8, 0
 363              	.LBB9:
  21:src/syscall_cpp.cpp ****     thread_create(&myHandle, body, arg);
 364              		.loc 2 21 46 is_stmt 0
 365 01a8 97070000 		lla	a5,_ZTV6Thread+16
 365      93870700 
 366 01b0 2330F500 		sd	a5,0(a0)
  22:src/syscall_cpp.cpp ****     Scheduler::remove();
 367              		.loc 2 22 5 is_stmt 1
  22:src/syscall_cpp.cpp ****     Scheduler::remove();
 368              		.loc 2 22 18 is_stmt 0
 369 01b4 13058500 		addi	a0,a0,8
 370              	.LVL23:
 371 01b8 97000000 		call	_Z13thread_createPP7_threadPFvPvES2_@plt
 371      E7800000 
 372              	.LVL24:
  23:src/syscall_cpp.cpp **** }
 373              		.loc 2 23 5 is_stmt 1
  23:src/syscall_cpp.cpp **** }
 374              		.loc 2 23 22 is_stmt 0
 375 01c0 97000000 		call	_ZN9Scheduler6removeEv@plt
 375      E7800000 
 376              	.LVL25:
 377              	.LBE9:
  24:src/syscall_cpp.cpp **** 
 378              		.loc 2 24 1
 379 01c8 83308100 		ld	ra,8(sp)
 380              		.cfi_restore 1
 381 01cc 03340100 		ld	s0,0(sp)
 382              		.cfi_restore 8
 383              		.cfi_def_cfa 2, 16
 384 01d0 13010101 		addi	sp,sp,16
 385              		.cfi_def_cfa_offset 0
GAS LISTING /tmp/ccnNhRRq.s 			page 10


 386 01d4 67800000 		jr	ra
 387              		.cfi_endproc
 388              	.LFE55:
 390              		.globl	_ZN6ThreadC1EPFvPvES0_
 391              		.set	_ZN6ThreadC1EPFvPvES0_,_ZN6ThreadC2EPFvPvES0_
 392              		.align	2
 393              		.globl	_ZN6ThreadC2Ev
 395              	_ZN6ThreadC2Ev:
 396              	.LFB58:
  26:src/syscall_cpp.cpp **** 
 397              		.loc 2 26 1 is_stmt 1
 398              		.cfi_startproc
 399              	.LVL26:
 400 01d8 130101FF 		addi	sp,sp,-16
 401              		.cfi_def_cfa_offset 16
 402 01dc 23341100 		sd	ra,8(sp)
 403 01e0 23308100 		sd	s0,0(sp)
 404              		.cfi_offset 1, -8
 405              		.cfi_offset 8, -16
 406 01e4 13040101 		addi	s0,sp,16
 407              		.cfi_def_cfa 8, 0
 408 01e8 13060500 		mv	a2,a0
 409              	.LBB10:
  26:src/syscall_cpp.cpp **** 
 410              		.loc 2 26 46 is_stmt 0
 411 01ec 97050000 		lla	a1,_ZN6Thread13threadWrapperEPv
 411      93850500 
 412 01f4 97000000 		call	_ZN6ThreadC1EPFvPvES0_
 412      E7800000 
 413              	.LVL27:
 414              	.LBE10:
  26:src/syscall_cpp.cpp **** 
 415              		.loc 2 26 48
 416 01fc 83308100 		ld	ra,8(sp)
 417              		.cfi_restore 1
 418 0200 03340100 		ld	s0,0(sp)
 419              		.cfi_restore 8
 420              		.cfi_def_cfa 2, 16
 421 0204 13010101 		addi	sp,sp,16
 422              		.cfi_def_cfa_offset 0
 423 0208 67800000 		jr	ra
 424              		.cfi_endproc
 425              	.LFE58:
 427              		.globl	_ZN6ThreadC1Ev
 428              		.set	_ZN6ThreadC1Ev,_ZN6ThreadC2Ev
 429              		.align	2
 430              		.globl	_ZN6Thread5startEv
 432              	_ZN6Thread5startEv:
 433              	.LFB61:
  32:src/syscall_cpp.cpp ****     Scheduler::put((PCB*)myHandle);
 434              		.loc 2 32 21 is_stmt 1
 435              		.cfi_startproc
 436              	.LVL28:
 437 020c 130101FF 		addi	sp,sp,-16
 438              		.cfi_def_cfa_offset 16
 439 0210 23341100 		sd	ra,8(sp)
 440 0214 23308100 		sd	s0,0(sp)
GAS LISTING /tmp/ccnNhRRq.s 			page 11


 441              		.cfi_offset 1, -8
 442              		.cfi_offset 8, -16
 443 0218 13040101 		addi	s0,sp,16
 444              		.cfi_def_cfa 8, 0
  33:src/syscall_cpp.cpp **** 
 445              		.loc 2 33 5
  33:src/syscall_cpp.cpp **** 
 446              		.loc 2 33 19 is_stmt 0
 447 021c 03358500 		ld	a0,8(a0)
 448              	.LVL29:
 449 0220 97000000 		call	_ZN9Scheduler3putEP3PCB@plt
 449      E7800000 
 450              	.LVL30:
  35:src/syscall_cpp.cpp **** }
 451              		.loc 2 35 5 is_stmt 1
  36:src/syscall_cpp.cpp **** 
 452              		.loc 2 36 1 is_stmt 0
 453 0228 13050000 		li	a0,0
 454 022c 83308100 		ld	ra,8(sp)
 455              		.cfi_restore 1
 456 0230 03340100 		ld	s0,0(sp)
 457              		.cfi_restore 8
 458              		.cfi_def_cfa 2, 16
 459 0234 13010101 		addi	sp,sp,16
 460              		.cfi_def_cfa_offset 0
 461 0238 67800000 		jr	ra
 462              		.cfi_endproc
 463              	.LFE61:
 465              		.align	2
 466              		.globl	_ZN6Thread4joinEv
 468              	_ZN6Thread4joinEv:
 469              	.LFB62:
  38:src/syscall_cpp.cpp ****     thread_join(myHandle);
 470              		.loc 2 38 21 is_stmt 1
 471              		.cfi_startproc
 472              	.LVL31:
 473 023c 130101FF 		addi	sp,sp,-16
 474              		.cfi_def_cfa_offset 16
 475 0240 23341100 		sd	ra,8(sp)
 476 0244 23308100 		sd	s0,0(sp)
 477              		.cfi_offset 1, -8
 478              		.cfi_offset 8, -16
 479 0248 13040101 		addi	s0,sp,16
 480              		.cfi_def_cfa 8, 0
  39:src/syscall_cpp.cpp **** }
 481              		.loc 2 39 5
  39:src/syscall_cpp.cpp **** }
 482              		.loc 2 39 16 is_stmt 0
 483 024c 03358500 		ld	a0,8(a0)
 484              	.LVL32:
 485 0250 97000000 		call	_Z11thread_joinP7_thread@plt
 485      E7800000 
 486              	.LVL33:
  40:src/syscall_cpp.cpp **** 
 487              		.loc 2 40 1
 488 0258 83308100 		ld	ra,8(sp)
 489              		.cfi_restore 1
GAS LISTING /tmp/ccnNhRRq.s 			page 12


 490 025c 03340100 		ld	s0,0(sp)
 491              		.cfi_restore 8
 492              		.cfi_def_cfa 2, 16
 493 0260 13010101 		addi	sp,sp,16
 494              		.cfi_def_cfa_offset 0
 495 0264 67800000 		jr	ra
 496              		.cfi_endproc
 497              	.LFE62:
 499              		.align	2
 500              		.globl	_ZN6Thread8dispatchEv
 502              	_ZN6Thread8dispatchEv:
 503              	.LFB63:
  42:src/syscall_cpp.cpp ****     thread_dispatch();
 504              		.loc 2 42 25 is_stmt 1
 505              		.cfi_startproc
 506 0268 130101FF 		addi	sp,sp,-16
 507              		.cfi_def_cfa_offset 16
 508 026c 23341100 		sd	ra,8(sp)
 509 0270 23308100 		sd	s0,0(sp)
 510              		.cfi_offset 1, -8
 511              		.cfi_offset 8, -16
 512 0274 13040101 		addi	s0,sp,16
 513              		.cfi_def_cfa 8, 0
  43:src/syscall_cpp.cpp **** }
 514              		.loc 2 43 5
  43:src/syscall_cpp.cpp **** }
 515              		.loc 2 43 20 is_stmt 0
 516 0278 97000000 		call	_Z15thread_dispatchv@plt
 516      E7800000 
 517              	.LVL34:
  44:src/syscall_cpp.cpp **** 
 518              		.loc 2 44 1
 519 0280 83308100 		ld	ra,8(sp)
 520              		.cfi_restore 1
 521 0284 03340100 		ld	s0,0(sp)
 522              		.cfi_restore 8
 523              		.cfi_def_cfa 2, 16
 524 0288 13010101 		addi	sp,sp,16
 525              		.cfi_def_cfa_offset 0
 526 028c 67800000 		jr	ra
 527              		.cfi_endproc
 528              	.LFE63:
 530              		.weak	_ZTV6Thread
 531              		.section	.data.rel.ro.local._ZTV6Thread,"awG",@progbits,_ZTV6Thread,comdat
 532              		.align	3
 535              	_ZTV6Thread:
 536 0000 00000000 		.dword	0
 536      00000000 
 537 0008 00000000 		.dword	0
 537      00000000 
 538 0010 00000000 		.dword	_ZN6ThreadD1Ev
 538      00000000 
 539 0018 00000000 		.dword	_ZN6ThreadD0Ev
 539      00000000 
 540 0020 00000000 		.dword	_ZN6Thread3runEv
 540      00000000 
 541              		.text
GAS LISTING /tmp/ccnNhRRq.s 			page 13


 542              	.Letext0:
 543              		.file 4 "src/../h/../h/../lib/hw.h"
 544              		.file 5 "src/../h/Scheduler.hpp"
 545              		.file 6 "src/../h/syscall_c.hpp"
 3191              		.align	3
 3194              	DW.ref.__gxx_personality_v0:
 3195 0000 00000000 		.dword	__gxx_personality_v0
 3195      00000000 
 3196              		.ident	"GCC: (Ubuntu 9.4.0-1ubuntu1~20.04) 9.4.0"
 3197              		.section	.note.GNU-stack,"",@progbits
GAS LISTING /tmp/ccnNhRRq.s 			page 14


DEFINED SYMBOLS
                            *ABS*:0000000000000000 syscall_cpp.cpp
     /tmp/ccnNhRRq.s:10     .text._ZN6Thread3runEv:0000000000000000 _ZN6Thread3runEv
     /tmp/ccnNhRRq.s:14     .text._ZN6Thread3runEv:0000000000000000 .L0 
     /tmp/ccnNhRRq.s:16     .text._ZN6Thread3runEv:0000000000000000 .L0 
     /tmp/ccnNhRRq.s:17     .text._ZN6Thread3runEv:0000000000000004 .L0 
     /tmp/ccnNhRRq.s:19     .text._ZN6Thread3runEv:0000000000000008 .L0 
     /tmp/ccnNhRRq.s:21     .text._ZN6Thread3runEv:000000000000000c .L0 
     /tmp/ccnNhRRq.s:23     .text._ZN6Thread3runEv:000000000000000c .L0 
     /tmp/ccnNhRRq.s:24     .text._ZN6Thread3runEv:0000000000000010 .L0 
     /tmp/ccnNhRRq.s:25     .text._ZN6Thread3runEv:0000000000000010 .L0 
     /tmp/ccnNhRRq.s:27     .text._ZN6Thread3runEv:0000000000000014 .L0 
     /tmp/ccnNhRRq.s:29     .text._ZN6Thread3runEv:0000000000000018 .L0 
     /tmp/ccnNhRRq.s:36     .text:0000000000000000 _ZN6Thread13threadWrapperEPv
     /tmp/ccnNhRRq.s:40     .text:0000000000000000 .L0 
     /tmp/ccnNhRRq.s:42     .text:0000000000000000 .L0 
     /tmp/ccnNhRRq.s:43     .text:0000000000000004 .L0 
     /tmp/ccnNhRRq.s:46     .text:000000000000000c .L0 
     /tmp/ccnNhRRq.s:47     .text:000000000000000c .L0 
     /tmp/ccnNhRRq.s:49     .text:0000000000000010 .L0 
     /tmp/ccnNhRRq.s:51     .text:0000000000000010 .L0 
     /tmp/ccnNhRRq.s:52     .text:0000000000000010 .L0 
     /tmp/ccnNhRRq.s:55     .text:0000000000000018 .L0 
     /tmp/ccnNhRRq.s:58     .text:000000000000001c .L0 
     /tmp/ccnNhRRq.s:59     .text:0000000000000020 .L0 
     /tmp/ccnNhRRq.s:61     .text:0000000000000024 .L0 
     /tmp/ccnNhRRq.s:62     .text:0000000000000024 .L0 
     /tmp/ccnNhRRq.s:64     .text:0000000000000028 .L0 
     /tmp/ccnNhRRq.s:66     .text:000000000000002c .L0 
     /tmp/ccnNhRRq.s:72     .text:000000000000002c _Znwm
     /tmp/ccnNhRRq.s:75     .text:000000000000002c .L0 
     /tmp/ccnNhRRq.s:77     .text:000000000000002c .L0 
     /tmp/ccnNhRRq.s:78     .text:0000000000000030 .L0 
     /tmp/ccnNhRRq.s:81     .text:0000000000000038 .L0 
     /tmp/ccnNhRRq.s:82     .text:0000000000000038 .L0 
     /tmp/ccnNhRRq.s:84     .text:000000000000003c .L0 
     /tmp/ccnNhRRq.s:86     .text:000000000000003c .L0 
     /tmp/ccnNhRRq.s:87     .text:000000000000003c .L0 
     /tmp/ccnNhRRq.s:90     .text:0000000000000044 .L0 
     /tmp/ccnNhRRq.s:91     .text:0000000000000048 .L0 
     /tmp/ccnNhRRq.s:93     .text:000000000000004c .L0 
     /tmp/ccnNhRRq.s:94     .text:000000000000004c .L0 
     /tmp/ccnNhRRq.s:96     .text:0000000000000050 .L0 
     /tmp/ccnNhRRq.s:98     .text:0000000000000054 .L0 
     /tmp/ccnNhRRq.s:104    .text:0000000000000054 _Znam
     /tmp/ccnNhRRq.s:107    .text:0000000000000054 .L0 
     /tmp/ccnNhRRq.s:109    .text:0000000000000054 .L0 
     /tmp/ccnNhRRq.s:110    .text:0000000000000058 .L0 
     /tmp/ccnNhRRq.s:113    .text:0000000000000060 .L0 
     /tmp/ccnNhRRq.s:114    .text:0000000000000060 .L0 
     /tmp/ccnNhRRq.s:116    .text:0000000000000064 .L0 
     /tmp/ccnNhRRq.s:118    .text:0000000000000064 .L0 
     /tmp/ccnNhRRq.s:119    .text:0000000000000064 .L0 
     /tmp/ccnNhRRq.s:122    .text:000000000000006c .L0 
     /tmp/ccnNhRRq.s:123    .text:0000000000000070 .L0 
     /tmp/ccnNhRRq.s:125    .text:0000000000000074 .L0 
     /tmp/ccnNhRRq.s:126    .text:0000000000000074 .L0 
GAS LISTING /tmp/ccnNhRRq.s 			page 15


     /tmp/ccnNhRRq.s:128    .text:0000000000000078 .L0 
     /tmp/ccnNhRRq.s:130    .text:000000000000007c .L0 
     /tmp/ccnNhRRq.s:136    .text:000000000000007c _ZdlPv
     /tmp/ccnNhRRq.s:139    .text:000000000000007c .L0 
     /tmp/ccnNhRRq.s:141    .text:000000000000007c .L0 
     /tmp/ccnNhRRq.s:142    .text:0000000000000080 .L0 
     /tmp/ccnNhRRq.s:145    .text:0000000000000088 .L0 
     /tmp/ccnNhRRq.s:146    .text:0000000000000088 .L0 
     /tmp/ccnNhRRq.s:148    .text:000000000000008c .L0 
     /tmp/ccnNhRRq.s:150    .text:000000000000008c .L0 
     /tmp/ccnNhRRq.s:151    .text:000000000000008c .L0 
     /tmp/ccnNhRRq.s:154    .text:0000000000000094 .L0 
     /tmp/ccnNhRRq.s:155    .text:0000000000000098 .L0 
     /tmp/ccnNhRRq.s:157    .text:000000000000009c .L0 
     /tmp/ccnNhRRq.s:158    .text:000000000000009c .L0 
     /tmp/ccnNhRRq.s:160    .text:00000000000000a0 .L0 
     /tmp/ccnNhRRq.s:162    .text:00000000000000a4 .L0 
     /tmp/ccnNhRRq.s:168    .text:00000000000000a4 _ZdaPv
     /tmp/ccnNhRRq.s:171    .text:00000000000000a4 .L0 
     /tmp/ccnNhRRq.s:173    .text:00000000000000a4 .L0 
     /tmp/ccnNhRRq.s:174    .text:00000000000000a8 .L0 
     /tmp/ccnNhRRq.s:177    .text:00000000000000b0 .L0 
     /tmp/ccnNhRRq.s:178    .text:00000000000000b0 .L0 
     /tmp/ccnNhRRq.s:180    .text:00000000000000b4 .L0 
     /tmp/ccnNhRRq.s:182    .text:00000000000000b4 .L0 
     /tmp/ccnNhRRq.s:183    .text:00000000000000b4 .L0 
     /tmp/ccnNhRRq.s:186    .text:00000000000000bc .L0 
     /tmp/ccnNhRRq.s:187    .text:00000000000000c0 .L0 
     /tmp/ccnNhRRq.s:189    .text:00000000000000c4 .L0 
     /tmp/ccnNhRRq.s:190    .text:00000000000000c4 .L0 
     /tmp/ccnNhRRq.s:192    .text:00000000000000c8 .L0 
     /tmp/ccnNhRRq.s:194    .text:00000000000000cc .L0 
     /tmp/ccnNhRRq.s:200    .text:00000000000000cc _ZN6ThreadD2Ev
     /tmp/ccnNhRRq.s:203    .text:00000000000000cc .L0 
     /tmp/ccnNhRRq.s:3194   .data.rel.local.DW.ref.__gxx_personality_v0:0000000000000000 DW.ref.__gxx_personality_v0
     /tmp/ccnNhRRq.s:207    .text:00000000000000cc .L0 
     /tmp/ccnNhRRq.s:208    .text:00000000000000d0 .L0 
     /tmp/ccnNhRRq.s:212    .text:00000000000000dc .L0 
     /tmp/ccnNhRRq.s:213    .text:00000000000000dc .L0 
     /tmp/ccnNhRRq.s:214    .text:00000000000000dc .L0 
     /tmp/ccnNhRRq.s:216    .text:00000000000000e0 .L0 
     /tmp/ccnNhRRq.s:535    .data.rel.ro.local._ZTV6Thread:0000000000000000 _ZTV6Thread
     /tmp/ccnNhRRq.s:220    .text:00000000000000e4 .L0 
     /tmp/ccnNhRRq.s:223    .text:00000000000000f0 .L0 
     /tmp/ccnNhRRq.s:224    .text:00000000000000f0 .L0 
     /tmp/ccnNhRRq.s:227    .text:00000000000000f8 .L0 
     /tmp/ccnNhRRq.s:228    .text:00000000000000f8 .L0 
     /tmp/ccnNhRRq.s:231    .text:00000000000000fc .L0 
     /tmp/ccnNhRRq.s:237    .text:0000000000000100 .L0 
     /tmp/ccnNhRRq.s:238    .text:0000000000000100 .L0 
     /tmp/ccnNhRRq.s:240    .text:0000000000000104 .L0 
     /tmp/ccnNhRRq.s:242    .text:0000000000000108 .L0 
     /tmp/ccnNhRRq.s:248    .text:0000000000000110 .L0 
     /tmp/ccnNhRRq.s:254    .text:000000000000011c .L0 
     /tmp/ccnNhRRq.s:255    .text:0000000000000120 .L0 
     /tmp/ccnNhRRq.s:257    .text:0000000000000124 .L0 
     /tmp/ccnNhRRq.s:258    .text:0000000000000124 .L0 
GAS LISTING /tmp/ccnNhRRq.s 			page 16


     /tmp/ccnNhRRq.s:260    .text:0000000000000128 .L0 
     /tmp/ccnNhRRq.s:262    .text:000000000000012c .L0 
     /tmp/ccnNhRRq.s:264    .text:0000000000000130 .L0 
     /tmp/ccnNhRRq.s:200    .text:00000000000000cc _ZN6ThreadD1Ev
     /tmp/ccnNhRRq.s:280    .text:0000000000000130 _ZN6ThreadD0Ev
     /tmp/ccnNhRRq.s:283    .text:0000000000000130 .L0 
     /tmp/ccnNhRRq.s:285    .text:0000000000000130 .L0 
     /tmp/ccnNhRRq.s:286    .text:0000000000000134 .L0 
     /tmp/ccnNhRRq.s:290    .text:0000000000000140 .L0 
     /tmp/ccnNhRRq.s:291    .text:0000000000000140 .L0 
     /tmp/ccnNhRRq.s:292    .text:0000000000000140 .L0 
     /tmp/ccnNhRRq.s:294    .text:0000000000000144 .L0 
     /tmp/ccnNhRRq.s:297    .text:0000000000000148 .L0 
     /tmp/ccnNhRRq.s:303    .text:0000000000000160 .L0 
     /tmp/ccnNhRRq.s:305    .text:0000000000000164 .L0 
     /tmp/ccnNhRRq.s:306    .text:0000000000000164 .L0 
     /tmp/ccnNhRRq.s:308    .text:0000000000000168 .L0 
     /tmp/ccnNhRRq.s:311    .text:000000000000016c .L0 
     /tmp/ccnNhRRq.s:313    .text:0000000000000170 .L0 
     /tmp/ccnNhRRq.s:319    .text:0000000000000170 _Z16switchToUserModev
     /tmp/ccnNhRRq.s:322    .text:0000000000000170 .L0 
     /tmp/ccnNhRRq.s:323    .text:0000000000000170 .L0 
     /tmp/ccnNhRRq.s:324    .text:0000000000000174 .L0 
     /tmp/ccnNhRRq.s:327    .text:000000000000017c .L0 
     /tmp/ccnNhRRq.s:328    .text:000000000000017c .L0 
     /tmp/ccnNhRRq.s:330    .text:0000000000000180 .L0 
     /tmp/ccnNhRRq.s:332    .text:0000000000000180 .L0 
     /tmp/ccnNhRRq.s:333    .text:0000000000000180 .L0 
     /tmp/ccnNhRRq.s:336    .text:0000000000000188 .L0 
     /tmp/ccnNhRRq.s:337    .text:000000000000018c .L0 
     /tmp/ccnNhRRq.s:339    .text:0000000000000190 .L0 
     /tmp/ccnNhRRq.s:340    .text:0000000000000190 .L0 
     /tmp/ccnNhRRq.s:342    .text:0000000000000194 .L0 
     /tmp/ccnNhRRq.s:344    .text:0000000000000198 .L0 
     /tmp/ccnNhRRq.s:350    .text:0000000000000198 _ZN6ThreadC2EPFvPvES0_
     /tmp/ccnNhRRq.s:353    .text:0000000000000198 .L0 
     /tmp/ccnNhRRq.s:355    .text:0000000000000198 .L0 
     /tmp/ccnNhRRq.s:356    .text:000000000000019c .L0 
     /tmp/ccnNhRRq.s:359    .text:00000000000001a4 .L0 
     /tmp/ccnNhRRq.s:360    .text:00000000000001a4 .L0 
     /tmp/ccnNhRRq.s:362    .text:00000000000001a8 .L0 
     /tmp/ccnNhRRq.s:365    .text:00000000000001a8 .L0 
     /tmp/ccnNhRRq.s:368    .text:00000000000001b4 .L0 
     /tmp/ccnNhRRq.s:369    .text:00000000000001b4 .L0 
     /tmp/ccnNhRRq.s:374    .text:00000000000001c0 .L0 
     /tmp/ccnNhRRq.s:375    .text:00000000000001c0 .L0 
     /tmp/ccnNhRRq.s:379    .text:00000000000001c8 .L0 
     /tmp/ccnNhRRq.s:380    .text:00000000000001cc .L0 
     /tmp/ccnNhRRq.s:382    .text:00000000000001d0 .L0 
     /tmp/ccnNhRRq.s:383    .text:00000000000001d0 .L0 
     /tmp/ccnNhRRq.s:385    .text:00000000000001d4 .L0 
     /tmp/ccnNhRRq.s:387    .text:00000000000001d8 .L0 
     /tmp/ccnNhRRq.s:350    .text:0000000000000198 _ZN6ThreadC1EPFvPvES0_
     /tmp/ccnNhRRq.s:395    .text:00000000000001d8 _ZN6ThreadC2Ev
     /tmp/ccnNhRRq.s:398    .text:00000000000001d8 .L0 
     /tmp/ccnNhRRq.s:400    .text:00000000000001d8 .L0 
     /tmp/ccnNhRRq.s:401    .text:00000000000001dc .L0 
GAS LISTING /tmp/ccnNhRRq.s 			page 17


     /tmp/ccnNhRRq.s:404    .text:00000000000001e4 .L0 
     /tmp/ccnNhRRq.s:405    .text:00000000000001e4 .L0 
     /tmp/ccnNhRRq.s:407    .text:00000000000001e8 .L0 
     /tmp/ccnNhRRq.s:411    .text:00000000000001ec .L0 
     /tmp/ccnNhRRq.s:416    .text:00000000000001fc .L0 
     /tmp/ccnNhRRq.s:417    .text:0000000000000200 .L0 
     /tmp/ccnNhRRq.s:419    .text:0000000000000204 .L0 
     /tmp/ccnNhRRq.s:420    .text:0000000000000204 .L0 
     /tmp/ccnNhRRq.s:422    .text:0000000000000208 .L0 
     /tmp/ccnNhRRq.s:424    .text:000000000000020c .L0 
     /tmp/ccnNhRRq.s:395    .text:00000000000001d8 _ZN6ThreadC1Ev
     /tmp/ccnNhRRq.s:432    .text:000000000000020c _ZN6Thread5startEv
     /tmp/ccnNhRRq.s:435    .text:000000000000020c .L0 
     /tmp/ccnNhRRq.s:437    .text:000000000000020c .L0 
     /tmp/ccnNhRRq.s:438    .text:0000000000000210 .L0 
     /tmp/ccnNhRRq.s:441    .text:0000000000000218 .L0 
     /tmp/ccnNhRRq.s:442    .text:0000000000000218 .L0 
     /tmp/ccnNhRRq.s:444    .text:000000000000021c .L0 
     /tmp/ccnNhRRq.s:446    .text:000000000000021c .L0 
     /tmp/ccnNhRRq.s:447    .text:000000000000021c .L0 
     /tmp/ccnNhRRq.s:452    .text:0000000000000228 .L0 
     /tmp/ccnNhRRq.s:453    .text:0000000000000228 .L0 
     /tmp/ccnNhRRq.s:455    .text:0000000000000230 .L0 
     /tmp/ccnNhRRq.s:457    .text:0000000000000234 .L0 
     /tmp/ccnNhRRq.s:458    .text:0000000000000234 .L0 
     /tmp/ccnNhRRq.s:460    .text:0000000000000238 .L0 
     /tmp/ccnNhRRq.s:462    .text:000000000000023c .L0 
     /tmp/ccnNhRRq.s:468    .text:000000000000023c _ZN6Thread4joinEv
     /tmp/ccnNhRRq.s:471    .text:000000000000023c .L0 
     /tmp/ccnNhRRq.s:473    .text:000000000000023c .L0 
     /tmp/ccnNhRRq.s:474    .text:0000000000000240 .L0 
     /tmp/ccnNhRRq.s:477    .text:0000000000000248 .L0 
     /tmp/ccnNhRRq.s:478    .text:0000000000000248 .L0 
     /tmp/ccnNhRRq.s:480    .text:000000000000024c .L0 
     /tmp/ccnNhRRq.s:482    .text:000000000000024c .L0 
     /tmp/ccnNhRRq.s:483    .text:000000000000024c .L0 
     /tmp/ccnNhRRq.s:488    .text:0000000000000258 .L0 
     /tmp/ccnNhRRq.s:489    .text:000000000000025c .L0 
     /tmp/ccnNhRRq.s:491    .text:0000000000000260 .L0 
     /tmp/ccnNhRRq.s:492    .text:0000000000000260 .L0 
     /tmp/ccnNhRRq.s:494    .text:0000000000000264 .L0 
     /tmp/ccnNhRRq.s:496    .text:0000000000000268 .L0 
     /tmp/ccnNhRRq.s:502    .text:0000000000000268 _ZN6Thread8dispatchEv
     /tmp/ccnNhRRq.s:505    .text:0000000000000268 .L0 
     /tmp/ccnNhRRq.s:506    .text:0000000000000268 .L0 
     /tmp/ccnNhRRq.s:507    .text:000000000000026c .L0 
     /tmp/ccnNhRRq.s:510    .text:0000000000000274 .L0 
     /tmp/ccnNhRRq.s:511    .text:0000000000000274 .L0 
     /tmp/ccnNhRRq.s:513    .text:0000000000000278 .L0 
     /tmp/ccnNhRRq.s:515    .text:0000000000000278 .L0 
     /tmp/ccnNhRRq.s:516    .text:0000000000000278 .L0 
     /tmp/ccnNhRRq.s:519    .text:0000000000000280 .L0 
     /tmp/ccnNhRRq.s:520    .text:0000000000000284 .L0 
     /tmp/ccnNhRRq.s:522    .text:0000000000000288 .L0 
     /tmp/ccnNhRRq.s:523    .text:0000000000000288 .L0 
     /tmp/ccnNhRRq.s:525    .text:000000000000028c .L0 
     /tmp/ccnNhRRq.s:527    .text:0000000000000290 .L0 
GAS LISTING /tmp/ccnNhRRq.s 			page 18


     /tmp/ccnNhRRq.s:32     .text._ZN6Thread3runEv:0000000000000018 .L0 
     /tmp/ccnNhRRq.s:546    .text:0000000000000290 .L0 
     /tmp/ccnNhRRq.s:220    .text:00000000000000e4 .L0 
     /tmp/ccnNhRRq.s:365    .text:00000000000001a8 .L0 
     /tmp/ccnNhRRq.s:411    .text:00000000000001ec .L0 
     /tmp/ccnNhRRq.s:251    .text:000000000000011c .L13
     /tmp/ccnNhRRq.s:244    .text:0000000000000110 .L15
     /tmp/ccnNhRRq.s:1628   .debug_abbrev:0000000000000000 .Ldebug_abbrev0
     /tmp/ccnNhRRq.s:3154   .debug_str:00000000000004de .LASF88
     /tmp/ccnNhRRq.s:3062   .debug_str:000000000000024f .LASF89
     /tmp/ccnNhRRq.s:3160   .debug_str:00000000000005c9 .LASF90
     /tmp/ccnNhRRq.s:2960   .debug_ranges:0000000000000000 .Ldebug_ranges0
     /tmp/ccnNhRRq.s:2968   .debug_line:0000000000000000 .Ldebug_line0
     /tmp/ccnNhRRq.s:3056   .debug_str:000000000000022e .LASF0
     /tmp/ccnNhRRq.s:3070   .debug_str:000000000000028d .LASF1
     /tmp/ccnNhRRq.s:3110   .debug_str:00000000000003b9 .LASF2
     /tmp/ccnNhRRq.s:3118   .debug_str:00000000000003ee .LASF4
     /tmp/ccnNhRRq.s:3064   .debug_str:0000000000000263 .LASF3
     /tmp/ccnNhRRq.s:2978   .debug_str:0000000000000034 .LASF5
     /tmp/ccnNhRRq.s:3096   .debug_str:0000000000000344 .LASF6
     /tmp/ccnNhRRq.s:3066   .debug_str:0000000000000275 .LASF7
     /tmp/ccnNhRRq.s:3044   .debug_str:00000000000001e2 .LASF8
     /tmp/ccnNhRRq.s:3046   .debug_str:00000000000001f2 .LASF9
     /tmp/ccnNhRRq.s:3000   .debug_str:00000000000000dd .LASF10
     /tmp/ccnNhRRq.s:3038   .debug_str:00000000000001c4 .LASF11
     /tmp/ccnNhRRq.s:3008   .debug_str:0000000000000113 .LASF12
     /tmp/ccnNhRRq.s:2998   .debug_str:00000000000000cd .LASF13
     /tmp/ccnNhRRq.s:3140   .debug_str:0000000000000499 .LASF14
     /tmp/ccnNhRRq.s:3028   .debug_str:0000000000000180 .LASF15
     /tmp/ccnNhRRq.s:3132   .debug_str:0000000000000448 .LASF16
     /tmp/ccnNhRRq.s:3042   .debug_str:00000000000001d8 .LASF18
     /tmp/ccnNhRRq.s:3006   .debug_str:0000000000000108 .LASF30
     /tmp/ccnNhRRq.s:3180   .debug_str:0000000000000666 .LASF91
     /tmp/ccnNhRRq.s:2980   .debug_str:000000000000003b .LASF92
     /tmp/ccnNhRRq.s:2970   .debug_str:0000000000000000 .LASF17
     /tmp/ccnNhRRq.s:3122   .debug_str:000000000000040b .LASF28
     /tmp/ccnNhRRq.s:2996   .debug_str:00000000000000c3 .LASF40
     /tmp/ccnNhRRq.s:3144   .debug_str:00000000000004b7 .LASF93
     /tmp/ccnNhRRq.s:3150   .debug_str:00000000000004d0 .LASF94
     /tmp/ccnNhRRq.s:2994   .debug_str:00000000000000bd .LASF19
     /tmp/ccnNhRRq.s:3124   .debug_str:0000000000000422 .LASF20
     /tmp/ccnNhRRq.s:3002   .debug_str:00000000000000ec .LASF21
     /tmp/ccnNhRRq.s:2988   .debug_str:0000000000000096 .LASF22
     /tmp/ccnNhRRq.s:3068   .debug_str:0000000000000288 .LASF23
     /tmp/ccnNhRRq.s:3182   .debug_str:000000000000067a .LASF25
     /tmp/ccnNhRRq.s:3146   .debug_str:00000000000004bf .LASF45
     /tmp/ccnNhRRq.s:3172   .debug_str:000000000000061b .LASF46
     /tmp/ccnNhRRq.s:3116   .debug_str:00000000000003e5 .LASF24
     /tmp/ccnNhRRq.s:3136   .debug_str:000000000000046f .LASF26
     /tmp/ccnNhRRq.s:3018   .debug_str:0000000000000147 .LASF50
     /tmp/ccnNhRRq.s:2982   .debug_str:0000000000000053 .LASF51
     /tmp/ccnNhRRq.s:3128   .debug_str:0000000000000430 .LASF27
     /tmp/ccnNhRRq.s:3114   .debug_str:00000000000003d6 .LASF29
     /tmp/ccnNhRRq.s:3152   .debug_str:00000000000004d6 .LASF95
     /tmp/ccnNhRRq.s:3012   .debug_str:0000000000000128 .LASF42
     /tmp/ccnNhRRq.s:2984   .debug_str:0000000000000066 .LASF96
     /tmp/ccnNhRRq.s:3166   .debug_str:00000000000005f9 .LASF97
GAS LISTING /tmp/ccnNhRRq.s 			page 19


     /tmp/ccnNhRRq.s:3142   .debug_str:00000000000004a5 .LASF98
     /tmp/ccnNhRRq.s:3120   .debug_str:00000000000003f5 .LASF99
     /tmp/ccnNhRRq.s:3090   .debug_str:000000000000031e .LASF100
     /tmp/ccnNhRRq.s:3016   .debug_str:0000000000000142 .LASF31
     /tmp/ccnNhRRq.s:3126   .debug_str:000000000000042a .LASF32
     /tmp/ccnNhRRq.s:3164   .debug_str:00000000000005f4 .LASF33
     /tmp/ccnNhRRq.s:3162   .debug_str:00000000000005ec .LASF34
     /tmp/ccnNhRRq.s:3022   .debug_str:0000000000000169 .LASF35
     /tmp/ccnNhRRq.s:3178   .debug_str:0000000000000660 .LASF36
     /tmp/ccnNhRRq.s:3156   .debug_str:00000000000005a2 .LASF101
     /tmp/ccnNhRRq.s:3076   .debug_str:00000000000002d4 .LASF37
     /tmp/ccnNhRRq.s:3024   .debug_str:000000000000016f .LASF38
     /tmp/ccnNhRRq.s:3168   .debug_str:0000000000000601 .LASF39
     /tmp/ccnNhRRq.s:2986   .debug_str:000000000000008e .LASF41
     /tmp/ccnNhRRq.s:3050   .debug_str:000000000000020e .LASF43
     /tmp/ccnNhRRq.s:3004   .debug_str:00000000000000f6 .LASF102
     /tmp/ccnNhRRq.s:3108   .debug_str:00000000000003ac .LASF103
     /tmp/ccnNhRRq.s:3186   .debug_str:0000000000000693 .LASF44
     /tmp/ccnNhRRq.s:3026   .debug_str:0000000000000178 .LASF67
     /tmp/ccnNhRRq.s:3034   .debug_str:00000000000001af .LASF69
     /tmp/ccnNhRRq.s:2974   .debug_str:0000000000000017 .LASF47
     /tmp/ccnNhRRq.s:3058   .debug_str:000000000000023b .LASF48
     /tmp/ccnNhRRq.s:3098   .debug_str:0000000000000357 .LASF49
     /tmp/ccnNhRRq.s:3092   .debug_str:0000000000000323 .LASF52
     /tmp/ccnNhRRq.s:3060   .debug_str:0000000000000240 .LASF53
     /tmp/ccnNhRRq.s:3176   .debug_str:000000000000064f .LASF104
     /tmp/ccnNhRRq.s:3030   .debug_str:0000000000000196 .LASF54
     /tmp/ccnNhRRq.s:2990   .debug_str:000000000000009f .LASF105
     /tmp/ccnNhRRq.s:3174   .debug_str:0000000000000632 .LASF106
     /tmp/ccnNhRRq.s:3054   .debug_str:000000000000021e .LASF107
     /tmp/ccnNhRRq.s:3040   .debug_str:00000000000001d3 .LASF55
     /tmp/ccnNhRRq.s:2976   .debug_str:000000000000002a .LASF56
     /tmp/ccnNhRRq.s:3072   .debug_str:00000000000002a0 .LASF57
     /tmp/ccnNhRRq.s:281    .text:0000000000000130 .LFB67
     /tmp/ccnNhRRq.s:314    .text:0000000000000170 .LFE67
     /tmp/ccnNhRRq.s:2742   .debug_loc:0000000000000000 .LLST7
     /tmp/ccnNhRRq.s:298    .text:0000000000000150 .LVL18
     /tmp/ccnNhRRq.s:301    .text:000000000000015c .LVL19
     /tmp/ccnNhRRq.s:3100   .debug_str:0000000000000369 .LASF58
     /tmp/ccnNhRRq.s:201    .text:00000000000000cc .LFB65
     /tmp/ccnNhRRq.s:265    .text:0000000000000130 .LFE65
     /tmp/ccnNhRRq.s:2760   .debug_loc:000000000000004c .LLST5
     /tmp/ccnNhRRq.s:233    .text:0000000000000100 .LBB7
     /tmp/ccnNhRRq.s:246    .text:0000000000000110 .LBE7
     /tmp/ccnNhRRq.s:2778   .debug_loc:0000000000000098 .LLST6
     /tmp/ccnNhRRq.s:243    .text:0000000000000110 .LVL15
     /tmp/ccnNhRRq.s:225    .text:00000000000000f8 .LVL12
     /tmp/ccnNhRRq.s:250    .text:000000000000011c .LVL16
     /tmp/ccnNhRRq.s:503    .text:0000000000000268 .LFB63
     /tmp/ccnNhRRq.s:528    .text:0000000000000290 .LFE63
     /tmp/ccnNhRRq.s:517    .text:0000000000000280 .LVL34
     /tmp/ccnNhRRq.s:469    .text:000000000000023c .LFB62
     /tmp/ccnNhRRq.s:497    .text:0000000000000268 .LFE62
     /tmp/ccnNhRRq.s:2785   .debug_loc:00000000000000bb .LLST13
     /tmp/ccnNhRRq.s:486    .text:0000000000000258 .LVL33
     /tmp/ccnNhRRq.s:433    .text:000000000000020c .LFB61
     /tmp/ccnNhRRq.s:463    .text:000000000000023c .LFE61
GAS LISTING /tmp/ccnNhRRq.s 			page 20


     /tmp/ccnNhRRq.s:2799   .debug_loc:00000000000000f4 .LLST12
     /tmp/ccnNhRRq.s:450    .text:0000000000000228 .LVL30
     /tmp/ccnNhRRq.s:37     .text:0000000000000000 .LFB60
     /tmp/ccnNhRRq.s:67     .text:000000000000002c .LFE60
     /tmp/ccnNhRRq.s:2813   .debug_loc:000000000000012d .LLST0
     /tmp/ccnNhRRq.s:56     .text:000000000000001c .LVL2
     /tmp/ccnNhRRq.s:3112   .debug_str:00000000000003c7 .LASF59
     /tmp/ccnNhRRq.s:396    .text:00000000000001d8 .LFB58
     /tmp/ccnNhRRq.s:425    .text:000000000000020c .LFE58
     /tmp/ccnNhRRq.s:2827   .debug_loc:0000000000000166 .LLST11
     /tmp/ccnNhRRq.s:413    .text:00000000000001fc .LVL27
     /tmp/ccnNhRRq.s:3158   .debug_str:00000000000005b2 .LASF60
     /tmp/ccnNhRRq.s:351    .text:0000000000000198 .LFB55
     /tmp/ccnNhRRq.s:388    .text:00000000000001d8 .LFE55
     /tmp/ccnNhRRq.s:2841   .debug_loc:000000000000019f .LLST8
     /tmp/ccnNhRRq.s:2861   .debug_loc:00000000000001ed .LLST9
     /tmp/ccnNhRRq.s:2875   .debug_loc:0000000000000226 .LLST10
     /tmp/ccnNhRRq.s:372    .text:00000000000001c0 .LVL24
     /tmp/ccnNhRRq.s:376    .text:00000000000001c8 .LVL25
     /tmp/ccnNhRRq.s:3170   .debug_str:000000000000060a .LASF61
     /tmp/ccnNhRRq.s:3102   .debug_str:0000000000000378 .LASF62
     /tmp/ccnNhRRq.s:320    .text:0000000000000170 .LFB53
     /tmp/ccnNhRRq.s:345    .text:0000000000000198 .LFE53
     /tmp/ccnNhRRq.s:334    .text:0000000000000188 .LVL21
     /tmp/ccnNhRRq.s:3130   .debug_str:0000000000000435 .LASF63
     /tmp/ccnNhRRq.s:3086   .debug_str:0000000000000310 .LASF64
     /tmp/ccnNhRRq.s:169    .text:00000000000000a4 .LFB52
     /tmp/ccnNhRRq.s:195    .text:00000000000000cc .LFE52
     /tmp/ccnNhRRq.s:2889   .debug_loc:000000000000025f .LLST4
     /tmp/ccnNhRRq.s:184    .text:00000000000000bc .LVL10
     /tmp/ccnNhRRq.s:2972   .debug_str:0000000000000007 .LASF65
     /tmp/ccnNhRRq.s:3088   .debug_str:0000000000000317 .LASF66
     /tmp/ccnNhRRq.s:137    .text:000000000000007c .LFB51
     /tmp/ccnNhRRq.s:163    .text:00000000000000a4 .LFE51
     /tmp/ccnNhRRq.s:2903   .debug_loc:0000000000000298 .LLST3
     /tmp/ccnNhRRq.s:152    .text:0000000000000094 .LVL8
     /tmp/ccnNhRRq.s:2992   .debug_str:00000000000000ad .LASF68
     /tmp/ccnNhRRq.s:3148   .debug_str:00000000000004ca .LASF70
     /tmp/ccnNhRRq.s:105    .text:0000000000000054 .LFB50
     /tmp/ccnNhRRq.s:131    .text:000000000000007c .LFE50
     /tmp/ccnNhRRq.s:3010   .debug_str:0000000000000123 .LASF71
     /tmp/ccnNhRRq.s:2917   .debug_loc:00000000000002d1 .LLST2
     /tmp/ccnNhRRq.s:120    .text:000000000000006c .LVL6
     /tmp/ccnNhRRq.s:3184   .debug_str:0000000000000686 .LASF72
     /tmp/ccnNhRRq.s:3036   .debug_str:00000000000001be .LASF73
     /tmp/ccnNhRRq.s:73     .text:000000000000002c .LFB49
     /tmp/ccnNhRRq.s:99     .text:0000000000000054 .LFE49
     /tmp/ccnNhRRq.s:2931   .debug_loc:000000000000030a .LLST1
     /tmp/ccnNhRRq.s:88     .text:0000000000000044 .LVL4
     /tmp/ccnNhRRq.s:11     .text._ZN6Thread3runEv:0000000000000000 .LFB48
     /tmp/ccnNhRRq.s:30     .text._ZN6Thread3runEv:0000000000000018 .LFE48
     /tmp/ccnNhRRq.s:3014   .debug_str:0000000000000136 .LASF108
     /tmp/ccnNhRRq.s:3134   .debug_str:000000000000045e .LASF74
     /tmp/ccnNhRRq.s:3078   .debug_str:00000000000002d9 .LASF76
     /tmp/ccnNhRRq.s:3082   .debug_str:00000000000002ef .LASF75
     /tmp/ccnNhRRq.s:3104   .debug_str:000000000000038e .LASF77
     /tmp/ccnNhRRq.s:3020   .debug_str:0000000000000150 .LASF78
GAS LISTING /tmp/ccnNhRRq.s 			page 21


     /tmp/ccnNhRRq.s:3084   .debug_str:0000000000000304 .LASF79
     /tmp/ccnNhRRq.s:3074   .debug_str:00000000000002af .LASF80
     /tmp/ccnNhRRq.s:3138   .debug_str:000000000000048b .LASF81
     /tmp/ccnNhRRq.s:3032   .debug_str:000000000000019f .LASF82
     /tmp/ccnNhRRq.s:3094   .debug_str:0000000000000339 .LASF83
     /tmp/ccnNhRRq.s:3106   .debug_str:000000000000039e .LASF84
     /tmp/ccnNhRRq.s:3052   .debug_str:0000000000000215 .LASF85
     /tmp/ccnNhRRq.s:3048   .debug_str:0000000000000200 .LASF86
     /tmp/ccnNhRRq.s:3080   .debug_str:00000000000002e5 .LASF87
     /tmp/ccnNhRRq.s:284    .text:0000000000000130 .LVL17
     /tmp/ccnNhRRq.s:309    .text:0000000000000168 .LVL20
     /tmp/ccnNhRRq.s:206    .text:00000000000000cc .LVL11
     /tmp/ccnNhRRq.s:229    .text:00000000000000fc .LVL13
     /tmp/ccnNhRRq.s:232    .text:0000000000000100 .LVL14
     /tmp/ccnNhRRq.s:472    .text:000000000000023c .LVL31
     /tmp/ccnNhRRq.s:484    .text:0000000000000250 .LVL32
     /tmp/ccnNhRRq.s:436    .text:000000000000020c .LVL28
     /tmp/ccnNhRRq.s:448    .text:0000000000000220 .LVL29
     /tmp/ccnNhRRq.s:41     .text:0000000000000000 .LVL1
     /tmp/ccnNhRRq.s:399    .text:00000000000001d8 .LVL26
     /tmp/ccnNhRRq.s:354    .text:0000000000000198 .LVL22
     /tmp/ccnNhRRq.s:370    .text:00000000000001b8 .LVL23
     /tmp/ccnNhRRq.s:172    .text:00000000000000a4 .LVL9
     /tmp/ccnNhRRq.s:140    .text:000000000000007c .LVL7
     /tmp/ccnNhRRq.s:108    .text:0000000000000054 .LVL5
     /tmp/ccnNhRRq.s:76     .text:000000000000002c .LVL3
     /tmp/ccnNhRRq.s:547    .debug_info:0000000000000000 .Ldebug_info0
     /tmp/ccnNhRRq.s:5      .text:0000000000000000 .Ltext0
     /tmp/ccnNhRRq.s:542    .text:0000000000000290 .Letext0
     /tmp/ccnNhRRq.s:268    .gcc_except_table:0000000000000000 .LLSDA65

UNDEFINED SYMBOLS
_Z9mem_allocm
_Z8mem_freePv
_Z11thread_exitv
__gxx_personality_v0
_Z10toUserModev
_Z13thread_createPP7_threadPFvPvES2_
_ZN9Scheduler6removeEv
_ZN9Scheduler3putEP3PCB
_Z11thread_joinP7_thread
_Z15thread_dispatchv
