GAS LISTING /tmp/cc1DOm8P.s 			page 1


   1              		.file	"syscall_cpp.cpp"
   2              		.option pic
   3              		.option norelax
   4              		.text
   5              	.Ltext0:
   6              		.section	.text._ZN6Thread3runEv,"axG",@progbits,_ZN6Thread3runEv,comdat
   7              		.align	2
   8              		.weak	_ZN6Thread3runEv
  10              	_ZN6Thread3runEv:
  11              	.LFB28:
  12              		.file 1 "src/../h/syscall_cpp.hpp"
   1:src/../h/syscall_cpp.hpp **** #ifndef PROJECT_BASE_V1_1_SYSCALL_CPP_HPP
   2:src/../h/syscall_cpp.hpp **** #define PROJECT_BASE_V1_1_SYSCALL_CPP_HPP
   3:src/../h/syscall_cpp.hpp **** 
   4:src/../h/syscall_cpp.hpp **** #include "syscall_c.hpp"
   5:src/../h/syscall_cpp.hpp **** 
   6:src/../h/syscall_cpp.hpp **** void *operator new(size_t size);
   7:src/../h/syscall_cpp.hpp **** 
   8:src/../h/syscall_cpp.hpp **** void *operator new[](size_t size);
   9:src/../h/syscall_cpp.hpp **** 
  10:src/../h/syscall_cpp.hpp **** void operator delete(void *ptr);
  11:src/../h/syscall_cpp.hpp **** 
  12:src/../h/syscall_cpp.hpp **** void operator delete[](void *ptr);
  13:src/../h/syscall_cpp.hpp **** 
  14:src/../h/syscall_cpp.hpp **** class Thread {
  15:src/../h/syscall_cpp.hpp **** public:
  16:src/../h/syscall_cpp.hpp ****     Thread(void (*body)(void *), void *arg);
  17:src/../h/syscall_cpp.hpp **** 
  18:src/../h/syscall_cpp.hpp ****     virtual ~Thread();
  19:src/../h/syscall_cpp.hpp **** 
  20:src/../h/syscall_cpp.hpp ****     int start();
  21:src/../h/syscall_cpp.hpp **** 
  22:src/../h/syscall_cpp.hpp ****     void join();
  23:src/../h/syscall_cpp.hpp **** 
  24:src/../h/syscall_cpp.hpp ****     static void dispatch();
  25:src/../h/syscall_cpp.hpp **** 
  26:src/../h/syscall_cpp.hpp **** protected:
  27:src/../h/syscall_cpp.hpp ****     Thread();
  28:src/../h/syscall_cpp.hpp **** 
  29:src/../h/syscall_cpp.hpp ****     virtual void run() {}
  13              		.loc 1 29 18
  14              		.cfi_startproc
  15              	.LVL0:
  16 0000 130101FF 		addi	sp,sp,-16
  17              		.cfi_def_cfa_offset 16
  18 0004 23348100 		sd	s0,8(sp)
  19              		.cfi_offset 8, -8
  20 0008 13040101 		addi	s0,sp,16
  21              		.cfi_def_cfa 8, 0
  22              		.loc 1 29 25 is_stmt 0
  23 000c 03348100 		ld	s0,8(sp)
  24              		.cfi_restore 8
  25              		.cfi_def_cfa 2, 16
  26 0010 13010101 		addi	sp,sp,16
  27              		.cfi_def_cfa_offset 0
  28 0014 67800000 		jr	ra
  29              		.cfi_endproc
GAS LISTING /tmp/cc1DOm8P.s 			page 2


  30              	.LFE28:
  32              		.text
  33              		.align	2
  34              		.globl	_ZN6ThreadD2Ev
  36              	_ZN6ThreadD2Ev:
  37              	.LFB43:
  38              		.file 2 "src/syscall_cpp.cpp"
   1:src/syscall_cpp.cpp **** //
   2:src/syscall_cpp.cpp **** // Created by os on 2/2/23.
   3:src/syscall_cpp.cpp **** //
   4:src/syscall_cpp.cpp **** 
   5:src/syscall_cpp.cpp **** #include "../h/syscall_cpp.hpp"
   6:src/syscall_cpp.cpp **** 
   7:src/syscall_cpp.cpp **** void* operator new(size_t size) {
   8:src/syscall_cpp.cpp ****     return (void*)mem_alloc(size);
   9:src/syscall_cpp.cpp **** }
  10:src/syscall_cpp.cpp **** 
  11:src/syscall_cpp.cpp **** void* operator new[](size_t size) {
  12:src/syscall_cpp.cpp ****     return (void*)mem_alloc(size);
  13:src/syscall_cpp.cpp **** }
  14:src/syscall_cpp.cpp **** 
  15:src/syscall_cpp.cpp **** void operator delete(void *ptr) { mem_free(ptr); }
  16:src/syscall_cpp.cpp **** 
  17:src/syscall_cpp.cpp **** void operator delete[](void *ptr) { mem_free(ptr); }
  18:src/syscall_cpp.cpp **** 
  19:src/syscall_cpp.cpp **** Thread::Thread(void (*body)(void*), void* arg) {
  20:src/syscall_cpp.cpp ****     thread_create(&myHandle, body, arg);
  21:src/syscall_cpp.cpp **** }
  22:src/syscall_cpp.cpp **** 
  23:src/syscall_cpp.cpp **** Thread::Thread() {
  24:src/syscall_cpp.cpp ****     //TODO
  25:src/syscall_cpp.cpp **** }
  26:src/syscall_cpp.cpp **** 
  27:src/syscall_cpp.cpp **** int Thread::start() {
  28:src/syscall_cpp.cpp ****     //TODO
  29:src/syscall_cpp.cpp ****     // Scheduler::put
  30:src/syscall_cpp.cpp ****     return 0;
  31:src/syscall_cpp.cpp **** }
  32:src/syscall_cpp.cpp **** 
  33:src/syscall_cpp.cpp **** void Thread::join() {
  34:src/syscall_cpp.cpp ****     thread_join(myHandle);
  35:src/syscall_cpp.cpp **** }
  36:src/syscall_cpp.cpp **** 
  37:src/syscall_cpp.cpp **** void Thread::dispatch() {
  38:src/syscall_cpp.cpp ****     thread_dispatch();
  39:src/syscall_cpp.cpp **** }
  40:src/syscall_cpp.cpp **** 
  41:src/syscall_cpp.cpp **** Thread::~Thread() {
  39              		.loc 2 41 1 is_stmt 1
  40              		.cfi_startproc
  41              	.LVL1:
  42 0000 130101FF 		addi	sp,sp,-16
  43              		.cfi_def_cfa_offset 16
  44 0004 23348100 		sd	s0,8(sp)
  45              		.cfi_offset 8, -8
  46 0008 13040101 		addi	s0,sp,16
  47              		.cfi_def_cfa 8, 0
GAS LISTING /tmp/cc1DOm8P.s 			page 3


  42:src/syscall_cpp.cpp ****     //TODO
  43:src/syscall_cpp.cpp **** }
  48              		.loc 2 43 1 is_stmt 0
  49 000c 03348100 		ld	s0,8(sp)
  50              		.cfi_restore 8
  51              		.cfi_def_cfa 2, 16
  52 0010 13010101 		addi	sp,sp,16
  53              		.cfi_def_cfa_offset 0
  54 0014 67800000 		jr	ra
  55              		.cfi_endproc
  56              	.LFE43:
  58              		.globl	_ZN6ThreadD1Ev
  59              		.set	_ZN6ThreadD1Ev,_ZN6ThreadD2Ev
  60              		.align	2
  61              		.globl	_Znwm
  63              	_Znwm:
  64              	.LFB29:
   7:src/syscall_cpp.cpp ****     return (void*)mem_alloc(size);
  65              		.loc 2 7 33 is_stmt 1
  66              		.cfi_startproc
  67              	.LVL2:
  68 0018 130101FF 		addi	sp,sp,-16
  69              		.cfi_def_cfa_offset 16
  70 001c 23341100 		sd	ra,8(sp)
  71 0020 23308100 		sd	s0,0(sp)
  72              		.cfi_offset 1, -8
  73              		.cfi_offset 8, -16
  74 0024 13040101 		addi	s0,sp,16
  75              		.cfi_def_cfa 8, 0
   8:src/syscall_cpp.cpp **** }
  76              		.loc 2 8 5
   8:src/syscall_cpp.cpp **** }
  77              		.loc 2 8 28 is_stmt 0
  78 0028 97000000 		call	_Z9mem_allocm@plt
  78      E7800000 
  79              	.LVL3:
   9:src/syscall_cpp.cpp **** 
  80              		.loc 2 9 1
  81 0030 83308100 		ld	ra,8(sp)
  82              		.cfi_restore 1
  83 0034 03340100 		ld	s0,0(sp)
  84              		.cfi_restore 8
  85              		.cfi_def_cfa 2, 16
  86 0038 13010101 		addi	sp,sp,16
  87              		.cfi_def_cfa_offset 0
  88 003c 67800000 		jr	ra
  89              		.cfi_endproc
  90              	.LFE29:
  92              		.align	2
  93              		.globl	_Znam
  95              	_Znam:
  96              	.LFB30:
  11:src/syscall_cpp.cpp ****     return (void*)mem_alloc(size);
  97              		.loc 2 11 35 is_stmt 1
  98              		.cfi_startproc
  99              	.LVL4:
 100 0040 130101FF 		addi	sp,sp,-16
GAS LISTING /tmp/cc1DOm8P.s 			page 4


 101              		.cfi_def_cfa_offset 16
 102 0044 23341100 		sd	ra,8(sp)
 103 0048 23308100 		sd	s0,0(sp)
 104              		.cfi_offset 1, -8
 105              		.cfi_offset 8, -16
 106 004c 13040101 		addi	s0,sp,16
 107              		.cfi_def_cfa 8, 0
  12:src/syscall_cpp.cpp **** }
 108              		.loc 2 12 5
  12:src/syscall_cpp.cpp **** }
 109              		.loc 2 12 28 is_stmt 0
 110 0050 97000000 		call	_Z9mem_allocm@plt
 110      E7800000 
 111              	.LVL5:
  13:src/syscall_cpp.cpp **** 
 112              		.loc 2 13 1
 113 0058 83308100 		ld	ra,8(sp)
 114              		.cfi_restore 1
 115 005c 03340100 		ld	s0,0(sp)
 116              		.cfi_restore 8
 117              		.cfi_def_cfa 2, 16
 118 0060 13010101 		addi	sp,sp,16
 119              		.cfi_def_cfa_offset 0
 120 0064 67800000 		jr	ra
 121              		.cfi_endproc
 122              	.LFE30:
 124              		.align	2
 125              		.globl	_ZdlPv
 127              	_ZdlPv:
 128              	.LFB31:
  15:src/syscall_cpp.cpp **** 
 129              		.loc 2 15 33 is_stmt 1
 130              		.cfi_startproc
 131              	.LVL6:
 132 0068 130101FF 		addi	sp,sp,-16
 133              		.cfi_def_cfa_offset 16
 134 006c 23341100 		sd	ra,8(sp)
 135 0070 23308100 		sd	s0,0(sp)
 136              		.cfi_offset 1, -8
 137              		.cfi_offset 8, -16
 138 0074 13040101 		addi	s0,sp,16
 139              		.cfi_def_cfa 8, 0
  15:src/syscall_cpp.cpp **** 
 140              		.loc 2 15 35
  15:src/syscall_cpp.cpp **** 
 141              		.loc 2 15 43 is_stmt 0
 142 0078 97000000 		call	_Z8mem_freePv@plt
 142      E7800000 
 143              	.LVL7:
  15:src/syscall_cpp.cpp **** 
 144              		.loc 2 15 50
 145 0080 83308100 		ld	ra,8(sp)
 146              		.cfi_restore 1
 147 0084 03340100 		ld	s0,0(sp)
 148              		.cfi_restore 8
 149              		.cfi_def_cfa 2, 16
 150 0088 13010101 		addi	sp,sp,16
GAS LISTING /tmp/cc1DOm8P.s 			page 5


 151              		.cfi_def_cfa_offset 0
 152 008c 67800000 		jr	ra
 153              		.cfi_endproc
 154              	.LFE31:
 156              		.align	2
 157              		.globl	_ZN6ThreadD0Ev
 159              	_ZN6ThreadD0Ev:
 160              	.LFB45:
  41:src/syscall_cpp.cpp ****     //TODO
 161              		.loc 2 41 1 is_stmt 1
 162              		.cfi_startproc
 163              	.LVL8:
 164 0090 130101FF 		addi	sp,sp,-16
 165              		.cfi_def_cfa_offset 16
 166 0094 23341100 		sd	ra,8(sp)
 167 0098 23308100 		sd	s0,0(sp)
 168              		.cfi_offset 1, -8
 169              		.cfi_offset 8, -16
 170 009c 13040101 		addi	s0,sp,16
 171              		.cfi_def_cfa 8, 0
 172              		.loc 2 43 1 is_stmt 0
 173 00a0 97000000 		call	_ZdlPv
 173      E7800000 
 174              	.LVL9:
 175 00a8 83308100 		ld	ra,8(sp)
 176              		.cfi_restore 1
 177 00ac 03340100 		ld	s0,0(sp)
 178              		.cfi_restore 8
 179              		.cfi_def_cfa 2, 16
 180 00b0 13010101 		addi	sp,sp,16
 181              		.cfi_def_cfa_offset 0
 182 00b4 67800000 		jr	ra
 183              		.cfi_endproc
 184              	.LFE45:
 186              		.align	2
 187              		.globl	_ZdaPv
 189              	_ZdaPv:
 190              	.LFB32:
  17:src/syscall_cpp.cpp **** 
 191              		.loc 2 17 35 is_stmt 1
 192              		.cfi_startproc
 193              	.LVL10:
 194 00b8 130101FF 		addi	sp,sp,-16
 195              		.cfi_def_cfa_offset 16
 196 00bc 23341100 		sd	ra,8(sp)
 197 00c0 23308100 		sd	s0,0(sp)
 198              		.cfi_offset 1, -8
 199              		.cfi_offset 8, -16
 200 00c4 13040101 		addi	s0,sp,16
 201              		.cfi_def_cfa 8, 0
  17:src/syscall_cpp.cpp **** 
 202              		.loc 2 17 37
  17:src/syscall_cpp.cpp **** 
 203              		.loc 2 17 45 is_stmt 0
 204 00c8 97000000 		call	_Z8mem_freePv@plt
 204      E7800000 
 205              	.LVL11:
GAS LISTING /tmp/cc1DOm8P.s 			page 6


  17:src/syscall_cpp.cpp **** 
 206              		.loc 2 17 52
 207 00d0 83308100 		ld	ra,8(sp)
 208              		.cfi_restore 1
 209 00d4 03340100 		ld	s0,0(sp)
 210              		.cfi_restore 8
 211              		.cfi_def_cfa 2, 16
 212 00d8 13010101 		addi	sp,sp,16
 213              		.cfi_def_cfa_offset 0
 214 00dc 67800000 		jr	ra
 215              		.cfi_endproc
 216              	.LFE32:
 218              		.align	2
 219              		.globl	_ZN6ThreadC2EPFvPvES0_
 221              	_ZN6ThreadC2EPFvPvES0_:
 222              	.LFB34:
  19:src/syscall_cpp.cpp ****     thread_create(&myHandle, body, arg);
 223              		.loc 2 19 1 is_stmt 1
 224              		.cfi_startproc
 225              	.LVL12:
 226 00e0 130101FF 		addi	sp,sp,-16
 227              		.cfi_def_cfa_offset 16
 228 00e4 23341100 		sd	ra,8(sp)
 229 00e8 23308100 		sd	s0,0(sp)
 230              		.cfi_offset 1, -8
 231              		.cfi_offset 8, -16
 232 00ec 13040101 		addi	s0,sp,16
 233              		.cfi_def_cfa 8, 0
 234              	.LBB2:
  19:src/syscall_cpp.cpp ****     thread_create(&myHandle, body, arg);
 235              		.loc 2 19 46 is_stmt 0
 236 00f0 97070000 		lla	a5,_ZTV6Thread+16
 236      93870700 
 237 00f8 2330F500 		sd	a5,0(a0)
  20:src/syscall_cpp.cpp **** }
 238              		.loc 2 20 5 is_stmt 1
  20:src/syscall_cpp.cpp **** }
 239              		.loc 2 20 18 is_stmt 0
 240 00fc 13058500 		addi	a0,a0,8
 241              	.LVL13:
 242 0100 97000000 		call	_Z13thread_createPP7_threadPFvPvES2_@plt
 242      E7800000 
 243              	.LVL14:
 244              	.LBE2:
  21:src/syscall_cpp.cpp **** 
 245              		.loc 2 21 1
 246 0108 83308100 		ld	ra,8(sp)
 247              		.cfi_restore 1
 248 010c 03340100 		ld	s0,0(sp)
 249              		.cfi_restore 8
 250              		.cfi_def_cfa 2, 16
 251 0110 13010101 		addi	sp,sp,16
 252              		.cfi_def_cfa_offset 0
 253 0114 67800000 		jr	ra
 254              		.cfi_endproc
 255              	.LFE34:
 257              		.globl	_ZN6ThreadC1EPFvPvES0_
GAS LISTING /tmp/cc1DOm8P.s 			page 7


 258              		.set	_ZN6ThreadC1EPFvPvES0_,_ZN6ThreadC2EPFvPvES0_
 259              		.align	2
 260              		.globl	_ZN6ThreadC2Ev
 262              	_ZN6ThreadC2Ev:
 263              	.LFB37:
  23:src/syscall_cpp.cpp ****     //TODO
 264              		.loc 2 23 1 is_stmt 1
 265              		.cfi_startproc
 266              	.LVL15:
 267 0118 130101FF 		addi	sp,sp,-16
 268              		.cfi_def_cfa_offset 16
 269 011c 23348100 		sd	s0,8(sp)
 270              		.cfi_offset 8, -8
 271 0120 13040101 		addi	s0,sp,16
 272              		.cfi_def_cfa 8, 0
 273              	.LBB3:
  23:src/syscall_cpp.cpp ****     //TODO
 274              		.loc 2 23 16 is_stmt 0
 275 0124 97070000 		lla	a5,_ZTV6Thread+16
 275      93870700 
 276 012c 2330F500 		sd	a5,0(a0)
 277              	.LBE3:
  25:src/syscall_cpp.cpp **** 
 278              		.loc 2 25 1
 279 0130 03348100 		ld	s0,8(sp)
 280              		.cfi_restore 8
 281              		.cfi_def_cfa 2, 16
 282 0134 13010101 		addi	sp,sp,16
 283              		.cfi_def_cfa_offset 0
 284 0138 67800000 		jr	ra
 285              		.cfi_endproc
 286              	.LFE37:
 288              		.globl	_ZN6ThreadC1Ev
 289              		.set	_ZN6ThreadC1Ev,_ZN6ThreadC2Ev
 290              		.align	2
 291              		.globl	_ZN6Thread5startEv
 293              	_ZN6Thread5startEv:
 294              	.LFB39:
  27:src/syscall_cpp.cpp ****     //TODO
 295              		.loc 2 27 21 is_stmt 1
 296              		.cfi_startproc
 297              	.LVL16:
 298 013c 130101FF 		addi	sp,sp,-16
 299              		.cfi_def_cfa_offset 16
 300 0140 23348100 		sd	s0,8(sp)
 301              		.cfi_offset 8, -8
 302 0144 13040101 		addi	s0,sp,16
 303              		.cfi_def_cfa 8, 0
  30:src/syscall_cpp.cpp **** }
 304              		.loc 2 30 5
  31:src/syscall_cpp.cpp **** 
 305              		.loc 2 31 1 is_stmt 0
 306 0148 13050000 		li	a0,0
 307              	.LVL17:
 308 014c 03348100 		ld	s0,8(sp)
 309              		.cfi_restore 8
 310              		.cfi_def_cfa 2, 16
GAS LISTING /tmp/cc1DOm8P.s 			page 8


 311 0150 13010101 		addi	sp,sp,16
 312              		.cfi_def_cfa_offset 0
 313 0154 67800000 		jr	ra
 314              		.cfi_endproc
 315              	.LFE39:
 317              		.align	2
 318              		.globl	_ZN6Thread4joinEv
 320              	_ZN6Thread4joinEv:
 321              	.LFB40:
  33:src/syscall_cpp.cpp ****     thread_join(myHandle);
 322              		.loc 2 33 21 is_stmt 1
 323              		.cfi_startproc
 324              	.LVL18:
 325 0158 130101FF 		addi	sp,sp,-16
 326              		.cfi_def_cfa_offset 16
 327 015c 23341100 		sd	ra,8(sp)
 328 0160 23308100 		sd	s0,0(sp)
 329              		.cfi_offset 1, -8
 330              		.cfi_offset 8, -16
 331 0164 13040101 		addi	s0,sp,16
 332              		.cfi_def_cfa 8, 0
  34:src/syscall_cpp.cpp **** }
 333              		.loc 2 34 5
  34:src/syscall_cpp.cpp **** }
 334              		.loc 2 34 16 is_stmt 0
 335 0168 03358500 		ld	a0,8(a0)
 336              	.LVL19:
 337 016c 97000000 		call	_Z11thread_joinP7_thread@plt
 337      E7800000 
 338              	.LVL20:
  35:src/syscall_cpp.cpp **** 
 339              		.loc 2 35 1
 340 0174 83308100 		ld	ra,8(sp)
 341              		.cfi_restore 1
 342 0178 03340100 		ld	s0,0(sp)
 343              		.cfi_restore 8
 344              		.cfi_def_cfa 2, 16
 345 017c 13010101 		addi	sp,sp,16
 346              		.cfi_def_cfa_offset 0
 347 0180 67800000 		jr	ra
 348              		.cfi_endproc
 349              	.LFE40:
 351              		.align	2
 352              		.globl	_ZN6Thread8dispatchEv
 354              	_ZN6Thread8dispatchEv:
 355              	.LFB41:
  37:src/syscall_cpp.cpp ****     thread_dispatch();
 356              		.loc 2 37 25 is_stmt 1
 357              		.cfi_startproc
 358 0184 130101FF 		addi	sp,sp,-16
 359              		.cfi_def_cfa_offset 16
 360 0188 23341100 		sd	ra,8(sp)
 361 018c 23308100 		sd	s0,0(sp)
 362              		.cfi_offset 1, -8
 363              		.cfi_offset 8, -16
 364 0190 13040101 		addi	s0,sp,16
 365              		.cfi_def_cfa 8, 0
GAS LISTING /tmp/cc1DOm8P.s 			page 9


  38:src/syscall_cpp.cpp **** }
 366              		.loc 2 38 5
  38:src/syscall_cpp.cpp **** }
 367              		.loc 2 38 20 is_stmt 0
 368 0194 97000000 		call	_Z15thread_dispatchv@plt
 368      E7800000 
 369              	.LVL21:
  39:src/syscall_cpp.cpp **** 
 370              		.loc 2 39 1
 371 019c 83308100 		ld	ra,8(sp)
 372              		.cfi_restore 1
 373 01a0 03340100 		ld	s0,0(sp)
 374              		.cfi_restore 8
 375              		.cfi_def_cfa 2, 16
 376 01a4 13010101 		addi	sp,sp,16
 377              		.cfi_def_cfa_offset 0
 378 01a8 67800000 		jr	ra
 379              		.cfi_endproc
 380              	.LFE41:
 382              		.weak	_ZTV6Thread
 383              		.section	.data.rel.ro.local._ZTV6Thread,"awG",@progbits,_ZTV6Thread,comdat
 384              		.align	3
 387              	_ZTV6Thread:
 388 0000 00000000 		.dword	0
 388      00000000 
 389 0008 00000000 		.dword	0
 389      00000000 
 390 0010 00000000 		.dword	_ZN6ThreadD1Ev
 390      00000000 
 391 0018 00000000 		.dword	_ZN6ThreadD0Ev
 391      00000000 
 392 0020 00000000 		.dword	_ZN6Thread3runEv
 392      00000000 
 393              		.text
 394              	.Letext0:
 395              		.file 3 "src/../h/../h/../lib/hw.h"
 396              		.file 4 "src/../h/syscall_c.hpp"
GAS LISTING /tmp/cc1DOm8P.s 			page 10


DEFINED SYMBOLS
                            *ABS*:0000000000000000 syscall_cpp.cpp
     /tmp/cc1DOm8P.s:10     .text._ZN6Thread3runEv:0000000000000000 _ZN6Thread3runEv
     /tmp/cc1DOm8P.s:14     .text._ZN6Thread3runEv:0000000000000000 .L0 
     /tmp/cc1DOm8P.s:16     .text._ZN6Thread3runEv:0000000000000000 .L0 
     /tmp/cc1DOm8P.s:17     .text._ZN6Thread3runEv:0000000000000004 .L0 
     /tmp/cc1DOm8P.s:19     .text._ZN6Thread3runEv:0000000000000008 .L0 
     /tmp/cc1DOm8P.s:21     .text._ZN6Thread3runEv:000000000000000c .L0 
     /tmp/cc1DOm8P.s:23     .text._ZN6Thread3runEv:000000000000000c .L0 
     /tmp/cc1DOm8P.s:24     .text._ZN6Thread3runEv:0000000000000010 .L0 
     /tmp/cc1DOm8P.s:25     .text._ZN6Thread3runEv:0000000000000010 .L0 
     /tmp/cc1DOm8P.s:27     .text._ZN6Thread3runEv:0000000000000014 .L0 
     /tmp/cc1DOm8P.s:29     .text._ZN6Thread3runEv:0000000000000018 .L0 
     /tmp/cc1DOm8P.s:36     .text:0000000000000000 _ZN6ThreadD2Ev
     /tmp/cc1DOm8P.s:40     .text:0000000000000000 .L0 
     /tmp/cc1DOm8P.s:42     .text:0000000000000000 .L0 
     /tmp/cc1DOm8P.s:43     .text:0000000000000004 .L0 
     /tmp/cc1DOm8P.s:45     .text:0000000000000008 .L0 
     /tmp/cc1DOm8P.s:47     .text:000000000000000c .L0 
     /tmp/cc1DOm8P.s:49     .text:000000000000000c .L0 
     /tmp/cc1DOm8P.s:50     .text:0000000000000010 .L0 
     /tmp/cc1DOm8P.s:51     .text:0000000000000010 .L0 
     /tmp/cc1DOm8P.s:53     .text:0000000000000014 .L0 
     /tmp/cc1DOm8P.s:55     .text:0000000000000018 .L0 
     /tmp/cc1DOm8P.s:36     .text:0000000000000000 _ZN6ThreadD1Ev
     /tmp/cc1DOm8P.s:63     .text:0000000000000018 _Znwm
     /tmp/cc1DOm8P.s:66     .text:0000000000000018 .L0 
     /tmp/cc1DOm8P.s:68     .text:0000000000000018 .L0 
     /tmp/cc1DOm8P.s:69     .text:000000000000001c .L0 
     /tmp/cc1DOm8P.s:72     .text:0000000000000024 .L0 
     /tmp/cc1DOm8P.s:73     .text:0000000000000024 .L0 
     /tmp/cc1DOm8P.s:75     .text:0000000000000028 .L0 
     /tmp/cc1DOm8P.s:77     .text:0000000000000028 .L0 
     /tmp/cc1DOm8P.s:78     .text:0000000000000028 .L0 
     /tmp/cc1DOm8P.s:81     .text:0000000000000030 .L0 
     /tmp/cc1DOm8P.s:82     .text:0000000000000034 .L0 
     /tmp/cc1DOm8P.s:84     .text:0000000000000038 .L0 
     /tmp/cc1DOm8P.s:85     .text:0000000000000038 .L0 
     /tmp/cc1DOm8P.s:87     .text:000000000000003c .L0 
     /tmp/cc1DOm8P.s:89     .text:0000000000000040 .L0 
     /tmp/cc1DOm8P.s:95     .text:0000000000000040 _Znam
     /tmp/cc1DOm8P.s:98     .text:0000000000000040 .L0 
     /tmp/cc1DOm8P.s:100    .text:0000000000000040 .L0 
     /tmp/cc1DOm8P.s:101    .text:0000000000000044 .L0 
     /tmp/cc1DOm8P.s:104    .text:000000000000004c .L0 
     /tmp/cc1DOm8P.s:105    .text:000000000000004c .L0 
     /tmp/cc1DOm8P.s:107    .text:0000000000000050 .L0 
     /tmp/cc1DOm8P.s:109    .text:0000000000000050 .L0 
     /tmp/cc1DOm8P.s:110    .text:0000000000000050 .L0 
     /tmp/cc1DOm8P.s:113    .text:0000000000000058 .L0 
     /tmp/cc1DOm8P.s:114    .text:000000000000005c .L0 
     /tmp/cc1DOm8P.s:116    .text:0000000000000060 .L0 
     /tmp/cc1DOm8P.s:117    .text:0000000000000060 .L0 
     /tmp/cc1DOm8P.s:119    .text:0000000000000064 .L0 
     /tmp/cc1DOm8P.s:121    .text:0000000000000068 .L0 
     /tmp/cc1DOm8P.s:127    .text:0000000000000068 _ZdlPv
     /tmp/cc1DOm8P.s:130    .text:0000000000000068 .L0 
GAS LISTING /tmp/cc1DOm8P.s 			page 11


     /tmp/cc1DOm8P.s:132    .text:0000000000000068 .L0 
     /tmp/cc1DOm8P.s:133    .text:000000000000006c .L0 
     /tmp/cc1DOm8P.s:136    .text:0000000000000074 .L0 
     /tmp/cc1DOm8P.s:137    .text:0000000000000074 .L0 
     /tmp/cc1DOm8P.s:139    .text:0000000000000078 .L0 
     /tmp/cc1DOm8P.s:141    .text:0000000000000078 .L0 
     /tmp/cc1DOm8P.s:142    .text:0000000000000078 .L0 
     /tmp/cc1DOm8P.s:145    .text:0000000000000080 .L0 
     /tmp/cc1DOm8P.s:146    .text:0000000000000084 .L0 
     /tmp/cc1DOm8P.s:148    .text:0000000000000088 .L0 
     /tmp/cc1DOm8P.s:149    .text:0000000000000088 .L0 
     /tmp/cc1DOm8P.s:151    .text:000000000000008c .L0 
     /tmp/cc1DOm8P.s:153    .text:0000000000000090 .L0 
     /tmp/cc1DOm8P.s:159    .text:0000000000000090 _ZN6ThreadD0Ev
     /tmp/cc1DOm8P.s:162    .text:0000000000000090 .L0 
     /tmp/cc1DOm8P.s:164    .text:0000000000000090 .L0 
     /tmp/cc1DOm8P.s:165    .text:0000000000000094 .L0 
     /tmp/cc1DOm8P.s:168    .text:000000000000009c .L0 
     /tmp/cc1DOm8P.s:169    .text:000000000000009c .L0 
     /tmp/cc1DOm8P.s:171    .text:00000000000000a0 .L0 
     /tmp/cc1DOm8P.s:173    .text:00000000000000a0 .L0 
     /tmp/cc1DOm8P.s:176    .text:00000000000000ac .L0 
     /tmp/cc1DOm8P.s:178    .text:00000000000000b0 .L0 
     /tmp/cc1DOm8P.s:179    .text:00000000000000b0 .L0 
     /tmp/cc1DOm8P.s:181    .text:00000000000000b4 .L0 
     /tmp/cc1DOm8P.s:183    .text:00000000000000b8 .L0 
     /tmp/cc1DOm8P.s:189    .text:00000000000000b8 _ZdaPv
     /tmp/cc1DOm8P.s:192    .text:00000000000000b8 .L0 
     /tmp/cc1DOm8P.s:194    .text:00000000000000b8 .L0 
     /tmp/cc1DOm8P.s:195    .text:00000000000000bc .L0 
     /tmp/cc1DOm8P.s:198    .text:00000000000000c4 .L0 
     /tmp/cc1DOm8P.s:199    .text:00000000000000c4 .L0 
     /tmp/cc1DOm8P.s:201    .text:00000000000000c8 .L0 
     /tmp/cc1DOm8P.s:203    .text:00000000000000c8 .L0 
     /tmp/cc1DOm8P.s:204    .text:00000000000000c8 .L0 
     /tmp/cc1DOm8P.s:207    .text:00000000000000d0 .L0 
     /tmp/cc1DOm8P.s:208    .text:00000000000000d4 .L0 
     /tmp/cc1DOm8P.s:210    .text:00000000000000d8 .L0 
     /tmp/cc1DOm8P.s:211    .text:00000000000000d8 .L0 
     /tmp/cc1DOm8P.s:213    .text:00000000000000dc .L0 
     /tmp/cc1DOm8P.s:215    .text:00000000000000e0 .L0 
     /tmp/cc1DOm8P.s:221    .text:00000000000000e0 _ZN6ThreadC2EPFvPvES0_
     /tmp/cc1DOm8P.s:224    .text:00000000000000e0 .L0 
     /tmp/cc1DOm8P.s:226    .text:00000000000000e0 .L0 
     /tmp/cc1DOm8P.s:227    .text:00000000000000e4 .L0 
     /tmp/cc1DOm8P.s:230    .text:00000000000000ec .L0 
     /tmp/cc1DOm8P.s:231    .text:00000000000000ec .L0 
     /tmp/cc1DOm8P.s:233    .text:00000000000000f0 .L0 
     /tmp/cc1DOm8P.s:387    .data.rel.ro.local._ZTV6Thread:0000000000000000 _ZTV6Thread
     /tmp/cc1DOm8P.s:236    .text:00000000000000f0 .L0 
     /tmp/cc1DOm8P.s:239    .text:00000000000000fc .L0 
     /tmp/cc1DOm8P.s:240    .text:00000000000000fc .L0 
     /tmp/cc1DOm8P.s:246    .text:0000000000000108 .L0 
     /tmp/cc1DOm8P.s:247    .text:000000000000010c .L0 
     /tmp/cc1DOm8P.s:249    .text:0000000000000110 .L0 
     /tmp/cc1DOm8P.s:250    .text:0000000000000110 .L0 
     /tmp/cc1DOm8P.s:252    .text:0000000000000114 .L0 
GAS LISTING /tmp/cc1DOm8P.s 			page 12


     /tmp/cc1DOm8P.s:254    .text:0000000000000118 .L0 
     /tmp/cc1DOm8P.s:221    .text:00000000000000e0 _ZN6ThreadC1EPFvPvES0_
     /tmp/cc1DOm8P.s:262    .text:0000000000000118 _ZN6ThreadC2Ev
     /tmp/cc1DOm8P.s:265    .text:0000000000000118 .L0 
     /tmp/cc1DOm8P.s:267    .text:0000000000000118 .L0 
     /tmp/cc1DOm8P.s:268    .text:000000000000011c .L0 
     /tmp/cc1DOm8P.s:270    .text:0000000000000120 .L0 
     /tmp/cc1DOm8P.s:272    .text:0000000000000124 .L0 
     /tmp/cc1DOm8P.s:275    .text:0000000000000124 .L0 
     /tmp/cc1DOm8P.s:279    .text:0000000000000130 .L0 
     /tmp/cc1DOm8P.s:280    .text:0000000000000134 .L0 
     /tmp/cc1DOm8P.s:281    .text:0000000000000134 .L0 
     /tmp/cc1DOm8P.s:283    .text:0000000000000138 .L0 
     /tmp/cc1DOm8P.s:285    .text:000000000000013c .L0 
     /tmp/cc1DOm8P.s:262    .text:0000000000000118 _ZN6ThreadC1Ev
     /tmp/cc1DOm8P.s:293    .text:000000000000013c _ZN6Thread5startEv
     /tmp/cc1DOm8P.s:296    .text:000000000000013c .L0 
     /tmp/cc1DOm8P.s:298    .text:000000000000013c .L0 
     /tmp/cc1DOm8P.s:299    .text:0000000000000140 .L0 
     /tmp/cc1DOm8P.s:301    .text:0000000000000144 .L0 
     /tmp/cc1DOm8P.s:303    .text:0000000000000148 .L0 
     /tmp/cc1DOm8P.s:305    .text:0000000000000148 .L0 
     /tmp/cc1DOm8P.s:306    .text:0000000000000148 .L0 
     /tmp/cc1DOm8P.s:309    .text:0000000000000150 .L0 
     /tmp/cc1DOm8P.s:310    .text:0000000000000150 .L0 
     /tmp/cc1DOm8P.s:312    .text:0000000000000154 .L0 
     /tmp/cc1DOm8P.s:314    .text:0000000000000158 .L0 
     /tmp/cc1DOm8P.s:320    .text:0000000000000158 _ZN6Thread4joinEv
     /tmp/cc1DOm8P.s:323    .text:0000000000000158 .L0 
     /tmp/cc1DOm8P.s:325    .text:0000000000000158 .L0 
     /tmp/cc1DOm8P.s:326    .text:000000000000015c .L0 
     /tmp/cc1DOm8P.s:329    .text:0000000000000164 .L0 
     /tmp/cc1DOm8P.s:330    .text:0000000000000164 .L0 
     /tmp/cc1DOm8P.s:332    .text:0000000000000168 .L0 
     /tmp/cc1DOm8P.s:334    .text:0000000000000168 .L0 
     /tmp/cc1DOm8P.s:335    .text:0000000000000168 .L0 
     /tmp/cc1DOm8P.s:340    .text:0000000000000174 .L0 
     /tmp/cc1DOm8P.s:341    .text:0000000000000178 .L0 
     /tmp/cc1DOm8P.s:343    .text:000000000000017c .L0 
     /tmp/cc1DOm8P.s:344    .text:000000000000017c .L0 
     /tmp/cc1DOm8P.s:346    .text:0000000000000180 .L0 
     /tmp/cc1DOm8P.s:348    .text:0000000000000184 .L0 
     /tmp/cc1DOm8P.s:354    .text:0000000000000184 _ZN6Thread8dispatchEv
     /tmp/cc1DOm8P.s:357    .text:0000000000000184 .L0 
     /tmp/cc1DOm8P.s:358    .text:0000000000000184 .L0 
     /tmp/cc1DOm8P.s:359    .text:0000000000000188 .L0 
     /tmp/cc1DOm8P.s:362    .text:0000000000000190 .L0 
     /tmp/cc1DOm8P.s:363    .text:0000000000000190 .L0 
     /tmp/cc1DOm8P.s:365    .text:0000000000000194 .L0 
     /tmp/cc1DOm8P.s:367    .text:0000000000000194 .L0 
     /tmp/cc1DOm8P.s:368    .text:0000000000000194 .L0 
     /tmp/cc1DOm8P.s:371    .text:000000000000019c .L0 
     /tmp/cc1DOm8P.s:372    .text:00000000000001a0 .L0 
     /tmp/cc1DOm8P.s:374    .text:00000000000001a4 .L0 
     /tmp/cc1DOm8P.s:375    .text:00000000000001a4 .L0 
     /tmp/cc1DOm8P.s:377    .text:00000000000001a8 .L0 
     /tmp/cc1DOm8P.s:379    .text:00000000000001ac .L0 
GAS LISTING /tmp/cc1DOm8P.s 			page 13


     /tmp/cc1DOm8P.s:32     .text._ZN6Thread3runEv:0000000000000018 .L0 
     /tmp/cc1DOm8P.s:397    .text:00000000000001ac .L0 
     /tmp/cc1DOm8P.s:236    .text:00000000000000f0 .L0 
     /tmp/cc1DOm8P.s:275    .text:0000000000000124 .L0 
     /tmp/cc1DOm8P.s:1059   .debug_abbrev:0000000000000000 .Ldebug_abbrev0
     /tmp/cc1DOm8P.s:2058   .debug_str:0000000000000307 .LASF55
     /tmp/cc1DOm8P.s:2038   .debug_str:0000000000000278 .LASF56
     /tmp/cc1DOm8P.s:1968   .debug_str:0000000000000082 .LASF57
     /tmp/cc1DOm8P.s:1940   .debug_ranges:0000000000000000 .Ldebug_ranges0
     /tmp/cc1DOm8P.s:1948   .debug_line:0000000000000000 .Ldebug_line0
     /tmp/cc1DOm8P.s:2012   .debug_str:00000000000001d1 .LASF0
     /tmp/cc1DOm8P.s:2020   .debug_str:00000000000001fc .LASF1
     /tmp/cc1DOm8P.s:2008   .debug_str:00000000000001b0 .LASF2
     /tmp/cc1DOm8P.s:1998   .debug_str:0000000000000189 .LASF4
     /tmp/cc1DOm8P.s:2046   .debug_str:00000000000002b9 .LASF3
     /tmp/cc1DOm8P.s:1958   .debug_str:0000000000000041 .LASF5
     /tmp/cc1DOm8P.s:2024   .debug_str:0000000000000221 .LASF6
     /tmp/cc1DOm8P.s:2010   .debug_str:00000000000001be .LASF7
     /tmp/cc1DOm8P.s:2064   .debug_str:00000000000003e1 .LASF8
     /tmp/cc1DOm8P.s:1990   .debug_str:0000000000000158 .LASF9
     /tmp/cc1DOm8P.s:2028   .debug_str:000000000000023a .LASF10
     /tmp/cc1DOm8P.s:2060   .debug_str:00000000000003cb .LASF11
     /tmp/cc1DOm8P.s:1960   .debug_str:0000000000000048 .LASF12
     /tmp/cc1DOm8P.s:1952   .debug_str:0000000000000009 .LASF13
     /tmp/cc1DOm8P.s:1962   .debug_str:0000000000000058 .LASF14
     /tmp/cc1DOm8P.s:2042   .debug_str:000000000000029c .LASF15
     /tmp/cc1DOm8P.s:1970   .debug_str:00000000000000a5 .LASF16
     /tmp/cc1DOm8P.s:1994   .debug_str:0000000000000178 .LASF17
     /tmp/cc1DOm8P.s:1950   .debug_str:0000000000000000 .LASF18
     /tmp/cc1DOm8P.s:1996   .debug_str:0000000000000181 .LASF58
     /tmp/cc1DOm8P.s:2062   .debug_str:00000000000003da .LASF19
     /tmp/cc1DOm8P.s:2022   .debug_str:000000000000020f .LASF59
     /tmp/cc1DOm8P.s:2006   .debug_str:00000000000001a3 .LASF60
     /tmp/cc1DOm8P.s:2032   .debug_str:0000000000000253 .LASF21
     /tmp/cc1DOm8P.s:2002   .debug_str:0000000000000195 .LASF38
     /tmp/cc1DOm8P.s:2016   .debug_str:00000000000001e7 .LASF40
     /tmp/cc1DOm8P.s:2018   .debug_str:00000000000001f6 .LASF32
     /tmp/cc1DOm8P.s:1986   .debug_str:0000000000000136 .LASF34
     /tmp/cc1DOm8P.s:2048   .debug_str:00000000000002cb .LASF20
     /tmp/cc1DOm8P.s:1992   .debug_str:0000000000000166 .LASF22
     /tmp/cc1DOm8P.s:2014   .debug_str:00000000000001de .LASF61
     /tmp/cc1DOm8P.s:1982   .debug_str:0000000000000109 .LASF62
     /tmp/cc1DOm8P.s:1988   .debug_str:0000000000000149 .LASF23
     /tmp/cc1DOm8P.s:1976   .debug_str:00000000000000d5 .LASF63
     /tmp/cc1DOm8P.s:2074   .debug_str:0000000000000427 .LASF24
     /tmp/cc1DOm8P.s:2000   .debug_str:0000000000000190 .LASF25
     /tmp/cc1DOm8P.s:2066   .debug_str:00000000000003f1 .LASF64
     /tmp/cc1DOm8P.s:2036   .debug_str:0000000000000273 .LASF26
     /tmp/cc1DOm8P.s:2030   .debug_str:0000000000000249 .LASF27
     /tmp/cc1DOm8P.s:1954   .debug_str:0000000000000019 .LASF28
     /tmp/cc1DOm8P.s:160    .text:0000000000000090 .LFB45
     /tmp/cc1DOm8P.s:184    .text:00000000000000b8 .LFE45
     /tmp/cc1DOm8P.s:1779   .debug_loc:0000000000000000 .LLST3
     /tmp/cc1DOm8P.s:174    .text:00000000000000a8 .LVL9
     /tmp/cc1DOm8P.s:2056   .debug_str:00000000000002f8 .LASF29
     /tmp/cc1DOm8P.s:37     .text:0000000000000000 .LFB43
     /tmp/cc1DOm8P.s:56     .text:0000000000000018 .LFE43
GAS LISTING /tmp/cc1DOm8P.s 			page 14


     /tmp/cc1DOm8P.s:355    .text:0000000000000184 .LFB41
     /tmp/cc1DOm8P.s:380    .text:00000000000001ac .LFE41
     /tmp/cc1DOm8P.s:369    .text:000000000000019c .LVL21
     /tmp/cc1DOm8P.s:321    .text:0000000000000158 .LFB40
     /tmp/cc1DOm8P.s:349    .text:0000000000000184 .LFE40
     /tmp/cc1DOm8P.s:1793   .debug_loc:0000000000000039 .LLST9
     /tmp/cc1DOm8P.s:338    .text:0000000000000174 .LVL20
     /tmp/cc1DOm8P.s:294    .text:000000000000013c .LFB39
     /tmp/cc1DOm8P.s:315    .text:0000000000000158 .LFE39
     /tmp/cc1DOm8P.s:1807   .debug_loc:0000000000000072 .LLST8
     /tmp/cc1DOm8P.s:2070   .debug_str:000000000000040b .LASF30
     /tmp/cc1DOm8P.s:263    .text:0000000000000118 .LFB37
     /tmp/cc1DOm8P.s:286    .text:000000000000013c .LFE37
     /tmp/cc1DOm8P.s:1984   .debug_str:000000000000011f .LASF31
     /tmp/cc1DOm8P.s:222    .text:00000000000000e0 .LFB34
     /tmp/cc1DOm8P.s:255    .text:0000000000000118 .LFE34
     /tmp/cc1DOm8P.s:1821   .debug_loc:00000000000000ab .LLST5
     /tmp/cc1DOm8P.s:1841   .debug_loc:00000000000000f9 .LLST6
     /tmp/cc1DOm8P.s:1855   .debug_loc:0000000000000132 .LLST7
     /tmp/cc1DOm8P.s:243    .text:0000000000000108 .LVL14
     /tmp/cc1DOm8P.s:2052   .debug_str:00000000000002e0 .LASF33
     /tmp/cc1DOm8P.s:2044   .debug_str:00000000000002b2 .LASF35
     /tmp/cc1DOm8P.s:190    .text:00000000000000b8 .LFB32
     /tmp/cc1DOm8P.s:216    .text:00000000000000e0 .LFE32
     /tmp/cc1DOm8P.s:1869   .debug_loc:000000000000016b .LLST4
     /tmp/cc1DOm8P.s:205    .text:00000000000000d0 .LVL11
     /tmp/cc1DOm8P.s:2050   .debug_str:00000000000002d0 .LASF36
     /tmp/cc1DOm8P.s:2078   .debug_str:0000000000000455 .LASF37
     /tmp/cc1DOm8P.s:128    .text:0000000000000068 .LFB31
     /tmp/cc1DOm8P.s:154    .text:0000000000000090 .LFE31
     /tmp/cc1DOm8P.s:1883   .debug_loc:00000000000001a4 .LLST2
     /tmp/cc1DOm8P.s:143    .text:0000000000000080 .LVL7
     /tmp/cc1DOm8P.s:2040   .debug_str:000000000000028c .LASF39
     /tmp/cc1DOm8P.s:2026   .debug_str:0000000000000234 .LASF41
     /tmp/cc1DOm8P.s:96     .text:0000000000000040 .LFB30
     /tmp/cc1DOm8P.s:122    .text:0000000000000068 .LFE30
     /tmp/cc1DOm8P.s:2054   .debug_str:00000000000002f3 .LASF42
     /tmp/cc1DOm8P.s:1897   .debug_loc:00000000000001dd .LLST1
     /tmp/cc1DOm8P.s:111    .text:0000000000000058 .LVL5
     /tmp/cc1DOm8P.s:2072   .debug_str:000000000000041a .LASF43
     /tmp/cc1DOm8P.s:2004   .debug_str:000000000000019d .LASF44
     /tmp/cc1DOm8P.s:64     .text:0000000000000018 .LFB29
     /tmp/cc1DOm8P.s:90     .text:0000000000000040 .LFE29
     /tmp/cc1DOm8P.s:1911   .debug_loc:0000000000000216 .LLST0
     /tmp/cc1DOm8P.s:79     .text:0000000000000030 .LVL3
     /tmp/cc1DOm8P.s:11     .text._ZN6Thread3runEv:0000000000000000 .LFB28
     /tmp/cc1DOm8P.s:30     .text._ZN6Thread3runEv:0000000000000018 .LFE28
     /tmp/cc1DOm8P.s:1978   .debug_str:00000000000000e6 .LASF45
     /tmp/cc1DOm8P.s:1964   .debug_str:0000000000000064 .LASF47
     /tmp/cc1DOm8P.s:1956   .debug_str:0000000000000028 .LASF46
     /tmp/cc1DOm8P.s:1974   .debug_str:00000000000000c9 .LASF48
     /tmp/cc1DOm8P.s:2076   .debug_str:0000000000000430 .LASF49
     /tmp/cc1DOm8P.s:1972   .debug_str:00000000000000bb .LASF50
     /tmp/cc1DOm8P.s:1980   .debug_str:00000000000000fb .LASF51
     /tmp/cc1DOm8P.s:2034   .debug_str:000000000000026a .LASF52
     /tmp/cc1DOm8P.s:1966   .debug_str:0000000000000074 .LASF53
     /tmp/cc1DOm8P.s:2068   .debug_str:0000000000000401 .LASF54
GAS LISTING /tmp/cc1DOm8P.s 			page 15


     /tmp/cc1DOm8P.s:163    .text:0000000000000090 .LVL8
     /tmp/cc1DOm8P.s:324    .text:0000000000000158 .LVL18
     /tmp/cc1DOm8P.s:336    .text:000000000000016c .LVL19
     /tmp/cc1DOm8P.s:297    .text:000000000000013c .LVL16
     /tmp/cc1DOm8P.s:307    .text:000000000000014c .LVL17
     /tmp/cc1DOm8P.s:225    .text:00000000000000e0 .LVL12
     /tmp/cc1DOm8P.s:241    .text:0000000000000100 .LVL13
     /tmp/cc1DOm8P.s:193    .text:00000000000000b8 .LVL10
     /tmp/cc1DOm8P.s:131    .text:0000000000000068 .LVL6
     /tmp/cc1DOm8P.s:99     .text:0000000000000040 .LVL4
     /tmp/cc1DOm8P.s:67     .text:0000000000000018 .LVL2
     /tmp/cc1DOm8P.s:398    .debug_info:0000000000000000 .Ldebug_info0
     /tmp/cc1DOm8P.s:5      .text:0000000000000000 .Ltext0
     /tmp/cc1DOm8P.s:394    .text:00000000000001ac .Letext0

UNDEFINED SYMBOLS
_Z9mem_allocm
_Z8mem_freePv
_Z13thread_createPP7_threadPFvPvES2_
_Z11thread_joinP7_thread
_Z15thread_dispatchv
