GAS LISTING /tmp/cc6ezTuK.s 			page 1


   1              		.file	"syscall_cpp.cpp"
   2              		.option pic
   3              		.option norelax
   4              		.text
   5              	.Ltext0:
   6              		.align	2
   7              		.globl	_Znwm
   9              	_Znwm:
  10              	.LFB0:
  11              		.file 1 "src/syscall_cpp.cpp"
   1:src/syscall_cpp.cpp **** //
   2:src/syscall_cpp.cpp **** // Created by os on 2/2/23.
   3:src/syscall_cpp.cpp **** //
   4:src/syscall_cpp.cpp **** 
   5:src/syscall_cpp.cpp **** #include "../h/syscall_cpp.hpp"
   6:src/syscall_cpp.cpp **** 
   7:src/syscall_cpp.cpp **** void* operator new(size_t size) {
  12              		.loc 1 7 33
  13              		.cfi_startproc
  14              	.LVL0:
  15 0000 130101FF 		addi	sp,sp,-16
  16              		.cfi_def_cfa_offset 16
  17 0004 23341100 		sd	ra,8(sp)
  18 0008 23308100 		sd	s0,0(sp)
  19              		.cfi_offset 1, -8
  20              		.cfi_offset 8, -16
  21 000c 13040101 		addi	s0,sp,16
  22              		.cfi_def_cfa 8, 0
   8:src/syscall_cpp.cpp ****     return (void*)mem_alloc(size);
  23              		.loc 1 8 5
  24              		.loc 1 8 28 is_stmt 0
  25 0010 97000000 		call	_Z9mem_allocm@plt
  25      E7800000 
  26              	.LVL1:
   9:src/syscall_cpp.cpp **** }
  27              		.loc 1 9 1
  28 0018 83308100 		ld	ra,8(sp)
  29              		.cfi_restore 1
  30 001c 03340100 		ld	s0,0(sp)
  31              		.cfi_restore 8
  32              		.cfi_def_cfa 2, 16
  33 0020 13010101 		addi	sp,sp,16
  34              		.cfi_def_cfa_offset 0
  35 0024 67800000 		jr	ra
  36              		.cfi_endproc
  37              	.LFE0:
  39              		.align	2
  40              		.globl	_Znam
  42              	_Znam:
  43              	.LFB1:
  10:src/syscall_cpp.cpp **** 
  11:src/syscall_cpp.cpp **** void* operator new[](size_t size) {
  44              		.loc 1 11 35 is_stmt 1
  45              		.cfi_startproc
  46              	.LVL2:
  47 0028 130101FF 		addi	sp,sp,-16
  48              		.cfi_def_cfa_offset 16
GAS LISTING /tmp/cc6ezTuK.s 			page 2


  49 002c 23341100 		sd	ra,8(sp)
  50 0030 23308100 		sd	s0,0(sp)
  51              		.cfi_offset 1, -8
  52              		.cfi_offset 8, -16
  53 0034 13040101 		addi	s0,sp,16
  54              		.cfi_def_cfa 8, 0
  12:src/syscall_cpp.cpp ****     return (void*)mem_alloc(size);
  55              		.loc 1 12 5
  56              		.loc 1 12 28 is_stmt 0
  57 0038 97000000 		call	_Z9mem_allocm@plt
  57      E7800000 
  58              	.LVL3:
  13:src/syscall_cpp.cpp **** }
  59              		.loc 1 13 1
  60 0040 83308100 		ld	ra,8(sp)
  61              		.cfi_restore 1
  62 0044 03340100 		ld	s0,0(sp)
  63              		.cfi_restore 8
  64              		.cfi_def_cfa 2, 16
  65 0048 13010101 		addi	sp,sp,16
  66              		.cfi_def_cfa_offset 0
  67 004c 67800000 		jr	ra
  68              		.cfi_endproc
  69              	.LFE1:
  71              		.align	2
  72              		.globl	_ZdlPv
  74              	_ZdlPv:
  75              	.LFB2:
  14:src/syscall_cpp.cpp **** 
  15:src/syscall_cpp.cpp **** void operator delete(void *ptr) { mem_free(ptr); }
  76              		.loc 1 15 33 is_stmt 1
  77              		.cfi_startproc
  78              	.LVL4:
  79 0050 130101FF 		addi	sp,sp,-16
  80              		.cfi_def_cfa_offset 16
  81 0054 23341100 		sd	ra,8(sp)
  82 0058 23308100 		sd	s0,0(sp)
  83              		.cfi_offset 1, -8
  84              		.cfi_offset 8, -16
  85 005c 13040101 		addi	s0,sp,16
  86              		.cfi_def_cfa 8, 0
  87              		.loc 1 15 35
  88              		.loc 1 15 43 is_stmt 0
  89 0060 97000000 		call	_Z8mem_freePv@plt
  89      E7800000 
  90              	.LVL5:
  91              		.loc 1 15 50
  92 0068 83308100 		ld	ra,8(sp)
  93              		.cfi_restore 1
  94 006c 03340100 		ld	s0,0(sp)
  95              		.cfi_restore 8
  96              		.cfi_def_cfa 2, 16
  97 0070 13010101 		addi	sp,sp,16
  98              		.cfi_def_cfa_offset 0
  99 0074 67800000 		jr	ra
 100              		.cfi_endproc
 101              	.LFE2:
GAS LISTING /tmp/cc6ezTuK.s 			page 3


 103              		.align	2
 104              		.globl	_ZdaPv
 106              	_ZdaPv:
 107              	.LFB3:
  16:src/syscall_cpp.cpp **** 
  17:src/syscall_cpp.cpp **** void operator delete[](void *ptr) { mem_free(ptr); }
 108              		.loc 1 17 35 is_stmt 1
 109              		.cfi_startproc
 110              	.LVL6:
 111 0078 130101FF 		addi	sp,sp,-16
 112              		.cfi_def_cfa_offset 16
 113 007c 23341100 		sd	ra,8(sp)
 114 0080 23308100 		sd	s0,0(sp)
 115              		.cfi_offset 1, -8
 116              		.cfi_offset 8, -16
 117 0084 13040101 		addi	s0,sp,16
 118              		.cfi_def_cfa 8, 0
 119              		.loc 1 17 37
 120              		.loc 1 17 45 is_stmt 0
 121 0088 97000000 		call	_Z8mem_freePv@plt
 121      E7800000 
 122              	.LVL7:
 123              		.loc 1 17 52
 124 0090 83308100 		ld	ra,8(sp)
 125              		.cfi_restore 1
 126 0094 03340100 		ld	s0,0(sp)
 127              		.cfi_restore 8
 128              		.cfi_def_cfa 2, 16
 129 0098 13010101 		addi	sp,sp,16
 130              		.cfi_def_cfa_offset 0
 131 009c 67800000 		jr	ra
 132              		.cfi_endproc
 133              	.LFE3:
 135              	.Letext0:
 136              		.file 2 "src/../h/../lib/hw.h"
 137              		.file 3 "src/../h/syscall_c.hpp"
GAS LISTING /tmp/cc6ezTuK.s 			page 4


DEFINED SYMBOLS
                            *ABS*:0000000000000000 syscall_cpp.cpp
     /tmp/cc6ezTuK.s:9      .text:0000000000000000 _Znwm
     /tmp/cc6ezTuK.s:13     .text:0000000000000000 .L0 
     /tmp/cc6ezTuK.s:15     .text:0000000000000000 .L0 
     /tmp/cc6ezTuK.s:16     .text:0000000000000004 .L0 
     /tmp/cc6ezTuK.s:19     .text:000000000000000c .L0 
     /tmp/cc6ezTuK.s:20     .text:000000000000000c .L0 
     /tmp/cc6ezTuK.s:22     .text:0000000000000010 .L0 
     /tmp/cc6ezTuK.s:24     .text:0000000000000010 .L0 
     /tmp/cc6ezTuK.s:25     .text:0000000000000010 .L0 
     /tmp/cc6ezTuK.s:28     .text:0000000000000018 .L0 
     /tmp/cc6ezTuK.s:29     .text:000000000000001c .L0 
     /tmp/cc6ezTuK.s:31     .text:0000000000000020 .L0 
     /tmp/cc6ezTuK.s:32     .text:0000000000000020 .L0 
     /tmp/cc6ezTuK.s:34     .text:0000000000000024 .L0 
     /tmp/cc6ezTuK.s:36     .text:0000000000000028 .L0 
     /tmp/cc6ezTuK.s:42     .text:0000000000000028 _Znam
     /tmp/cc6ezTuK.s:45     .text:0000000000000028 .L0 
     /tmp/cc6ezTuK.s:47     .text:0000000000000028 .L0 
     /tmp/cc6ezTuK.s:48     .text:000000000000002c .L0 
     /tmp/cc6ezTuK.s:51     .text:0000000000000034 .L0 
     /tmp/cc6ezTuK.s:52     .text:0000000000000034 .L0 
     /tmp/cc6ezTuK.s:54     .text:0000000000000038 .L0 
     /tmp/cc6ezTuK.s:56     .text:0000000000000038 .L0 
     /tmp/cc6ezTuK.s:57     .text:0000000000000038 .L0 
     /tmp/cc6ezTuK.s:60     .text:0000000000000040 .L0 
     /tmp/cc6ezTuK.s:61     .text:0000000000000044 .L0 
     /tmp/cc6ezTuK.s:63     .text:0000000000000048 .L0 
     /tmp/cc6ezTuK.s:64     .text:0000000000000048 .L0 
     /tmp/cc6ezTuK.s:66     .text:000000000000004c .L0 
     /tmp/cc6ezTuK.s:68     .text:0000000000000050 .L0 
     /tmp/cc6ezTuK.s:74     .text:0000000000000050 _ZdlPv
     /tmp/cc6ezTuK.s:77     .text:0000000000000050 .L0 
     /tmp/cc6ezTuK.s:79     .text:0000000000000050 .L0 
     /tmp/cc6ezTuK.s:80     .text:0000000000000054 .L0 
     /tmp/cc6ezTuK.s:83     .text:000000000000005c .L0 
     /tmp/cc6ezTuK.s:84     .text:000000000000005c .L0 
     /tmp/cc6ezTuK.s:86     .text:0000000000000060 .L0 
     /tmp/cc6ezTuK.s:88     .text:0000000000000060 .L0 
     /tmp/cc6ezTuK.s:89     .text:0000000000000060 .L0 
     /tmp/cc6ezTuK.s:92     .text:0000000000000068 .L0 
     /tmp/cc6ezTuK.s:93     .text:000000000000006c .L0 
     /tmp/cc6ezTuK.s:95     .text:0000000000000070 .L0 
     /tmp/cc6ezTuK.s:96     .text:0000000000000070 .L0 
     /tmp/cc6ezTuK.s:98     .text:0000000000000074 .L0 
     /tmp/cc6ezTuK.s:100    .text:0000000000000078 .L0 
     /tmp/cc6ezTuK.s:106    .text:0000000000000078 _ZdaPv
     /tmp/cc6ezTuK.s:109    .text:0000000000000078 .L0 
     /tmp/cc6ezTuK.s:111    .text:0000000000000078 .L0 
     /tmp/cc6ezTuK.s:112    .text:000000000000007c .L0 
     /tmp/cc6ezTuK.s:115    .text:0000000000000084 .L0 
     /tmp/cc6ezTuK.s:116    .text:0000000000000084 .L0 
     /tmp/cc6ezTuK.s:118    .text:0000000000000088 .L0 
     /tmp/cc6ezTuK.s:120    .text:0000000000000088 .L0 
     /tmp/cc6ezTuK.s:121    .text:0000000000000088 .L0 
     /tmp/cc6ezTuK.s:124    .text:0000000000000090 .L0 
GAS LISTING /tmp/cc6ezTuK.s 			page 5


     /tmp/cc6ezTuK.s:125    .text:0000000000000094 .L0 
     /tmp/cc6ezTuK.s:127    .text:0000000000000098 .L0 
     /tmp/cc6ezTuK.s:128    .text:0000000000000098 .L0 
     /tmp/cc6ezTuK.s:130    .text:000000000000009c .L0 
     /tmp/cc6ezTuK.s:132    .text:00000000000000a0 .L0 
     /tmp/cc6ezTuK.s:138    .text:00000000000000a0 .L0 
     /tmp/cc6ezTuK.s:398    .debug_abbrev:0000000000000000 .Ldebug_abbrev0
     /tmp/cc6ezTuK.s:768    .debug_str:0000000000000153 .LASF30
     /tmp/cc6ezTuK.s:744    .debug_str:000000000000008d .LASF31
     /tmp/cc6ezTuK.s:742    .debug_str:000000000000006a .LASF32
     /tmp/cc6ezTuK.s:5      .text:0000000000000000 .Ltext0
     /tmp/cc6ezTuK.s:135    .text:00000000000000a0 .Letext0
     /tmp/cc6ezTuK.s:724    .debug_line:0000000000000000 .Ldebug_line0
     /tmp/cc6ezTuK.s:728    .debug_str:0000000000000010 .LASF0
     /tmp/cc6ezTuK.s:766    .debug_str:0000000000000140 .LASF1
     /tmp/cc6ezTuK.s:752    .debug_str:00000000000000c4 .LASF2
     /tmp/cc6ezTuK.s:746    .debug_str:00000000000000a1 .LASF4
     /tmp/cc6ezTuK.s:740    .debug_str:0000000000000058 .LASF3
     /tmp/cc6ezTuK.s:734    .debug_str:000000000000003a .LASF5
     /tmp/cc6ezTuK.s:782    .debug_str:0000000000000252 .LASF6
     /tmp/cc6ezTuK.s:764    .debug_str:000000000000012d .LASF7
     /tmp/cc6ezTuK.s:780    .debug_str:0000000000000242 .LASF8
     /tmp/cc6ezTuK.s:730    .debug_str:000000000000001d .LASF9
     /tmp/cc6ezTuK.s:732    .debug_str:000000000000002b .LASF10
     /tmp/cc6ezTuK.s:770    .debug_str:0000000000000217 .LASF11
     /tmp/cc6ezTuK.s:736    .debug_str:0000000000000041 .LASF12
     /tmp/cc6ezTuK.s:784    .debug_str:0000000000000265 .LASF13
     /tmp/cc6ezTuK.s:750    .debug_str:00000000000000b8 .LASF14
     /tmp/cc6ezTuK.s:760    .debug_str:0000000000000109 .LASF15
     /tmp/cc6ezTuK.s:756    .debug_str:00000000000000e5 .LASF16
     /tmp/cc6ezTuK.s:754    .debug_str:00000000000000d2 .LASF17
     /tmp/cc6ezTuK.s:772    .debug_str:0000000000000226 .LASF19
     /tmp/cc6ezTuK.s:107    .text:0000000000000078 .LFB3
     /tmp/cc6ezTuK.s:133    .text:00000000000000a0 .LFE3
     /tmp/cc6ezTuK.s:655    .debug_loc:0000000000000000 .LLST3
     /tmp/cc6ezTuK.s:122    .text:0000000000000090 .LVL7
     /tmp/cc6ezTuK.s:748    .debug_str:00000000000000a8 .LASF18
     /tmp/cc6ezTuK.s:738    .debug_str:0000000000000051 .LASF20
     /tmp/cc6ezTuK.s:75     .text:0000000000000050 .LFB2
     /tmp/cc6ezTuK.s:101    .text:0000000000000078 .LFE2
     /tmp/cc6ezTuK.s:669    .debug_loc:0000000000000039 .LLST2
     /tmp/cc6ezTuK.s:90     .text:0000000000000068 .LVL5
     /tmp/cc6ezTuK.s:726    .debug_str:0000000000000000 .LASF22
     /tmp/cc6ezTuK.s:776    .debug_str:0000000000000232 .LASF24
     /tmp/cc6ezTuK.s:43     .text:0000000000000028 .LFB1
     /tmp/cc6ezTuK.s:69     .text:0000000000000050 .LFE1
     /tmp/cc6ezTuK.s:774    .debug_str:000000000000022d .LASF21
     /tmp/cc6ezTuK.s:683    .debug_loc:0000000000000072 .LLST1
     /tmp/cc6ezTuK.s:58     .text:0000000000000040 .LVL3
     /tmp/cc6ezTuK.s:786    .debug_str:0000000000000275 .LASF23
     /tmp/cc6ezTuK.s:790    .debug_str:000000000000028b .LASF25
     /tmp/cc6ezTuK.s:10     .text:0000000000000000 .LFB0
     /tmp/cc6ezTuK.s:37     .text:0000000000000028 .LFE0
     /tmp/cc6ezTuK.s:697    .debug_loc:00000000000000ab .LLST0
     /tmp/cc6ezTuK.s:26     .text:0000000000000018 .LVL1
     /tmp/cc6ezTuK.s:758    .debug_str:00000000000000fb .LASF26
     /tmp/cc6ezTuK.s:788    .debug_str:0000000000000282 .LASF28
GAS LISTING /tmp/cc6ezTuK.s 			page 6


     /tmp/cc6ezTuK.s:762    .debug_str:000000000000011f .LASF27
     /tmp/cc6ezTuK.s:778    .debug_str:0000000000000238 .LASF29
     /tmp/cc6ezTuK.s:110    .text:0000000000000078 .LVL6
     /tmp/cc6ezTuK.s:78     .text:0000000000000050 .LVL4
     /tmp/cc6ezTuK.s:46     .text:0000000000000028 .LVL2
     /tmp/cc6ezTuK.s:14     .text:0000000000000000 .LVL0
     /tmp/cc6ezTuK.s:139    .debug_info:0000000000000000 .Ldebug_info0

UNDEFINED SYMBOLS
_Z9mem_allocm
_Z8mem_freePv
