GAS LISTING /tmp/cc1tXqr4.s 			page 1


   1              		.file	"syscall_c.cpp"
   2              		.option pic
   3              		.option norelax
   4              		.text
   5              	.Ltext0:
   6              		.align	2
   7              		.globl	_Z9mem_allocm
   9              	_Z9mem_allocm:
  10              	.LFB48:
  11              		.file 1 "src/syscall_c.cpp"
   1:src/syscall_c.cpp **** #include "../h/syscall_c.hpp"
   2:src/syscall_c.cpp **** 
   3:src/syscall_c.cpp **** 
   4:src/syscall_c.cpp **** void *mem_alloc(size_t size) {
  12              		.loc 1 4 30
  13              		.cfi_startproc
  14              	.LVL0:
  15 0000 130101FE 		addi	sp,sp,-32
  16              		.cfi_def_cfa_offset 32
  17 0004 233C8100 		sd	s0,24(sp)
  18              		.cfi_offset 8, -8
  19 0008 13040102 		addi	s0,sp,32
  20              		.cfi_def_cfa 8, 0
   5:src/syscall_c.cpp ****     size_t sizeInBlocks = ((size + 16 + MEM_BLOCK_SIZE - 1) / MEM_BLOCK_SIZE);
  21              		.loc 1 5 5
  22              		.loc 1 5 56 is_stmt 0
  23 000c 1305F504 		addi	a0,a0,79
  24              	.LVL1:
  25              		.loc 1 5 12
  26 0010 13556500 		srli	a0,a0,6
  27              	.LVL2:
   6:src/syscall_c.cpp ****     Riscv::w_a1((uint64) sizeInBlocks);
  28              		.loc 1 6 5 is_stmt 1
  29              	.LBB54:
  30              	.LBB55:
  31              		.file 2 "src/../h/riscv.hpp"
   1:src/../h/riscv.hpp **** #ifndef PROJECT_BASE_V1_1_RISCV_HPP
   2:src/../h/riscv.hpp **** #define PROJECT_BASE_V1_1_RISCV_HPP
   3:src/../h/riscv.hpp **** 
   4:src/../h/riscv.hpp **** 
   5:src/../h/riscv.hpp **** #include "../h/MemoryAllocator.hpp"
   6:src/../h/riscv.hpp **** #include "_thread.hpp"
   7:src/../h/riscv.hpp **** 
   8:src/../h/riscv.hpp **** 
   9:src/../h/riscv.hpp **** #define readUsrReg(reg, dst) __asm__ volatile("mv %0,"#reg : "=r" (dst));
  10:src/../h/riscv.hpp **** #define writeUsrReg(reg, src) __asm__ volatile("mv "#reg", %0" : : "r" (src));
  11:src/../h/riscv.hpp **** 
  12:src/../h/riscv.hpp **** 
  13:src/../h/riscv.hpp **** class Riscv {
  14:src/../h/riscv.hpp **** public:
  15:src/../h/riscv.hpp **** 
  16:src/../h/riscv.hpp **** 
  17:src/../h/riscv.hpp ****     // pop sstatus.spp and sstatus.spie bits (has to be a non inline function)
  18:src/../h/riscv.hpp ****     static void popSppSpie();
  19:src/../h/riscv.hpp **** 
  20:src/../h/riscv.hpp ****     // push x3..x31 registers onto stack
  21:src/../h/riscv.hpp ****     static void pushRegisters();
GAS LISTING /tmp/cc1tXqr4.s 			page 2


  22:src/../h/riscv.hpp **** 
  23:src/../h/riscv.hpp ****     // pop x3..x31 registers onto stack
  24:src/../h/riscv.hpp ****     static void popRegisters();
  25:src/../h/riscv.hpp **** 
  26:src/../h/riscv.hpp ****     // read register scause
  27:src/../h/riscv.hpp ****     static uint64 r_scause();
  28:src/../h/riscv.hpp **** 
  29:src/../h/riscv.hpp ****     // write register scause
  30:src/../h/riscv.hpp ****     static void w_scause(uint64 scause);
  31:src/../h/riscv.hpp **** 
  32:src/../h/riscv.hpp ****     // read register sepc
  33:src/../h/riscv.hpp ****     static uint64 r_sepc();
  34:src/../h/riscv.hpp **** 
  35:src/../h/riscv.hpp ****     // write register sepc
  36:src/../h/riscv.hpp ****     static void w_sepc(uint64 sepc);
  37:src/../h/riscv.hpp **** 
  38:src/../h/riscv.hpp ****     // read register stvec
  39:src/../h/riscv.hpp ****     static uint64 r_stvec();
  40:src/../h/riscv.hpp **** 
  41:src/../h/riscv.hpp ****     // write register stvec
  42:src/../h/riscv.hpp ****     static void w_stvec(uint64 stvec);
  43:src/../h/riscv.hpp **** 
  44:src/../h/riscv.hpp ****     // read register stval
  45:src/../h/riscv.hpp ****     static uint64 r_stval();
  46:src/../h/riscv.hpp **** 
  47:src/../h/riscv.hpp ****     // write register stval
  48:src/../h/riscv.hpp ****     static void w_stval(uint64 stval);
  49:src/../h/riscv.hpp **** 
  50:src/../h/riscv.hpp ****     enum BitMaskSip {
  51:src/../h/riscv.hpp **** 
  52:src/../h/riscv.hpp ****         SIP_SSIP = (1 << 1),
  53:src/../h/riscv.hpp ****         SIP_SEIP = (1 << 9)
  54:src/../h/riscv.hpp ****     };
  55:src/../h/riscv.hpp **** 
  56:src/../h/riscv.hpp ****     // mask set register sip
  57:src/../h/riscv.hpp ****     static void ms_sip(uint64 mask);
  58:src/../h/riscv.hpp **** 
  59:src/../h/riscv.hpp ****     // mask clear register sip
  60:src/../h/riscv.hpp ****     static void mc_sip(uint64 mask);
  61:src/../h/riscv.hpp **** 
  62:src/../h/riscv.hpp ****     // read register sip
  63:src/../h/riscv.hpp ****     static uint64 r_sip();
  64:src/../h/riscv.hpp **** 
  65:src/../h/riscv.hpp ****     // write register sip
  66:src/../h/riscv.hpp ****     static void w_sip(uint64 sip);
  67:src/../h/riscv.hpp **** 
  68:src/../h/riscv.hpp ****     enum BitMaskSstatus {
  69:src/../h/riscv.hpp ****         SSTATUS_SIE = (1 << 1),
  70:src/../h/riscv.hpp ****         SSTATUS_SPIE = (1 << 5),
  71:src/../h/riscv.hpp ****         SSTATUS_SPP = (1 << 8),
  72:src/../h/riscv.hpp ****     };
  73:src/../h/riscv.hpp **** 
  74:src/../h/riscv.hpp ****     // mask set register sstatus
  75:src/../h/riscv.hpp ****     static void ms_sstatus(uint64 mask);
  76:src/../h/riscv.hpp **** 
  77:src/../h/riscv.hpp ****     // mask clear register sstatus
  78:src/../h/riscv.hpp ****     static void mc_sstatus(uint64 mask);
GAS LISTING /tmp/cc1tXqr4.s 			page 3


  79:src/../h/riscv.hpp **** 
  80:src/../h/riscv.hpp ****     // read register sstatus
  81:src/../h/riscv.hpp ****     static uint64 r_sstatus();
  82:src/../h/riscv.hpp **** 
  83:src/../h/riscv.hpp ****     // write register sstatus
  84:src/../h/riscv.hpp ****     static void w_sstatus(uint64 sstatus);
  85:src/../h/riscv.hpp **** 
  86:src/../h/riscv.hpp ****     // mask set register sie
  87:src/../h/riscv.hpp ****     static void ms_sie(uint64 mask);
  88:src/../h/riscv.hpp **** 
  89:src/../h/riscv.hpp ****     // mask clear register sie
  90:src/../h/riscv.hpp ****     static void mc_sie(uint64 mask);
  91:src/../h/riscv.hpp **** 
  92:src/../h/riscv.hpp ****     static void supervisorTrap();
  93:src/../h/riscv.hpp **** 
  94:src/../h/riscv.hpp ****     static long r_a0();
  95:src/../h/riscv.hpp **** 
  96:src/../h/riscv.hpp ****     static void w_a0(long a0);
  97:src/../h/riscv.hpp **** 
  98:src/../h/riscv.hpp ****     static uint64 r_a1();
  99:src/../h/riscv.hpp **** 
 100:src/../h/riscv.hpp ****     static void w_a1(uint64 a1);
 101:src/../h/riscv.hpp **** 
 102:src/../h/riscv.hpp ****     static uint64 r_a2();
 103:src/../h/riscv.hpp **** 
 104:src/../h/riscv.hpp ****     static void w_a2(uint64 a1);
 105:src/../h/riscv.hpp **** 
 106:src/../h/riscv.hpp ****     static uint64 r_a7();
 107:src/../h/riscv.hpp **** 
 108:src/../h/riscv.hpp ****     static void w_a7(uint64 a7);
 109:src/../h/riscv.hpp **** 
 110:src/../h/riscv.hpp ****     static void push_a0(long a0);
 111:src/../h/riscv.hpp **** 
 112:src/../h/riscv.hpp **** private:
 113:src/../h/riscv.hpp ****     static void trapHandler();
 114:src/../h/riscv.hpp **** 
 115:src/../h/riscv.hpp **** 
 116:src/../h/riscv.hpp **** };
 117:src/../h/riscv.hpp **** 
 118:src/../h/riscv.hpp **** inline uint64 Riscv::r_scause() {
 119:src/../h/riscv.hpp ****     uint64 volatile scause;
 120:src/../h/riscv.hpp ****     __asm__ volatile ("csrr %[scause], scause" : [scause] "=r"(scause));
 121:src/../h/riscv.hpp ****     return scause;
 122:src/../h/riscv.hpp **** }
 123:src/../h/riscv.hpp **** 
 124:src/../h/riscv.hpp **** inline void Riscv::w_scause(uint64 scause) {
 125:src/../h/riscv.hpp ****     __asm__ volatile ("csrw scause, %[scause]" : : [scause] "r"(scause));
 126:src/../h/riscv.hpp **** }
 127:src/../h/riscv.hpp **** 
 128:src/../h/riscv.hpp **** inline uint64 Riscv::r_sepc() {
 129:src/../h/riscv.hpp ****     uint64 volatile sepc;
 130:src/../h/riscv.hpp ****     __asm__ volatile ("csrr %[sepc], sepc" : [sepc] "=r"(sepc));
 131:src/../h/riscv.hpp ****     return sepc;
 132:src/../h/riscv.hpp **** }
 133:src/../h/riscv.hpp **** 
 134:src/../h/riscv.hpp **** inline void Riscv::w_sepc(uint64 sepc) {
 135:src/../h/riscv.hpp ****     __asm__ volatile ("csrw sepc, %[sepc]" : : [sepc] "r"(sepc));
GAS LISTING /tmp/cc1tXqr4.s 			page 4


 136:src/../h/riscv.hpp **** }
 137:src/../h/riscv.hpp **** 
 138:src/../h/riscv.hpp **** inline uint64 Riscv::r_stvec() {
 139:src/../h/riscv.hpp ****     uint64 volatile stvec;
 140:src/../h/riscv.hpp ****     __asm__ volatile ("csrr %[stvec], stvec" : [stvec] "=r"(stvec));
 141:src/../h/riscv.hpp ****     return stvec;
 142:src/../h/riscv.hpp **** }
 143:src/../h/riscv.hpp **** 
 144:src/../h/riscv.hpp **** inline void Riscv::w_stvec(uint64 stvec) {
 145:src/../h/riscv.hpp ****     __asm__ volatile ("csrw stvec, %[stvec]" : : [stvec] "r"(stvec));
 146:src/../h/riscv.hpp **** }
 147:src/../h/riscv.hpp **** 
 148:src/../h/riscv.hpp **** inline uint64 Riscv::r_stval() {
 149:src/../h/riscv.hpp ****     uint64 volatile stval;
 150:src/../h/riscv.hpp ****     __asm__ volatile ("csrr %[stval], stval" : [stval] "=r"(stval));
 151:src/../h/riscv.hpp ****     return stval;
 152:src/../h/riscv.hpp **** }
 153:src/../h/riscv.hpp **** 
 154:src/../h/riscv.hpp **** inline void Riscv::w_stval(uint64 stval) {
 155:src/../h/riscv.hpp ****     __asm__ volatile ("csrw stval, %[stval]" : : [stval] "r"(stval));
 156:src/../h/riscv.hpp **** }
 157:src/../h/riscv.hpp **** 
 158:src/../h/riscv.hpp **** inline void Riscv::ms_sip(uint64 mask) {
 159:src/../h/riscv.hpp ****     __asm__ volatile ("csrs sip, %[mask]" : : [mask] "r"(mask));
 160:src/../h/riscv.hpp **** }
 161:src/../h/riscv.hpp **** 
 162:src/../h/riscv.hpp **** inline void Riscv::mc_sip(uint64 mask) {
 163:src/../h/riscv.hpp ****     __asm__ volatile ("csrc sip, %[mask]" : : [mask] "r"(mask));
 164:src/../h/riscv.hpp **** }
 165:src/../h/riscv.hpp **** 
 166:src/../h/riscv.hpp **** inline uint64 Riscv::r_sip() {
 167:src/../h/riscv.hpp ****     uint64 volatile sip;
 168:src/../h/riscv.hpp ****     __asm__ volatile ("csrr %[sip], sip" : [sip] "=r"(sip));
 169:src/../h/riscv.hpp ****     return sip;
 170:src/../h/riscv.hpp **** }
 171:src/../h/riscv.hpp **** 
 172:src/../h/riscv.hpp **** inline void Riscv::w_sip(uint64 sip) {
 173:src/../h/riscv.hpp ****     __asm__ volatile ("csrw sip, %[sip]" : : [sip] "r"(sip));
 174:src/../h/riscv.hpp **** }
 175:src/../h/riscv.hpp **** 
 176:src/../h/riscv.hpp **** inline void Riscv::ms_sstatus(uint64 mask) {
 177:src/../h/riscv.hpp ****     __asm__ volatile ("csrs sstatus, %[mask]" : : [mask] "r"(mask));
 178:src/../h/riscv.hpp **** }
 179:src/../h/riscv.hpp **** 
 180:src/../h/riscv.hpp **** inline void Riscv::mc_sstatus(uint64 mask) {
 181:src/../h/riscv.hpp ****     __asm__ volatile ("csrc sstatus, %[mask]" : : [mask] "r"(mask));
 182:src/../h/riscv.hpp **** }
 183:src/../h/riscv.hpp **** 
 184:src/../h/riscv.hpp **** inline uint64 Riscv::r_sstatus() {
 185:src/../h/riscv.hpp ****     uint64 volatile sstatus;
 186:src/../h/riscv.hpp ****     __asm__ volatile ("csrr %[sstatus], sstatus" : [sstatus] "=r"(sstatus));
 187:src/../h/riscv.hpp ****     return sstatus;
 188:src/../h/riscv.hpp **** }
 189:src/../h/riscv.hpp **** 
 190:src/../h/riscv.hpp **** inline void Riscv::w_sstatus(uint64 sstatus) {
 191:src/../h/riscv.hpp ****     __asm__ volatile ("csrw sstatus, %[sstatus]" : : [sstatus] "r"(sstatus));
 192:src/../h/riscv.hpp **** }
GAS LISTING /tmp/cc1tXqr4.s 			page 5


 193:src/../h/riscv.hpp **** 
 194:src/../h/riscv.hpp **** inline void Riscv::ms_sie(uint64 mask) {
 195:src/../h/riscv.hpp ****     __asm__ volatile ("csrs sie, %[mask]" : : [mask] "r"(mask));
 196:src/../h/riscv.hpp **** }
 197:src/../h/riscv.hpp **** 
 198:src/../h/riscv.hpp **** inline void Riscv::mc_sie(uint64 mask) {
 199:src/../h/riscv.hpp ****     __asm__ volatile ("csrc sie, %[mask]" : : [mask] "r"(mask));
 200:src/../h/riscv.hpp **** }
 201:src/../h/riscv.hpp **** 
 202:src/../h/riscv.hpp **** inline long Riscv::r_a0() {
 203:src/../h/riscv.hpp ****     long volatile a0;
 204:src/../h/riscv.hpp ****     __asm__ volatile("mv %0, a0" : "=r"(a0));
 205:src/../h/riscv.hpp ****     return a0;
 206:src/../h/riscv.hpp **** }
 207:src/../h/riscv.hpp **** 
 208:src/../h/riscv.hpp **** inline void Riscv::w_a0(long a0) {
 209:src/../h/riscv.hpp ****     __asm__ volatile ("mv a0, %0" : : "r"(a0));
 210:src/../h/riscv.hpp **** }
 211:src/../h/riscv.hpp **** 
 212:src/../h/riscv.hpp **** inline uint64 Riscv::r_a1() {
 213:src/../h/riscv.hpp ****     uint64 volatile a1;
 214:src/../h/riscv.hpp ****     __asm__ volatile("mv %0, a1" : "=r"(a1));
 215:src/../h/riscv.hpp ****     return a1;
 216:src/../h/riscv.hpp **** }
 217:src/../h/riscv.hpp **** 
 218:src/../h/riscv.hpp **** inline void Riscv::w_a1(uint64 a1) {
 219:src/../h/riscv.hpp ****     __asm__ volatile ("mv a1, %0" : : "r"(a1));
  32              		.loc 2 219 5
  33              		.loc 2 219 47 is_stmt 0
  34              	#APP
  35              	# 219 "src/../h/riscv.hpp" 1
 220              	}
  36              		mv a1, a0
  37              	# 0 "" 2
  38              	.LVL3:
  39              	#NO_APP
  40              	.LBE55:
  41              	.LBE54:
   7:src/syscall_c.cpp ****     Riscv::w_a0(0x01);
  42              		.loc 1 7 5 is_stmt 1
  43              	.LBB56:
  44              	.LBB57:
 209:src/../h/riscv.hpp **** }
  45              		.loc 2 209 5
 209:src/../h/riscv.hpp **** }
  46              		.loc 2 209 47 is_stmt 0
  47 0018 93071000 		li	a5,1
  48              	#APP
  49              	# 209 "src/../h/riscv.hpp" 1
  50              		mv a0, a5
  51              	# 0 "" 2
  52              	.LVL4:
  53              	#NO_APP
  54              	.LBE57:
  55              	.LBE56:
   8:src/syscall_c.cpp **** 
   9:src/syscall_c.cpp **** 
GAS LISTING /tmp/cc1tXqr4.s 			page 6


  10:src/syscall_c.cpp ****     __asm__ volatile ("ecall");
  56              		.loc 1 10 5 is_stmt 1
  57              		.loc 1 10 31 is_stmt 0
  58              	#APP
  59              	# 10 "src/syscall_c.cpp" 1
  11              	
  12:src/syscall_c.cpp ****     volatile long a0;
  60              		ecall
  61              	# 0 "" 2
  62              		.loc 1 12 5 is_stmt 1
  13:src/syscall_c.cpp ****     __asm__ volatile ("mv %0, a0" : "=r"(a0));
  63              		.loc 1 13 5
  64              		.loc 1 13 46 is_stmt 0
  65              	# 13 "src/syscall_c.cpp" 1
  14              	    return (void *) a0;
  66              		mv a5, a0
  67              	# 0 "" 2
  68              	#NO_APP
  69 0028 2334F4FE 		sd	a5,-24(s0)
  70              		.loc 1 14 5 is_stmt 1
  71              		.loc 1 14 21 is_stmt 0
  72 002c 033584FE 		ld	a0,-24(s0)
  73              	.LVL5:
  15:src/syscall_c.cpp **** }
  74              		.loc 1 15 1
  75 0030 03348101 		ld	s0,24(sp)
  76              		.cfi_restore 8
  77              		.cfi_def_cfa 2, 32
  78 0034 13010102 		addi	sp,sp,32
  79              		.cfi_def_cfa_offset 0
  80 0038 67800000 		jr	ra
  81              		.cfi_endproc
  82              	.LFE48:
  84              		.align	2
  85              		.globl	_Z8mem_freePv
  87              	_Z8mem_freePv:
  88              	.LFB49:
  16:src/syscall_c.cpp **** 
  17:src/syscall_c.cpp **** int mem_free(void *ptr) {
  89              		.loc 1 17 25 is_stmt 1
  90              		.cfi_startproc
  91              	.LVL6:
  92 003c 130101FE 		addi	sp,sp,-32
  93              		.cfi_def_cfa_offset 32
  94 0040 233C8100 		sd	s0,24(sp)
  95              		.cfi_offset 8, -8
  96 0044 13040102 		addi	s0,sp,32
  97              		.cfi_def_cfa 8, 0
  18:src/syscall_c.cpp ****     Riscv::w_a1((uint64) ptr);
  98              		.loc 1 18 5
  99              	.LVL7:
 100              	.LBB58:
 101              	.LBB59:
 219:src/../h/riscv.hpp **** }
 102              		.loc 2 219 5
 219:src/../h/riscv.hpp **** }
 103              		.loc 2 219 47 is_stmt 0
GAS LISTING /tmp/cc1tXqr4.s 			page 7


 104              	#APP
 105              	# 219 "src/../h/riscv.hpp" 1
 106              		mv a1, a0
 107              	# 0 "" 2
 108              	.LVL8:
 109              	#NO_APP
 110              	.LBE59:
 111              	.LBE58:
  19:src/syscall_c.cpp ****     Riscv::w_a0(0x02);
 112              		.loc 1 19 5 is_stmt 1
 113              	.LBB60:
 114              	.LBB61:
 209:src/../h/riscv.hpp **** }
 115              		.loc 2 209 5
 209:src/../h/riscv.hpp **** }
 116              		.loc 2 209 47 is_stmt 0
 117 004c 93072000 		li	a5,2
 118              	#APP
 119              	# 209 "src/../h/riscv.hpp" 1
 120              		mv a0, a5
 121              	# 0 "" 2
 122              	.LVL9:
 123              	#NO_APP
 124              	.LBE61:
 125              	.LBE60:
  20:src/syscall_c.cpp **** 
  21:src/syscall_c.cpp **** 
  22:src/syscall_c.cpp ****     __asm__ volatile ("ecall");
 126              		.loc 1 22 5 is_stmt 1
 127              		.loc 1 22 31 is_stmt 0
 128              	#APP
 129              	# 22 "src/syscall_c.cpp" 1
  23              	
  24:src/syscall_c.cpp ****     volatile long a0;
 130              		ecall
 131              	# 0 "" 2
 132              		.loc 1 24 5 is_stmt 1
  25:src/syscall_c.cpp ****     __asm__ volatile ("mv %0, a0" : "=r"(a0));
 133              		.loc 1 25 5
 134              		.loc 1 25 46 is_stmt 0
 135              	# 25 "src/syscall_c.cpp" 1
  26              	    return a0;
 136              		mv a5, a0
 137              	# 0 "" 2
 138              	#NO_APP
 139 005c 2334F4FE 		sd	a5,-24(s0)
 140              		.loc 1 26 5 is_stmt 1
 141              		.loc 1 26 12 is_stmt 0
 142 0060 033584FE 		ld	a0,-24(s0)
 143              	.LVL10:
  27:src/syscall_c.cpp **** }
 144              		.loc 1 27 1
 145 0064 1B050500 		sext.w	a0,a0
 146 0068 03348101 		ld	s0,24(sp)
 147              		.cfi_restore 8
 148              		.cfi_def_cfa 2, 32
 149 006c 13010102 		addi	sp,sp,32
GAS LISTING /tmp/cc1tXqr4.s 			page 8


 150              		.cfi_def_cfa_offset 0
 151 0070 67800000 		jr	ra
 152              		.cfi_endproc
 153              	.LFE49:
 155              		.align	2
 156              		.globl	_Z10toUserModev
 158              	_Z10toUserModev:
 159              	.LFB50:
  28:src/syscall_c.cpp **** 
  29:src/syscall_c.cpp **** void toUserMode() {
 160              		.loc 1 29 19 is_stmt 1
 161              		.cfi_startproc
 162 0074 130101FF 		addi	sp,sp,-16
 163              		.cfi_def_cfa_offset 16
 164 0078 23348100 		sd	s0,8(sp)
 165              		.cfi_offset 8, -8
 166 007c 13040101 		addi	s0,sp,16
 167              		.cfi_def_cfa 8, 0
  30:src/syscall_c.cpp ****     Riscv::w_a0(0x51);
 168              		.loc 1 30 5
 169              	.LVL11:
 170              	.LBB62:
 171              	.LBB63:
 209:src/../h/riscv.hpp **** }
 172              		.loc 2 209 5
 209:src/../h/riscv.hpp **** }
 173              		.loc 2 209 47 is_stmt 0
 174 0080 93071005 		li	a5,81
 175              	#APP
 176              	# 209 "src/../h/riscv.hpp" 1
 177              		mv a0, a5
 178              	# 0 "" 2
 179              	.LVL12:
 180              	#NO_APP
 181              	.LBE63:
 182              	.LBE62:
  31:src/syscall_c.cpp ****     __asm__ volatile ("ecall");
 183              		.loc 1 31 5 is_stmt 1
 184              		.loc 1 31 31 is_stmt 0
 185              	#APP
 186              	# 31 "src/syscall_c.cpp" 1
  32              	}
 187              		ecall
 188              	# 0 "" 2
 189              		.loc 1 32 1
 190              	#NO_APP
 191 008c 03348100 		ld	s0,8(sp)
 192              		.cfi_restore 8
 193              		.cfi_def_cfa 2, 16
 194 0090 13010101 		addi	sp,sp,16
 195              		.cfi_def_cfa_offset 0
 196 0094 67800000 		jr	ra
 197              		.cfi_endproc
 198              	.LFE50:
 200              		.align	2
 201              		.globl	_Z13thread_createPP7_threadPFvPvES2_
 203              	_Z13thread_createPP7_threadPFvPvES2_:
GAS LISTING /tmp/cc1tXqr4.s 			page 9


 204              	.LFB51:
  33:src/syscall_c.cpp **** 
  34:src/syscall_c.cpp **** int thread_create(thread_t *handle, void(*start_routine)(void *), void *arg) {
 205              		.loc 1 34 78 is_stmt 1
 206              		.cfi_startproc
 207              	.LVL13:
 208 0098 130101FE 		addi	sp,sp,-32
 209              		.cfi_def_cfa_offset 32
 210 009c 233C8100 		sd	s0,24(sp)
 211              		.cfi_offset 8, -8
 212 00a0 13040102 		addi	s0,sp,32
 213              		.cfi_def_cfa 8, 0
  35:src/syscall_c.cpp **** 
  36:src/syscall_c.cpp **** 
  37:src/syscall_c.cpp ****     Riscv::w_a1((uint64) start_routine);
 214              		.loc 1 37 5
 215              	.LVL14:
 216              	.LBB64:
 217              	.LBB65:
 219:src/../h/riscv.hpp **** }
 218              		.loc 2 219 5
 219:src/../h/riscv.hpp **** }
 219              		.loc 2 219 47 is_stmt 0
 220              	#APP
 221              	# 219 "src/../h/riscv.hpp" 1
 222              		mv a1, a1
 223              	# 0 "" 2
 224              	.LVL15:
 225              	#NO_APP
 226              	.LBE65:
 227              	.LBE64:
  38:src/syscall_c.cpp ****     Riscv::w_a2((uint64) arg);
 228              		.loc 1 38 5 is_stmt 1
 229              	.LBB66:
 230              	.LBB67:
 221:src/../h/riscv.hpp **** 
 222:src/../h/riscv.hpp **** inline uint64 Riscv::r_a2() {
 223:src/../h/riscv.hpp ****     uint64 volatile a2;
 224:src/../h/riscv.hpp ****     __asm__ volatile("mv %0, a2" : "=r"(a2));
 225:src/../h/riscv.hpp ****     return a2;
 226:src/../h/riscv.hpp **** }
 227:src/../h/riscv.hpp **** 
 228:src/../h/riscv.hpp **** inline void Riscv::w_a2(uint64 a2) {
 229:src/../h/riscv.hpp ****     __asm__ volatile ("mv a2, %0" : : "r"(a2));
 231              		.loc 2 229 5
 232              		.loc 2 229 47 is_stmt 0
 233              	#APP
 234              	# 229 "src/../h/riscv.hpp" 1
 230              	}
 235              		mv a2, a2
 236              	# 0 "" 2
 237              	.LVL16:
 238              	#NO_APP
 239              	.LBE67:
 240              	.LBE66:
  39:src/syscall_c.cpp ****     Riscv::w_a7((uint64) handle);
 241              		.loc 1 39 5 is_stmt 1
GAS LISTING /tmp/cc1tXqr4.s 			page 10


 242              	.LBB68:
 243              	.LBB69:
 231:src/../h/riscv.hpp **** 
 232:src/../h/riscv.hpp **** inline uint64 Riscv::r_a7() {
 233:src/../h/riscv.hpp ****     uint64 volatile a7;
 234:src/../h/riscv.hpp ****     __asm__ volatile("mv %0, a7" : "=r"(a7));
 235:src/../h/riscv.hpp ****     return a7;
 236:src/../h/riscv.hpp **** }
 237:src/../h/riscv.hpp **** 
 238:src/../h/riscv.hpp **** inline void Riscv::w_a7(uint64 a7) {
 239:src/../h/riscv.hpp ****     __asm__ volatile ("mv a7, %0" : : "r"(a7));
 244              		.loc 2 239 5
 245              		.loc 2 239 47 is_stmt 0
 246              	#APP
 247              	# 239 "src/../h/riscv.hpp" 1
 240              	}
 248              		mv a7, a0
 249              	# 0 "" 2
 250              	.LVL17:
 251              	#NO_APP
 252              	.LBE69:
 253              	.LBE68:
  40:src/syscall_c.cpp ****     Riscv::w_a0(0x11);
 254              		.loc 1 40 5 is_stmt 1
 255              	.LBB70:
 256              	.LBB71:
 209:src/../h/riscv.hpp **** }
 257              		.loc 2 209 5
 209:src/../h/riscv.hpp **** }
 258              		.loc 2 209 47 is_stmt 0
 259 00b0 93071001 		li	a5,17
 260              	#APP
 261              	# 209 "src/../h/riscv.hpp" 1
 262              		mv a0, a5
 263              	# 0 "" 2
 264              	.LVL18:
 265              	#NO_APP
 266              	.LBE71:
 267              	.LBE70:
  41:src/syscall_c.cpp **** 
  42:src/syscall_c.cpp ****     __asm__ volatile ("ecall");
 268              		.loc 1 42 5 is_stmt 1
 269              		.loc 1 42 31 is_stmt 0
 270              	#APP
 271              	# 42 "src/syscall_c.cpp" 1
  43              	
  44:src/syscall_c.cpp ****     return Riscv::r_a0();
 272              		ecall
 273              	# 0 "" 2
 274              		.loc 1 44 5 is_stmt 1
 275              	#NO_APP
 276              	.LBB72:
 277              	.LBB73:
 203:src/../h/riscv.hpp ****     __asm__ volatile("mv %0, a0" : "=r"(a0));
 278              		.loc 2 203 5
 204:src/../h/riscv.hpp ****     return a0;
 279              		.loc 2 204 5
GAS LISTING /tmp/cc1tXqr4.s 			page 11


 204:src/../h/riscv.hpp ****     return a0;
 280              		.loc 2 204 45 is_stmt 0
 281              	#APP
 282              	# 204 "src/../h/riscv.hpp" 1
 283              		mv a5, a0
 284              	# 0 "" 2
 285              	#NO_APP
 286 00c0 2334F4FE 		sd	a5,-24(s0)
 205:src/../h/riscv.hpp **** }
 287              		.loc 2 205 5 is_stmt 1
 205:src/../h/riscv.hpp **** }
 288              		.loc 2 205 12 is_stmt 0
 289 00c4 033584FE 		ld	a0,-24(s0)
 290              	.LVL19:
 291              	.LBE73:
 292              	.LBE72:
  45:src/syscall_c.cpp **** 
  46:src/syscall_c.cpp **** 
  47:src/syscall_c.cpp **** }
 293              		.loc 1 47 1
 294 00c8 1B050500 		sext.w	a0,a0
 295 00cc 03348101 		ld	s0,24(sp)
 296              		.cfi_restore 8
 297              		.cfi_def_cfa 2, 32
 298 00d0 13010102 		addi	sp,sp,32
 299              		.cfi_def_cfa_offset 0
 300 00d4 67800000 		jr	ra
 301              		.cfi_endproc
 302              	.LFE51:
 304              		.align	2
 305              		.globl	_Z11thread_exitv
 307              	_Z11thread_exitv:
 308              	.LFB52:
  48:src/syscall_c.cpp **** 
  49:src/syscall_c.cpp **** int thread_exit() {
 309              		.loc 1 49 19 is_stmt 1
 310              		.cfi_startproc
 311 00d8 130101FE 		addi	sp,sp,-32
 312              		.cfi_def_cfa_offset 32
 313 00dc 233C8100 		sd	s0,24(sp)
 314              		.cfi_offset 8, -8
 315 00e0 13040102 		addi	s0,sp,32
 316              		.cfi_def_cfa 8, 0
  50:src/syscall_c.cpp ****     Riscv::w_a0(0x12);
 317              		.loc 1 50 5
 318              	.LVL20:
 319              	.LBB74:
 320              	.LBB75:
 209:src/../h/riscv.hpp **** }
 321              		.loc 2 209 5
 209:src/../h/riscv.hpp **** }
 322              		.loc 2 209 47 is_stmt 0
 323 00e4 93072001 		li	a5,18
 324              	#APP
 325              	# 209 "src/../h/riscv.hpp" 1
 326              		mv a0, a5
 327              	# 0 "" 2
GAS LISTING /tmp/cc1tXqr4.s 			page 12


 328              	.LVL21:
 329              	#NO_APP
 330              	.LBE75:
 331              	.LBE74:
  51:src/syscall_c.cpp ****     __asm__ volatile ("ecall");
 332              		.loc 1 51 5 is_stmt 1
 333              		.loc 1 51 31 is_stmt 0
 334              	#APP
 335              	# 51 "src/syscall_c.cpp" 1
  52              	    volatile uint64 a0 = Riscv::r_a0();
 336              		ecall
 337              	# 0 "" 2
 338              		.loc 1 52 5 is_stmt 1
 339              	#NO_APP
 340              	.LBB76:
 341              	.LBB77:
 203:src/../h/riscv.hpp ****     __asm__ volatile("mv %0, a0" : "=r"(a0));
 342              		.loc 2 203 5
 204:src/../h/riscv.hpp ****     return a0;
 343              		.loc 2 204 5
 204:src/../h/riscv.hpp ****     return a0;
 344              		.loc 2 204 45 is_stmt 0
 345              	#APP
 346              	# 204 "src/../h/riscv.hpp" 1
 347              		mv a5, a0
 348              	# 0 "" 2
 349              	#NO_APP
 350 00f4 2330F4FE 		sd	a5,-32(s0)
 205:src/../h/riscv.hpp **** }
 351              		.loc 2 205 5 is_stmt 1
 205:src/../h/riscv.hpp **** }
 352              		.loc 2 205 12 is_stmt 0
 353 00f8 833704FE 		ld	a5,-32(s0)
 354              	.LBE77:
 355              	.LBE76:
 356              		.loc 1 52 38
 357 00fc 2334F4FE 		sd	a5,-24(s0)
  53:src/syscall_c.cpp ****     return a0;
 358              		.loc 1 53 5 is_stmt 1
 359              		.loc 1 53 12 is_stmt 0
 360 0100 033584FE 		ld	a0,-24(s0)
  54:src/syscall_c.cpp **** }
 361              		.loc 1 54 1
 362 0104 1B050500 		sext.w	a0,a0
 363 0108 03348101 		ld	s0,24(sp)
 364              		.cfi_restore 8
 365              		.cfi_def_cfa 2, 32
 366 010c 13010102 		addi	sp,sp,32
 367              		.cfi_def_cfa_offset 0
 368 0110 67800000 		jr	ra
 369              		.cfi_endproc
 370              	.LFE52:
 372              		.align	2
 373              		.globl	_Z15thread_dispatchv
 375              	_Z15thread_dispatchv:
 376              	.LFB53:
  55:src/syscall_c.cpp **** 
GAS LISTING /tmp/cc1tXqr4.s 			page 13


  56:src/syscall_c.cpp **** void thread_dispatch() {
 377              		.loc 1 56 24 is_stmt 1
 378              		.cfi_startproc
 379 0114 130101FF 		addi	sp,sp,-16
 380              		.cfi_def_cfa_offset 16
 381 0118 23348100 		sd	s0,8(sp)
 382              		.cfi_offset 8, -8
 383 011c 13040101 		addi	s0,sp,16
 384              		.cfi_def_cfa 8, 0
  57:src/syscall_c.cpp ****     Riscv::w_a0(0x13);
 385              		.loc 1 57 5
 386              	.LVL22:
 387              	.LBB78:
 388              	.LBB79:
 209:src/../h/riscv.hpp **** }
 389              		.loc 2 209 5
 209:src/../h/riscv.hpp **** }
 390              		.loc 2 209 47 is_stmt 0
 391 0120 93073001 		li	a5,19
 392              	#APP
 393              	# 209 "src/../h/riscv.hpp" 1
 394              		mv a0, a5
 395              	# 0 "" 2
 396              	.LVL23:
 397              	#NO_APP
 398              	.LBE79:
 399              	.LBE78:
  58:src/syscall_c.cpp ****     __asm__ volatile ("ecall");
 400              		.loc 1 58 5 is_stmt 1
 401              		.loc 1 58 31 is_stmt 0
 402              	#APP
 403              	# 58 "src/syscall_c.cpp" 1
  59              	}
 404              		ecall
 405              	# 0 "" 2
 406              		.loc 1 59 1
 407              	#NO_APP
 408 012c 03348100 		ld	s0,8(sp)
 409              		.cfi_restore 8
 410              		.cfi_def_cfa 2, 16
 411 0130 13010101 		addi	sp,sp,16
 412              		.cfi_def_cfa_offset 0
 413 0134 67800000 		jr	ra
 414              		.cfi_endproc
 415              	.LFE53:
 417              		.align	2
 418              		.globl	_Z11thread_joinP7_thread
 420              	_Z11thread_joinP7_thread:
 421              	.LFB54:
  60:src/syscall_c.cpp **** 
  61:src/syscall_c.cpp **** void thread_join(thread_t handle) {
 422              		.loc 1 61 35 is_stmt 1
 423              		.cfi_startproc
 424              	.LVL24:
 425 0138 130101FF 		addi	sp,sp,-16
 426              		.cfi_def_cfa_offset 16
 427 013c 23348100 		sd	s0,8(sp)
GAS LISTING /tmp/cc1tXqr4.s 			page 14


 428              		.cfi_offset 8, -8
 429 0140 13040101 		addi	s0,sp,16
 430              		.cfi_def_cfa 8, 0
  62:src/syscall_c.cpp ****     Riscv::w_a1((uint64) handle);
 431              		.loc 1 62 5
 432              	.LVL25:
 433              	.LBB80:
 434              	.LBB81:
 219:src/../h/riscv.hpp **** }
 435              		.loc 2 219 5
 219:src/../h/riscv.hpp **** }
 436              		.loc 2 219 47 is_stmt 0
 437              	#APP
 438              	# 219 "src/../h/riscv.hpp" 1
 439              		mv a1, a0
 440              	# 0 "" 2
 441              	.LVL26:
 442              	#NO_APP
 443              	.LBE81:
 444              	.LBE80:
  63:src/syscall_c.cpp ****     Riscv::w_a0(0x14);
 445              		.loc 1 63 5 is_stmt 1
 446              	.LBB82:
 447              	.LBB83:
 209:src/../h/riscv.hpp **** }
 448              		.loc 2 209 5
 209:src/../h/riscv.hpp **** }
 449              		.loc 2 209 47 is_stmt 0
 450 0148 93074001 		li	a5,20
 451              	#APP
 452              	# 209 "src/../h/riscv.hpp" 1
 453              		mv a0, a5
 454              	# 0 "" 2
 455              	.LVL27:
 456              	#NO_APP
 457              	.LBE83:
 458              	.LBE82:
  64:src/syscall_c.cpp **** 
  65:src/syscall_c.cpp ****     __asm__ volatile ("ecall");
 459              		.loc 1 65 5 is_stmt 1
 460              		.loc 1 65 31 is_stmt 0
 461              	#APP
 462              	# 65 "src/syscall_c.cpp" 1
  66              	
  67:src/syscall_c.cpp **** }
 463              		ecall
 464              	# 0 "" 2
 465              		.loc 1 67 1
 466              	#NO_APP
 467 0154 03348100 		ld	s0,8(sp)
 468              		.cfi_restore 8
 469              		.cfi_def_cfa 2, 16
 470 0158 13010101 		addi	sp,sp,16
 471              		.cfi_def_cfa_offset 0
 472 015c 67800000 		jr	ra
 473              		.cfi_endproc
 474              	.LFE54:
GAS LISTING /tmp/cc1tXqr4.s 			page 15


 476              		.align	2
 477              		.globl	_Z8sem_openPP4_semj
 479              	_Z8sem_openPP4_semj:
 480              	.LFB55:
  68:src/syscall_c.cpp **** 
  69:src/syscall_c.cpp **** int sem_open(sem_t *handle, unsigned init) {
 481              		.loc 1 69 44 is_stmt 1
 482              		.cfi_startproc
 483              	.LVL28:
 484 0160 130101FE 		addi	sp,sp,-32
 485              		.cfi_def_cfa_offset 32
 486 0164 233C8100 		sd	s0,24(sp)
 487              		.cfi_offset 8, -8
 488 0168 13040102 		addi	s0,sp,32
 489              		.cfi_def_cfa 8, 0
  70:src/syscall_c.cpp ****     Riscv::w_a2(init);
 490              		.loc 1 70 5
 491              		.loc 1 70 16 is_stmt 0
 492 016c 93950502 		slli	a1,a1,32
 493              	.LVL29:
 494 0170 93D50502 		srli	a1,a1,32
 495              	.LVL30:
 496              	.LBB84:
 497              	.LBB85:
 229:src/../h/riscv.hpp **** }
 498              		.loc 2 229 5 is_stmt 1
 229:src/../h/riscv.hpp **** }
 499              		.loc 2 229 47 is_stmt 0
 500              	#APP
 501              	# 229 "src/../h/riscv.hpp" 1
 502              		mv a2, a1
 503              	# 0 "" 2
 504              	.LVL31:
 505              	#NO_APP
 506              	.LBE85:
 507              	.LBE84:
  71:src/syscall_c.cpp ****     Riscv::w_a1((uint64) handle);
 508              		.loc 1 71 5 is_stmt 1
 509              	.LBB86:
 510              	.LBB87:
 219:src/../h/riscv.hpp **** }
 511              		.loc 2 219 5
 219:src/../h/riscv.hpp **** }
 512              		.loc 2 219 47 is_stmt 0
 513              	#APP
 514              	# 219 "src/../h/riscv.hpp" 1
 515              		mv a1, a0
 516              	# 0 "" 2
 517              	.LVL32:
 518              	#NO_APP
 519              	.LBE87:
 520              	.LBE86:
  72:src/syscall_c.cpp ****     Riscv::w_a0(0x21);
 521              		.loc 1 72 5 is_stmt 1
 522              	.LBB88:
 523              	.LBB89:
 209:src/../h/riscv.hpp **** }
GAS LISTING /tmp/cc1tXqr4.s 			page 16


 524              		.loc 2 209 5
 209:src/../h/riscv.hpp **** }
 525              		.loc 2 209 47 is_stmt 0
 526 017c 93071002 		li	a5,33
 527              	#APP
 528              	# 209 "src/../h/riscv.hpp" 1
 529              		mv a0, a5
 530              	# 0 "" 2
 531              	.LVL33:
 532              	#NO_APP
 533              	.LBE89:
 534              	.LBE88:
  73:src/syscall_c.cpp **** 
  74:src/syscall_c.cpp ****     __asm__ volatile ("ecall");
 535              		.loc 1 74 5 is_stmt 1
 536              		.loc 1 74 31 is_stmt 0
 537              	#APP
 538              	# 74 "src/syscall_c.cpp" 1
  75              	
  76:src/syscall_c.cpp ****     volatile long a0;
 539              		ecall
 540              	# 0 "" 2
 541              		.loc 1 76 5 is_stmt 1
  77:src/syscall_c.cpp ****     __asm__ volatile ("mv %0, a0" : "=r"(a0));
 542              		.loc 1 77 5
 543              		.loc 1 77 46 is_stmt 0
 544              	# 77 "src/syscall_c.cpp" 1
  78              	    return a0;
 545              		mv a5, a0
 546              	# 0 "" 2
 547              	#NO_APP
 548 018c 2334F4FE 		sd	a5,-24(s0)
 549              		.loc 1 78 5 is_stmt 1
 550              		.loc 1 78 12 is_stmt 0
 551 0190 033584FE 		ld	a0,-24(s0)
 552              	.LVL34:
  79:src/syscall_c.cpp **** }
 553              		.loc 1 79 1
 554 0194 1B050500 		sext.w	a0,a0
 555 0198 03348101 		ld	s0,24(sp)
 556              		.cfi_restore 8
 557              		.cfi_def_cfa 2, 32
 558 019c 13010102 		addi	sp,sp,32
 559              		.cfi_def_cfa_offset 0
 560 01a0 67800000 		jr	ra
 561              		.cfi_endproc
 562              	.LFE55:
 564              		.align	2
 565              		.globl	_Z9sem_closeP4_sem
 567              	_Z9sem_closeP4_sem:
 568              	.LFB56:
  80:src/syscall_c.cpp **** 
  81:src/syscall_c.cpp **** int sem_close(sem_t handle) {
 569              		.loc 1 81 29 is_stmt 1
 570              		.cfi_startproc
 571              	.LVL35:
 572 01a4 130101FE 		addi	sp,sp,-32
GAS LISTING /tmp/cc1tXqr4.s 			page 17


 573              		.cfi_def_cfa_offset 32
 574 01a8 233C8100 		sd	s0,24(sp)
 575              		.cfi_offset 8, -8
 576 01ac 13040102 		addi	s0,sp,32
 577              		.cfi_def_cfa 8, 0
  82:src/syscall_c.cpp ****     Riscv::w_a1((uint64) handle);
 578              		.loc 1 82 5
 579              	.LVL36:
 580              	.LBB90:
 581              	.LBB91:
 219:src/../h/riscv.hpp **** }
 582              		.loc 2 219 5
 219:src/../h/riscv.hpp **** }
 583              		.loc 2 219 47 is_stmt 0
 584              	#APP
 585              	# 219 "src/../h/riscv.hpp" 1
 586              		mv a1, a0
 587              	# 0 "" 2
 588              	.LVL37:
 589              	#NO_APP
 590              	.LBE91:
 591              	.LBE90:
  83:src/syscall_c.cpp ****     Riscv::w_a0(0x22);
 592              		.loc 1 83 5 is_stmt 1
 593              	.LBB92:
 594              	.LBB93:
 209:src/../h/riscv.hpp **** }
 595              		.loc 2 209 5
 209:src/../h/riscv.hpp **** }
 596              		.loc 2 209 47 is_stmt 0
 597 01b4 93072002 		li	a5,34
 598              	#APP
 599              	# 209 "src/../h/riscv.hpp" 1
 600              		mv a0, a5
 601              	# 0 "" 2
 602              	.LVL38:
 603              	#NO_APP
 604              	.LBE93:
 605              	.LBE92:
  84:src/syscall_c.cpp **** 
  85:src/syscall_c.cpp ****     __asm__ volatile ("ecall");
 606              		.loc 1 85 5 is_stmt 1
 607              		.loc 1 85 31 is_stmt 0
 608              	#APP
 609              	# 85 "src/syscall_c.cpp" 1
  86              	
  87:src/syscall_c.cpp ****     volatile long a0;
 610              		ecall
 611              	# 0 "" 2
 612              		.loc 1 87 5 is_stmt 1
  88:src/syscall_c.cpp ****     __asm__ volatile ("mv %0, a0" : "=r"(a0));
 613              		.loc 1 88 5
 614              		.loc 1 88 46 is_stmt 0
 615              	# 88 "src/syscall_c.cpp" 1
  89              	    return a0;
 616              		mv a5, a0
 617              	# 0 "" 2
GAS LISTING /tmp/cc1tXqr4.s 			page 18


 618              	#NO_APP
 619 01c4 2334F4FE 		sd	a5,-24(s0)
 620              		.loc 1 89 5 is_stmt 1
 621              		.loc 1 89 12 is_stmt 0
 622 01c8 033584FE 		ld	a0,-24(s0)
 623              	.LVL39:
  90:src/syscall_c.cpp **** }
 624              		.loc 1 90 1
 625 01cc 1B050500 		sext.w	a0,a0
 626 01d0 03348101 		ld	s0,24(sp)
 627              		.cfi_restore 8
 628              		.cfi_def_cfa 2, 32
 629 01d4 13010102 		addi	sp,sp,32
 630              		.cfi_def_cfa_offset 0
 631 01d8 67800000 		jr	ra
 632              		.cfi_endproc
 633              	.LFE56:
 635              		.align	2
 636              		.globl	_Z8sem_waitP4_sem
 638              	_Z8sem_waitP4_sem:
 639              	.LFB57:
  91:src/syscall_c.cpp **** 
  92:src/syscall_c.cpp **** int sem_wait(sem_t id) {
 640              		.loc 1 92 24 is_stmt 1
 641              		.cfi_startproc
 642              	.LVL40:
 643 01dc 130101FE 		addi	sp,sp,-32
 644              		.cfi_def_cfa_offset 32
 645 01e0 233C8100 		sd	s0,24(sp)
 646              		.cfi_offset 8, -8
 647 01e4 13040102 		addi	s0,sp,32
 648              		.cfi_def_cfa 8, 0
  93:src/syscall_c.cpp ****     Riscv::w_a1((uint64) id);
 649              		.loc 1 93 5
 650              	.LVL41:
 651              	.LBB94:
 652              	.LBB95:
 219:src/../h/riscv.hpp **** }
 653              		.loc 2 219 5
 219:src/../h/riscv.hpp **** }
 654              		.loc 2 219 47 is_stmt 0
 655              	#APP
 656              	# 219 "src/../h/riscv.hpp" 1
 657              		mv a1, a0
 658              	# 0 "" 2
 659              	.LVL42:
 660              	#NO_APP
 661              	.LBE95:
 662              	.LBE94:
  94:src/syscall_c.cpp ****     Riscv::w_a0(0x23);
 663              		.loc 1 94 5 is_stmt 1
 664              	.LBB96:
 665              	.LBB97:
 209:src/../h/riscv.hpp **** }
 666              		.loc 2 209 5
 209:src/../h/riscv.hpp **** }
 667              		.loc 2 209 47 is_stmt 0
GAS LISTING /tmp/cc1tXqr4.s 			page 19


 668 01ec 93073002 		li	a5,35
 669              	#APP
 670              	# 209 "src/../h/riscv.hpp" 1
 671              		mv a0, a5
 672              	# 0 "" 2
 673              	.LVL43:
 674              	#NO_APP
 675              	.LBE97:
 676              	.LBE96:
  95:src/syscall_c.cpp **** 
  96:src/syscall_c.cpp ****     __asm__ volatile ("ecall");
 677              		.loc 1 96 5 is_stmt 1
 678              		.loc 1 96 31 is_stmt 0
 679              	#APP
 680              	# 96 "src/syscall_c.cpp" 1
  97              	
  98:src/syscall_c.cpp ****     volatile long a0;
 681              		ecall
 682              	# 0 "" 2
 683              		.loc 1 98 5 is_stmt 1
  99:src/syscall_c.cpp ****     __asm__ volatile ("mv %0, a0" : "=r"(a0));
 684              		.loc 1 99 5
 685              		.loc 1 99 46 is_stmt 0
 686              	# 99 "src/syscall_c.cpp" 1
 100              	    return a0;
 687              		mv a5, a0
 688              	# 0 "" 2
 689              	#NO_APP
 690 01fc 2334F4FE 		sd	a5,-24(s0)
 691              		.loc 1 100 5 is_stmt 1
 692              		.loc 1 100 12 is_stmt 0
 693 0200 033584FE 		ld	a0,-24(s0)
 694              	.LVL44:
 101:src/syscall_c.cpp **** }
 695              		.loc 1 101 1
 696 0204 1B050500 		sext.w	a0,a0
 697 0208 03348101 		ld	s0,24(sp)
 698              		.cfi_restore 8
 699              		.cfi_def_cfa 2, 32
 700 020c 13010102 		addi	sp,sp,32
 701              		.cfi_def_cfa_offset 0
 702 0210 67800000 		jr	ra
 703              		.cfi_endproc
 704              	.LFE57:
 706              		.align	2
 707              		.globl	_Z10sem_signalP4_sem
 709              	_Z10sem_signalP4_sem:
 710              	.LFB58:
 102:src/syscall_c.cpp **** 
 103:src/syscall_c.cpp **** int sem_signal(sem_t id) {
 711              		.loc 1 103 26 is_stmt 1
 712              		.cfi_startproc
 713              	.LVL45:
 714 0214 130101FE 		addi	sp,sp,-32
 715              		.cfi_def_cfa_offset 32
 716 0218 233C8100 		sd	s0,24(sp)
 717              		.cfi_offset 8, -8
GAS LISTING /tmp/cc1tXqr4.s 			page 20


 718 021c 13040102 		addi	s0,sp,32
 719              		.cfi_def_cfa 8, 0
 104:src/syscall_c.cpp ****     Riscv::w_a1((uint64) id);
 720              		.loc 1 104 5
 721              	.LVL46:
 722              	.LBB98:
 723              	.LBB99:
 219:src/../h/riscv.hpp **** }
 724              		.loc 2 219 5
 219:src/../h/riscv.hpp **** }
 725              		.loc 2 219 47 is_stmt 0
 726              	#APP
 727              	# 219 "src/../h/riscv.hpp" 1
 728              		mv a1, a0
 729              	# 0 "" 2
 730              	.LVL47:
 731              	#NO_APP
 732              	.LBE99:
 733              	.LBE98:
 105:src/syscall_c.cpp ****     Riscv::w_a0(0x24);
 734              		.loc 1 105 5 is_stmt 1
 735              	.LBB100:
 736              	.LBB101:
 209:src/../h/riscv.hpp **** }
 737              		.loc 2 209 5
 209:src/../h/riscv.hpp **** }
 738              		.loc 2 209 47 is_stmt 0
 739 0224 93074002 		li	a5,36
 740              	#APP
 741              	# 209 "src/../h/riscv.hpp" 1
 742              		mv a0, a5
 743              	# 0 "" 2
 744              	.LVL48:
 745              	#NO_APP
 746              	.LBE101:
 747              	.LBE100:
 106:src/syscall_c.cpp **** 
 107:src/syscall_c.cpp ****     __asm__ volatile ("ecall");
 748              		.loc 1 107 5 is_stmt 1
 749              		.loc 1 107 31 is_stmt 0
 750              	#APP
 751              	# 107 "src/syscall_c.cpp" 1
 108              	
 109:src/syscall_c.cpp ****     volatile long a0;
 752              		ecall
 753              	# 0 "" 2
 754              		.loc 1 109 5 is_stmt 1
 110:src/syscall_c.cpp ****     __asm__ volatile ("mv %0, a0" : "=r"(a0));
 755              		.loc 1 110 5
 756              		.loc 1 110 46 is_stmt 0
 757              	# 110 "src/syscall_c.cpp" 1
 111              	    return a0;
 758              		mv a5, a0
 759              	# 0 "" 2
 760              	#NO_APP
 761 0234 2334F4FE 		sd	a5,-24(s0)
 762              		.loc 1 111 5 is_stmt 1
GAS LISTING /tmp/cc1tXqr4.s 			page 21


 763              		.loc 1 111 12 is_stmt 0
 764 0238 033584FE 		ld	a0,-24(s0)
 765              	.LVL49:
 112:src/syscall_c.cpp **** }
 766              		.loc 1 112 1
 767 023c 1B050500 		sext.w	a0,a0
 768 0240 03348101 		ld	s0,24(sp)
 769              		.cfi_restore 8
 770              		.cfi_def_cfa 2, 32
 771 0244 13010102 		addi	sp,sp,32
 772              		.cfi_def_cfa_offset 0
 773 0248 67800000 		jr	ra
 774              		.cfi_endproc
 775              	.LFE58:
 777              		.align	2
 778              		.globl	_Z4getcv
 780              	_Z4getcv:
 781              	.LFB59:
 113:src/syscall_c.cpp **** 
 114:src/syscall_c.cpp **** char getc() {
 782              		.loc 1 114 13 is_stmt 1
 783              		.cfi_startproc
 784 024c 130101FE 		addi	sp,sp,-32
 785              		.cfi_def_cfa_offset 32
 786 0250 233C8100 		sd	s0,24(sp)
 787              		.cfi_offset 8, -8
 788 0254 13040102 		addi	s0,sp,32
 789              		.cfi_def_cfa 8, 0
 115:src/syscall_c.cpp ****     Riscv::w_a0(0x41);
 790              		.loc 1 115 5
 791              	.LVL50:
 792              	.LBB102:
 793              	.LBB103:
 209:src/../h/riscv.hpp **** }
 794              		.loc 2 209 5
 209:src/../h/riscv.hpp **** }
 795              		.loc 2 209 47 is_stmt 0
 796 0258 93071004 		li	a5,65
 797              	#APP
 798              	# 209 "src/../h/riscv.hpp" 1
 799              		mv a0, a5
 800              	# 0 "" 2
 801              	.LVL51:
 802              	#NO_APP
 803              	.LBE103:
 804              	.LBE102:
 116:src/syscall_c.cpp **** 
 117:src/syscall_c.cpp ****     __asm__ volatile ("ecall");
 805              		.loc 1 117 5 is_stmt 1
 806              		.loc 1 117 31 is_stmt 0
 807              	#APP
 808              	# 117 "src/syscall_c.cpp" 1
 118              	
 119:src/syscall_c.cpp ****     volatile long a0;
 809              		ecall
 810              	# 0 "" 2
 811              		.loc 1 119 5 is_stmt 1
GAS LISTING /tmp/cc1tXqr4.s 			page 22


 120:src/syscall_c.cpp ****     __asm__ volatile ("mv %0, a0" : "=r"(a0));
 812              		.loc 1 120 5
 813              		.loc 1 120 46 is_stmt 0
 814              	# 120 "src/syscall_c.cpp" 1
 121              	    return (char) a0;
 815              		mv a5, a0
 816              	# 0 "" 2
 817              	#NO_APP
 818 0268 2334F4FE 		sd	a5,-24(s0)
 819              		.loc 1 121 5 is_stmt 1
 820              		.loc 1 121 19 is_stmt 0
 821 026c 033584FE 		ld	a0,-24(s0)
 122:src/syscall_c.cpp **** }
 822              		.loc 1 122 1
 823 0270 1375F50F 		andi	a0,a0,0xff
 824 0274 03348101 		ld	s0,24(sp)
 825              		.cfi_restore 8
 826              		.cfi_def_cfa 2, 32
 827 0278 13010102 		addi	sp,sp,32
 828              		.cfi_def_cfa_offset 0
 829 027c 67800000 		jr	ra
 830              		.cfi_endproc
 831              	.LFE59:
 833              		.align	2
 834              		.globl	_Z4putcc
 836              	_Z4putcc:
 837              	.LFB60:
 123:src/syscall_c.cpp **** 
 124:src/syscall_c.cpp **** void putc(char c) {
 838              		.loc 1 124 19 is_stmt 1
 839              		.cfi_startproc
 840              	.LVL52:
 841 0280 130101FF 		addi	sp,sp,-16
 842              		.cfi_def_cfa_offset 16
 843 0284 23348100 		sd	s0,8(sp)
 844              		.cfi_offset 8, -8
 845 0288 13040101 		addi	s0,sp,16
 846              		.cfi_def_cfa 8, 0
 125:src/syscall_c.cpp **** //    __putc(c);
 126:src/syscall_c.cpp ****     __asm__ volatile ("mv a7, %0" : : "r"(c));
 847              		.loc 1 126 5
 848              		.loc 1 126 46 is_stmt 0
 849              	#APP
 850              	# 126 "src/syscall_c.cpp" 1
 127              	    Riscv::w_a0(0x42);
 851              		mv a7, a0
 852              	# 0 "" 2
 853              		.loc 1 127 5 is_stmt 1
 854              	.LVL53:
 855              	#NO_APP
 856              	.LBB104:
 857              	.LBB105:
 209:src/../h/riscv.hpp **** }
 858              		.loc 2 209 5
 209:src/../h/riscv.hpp **** }
 859              		.loc 2 209 47 is_stmt 0
 860 0290 93072004 		li	a5,66
GAS LISTING /tmp/cc1tXqr4.s 			page 23


 861              	#APP
 862              	# 209 "src/../h/riscv.hpp" 1
 863              		mv a0, a5
 864              	# 0 "" 2
 865              	.LVL54:
 866              	#NO_APP
 867              	.LBE105:
 868              	.LBE104:
 128:src/syscall_c.cpp ****     __asm__ volatile ("ecall");
 869              		.loc 1 128 5 is_stmt 1
 870              		.loc 1 128 31 is_stmt 0
 871              	#APP
 872              	# 128 "src/syscall_c.cpp" 1
 129              	}...
 873              		ecall
 874              	# 0 "" 2
 875              		.loc 1 129 1
 876              	#NO_APP
 877 029c 03348100 		ld	s0,8(sp)
 878              		.cfi_restore 8
 879              		.cfi_def_cfa 2, 16
 880 02a0 13010101 		addi	sp,sp,16
 881              		.cfi_def_cfa_offset 0
 882 02a4 67800000 		jr	ra
 883              		.cfi_endproc
 884              	.LFE60:
 886              	.Letext0:
 887              		.file 3 "src/../h/../h/../lib/hw.h"
 888              		.file 4 "src/../h/list.hpp"
 889              		.file 5 "src/../h/_thread.hpp"
 890              		.file 6 "src/../h/_sem.hpp"
 891              		.file 7 "src/../h/syscall_c.hpp"
GAS LISTING /tmp/cc1tXqr4.s 			page 24


DEFINED SYMBOLS
                            *ABS*:0000000000000000 syscall_c.cpp
     /tmp/cc1tXqr4.s:9      .text:0000000000000000 _Z9mem_allocm
     /tmp/cc1tXqr4.s:13     .text:0000000000000000 .L0 
     /tmp/cc1tXqr4.s:15     .text:0000000000000000 .L0 
     /tmp/cc1tXqr4.s:16     .text:0000000000000004 .L0 
     /tmp/cc1tXqr4.s:18     .text:0000000000000008 .L0 
     /tmp/cc1tXqr4.s:20     .text:000000000000000c .L0 
     /tmp/cc1tXqr4.s:22     .text:000000000000000c .L0 
     /tmp/cc1tXqr4.s:23     .text:000000000000000c .L0 
     /tmp/cc1tXqr4.s:26     .text:0000000000000010 .L0 
     /tmp/cc1tXqr4.s:32     .text:0000000000000014 .L0 
     /tmp/cc1tXqr4.s:33     .text:0000000000000014 .L0 
  src/../h/riscv.hpp:219    .text:0000000000000014 .L0 
     /tmp/cc1tXqr4.s:45     .text:0000000000000018 .L0 
     /tmp/cc1tXqr4.s:46     .text:0000000000000018 .L0 
     /tmp/cc1tXqr4.s:47     .text:0000000000000018 .L0 
     /tmp/cc1tXqr4.s:57     .text:0000000000000020 .L0 
   src/syscall_c.cpp:10     .text:0000000000000020 .L0 
     /tmp/cc1tXqr4.s:63     .text:0000000000000024 .L0 
     /tmp/cc1tXqr4.s:64     .text:0000000000000024 .L0 
   src/syscall_c.cpp:13     .text:0000000000000024 .L0 
     /tmp/cc1tXqr4.s:71     .text:000000000000002c .L0 
     /tmp/cc1tXqr4.s:72     .text:000000000000002c .L0 
     /tmp/cc1tXqr4.s:75     .text:0000000000000030 .L0 
     /tmp/cc1tXqr4.s:76     .text:0000000000000034 .L0 
     /tmp/cc1tXqr4.s:77     .text:0000000000000034 .L0 
     /tmp/cc1tXqr4.s:79     .text:0000000000000038 .L0 
     /tmp/cc1tXqr4.s:81     .text:000000000000003c .L0 
     /tmp/cc1tXqr4.s:87     .text:000000000000003c _Z8mem_freePv
     /tmp/cc1tXqr4.s:90     .text:000000000000003c .L0 
     /tmp/cc1tXqr4.s:92     .text:000000000000003c .L0 
     /tmp/cc1tXqr4.s:93     .text:0000000000000040 .L0 
     /tmp/cc1tXqr4.s:95     .text:0000000000000044 .L0 
     /tmp/cc1tXqr4.s:97     .text:0000000000000048 .L0 
     /tmp/cc1tXqr4.s:102    .text:0000000000000048 .L0 
     /tmp/cc1tXqr4.s:103    .text:0000000000000048 .L0 
  src/../h/riscv.hpp:219    .text:0000000000000048 .L0 
     /tmp/cc1tXqr4.s:115    .text:000000000000004c .L0 
     /tmp/cc1tXqr4.s:116    .text:000000000000004c .L0 
     /tmp/cc1tXqr4.s:117    .text:000000000000004c .L0 
     /tmp/cc1tXqr4.s:127    .text:0000000000000054 .L0 
   src/syscall_c.cpp:22     .text:0000000000000054 .L0 
     /tmp/cc1tXqr4.s:133    .text:0000000000000058 .L0 
     /tmp/cc1tXqr4.s:134    .text:0000000000000058 .L0 
   src/syscall_c.cpp:25     .text:0000000000000058 .L0 
     /tmp/cc1tXqr4.s:141    .text:0000000000000060 .L0 
     /tmp/cc1tXqr4.s:142    .text:0000000000000060 .L0 
     /tmp/cc1tXqr4.s:145    .text:0000000000000064 .L0 
     /tmp/cc1tXqr4.s:147    .text:000000000000006c .L0 
     /tmp/cc1tXqr4.s:148    .text:000000000000006c .L0 
     /tmp/cc1tXqr4.s:150    .text:0000000000000070 .L0 
     /tmp/cc1tXqr4.s:152    .text:0000000000000074 .L0 
     /tmp/cc1tXqr4.s:158    .text:0000000000000074 _Z10toUserModev
     /tmp/cc1tXqr4.s:161    .text:0000000000000074 .L0 
     /tmp/cc1tXqr4.s:162    .text:0000000000000074 .L0 
     /tmp/cc1tXqr4.s:163    .text:0000000000000078 .L0 
GAS LISTING /tmp/cc1tXqr4.s 			page 25


     /tmp/cc1tXqr4.s:165    .text:000000000000007c .L0 
     /tmp/cc1tXqr4.s:167    .text:0000000000000080 .L0 
     /tmp/cc1tXqr4.s:172    .text:0000000000000080 .L0 
     /tmp/cc1tXqr4.s:173    .text:0000000000000080 .L0 
     /tmp/cc1tXqr4.s:174    .text:0000000000000080 .L0 
     /tmp/cc1tXqr4.s:184    .text:0000000000000088 .L0 
   src/syscall_c.cpp:31     .text:0000000000000088 .L0 
     /tmp/cc1tXqr4.s:191    .text:000000000000008c .L0 
     /tmp/cc1tXqr4.s:192    .text:0000000000000090 .L0 
     /tmp/cc1tXqr4.s:193    .text:0000000000000090 .L0 
     /tmp/cc1tXqr4.s:195    .text:0000000000000094 .L0 
     /tmp/cc1tXqr4.s:197    .text:0000000000000098 .L0 
     /tmp/cc1tXqr4.s:203    .text:0000000000000098 _Z13thread_createPP7_threadPFvPvES2_
     /tmp/cc1tXqr4.s:206    .text:0000000000000098 .L0 
     /tmp/cc1tXqr4.s:208    .text:0000000000000098 .L0 
     /tmp/cc1tXqr4.s:209    .text:000000000000009c .L0 
     /tmp/cc1tXqr4.s:211    .text:00000000000000a0 .L0 
     /tmp/cc1tXqr4.s:213    .text:00000000000000a4 .L0 
     /tmp/cc1tXqr4.s:218    .text:00000000000000a4 .L0 
     /tmp/cc1tXqr4.s:219    .text:00000000000000a4 .L0 
  src/../h/riscv.hpp:219    .text:00000000000000a4 .L0 
     /tmp/cc1tXqr4.s:231    .text:00000000000000a8 .L0 
     /tmp/cc1tXqr4.s:232    .text:00000000000000a8 .L0 
  src/../h/riscv.hpp:229    .text:00000000000000a8 .L0 
     /tmp/cc1tXqr4.s:244    .text:00000000000000ac .L0 
     /tmp/cc1tXqr4.s:245    .text:00000000000000ac .L0 
  src/../h/riscv.hpp:239    .text:00000000000000ac .L0 
     /tmp/cc1tXqr4.s:257    .text:00000000000000b0 .L0 
     /tmp/cc1tXqr4.s:258    .text:00000000000000b0 .L0 
     /tmp/cc1tXqr4.s:259    .text:00000000000000b0 .L0 
     /tmp/cc1tXqr4.s:269    .text:00000000000000b8 .L0 
   src/syscall_c.cpp:42     .text:00000000000000b8 .L0 
     /tmp/cc1tXqr4.s:278    .text:00000000000000bc .L0 
     /tmp/cc1tXqr4.s:279    .text:00000000000000bc .L0 
     /tmp/cc1tXqr4.s:280    .text:00000000000000bc .L0 
  src/../h/riscv.hpp:204    .text:00000000000000bc .L0 
     /tmp/cc1tXqr4.s:288    .text:00000000000000c4 .L0 
     /tmp/cc1tXqr4.s:289    .text:00000000000000c4 .L0 
     /tmp/cc1tXqr4.s:294    .text:00000000000000c8 .L0 
     /tmp/cc1tXqr4.s:296    .text:00000000000000d0 .L0 
     /tmp/cc1tXqr4.s:297    .text:00000000000000d0 .L0 
     /tmp/cc1tXqr4.s:299    .text:00000000000000d4 .L0 
     /tmp/cc1tXqr4.s:301    .text:00000000000000d8 .L0 
     /tmp/cc1tXqr4.s:307    .text:00000000000000d8 _Z11thread_exitv
     /tmp/cc1tXqr4.s:310    .text:00000000000000d8 .L0 
     /tmp/cc1tXqr4.s:311    .text:00000000000000d8 .L0 
     /tmp/cc1tXqr4.s:312    .text:00000000000000dc .L0 
     /tmp/cc1tXqr4.s:314    .text:00000000000000e0 .L0 
     /tmp/cc1tXqr4.s:316    .text:00000000000000e4 .L0 
     /tmp/cc1tXqr4.s:321    .text:00000000000000e4 .L0 
     /tmp/cc1tXqr4.s:322    .text:00000000000000e4 .L0 
     /tmp/cc1tXqr4.s:323    .text:00000000000000e4 .L0 
     /tmp/cc1tXqr4.s:333    .text:00000000000000ec .L0 
   src/syscall_c.cpp:51     .text:00000000000000ec .L0 
     /tmp/cc1tXqr4.s:342    .text:00000000000000f0 .L0 
     /tmp/cc1tXqr4.s:343    .text:00000000000000f0 .L0 
     /tmp/cc1tXqr4.s:344    .text:00000000000000f0 .L0 
GAS LISTING /tmp/cc1tXqr4.s 			page 26


  src/../h/riscv.hpp:204    .text:00000000000000f0 .L0 
     /tmp/cc1tXqr4.s:352    .text:00000000000000f8 .L0 
     /tmp/cc1tXqr4.s:353    .text:00000000000000f8 .L0 
     /tmp/cc1tXqr4.s:357    .text:00000000000000fc .L0 
     /tmp/cc1tXqr4.s:359    .text:0000000000000100 .L0 
     /tmp/cc1tXqr4.s:360    .text:0000000000000100 .L0 
     /tmp/cc1tXqr4.s:362    .text:0000000000000104 .L0 
     /tmp/cc1tXqr4.s:364    .text:000000000000010c .L0 
     /tmp/cc1tXqr4.s:365    .text:000000000000010c .L0 
     /tmp/cc1tXqr4.s:367    .text:0000000000000110 .L0 
     /tmp/cc1tXqr4.s:369    .text:0000000000000114 .L0 
     /tmp/cc1tXqr4.s:375    .text:0000000000000114 _Z15thread_dispatchv
     /tmp/cc1tXqr4.s:378    .text:0000000000000114 .L0 
     /tmp/cc1tXqr4.s:379    .text:0000000000000114 .L0 
     /tmp/cc1tXqr4.s:380    .text:0000000000000118 .L0 
     /tmp/cc1tXqr4.s:382    .text:000000000000011c .L0 
     /tmp/cc1tXqr4.s:384    .text:0000000000000120 .L0 
     /tmp/cc1tXqr4.s:389    .text:0000000000000120 .L0 
     /tmp/cc1tXqr4.s:390    .text:0000000000000120 .L0 
     /tmp/cc1tXqr4.s:391    .text:0000000000000120 .L0 
     /tmp/cc1tXqr4.s:401    .text:0000000000000128 .L0 
   src/syscall_c.cpp:58     .text:0000000000000128 .L0 
     /tmp/cc1tXqr4.s:408    .text:000000000000012c .L0 
     /tmp/cc1tXqr4.s:409    .text:0000000000000130 .L0 
     /tmp/cc1tXqr4.s:410    .text:0000000000000130 .L0 
     /tmp/cc1tXqr4.s:412    .text:0000000000000134 .L0 
     /tmp/cc1tXqr4.s:414    .text:0000000000000138 .L0 
     /tmp/cc1tXqr4.s:420    .text:0000000000000138 _Z11thread_joinP7_thread
     /tmp/cc1tXqr4.s:423    .text:0000000000000138 .L0 
     /tmp/cc1tXqr4.s:425    .text:0000000000000138 .L0 
     /tmp/cc1tXqr4.s:426    .text:000000000000013c .L0 
     /tmp/cc1tXqr4.s:428    .text:0000000000000140 .L0 
     /tmp/cc1tXqr4.s:430    .text:0000000000000144 .L0 
     /tmp/cc1tXqr4.s:435    .text:0000000000000144 .L0 
     /tmp/cc1tXqr4.s:436    .text:0000000000000144 .L0 
  src/../h/riscv.hpp:219    .text:0000000000000144 .L0 
     /tmp/cc1tXqr4.s:448    .text:0000000000000148 .L0 
     /tmp/cc1tXqr4.s:449    .text:0000000000000148 .L0 
     /tmp/cc1tXqr4.s:450    .text:0000000000000148 .L0 
     /tmp/cc1tXqr4.s:460    .text:0000000000000150 .L0 
   src/syscall_c.cpp:65     .text:0000000000000150 .L0 
     /tmp/cc1tXqr4.s:467    .text:0000000000000154 .L0 
     /tmp/cc1tXqr4.s:468    .text:0000000000000158 .L0 
     /tmp/cc1tXqr4.s:469    .text:0000000000000158 .L0 
     /tmp/cc1tXqr4.s:471    .text:000000000000015c .L0 
     /tmp/cc1tXqr4.s:473    .text:0000000000000160 .L0 
     /tmp/cc1tXqr4.s:479    .text:0000000000000160 _Z8sem_openPP4_semj
     /tmp/cc1tXqr4.s:482    .text:0000000000000160 .L0 
     /tmp/cc1tXqr4.s:484    .text:0000000000000160 .L0 
     /tmp/cc1tXqr4.s:485    .text:0000000000000164 .L0 
     /tmp/cc1tXqr4.s:487    .text:0000000000000168 .L0 
     /tmp/cc1tXqr4.s:489    .text:000000000000016c .L0 
     /tmp/cc1tXqr4.s:491    .text:000000000000016c .L0 
     /tmp/cc1tXqr4.s:492    .text:000000000000016c .L0 
     /tmp/cc1tXqr4.s:499    .text:0000000000000174 .L0 
  src/../h/riscv.hpp:229    .text:0000000000000174 .L0 
     /tmp/cc1tXqr4.s:511    .text:0000000000000178 .L0 
GAS LISTING /tmp/cc1tXqr4.s 			page 27


     /tmp/cc1tXqr4.s:512    .text:0000000000000178 .L0 
  src/../h/riscv.hpp:219    .text:0000000000000178 .L0 
     /tmp/cc1tXqr4.s:524    .text:000000000000017c .L0 
     /tmp/cc1tXqr4.s:525    .text:000000000000017c .L0 
     /tmp/cc1tXqr4.s:526    .text:000000000000017c .L0 
     /tmp/cc1tXqr4.s:536    .text:0000000000000184 .L0 
   src/syscall_c.cpp:74     .text:0000000000000184 .L0 
     /tmp/cc1tXqr4.s:542    .text:0000000000000188 .L0 
     /tmp/cc1tXqr4.s:543    .text:0000000000000188 .L0 
   src/syscall_c.cpp:77     .text:0000000000000188 .L0 
     /tmp/cc1tXqr4.s:550    .text:0000000000000190 .L0 
     /tmp/cc1tXqr4.s:551    .text:0000000000000190 .L0 
     /tmp/cc1tXqr4.s:554    .text:0000000000000194 .L0 
     /tmp/cc1tXqr4.s:556    .text:000000000000019c .L0 
     /tmp/cc1tXqr4.s:557    .text:000000000000019c .L0 
     /tmp/cc1tXqr4.s:559    .text:00000000000001a0 .L0 
     /tmp/cc1tXqr4.s:561    .text:00000000000001a4 .L0 
     /tmp/cc1tXqr4.s:567    .text:00000000000001a4 _Z9sem_closeP4_sem
     /tmp/cc1tXqr4.s:570    .text:00000000000001a4 .L0 
     /tmp/cc1tXqr4.s:572    .text:00000000000001a4 .L0 
     /tmp/cc1tXqr4.s:573    .text:00000000000001a8 .L0 
     /tmp/cc1tXqr4.s:575    .text:00000000000001ac .L0 
     /tmp/cc1tXqr4.s:577    .text:00000000000001b0 .L0 
     /tmp/cc1tXqr4.s:582    .text:00000000000001b0 .L0 
     /tmp/cc1tXqr4.s:583    .text:00000000000001b0 .L0 
  src/../h/riscv.hpp:219    .text:00000000000001b0 .L0 
     /tmp/cc1tXqr4.s:595    .text:00000000000001b4 .L0 
     /tmp/cc1tXqr4.s:596    .text:00000000000001b4 .L0 
     /tmp/cc1tXqr4.s:597    .text:00000000000001b4 .L0 
     /tmp/cc1tXqr4.s:607    .text:00000000000001bc .L0 
   src/syscall_c.cpp:85     .text:00000000000001bc .L0 
     /tmp/cc1tXqr4.s:613    .text:00000000000001c0 .L0 
     /tmp/cc1tXqr4.s:614    .text:00000000000001c0 .L0 
   src/syscall_c.cpp:88     .text:00000000000001c0 .L0 
     /tmp/cc1tXqr4.s:621    .text:00000000000001c8 .L0 
     /tmp/cc1tXqr4.s:622    .text:00000000000001c8 .L0 
     /tmp/cc1tXqr4.s:625    .text:00000000000001cc .L0 
     /tmp/cc1tXqr4.s:627    .text:00000000000001d4 .L0 
     /tmp/cc1tXqr4.s:628    .text:00000000000001d4 .L0 
     /tmp/cc1tXqr4.s:630    .text:00000000000001d8 .L0 
     /tmp/cc1tXqr4.s:632    .text:00000000000001dc .L0 
     /tmp/cc1tXqr4.s:638    .text:00000000000001dc _Z8sem_waitP4_sem
     /tmp/cc1tXqr4.s:641    .text:00000000000001dc .L0 
     /tmp/cc1tXqr4.s:643    .text:00000000000001dc .L0 
     /tmp/cc1tXqr4.s:644    .text:00000000000001e0 .L0 
     /tmp/cc1tXqr4.s:646    .text:00000000000001e4 .L0 
     /tmp/cc1tXqr4.s:648    .text:00000000000001e8 .L0 
     /tmp/cc1tXqr4.s:653    .text:00000000000001e8 .L0 
     /tmp/cc1tXqr4.s:654    .text:00000000000001e8 .L0 
  src/../h/riscv.hpp:219    .text:00000000000001e8 .L0 
     /tmp/cc1tXqr4.s:666    .text:00000000000001ec .L0 
     /tmp/cc1tXqr4.s:667    .text:00000000000001ec .L0 
     /tmp/cc1tXqr4.s:668    .text:00000000000001ec .L0 
     /tmp/cc1tXqr4.s:678    .text:00000000000001f4 .L0 
   src/syscall_c.cpp:96     .text:00000000000001f4 .L0 
     /tmp/cc1tXqr4.s:684    .text:00000000000001f8 .L0 
     /tmp/cc1tXqr4.s:685    .text:00000000000001f8 .L0 
GAS LISTING /tmp/cc1tXqr4.s 			page 28


   src/syscall_c.cpp:99     .text:00000000000001f8 .L0 
     /tmp/cc1tXqr4.s:692    .text:0000000000000200 .L0 
     /tmp/cc1tXqr4.s:693    .text:0000000000000200 .L0 
     /tmp/cc1tXqr4.s:696    .text:0000000000000204 .L0 
     /tmp/cc1tXqr4.s:698    .text:000000000000020c .L0 
     /tmp/cc1tXqr4.s:699    .text:000000000000020c .L0 
     /tmp/cc1tXqr4.s:701    .text:0000000000000210 .L0 
     /tmp/cc1tXqr4.s:703    .text:0000000000000214 .L0 
     /tmp/cc1tXqr4.s:709    .text:0000000000000214 _Z10sem_signalP4_sem
     /tmp/cc1tXqr4.s:712    .text:0000000000000214 .L0 
     /tmp/cc1tXqr4.s:714    .text:0000000000000214 .L0 
     /tmp/cc1tXqr4.s:715    .text:0000000000000218 .L0 
     /tmp/cc1tXqr4.s:717    .text:000000000000021c .L0 
     /tmp/cc1tXqr4.s:719    .text:0000000000000220 .L0 
     /tmp/cc1tXqr4.s:724    .text:0000000000000220 .L0 
     /tmp/cc1tXqr4.s:725    .text:0000000000000220 .L0 
  src/../h/riscv.hpp:219    .text:0000000000000220 .L0 
     /tmp/cc1tXqr4.s:737    .text:0000000000000224 .L0 
     /tmp/cc1tXqr4.s:738    .text:0000000000000224 .L0 
     /tmp/cc1tXqr4.s:739    .text:0000000000000224 .L0 
     /tmp/cc1tXqr4.s:749    .text:000000000000022c .L0 
   src/syscall_c.cpp:107    .text:000000000000022c .L0 
     /tmp/cc1tXqr4.s:755    .text:0000000000000230 .L0 
     /tmp/cc1tXqr4.s:756    .text:0000000000000230 .L0 
   src/syscall_c.cpp:110    .text:0000000000000230 .L0 
     /tmp/cc1tXqr4.s:763    .text:0000000000000238 .L0 
     /tmp/cc1tXqr4.s:764    .text:0000000000000238 .L0 
     /tmp/cc1tXqr4.s:767    .text:000000000000023c .L0 
     /tmp/cc1tXqr4.s:769    .text:0000000000000244 .L0 
     /tmp/cc1tXqr4.s:770    .text:0000000000000244 .L0 
     /tmp/cc1tXqr4.s:772    .text:0000000000000248 .L0 
     /tmp/cc1tXqr4.s:774    .text:000000000000024c .L0 
     /tmp/cc1tXqr4.s:780    .text:000000000000024c _Z4getcv
     /tmp/cc1tXqr4.s:783    .text:000000000000024c .L0 
     /tmp/cc1tXqr4.s:784    .text:000000000000024c .L0 
     /tmp/cc1tXqr4.s:785    .text:0000000000000250 .L0 
     /tmp/cc1tXqr4.s:787    .text:0000000000000254 .L0 
     /tmp/cc1tXqr4.s:789    .text:0000000000000258 .L0 
     /tmp/cc1tXqr4.s:794    .text:0000000000000258 .L0 
     /tmp/cc1tXqr4.s:795    .text:0000000000000258 .L0 
     /tmp/cc1tXqr4.s:796    .text:0000000000000258 .L0 
     /tmp/cc1tXqr4.s:806    .text:0000000000000260 .L0 
   src/syscall_c.cpp:117    .text:0000000000000260 .L0 
     /tmp/cc1tXqr4.s:812    .text:0000000000000264 .L0 
     /tmp/cc1tXqr4.s:813    .text:0000000000000264 .L0 
   src/syscall_c.cpp:120    .text:0000000000000264 .L0 
     /tmp/cc1tXqr4.s:820    .text:000000000000026c .L0 
     /tmp/cc1tXqr4.s:821    .text:000000000000026c .L0 
     /tmp/cc1tXqr4.s:823    .text:0000000000000270 .L0 
     /tmp/cc1tXqr4.s:825    .text:0000000000000278 .L0 
     /tmp/cc1tXqr4.s:826    .text:0000000000000278 .L0 
     /tmp/cc1tXqr4.s:828    .text:000000000000027c .L0 
     /tmp/cc1tXqr4.s:830    .text:0000000000000280 .L0 
     /tmp/cc1tXqr4.s:836    .text:0000000000000280 _Z4putcc
     /tmp/cc1tXqr4.s:839    .text:0000000000000280 .L0 
     /tmp/cc1tXqr4.s:841    .text:0000000000000280 .L0 
     /tmp/cc1tXqr4.s:842    .text:0000000000000284 .L0 
GAS LISTING /tmp/cc1tXqr4.s 			page 29


     /tmp/cc1tXqr4.s:844    .text:0000000000000288 .L0 
     /tmp/cc1tXqr4.s:846    .text:000000000000028c .L0 
     /tmp/cc1tXqr4.s:848    .text:000000000000028c .L0 
   src/syscall_c.cpp:126    .text:000000000000028c .L0 
     /tmp/cc1tXqr4.s:858    .text:0000000000000290 .L0 
     /tmp/cc1tXqr4.s:859    .text:0000000000000290 .L0 
     /tmp/cc1tXqr4.s:860    .text:0000000000000290 .L0 
     /tmp/cc1tXqr4.s:870    .text:0000000000000298 .L0 
   src/syscall_c.cpp:128    .text:0000000000000298 .L0 
     /tmp/cc1tXqr4.s:877    .text:000000000000029c .L0 
     /tmp/cc1tXqr4.s:878    .text:00000000000002a0 .L0 
     /tmp/cc1tXqr4.s:879    .text:00000000000002a0 .L0 
     /tmp/cc1tXqr4.s:881    .text:00000000000002a4 .L0 
     /tmp/cc1tXqr4.s:883    .text:00000000000002a8 .L0 
     /tmp/cc1tXqr4.s:892    .text:00000000000002a8 .L0 
     /tmp/cc1tXqr4.s:2606   .debug_abbrev:0000000000000000 .Ldebug_abbrev0
     /tmp/cc1tXqr4.s:4112   .debug_str:000000000000080f .LASF182
     /tmp/cc1tXqr4.s:3976   .debug_str:00000000000004a8 .LASF183
     /tmp/cc1tXqr4.s:4120   .debug_str:00000000000008fb .LASF184
     /tmp/cc1tXqr4.s:5      .text:0000000000000000 .Ltext0
     /tmp/cc1tXqr4.s:886    .text:00000000000002a8 .Letext0
     /tmp/cc1tXqr4.s:3808   .debug_line:0000000000000000 .Ldebug_line0
     /tmp/cc1tXqr4.s:3912   .debug_str:00000000000002df .LASF0
     /tmp/cc1tXqr4.s:3954   .debug_str:0000000000000429 .LASF1
     /tmp/cc1tXqr4.s:4046   .debug_str:0000000000000693 .LASF2
     /tmp/cc1tXqr4.s:4054   .debug_str:00000000000006cc .LASF4
     /tmp/cc1tXqr4.s:3924   .debug_str:000000000000032a .LASF3
     /tmp/cc1tXqr4.s:3816   .debug_str:0000000000000029 .LASF5
     /tmp/cc1tXqr4.s:4016   .debug_str:00000000000005b8 .LASF6
     /tmp/cc1tXqr4.s:3940   .debug_str:00000000000003b5 .LASF7
     /tmp/cc1tXqr4.s:3886   .debug_str:0000000000000216 .LASF8
     /tmp/cc1tXqr4.s:3894   .debug_str:0000000000000259 .LASF9
     /tmp/cc1tXqr4.s:3840   .debug_str:00000000000000c1 .LASF10
     /tmp/cc1tXqr4.s:3880   .debug_str:00000000000001df .LASF11
     /tmp/cc1tXqr4.s:3848   .debug_str:0000000000000106 .LASF12
     /tmp/cc1tXqr4.s:3838   .debug_str:00000000000000b1 .LASF13
     /tmp/cc1tXqr4.s:4088   .debug_str:00000000000007b0 .LASF14
     /tmp/cc1tXqr4.s:3874   .debug_str:000000000000019e .LASF15
     /tmp/cc1tXqr4.s:4074   .debug_str:0000000000000738 .LASF16
     /tmp/cc1tXqr4.s:4190   .debug_str:0000000000000b10 .LASF34
     /tmp/cc1tXqr4.s:4134   .debug_str:000000000000095e .LASF185
     /tmp/cc1tXqr4.s:4080   .debug_str:0000000000000771 .LASF17
     /tmp/cc1tXqr4.s:3992   .debug_str:0000000000000512 .LASF18
     /tmp/cc1tXqr4.s:3984   .debug_str:00000000000004eb .LASF19
     /tmp/cc1tXqr4.s:4138   .debug_str:000000000000096b .LASF21
     /tmp/cc1tXqr4.s:4030   .debug_str:0000000000000624 .LASF26
     /tmp/cc1tXqr4.s:4048   .debug_str:00000000000006a1 .LASF151
     /tmp/cc1tXqr4.s:3900   .debug_str:0000000000000280 .LASF153
     /tmp/cc1tXqr4.s:3948   .debug_str:000000000000040d .LASF20
     /tmp/cc1tXqr4.s:4182   .debug_str:0000000000000ac6 .LASF22
     /tmp/cc1tXqr4.s:3964   .debug_str:000000000000046c .LASF23
     /tmp/cc1tXqr4.s:4144   .debug_str:000000000000099f .LASF24
     /tmp/cc1tXqr4.s:4010   .debug_str:000000000000058e .LASF25
     /tmp/cc1tXqr4.s:3942   .debug_str:00000000000003c8 .LASF27
     /tmp/cc1tXqr4.s:4192   .debug_str:0000000000000b1e .LASF28
     /tmp/cc1tXqr4.s:4170   .debug_str:0000000000000a6d .LASF29
     /tmp/cc1tXqr4.s:4062   .debug_str:00000000000006fb .LASF30
GAS LISTING /tmp/cc1tXqr4.s 			page 30


     /tmp/cc1tXqr4.s:3882   .debug_str:00000000000001ee .LASF31
     /tmp/cc1tXqr4.s:4034   .debug_str:0000000000000653 .LASF32
     /tmp/cc1tXqr4.s:3844   .debug_str:00000000000000e3 .LASF33
     /tmp/cc1tXqr4.s:3824   .debug_str:0000000000000056 .LASF35
     /tmp/cc1tXqr4.s:4098   .debug_str:00000000000007da .LASF186
     /tmp/cc1tXqr4.s:4106   .debug_str:00000000000007f7 .LASF187
     /tmp/cc1tXqr4.s:3834   .debug_str:0000000000000098 .LASF36
     /tmp/cc1tXqr4.s:4064   .debug_str:0000000000000706 .LASF37
     /tmp/cc1tXqr4.s:4114   .debug_str:00000000000008d3 .LASF38
     /tmp/cc1tXqr4.s:3830   .debug_str:0000000000000082 .LASF39
     /tmp/cc1tXqr4.s:4092   .debug_str:00000000000007c5 .LASF40
     /tmp/cc1tXqr4.s:3946   .debug_str:00000000000003fd .LASF41
     /tmp/cc1tXqr4.s:4100   .debug_str:00000000000007e2 .LASF42
     /tmp/cc1tXqr4.s:4082   .debug_str:0000000000000776 .LASF43
     /tmp/cc1tXqr4.s:4052   .debug_str:00000000000006c3 .LASF44
     /tmp/cc1tXqr4.s:4002   .debug_str:0000000000000553 .LASF45
     /tmp/cc1tXqr4.s:3858   .debug_str:0000000000000154 .LASF75
     /tmp/cc1tXqr4.s:3852   .debug_str:0000000000000124 .LASF77
     /tmp/cc1tXqr4.s:4070   .debug_str:000000000000072c .LASF83
     /tmp/cc1tXqr4.s:3814   .debug_str:0000000000000016 .LASF85
     /tmp/cc1tXqr4.s:3936   .debug_str:000000000000038a .LASF46
     /tmp/cc1tXqr4.s:4004   .debug_str:0000000000000573 .LASF188
     /tmp/cc1tXqr4.s:4176   .debug_str:0000000000000aae .LASF47
     /tmp/cc1tXqr4.s:4022   .debug_str:00000000000005dd .LASF48
     /tmp/cc1tXqr4.s:4110   .debug_str:0000000000000807 .LASF189
     /tmp/cc1tXqr4.s:3920   .debug_str:0000000000000313 .LASF49
     /tmp/cc1tXqr4.s:3934   .debug_str:0000000000000377 .LASF50
     /tmp/cc1tXqr4.s:3850   .debug_str:0000000000000116 .LASF190
     /tmp/cc1tXqr4.s:3926   .debug_str:000000000000033c .LASF191
     /tmp/cc1tXqr4.s:4136   .debug_str:0000000000000963 .LASF141
     /tmp/cc1tXqr4.s:4150   .debug_str:00000000000009cf .LASF143
     /tmp/cc1tXqr4.s:4040   .debug_str:0000000000000675 .LASF51
     /tmp/cc1tXqr4.s:3810   .debug_str:0000000000000000 .LASF52
     /tmp/cc1tXqr4.s:4180   .debug_str:0000000000000ac0 .LASF53
     /tmp/cc1tXqr4.s:4096   .debug_str:00000000000007d5 .LASF54
     /tmp/cc1tXqr4.s:4124   .debug_str:0000000000000923 .LASF55
     /tmp/cc1tXqr4.s:3864   .debug_str:000000000000017b .LASF56
     /tmp/cc1tXqr4.s:3968   .debug_str:0000000000000485 .LASF57
     /tmp/cc1tXqr4.s:4102   .debug_str:00000000000007ed .LASF58
     /tmp/cc1tXqr4.s:3904   .debug_str:00000000000002a6 .LASF59
     /tmp/cc1tXqr4.s:3988   .debug_str:0000000000000500 .LASF60
     /tmp/cc1tXqr4.s:4130   .debug_str:000000000000094f .LASF61
     /tmp/cc1tXqr4.s:3832   .debug_str:000000000000008b .LASF62
     /tmp/cc1tXqr4.s:4018   .debug_str:00000000000005cb .LASF63
     /tmp/cc1tXqr4.s:3872   .debug_str:0000000000000198 .LASF64
     /tmp/cc1tXqr4.s:3972   .debug_str:0000000000000496 .LASF65
     /tmp/cc1tXqr4.s:3860   .debug_str:000000000000015d .LASF66
     /tmp/cc1tXqr4.s:3986   .debug_str:00000000000004f0 .LASF67
     /tmp/cc1tXqr4.s:4094   .debug_str:00000000000007ce .LASF68
     /tmp/cc1tXqr4.s:4078   .debug_str:000000000000075f .LASF69
     /tmp/cc1tXqr4.s:3822   .debug_str:0000000000000050 .LASF70
     /tmp/cc1tXqr4.s:3826   .debug_str:000000000000005e .LASF71
     /tmp/cc1tXqr4.s:4118   .debug_str:00000000000008f1 .LASF72
     /tmp/cc1tXqr4.s:4168   .debug_str:0000000000000a58 .LASF73
     /tmp/cc1tXqr4.s:4148   .debug_str:00000000000009c9 .LASF74
     /tmp/cc1tXqr4.s:3902   .debug_str:000000000000029b .LASF76
     /tmp/cc1tXqr4.s:3910   .debug_str:00000000000002c7 .LASF78
GAS LISTING /tmp/cc1tXqr4.s 			page 31


     /tmp/cc1tXqr4.s:4060   .debug_str:00000000000006ed .LASF79
     /tmp/cc1tXqr4.s:3878   .debug_str:00000000000001c4 .LASF80
     /tmp/cc1tXqr4.s:3914   .debug_str:00000000000002ec .LASF81
     /tmp/cc1tXqr4.s:4160   .debug_str:0000000000000a19 .LASF82
     /tmp/cc1tXqr4.s:4132   .debug_str:0000000000000955 .LASF84
     /tmp/cc1tXqr4.s:4126   .debug_str:000000000000092b .LASF86
     /tmp/cc1tXqr4.s:4042   .debug_str:000000000000067f .LASF89
     /tmp/cc1tXqr4.s:4000   .debug_str:000000000000053e .LASF91
     /tmp/cc1tXqr4.s:4024   .debug_str:00000000000005f1 .LASF87
     /tmp/cc1tXqr4.s:4028   .debug_str:0000000000000611 .LASF88
     /tmp/cc1tXqr4.s:3994   .debug_str:0000000000000517 .LASF90
     /tmp/cc1tXqr4.s:3944   .debug_str:00000000000003ea .LASF92
     /tmp/cc1tXqr4.s:4162   .debug_str:0000000000000a33 .LASF93
     /tmp/cc1tXqr4.s:4116   .debug_str:00000000000008dd .LASF94
     /tmp/cc1tXqr4.s:3990   .debug_str:000000000000050a .LASF95
     /tmp/cc1tXqr4.s:3998   .debug_str:000000000000052a .LASF96
     /tmp/cc1tXqr4.s:3958   .debug_str:0000000000000446 .LASF97
     /tmp/cc1tXqr4.s:4032   .debug_str:000000000000063f .LASF98
     /tmp/cc1tXqr4.s:4188   .debug_str:0000000000000b08 .LASF99
     /tmp/cc1tXqr4.s:3918   .debug_str:00000000000002ff .LASF100
     /tmp/cc1tXqr4.s:3854   .debug_str:000000000000013b .LASF101
     /tmp/cc1tXqr4.s:4056   .debug_str:00000000000006d3 .LASF102
     /tmp/cc1tXqr4.s:4058   .debug_str:00000000000006e6 .LASF103
     /tmp/cc1tXqr4.s:3842   .debug_str:00000000000000d0 .LASF104
     /tmp/cc1tXqr4.s:3866   .debug_str:0000000000000181 .LASF105
     /tmp/cc1tXqr4.s:3906   .debug_str:00000000000002ac .LASF106
     /tmp/cc1tXqr4.s:3916   .debug_str:00000000000002f9 .LASF107
     /tmp/cc1tXqr4.s:3856   .debug_str:0000000000000142 .LASF108
     /tmp/cc1tXqr4.s:3818   .debug_str:0000000000000030 .LASF109
     /tmp/cc1tXqr4.s:4050   .debug_str:00000000000006ab .LASF110
     /tmp/cc1tXqr4.s:4044   .debug_str:0000000000000688 .LASF111
     /tmp/cc1tXqr4.s:4184   .debug_str:0000000000000ae7 .LASF112
     /tmp/cc1tXqr4.s:4108   .debug_str:00000000000007fd .LASF113
     /tmp/cc1tXqr4.s:4166   .debug_str:0000000000000a42 .LASF114
     /tmp/cc1tXqr4.s:4146   .debug_str:00000000000009bf .LASF115
     /tmp/cc1tXqr4.s:3978   .debug_str:00000000000004ba .LASF116
     /tmp/cc1tXqr4.s:4072   .debug_str:0000000000000731 .LASF117
     /tmp/cc1tXqr4.s:3960   .debug_str:000000000000044e .LASF118
     /tmp/cc1tXqr4.s:3884   .debug_str:000000000000020f .LASF119
     /tmp/cc1tXqr4.s:3836   .debug_str:000000000000009e .LASF120
     /tmp/cc1tXqr4.s:4128   .debug_str:0000000000000940 .LASF121
     /tmp/cc1tXqr4.s:3892   .debug_str:000000000000023d .LASF122
     /tmp/cc1tXqr4.s:4152   .debug_str:00000000000009e5 .LASF123
     /tmp/cc1tXqr4.s:4006   .debug_str:0000000000000578 .LASF124
     /tmp/cc1tXqr4.s:3928   .debug_str:0000000000000368 .LASF125
     /tmp/cc1tXqr4.s:4084   .debug_str:0000000000000791 .LASF126
     /tmp/cc1tXqr4.s:4154   .debug_str:00000000000009ea .LASF127
     /tmp/cc1tXqr4.s:3966   .debug_str:0000000000000474 .LASF128
     /tmp/cc1tXqr4.s:3930   .debug_str:000000000000036d .LASF129
     /tmp/cc1tXqr4.s:4012   .debug_str:000000000000059a .LASF130
     /tmp/cc1tXqr4.s:4156   .debug_str:00000000000009ef .LASF131
     /tmp/cc1tXqr4.s:3812   .debug_str:0000000000000005 .LASF132
     /tmp/cc1tXqr4.s:3932   .debug_str:0000000000000372 .LASF133
     /tmp/cc1tXqr4.s:3938   .debug_str:00000000000003a4 .LASF134
     /tmp/cc1tXqr4.s:4008   .debug_str:0000000000000589 .LASF135
     /tmp/cc1tXqr4.s:3890   .debug_str:000000000000022c .LASF136
     /tmp/cc1tXqr4.s:4122   .debug_str:000000000000091e .LASF137
GAS LISTING /tmp/cc1tXqr4.s 			page 32


     /tmp/cc1tXqr4.s:3982   .debug_str:00000000000004da .LASF138
     /tmp/cc1tXqr4.s:3870   .debug_str:0000000000000190 .LASF139
     /tmp/cc1tXqr4.s:4172   .debug_str:0000000000000a8c .LASF140
     /tmp/cc1tXqr4.s:4178   .debug_str:0000000000000ab4 .LASF142
     /tmp/cc1tXqr4.s:4026   .debug_str:00000000000005f8 .LASF144
     /tmp/cc1tXqr4.s:3868   .debug_str:0000000000000187 .LASF145
     /tmp/cc1tXqr4.s:4186   .debug_str:0000000000000aff .LASF146
     /tmp/cc1tXqr4.s:3888   .debug_str:0000000000000226 .LASF147
     /tmp/cc1tXqr4.s:3974   .debug_str:00000000000004a3 .LASF148
     /tmp/cc1tXqr4.s:4090   .debug_str:00000000000007bc .LASF149
     /tmp/cc1tXqr4.s:837    .text:0000000000000280 .LFB60
     /tmp/cc1tXqr4.s:884    .text:00000000000002a8 .LFE60
     /tmp/cc1tXqr4.s:856    .text:0000000000000290 .LBB104
     /tmp/cc1tXqr4.s:868    .text:0000000000000298 .LBE104
     /tmp/cc1tXqr4.s:3471   .debug_loc:0000000000000000 .LLST32
     /tmp/cc1tXqr4.s:4104   .debug_str:00000000000007f2 .LASF150
     /tmp/cc1tXqr4.s:3846   .debug_str:0000000000000101 .LASF152
     /tmp/cc1tXqr4.s:4140   .debug_str:0000000000000982 .LASF154
     /tmp/cc1tXqr4.s:781    .text:000000000000024c .LFB59
     /tmp/cc1tXqr4.s:831    .text:0000000000000280 .LFE59
     /tmp/cc1tXqr4.s:792    .text:0000000000000258 .LBB102
     /tmp/cc1tXqr4.s:804    .text:0000000000000260 .LBE102
     /tmp/cc1tXqr4.s:3480   .debug_loc:0000000000000025 .LLST31
     /tmp/cc1tXqr4.s:3898   .debug_str:0000000000000275 .LASF155
     /tmp/cc1tXqr4.s:4068   .debug_str:0000000000000717 .LASF156
     /tmp/cc1tXqr4.s:710    .text:0000000000000214 .LFB58
     /tmp/cc1tXqr4.s:775    .text:000000000000024c .LFE58
     /tmp/cc1tXqr4.s:3489   .debug_loc:000000000000004a .LLST28
     /tmp/cc1tXqr4.s:722    .text:0000000000000220 .LBB98
     /tmp/cc1tXqr4.s:733    .text:0000000000000224 .LBE98
     /tmp/cc1tXqr4.s:3503   .debug_loc:0000000000000083 .LLST29
     /tmp/cc1tXqr4.s:735    .text:0000000000000224 .LBB100
     /tmp/cc1tXqr4.s:747    .text:000000000000022c .LBE100
     /tmp/cc1tXqr4.s:3510   .debug_loc:00000000000000a6 .LLST30
     /tmp/cc1tXqr4.s:4066   .debug_str:000000000000070e .LASF157
     /tmp/cc1tXqr4.s:3922   .debug_str:0000000000000318 .LASF158
     /tmp/cc1tXqr4.s:639    .text:00000000000001dc .LFB57
     /tmp/cc1tXqr4.s:704    .text:0000000000000214 .LFE57
     /tmp/cc1tXqr4.s:3519   .debug_loc:00000000000000cb .LLST25
     /tmp/cc1tXqr4.s:651    .text:00000000000001e8 .LBB94
     /tmp/cc1tXqr4.s:662    .text:00000000000001ec .LBE94
     /tmp/cc1tXqr4.s:3533   .debug_loc:0000000000000104 .LLST26
     /tmp/cc1tXqr4.s:664    .text:00000000000001ec .LBB96
     /tmp/cc1tXqr4.s:676    .text:00000000000001f4 .LBE96
     /tmp/cc1tXqr4.s:3540   .debug_loc:0000000000000127 .LLST27
     /tmp/cc1tXqr4.s:3956   .debug_str:000000000000043c .LASF159
     /tmp/cc1tXqr4.s:3828   .debug_str:000000000000006f .LASF160
     /tmp/cc1tXqr4.s:568    .text:00000000000001a4 .LFB56
     /tmp/cc1tXqr4.s:633    .text:00000000000001dc .LFE56
     /tmp/cc1tXqr4.s:4164   .debug_str:0000000000000a3b .LASF161
     /tmp/cc1tXqr4.s:3549   .debug_loc:000000000000014c .LLST22
     /tmp/cc1tXqr4.s:580    .text:00000000000001b0 .LBB90
     /tmp/cc1tXqr4.s:591    .text:00000000000001b4 .LBE90
     /tmp/cc1tXqr4.s:3563   .debug_loc:0000000000000185 .LLST23
     /tmp/cc1tXqr4.s:593    .text:00000000000001b4 .LBB92
     /tmp/cc1tXqr4.s:605    .text:00000000000001bc .LBE92
     /tmp/cc1tXqr4.s:3570   .debug_loc:00000000000001a8 .LLST24
GAS LISTING /tmp/cc1tXqr4.s 			page 33


     /tmp/cc1tXqr4.s:4038   .debug_str:000000000000066c .LASF162
     /tmp/cc1tXqr4.s:4142   .debug_str:000000000000098b .LASF163
     /tmp/cc1tXqr4.s:480    .text:0000000000000160 .LFB55
     /tmp/cc1tXqr4.s:562    .text:00000000000001a4 .LFE55
     /tmp/cc1tXqr4.s:3579   .debug_loc:00000000000001cd .LLST17
     /tmp/cc1tXqr4.s:4020   .debug_str:00000000000005d8 .LASF164
     /tmp/cc1tXqr4.s:3593   .debug_loc:0000000000000206 .LLST18
     /tmp/cc1tXqr4.s:496    .text:0000000000000174 .LBB84
     /tmp/cc1tXqr4.s:507    .text:0000000000000178 .LBE84
     /tmp/cc1tXqr4.s:3607   .debug_loc:000000000000023f .LLST19
     /tmp/cc1tXqr4.s:509    .text:0000000000000178 .LBB86
     /tmp/cc1tXqr4.s:520    .text:000000000000017c .LBE86
     /tmp/cc1tXqr4.s:3614   .debug_loc:0000000000000262 .LLST20
     /tmp/cc1tXqr4.s:522    .text:000000000000017c .LBB88
     /tmp/cc1tXqr4.s:534    .text:0000000000000184 .LBE88
     /tmp/cc1tXqr4.s:3621   .debug_loc:0000000000000285 .LLST21
     /tmp/cc1tXqr4.s:3996   .debug_str:000000000000051e .LASF165
     /tmp/cc1tXqr4.s:3862   .debug_str:0000000000000162 .LASF166
     /tmp/cc1tXqr4.s:421    .text:0000000000000138 .LFB54
     /tmp/cc1tXqr4.s:474    .text:0000000000000160 .LFE54
     /tmp/cc1tXqr4.s:433    .text:0000000000000144 .LBB80
     /tmp/cc1tXqr4.s:444    .text:0000000000000148 .LBE80
     /tmp/cc1tXqr4.s:3630   .debug_loc:00000000000002aa .LLST15
     /tmp/cc1tXqr4.s:446    .text:0000000000000148 .LBB82
     /tmp/cc1tXqr4.s:458    .text:0000000000000150 .LBE82
     /tmp/cc1tXqr4.s:3637   .debug_loc:00000000000002cd .LLST16
     /tmp/cc1tXqr4.s:4036   .debug_str:000000000000065c .LASF167
     /tmp/cc1tXqr4.s:3820   .debug_str:000000000000003b .LASF168
     /tmp/cc1tXqr4.s:376    .text:0000000000000114 .LFB53
     /tmp/cc1tXqr4.s:415    .text:0000000000000138 .LFE53
     /tmp/cc1tXqr4.s:387    .text:0000000000000120 .LBB78
     /tmp/cc1tXqr4.s:399    .text:0000000000000128 .LBE78
     /tmp/cc1tXqr4.s:3645   .debug_loc:00000000000002f1 .LLST14
     /tmp/cc1tXqr4.s:3970   .debug_str:000000000000048a .LASF169
     /tmp/cc1tXqr4.s:4076   .debug_str:000000000000074e .LASF170
     /tmp/cc1tXqr4.s:308    .text:00000000000000d8 .LFB52
     /tmp/cc1tXqr4.s:370    .text:0000000000000114 .LFE52
     /tmp/cc1tXqr4.s:319    .text:00000000000000e4 .LBB74
     /tmp/cc1tXqr4.s:331    .text:00000000000000ec .LBE74
     /tmp/cc1tXqr4.s:3653   .debug_loc:0000000000000315 .LLST13
     /tmp/cc1tXqr4.s:340    .text:00000000000000f0 .LBB76
     /tmp/cc1tXqr4.s:355    .text:00000000000000fc .LBE76
     /tmp/cc1tXqr4.s:4086   .debug_str:00000000000007a2 .LASF171
     /tmp/cc1tXqr4.s:4158   .debug_str:00000000000009f4 .LASF172
     /tmp/cc1tXqr4.s:204    .text:0000000000000098 .LFB51
     /tmp/cc1tXqr4.s:302    .text:00000000000000d8 .LFE51
     /tmp/cc1tXqr4.s:3661   .debug_loc:0000000000000339 .LLST8
     /tmp/cc1tXqr4.s:3950   .debug_str:0000000000000416 .LASF173
     /tmp/cc1tXqr4.s:216    .text:00000000000000a4 .LBB64
     /tmp/cc1tXqr4.s:227    .text:00000000000000a8 .LBE64
     /tmp/cc1tXqr4.s:3675   .debug_loc:0000000000000372 .LLST9
     /tmp/cc1tXqr4.s:229    .text:00000000000000a8 .LBB66
     /tmp/cc1tXqr4.s:240    .text:00000000000000ac .LBE66
     /tmp/cc1tXqr4.s:3682   .debug_loc:0000000000000395 .LLST10
     /tmp/cc1tXqr4.s:242    .text:00000000000000ac .LBB68
     /tmp/cc1tXqr4.s:253    .text:00000000000000b0 .LBE68
     /tmp/cc1tXqr4.s:3689   .debug_loc:00000000000003b8 .LLST11
GAS LISTING /tmp/cc1tXqr4.s 			page 34


     /tmp/cc1tXqr4.s:255    .text:00000000000000b0 .LBB70
     /tmp/cc1tXqr4.s:267    .text:00000000000000b8 .LBE70
     /tmp/cc1tXqr4.s:3696   .debug_loc:00000000000003db .LLST12
     /tmp/cc1tXqr4.s:276    .text:00000000000000bc .LBB72
     /tmp/cc1tXqr4.s:292    .text:00000000000000c8 .LBE72
     /tmp/cc1tXqr4.s:3962   .debug_str:0000000000000461 .LASF174
     /tmp/cc1tXqr4.s:3876   .debug_str:00000000000001b4 .LASF175
     /tmp/cc1tXqr4.s:159    .text:0000000000000074 .LFB50
     /tmp/cc1tXqr4.s:198    .text:0000000000000098 .LFE50
     /tmp/cc1tXqr4.s:170    .text:0000000000000080 .LBB62
     /tmp/cc1tXqr4.s:182    .text:0000000000000088 .LBE62
     /tmp/cc1tXqr4.s:3704   .debug_loc:00000000000003ff .LLST7
     /tmp/cc1tXqr4.s:3908   .debug_str:00000000000002be .LASF176
     /tmp/cc1tXqr4.s:4174   .debug_str:0000000000000aa0 .LASF177
     /tmp/cc1tXqr4.s:88     .text:000000000000003c .LFB49
     /tmp/cc1tXqr4.s:153    .text:0000000000000074 .LFE49
     /tmp/cc1tXqr4.s:3713   .debug_loc:0000000000000424 .LLST4
     /tmp/cc1tXqr4.s:100    .text:0000000000000048 .LBB58
     /tmp/cc1tXqr4.s:111    .text:000000000000004c .LBE58
     /tmp/cc1tXqr4.s:3727   .debug_loc:000000000000045d .LLST5
     /tmp/cc1tXqr4.s:113    .text:000000000000004c .LBB60
     /tmp/cc1tXqr4.s:125    .text:0000000000000054 .LBE60
     /tmp/cc1tXqr4.s:3734   .debug_loc:0000000000000480 .LLST6
     /tmp/cc1tXqr4.s:3980   .debug_str:00000000000004d0 .LASF178
     /tmp/cc1tXqr4.s:3896   .debug_str:0000000000000267 .LASF179
     /tmp/cc1tXqr4.s:10     .text:0000000000000000 .LFB48
     /tmp/cc1tXqr4.s:82     .text:000000000000003c .LFE48
     /tmp/cc1tXqr4.s:3952   .debug_str:0000000000000424 .LASF180
     /tmp/cc1tXqr4.s:3742   .debug_loc:00000000000004a4 .LLST0
     /tmp/cc1tXqr4.s:4014   .debug_str:00000000000005ab .LASF181
     /tmp/cc1tXqr4.s:3762   .debug_loc:00000000000004f3 .LLST1
     /tmp/cc1tXqr4.s:29     .text:0000000000000014 .LBB54
     /tmp/cc1tXqr4.s:41     .text:0000000000000018 .LBE54
     /tmp/cc1tXqr4.s:3780   .debug_loc:0000000000000530 .LLST2
     /tmp/cc1tXqr4.s:43     .text:0000000000000018 .LBB56
     /tmp/cc1tXqr4.s:55     .text:0000000000000020 .LBE56
     /tmp/cc1tXqr4.s:3787   .debug_loc:0000000000000553 .LLST3
     /tmp/cc1tXqr4.s:854    .text:0000000000000290 .LVL53
     /tmp/cc1tXqr4.s:865    .text:0000000000000298 .LVL54
     /tmp/cc1tXqr4.s:791    .text:0000000000000258 .LVL50
     /tmp/cc1tXqr4.s:801    .text:0000000000000260 .LVL51
     /tmp/cc1tXqr4.s:713    .text:0000000000000214 .LVL45
     /tmp/cc1tXqr4.s:765    .text:000000000000023c .LVL49
     /tmp/cc1tXqr4.s:721    .text:0000000000000220 .LVL46
     /tmp/cc1tXqr4.s:730    .text:0000000000000224 .LVL47
     /tmp/cc1tXqr4.s:744    .text:000000000000022c .LVL48
     /tmp/cc1tXqr4.s:642    .text:00000000000001dc .LVL40
     /tmp/cc1tXqr4.s:694    .text:0000000000000204 .LVL44
     /tmp/cc1tXqr4.s:650    .text:00000000000001e8 .LVL41
     /tmp/cc1tXqr4.s:659    .text:00000000000001ec .LVL42
     /tmp/cc1tXqr4.s:673    .text:00000000000001f4 .LVL43
     /tmp/cc1tXqr4.s:571    .text:00000000000001a4 .LVL35
     /tmp/cc1tXqr4.s:623    .text:00000000000001cc .LVL39
     /tmp/cc1tXqr4.s:579    .text:00000000000001b0 .LVL36
     /tmp/cc1tXqr4.s:588    .text:00000000000001b4 .LVL37
     /tmp/cc1tXqr4.s:602    .text:00000000000001bc .LVL38
     /tmp/cc1tXqr4.s:483    .text:0000000000000160 .LVL28
GAS LISTING /tmp/cc1tXqr4.s 			page 35


     /tmp/cc1tXqr4.s:552    .text:0000000000000194 .LVL34
     /tmp/cc1tXqr4.s:493    .text:0000000000000170 .LVL29
     /tmp/cc1tXqr4.s:495    .text:0000000000000174 .LVL30
     /tmp/cc1tXqr4.s:504    .text:0000000000000178 .LVL31
     /tmp/cc1tXqr4.s:517    .text:000000000000017c .LVL32
     /tmp/cc1tXqr4.s:531    .text:0000000000000184 .LVL33
     /tmp/cc1tXqr4.s:432    .text:0000000000000144 .LVL25
     /tmp/cc1tXqr4.s:441    .text:0000000000000148 .LVL26
     /tmp/cc1tXqr4.s:455    .text:0000000000000150 .LVL27
     /tmp/cc1tXqr4.s:386    .text:0000000000000120 .LVL22
     /tmp/cc1tXqr4.s:396    .text:0000000000000128 .LVL23
     /tmp/cc1tXqr4.s:318    .text:00000000000000e4 .LVL20
     /tmp/cc1tXqr4.s:328    .text:00000000000000ec .LVL21
     /tmp/cc1tXqr4.s:207    .text:0000000000000098 .LVL13
     /tmp/cc1tXqr4.s:290    .text:00000000000000c8 .LVL19
     /tmp/cc1tXqr4.s:215    .text:00000000000000a4 .LVL14
     /tmp/cc1tXqr4.s:224    .text:00000000000000a8 .LVL15
     /tmp/cc1tXqr4.s:237    .text:00000000000000ac .LVL16
     /tmp/cc1tXqr4.s:250    .text:00000000000000b0 .LVL17
     /tmp/cc1tXqr4.s:264    .text:00000000000000b8 .LVL18
     /tmp/cc1tXqr4.s:169    .text:0000000000000080 .LVL11
     /tmp/cc1tXqr4.s:179    .text:0000000000000088 .LVL12
     /tmp/cc1tXqr4.s:91     .text:000000000000003c .LVL6
     /tmp/cc1tXqr4.s:143    .text:0000000000000064 .LVL10
     /tmp/cc1tXqr4.s:99     .text:0000000000000048 .LVL7
     /tmp/cc1tXqr4.s:108    .text:000000000000004c .LVL8
     /tmp/cc1tXqr4.s:122    .text:0000000000000054 .LVL9
     /tmp/cc1tXqr4.s:14     .text:0000000000000000 .LVL0
     /tmp/cc1tXqr4.s:24     .text:0000000000000010 .LVL1
     /tmp/cc1tXqr4.s:27     .text:0000000000000014 .LVL2
     /tmp/cc1tXqr4.s:73     .text:0000000000000030 .LVL5
     /tmp/cc1tXqr4.s:38     .text:0000000000000018 .LVL3
     /tmp/cc1tXqr4.s:52     .text:0000000000000020 .LVL4
     /tmp/cc1tXqr4.s:893    .debug_info:0000000000000000 .Ldebug_info0

NO UNDEFINED SYMBOLS
