GAS LISTING /tmp/ccvcL2pK.s 			page 1


   1              		.file	"syscall_cpp.cpp"
   2              		.option pic
   3              		.option norelax
   4              		.text
   5              	.Ltext0:
   6              		.section	.text._ZN6Thread3runEv,"axG",@progbits,_ZN6Thread3runEv,comdat
   7              		.align	2
   8              		.weak	_ZN6Thread3runEv
  10              	_ZN6Thread3runEv:
  11              	.LFB48:
  12              		.file 1 "src/../h/syscall_cpp.hpp"
   1:src/../h/syscall_cpp.hpp **** #ifndef PROJECT_BASE_V1_1_SYSCALL_CPP_HPP
   2:src/../h/syscall_cpp.hpp **** #define PROJECT_BASE_V1_1_SYSCALL_CPP_HPP
   3:src/../h/syscall_cpp.hpp **** 
   4:src/../h/syscall_cpp.hpp **** #include "syscall_c.hpp"
   5:src/../h/syscall_cpp.hpp **** 
   6:src/../h/syscall_cpp.hpp **** void *operator new(size_t size);
   7:src/../h/syscall_cpp.hpp **** 
   8:src/../h/syscall_cpp.hpp **** void *operator new[](size_t size);
   9:src/../h/syscall_cpp.hpp **** 
  10:src/../h/syscall_cpp.hpp **** void operator delete(void *ptr);
  11:src/../h/syscall_cpp.hpp **** 
  12:src/../h/syscall_cpp.hpp **** void operator delete[](void *ptr);
  13:src/../h/syscall_cpp.hpp **** 
  14:src/../h/syscall_cpp.hpp **** void switchToUserMode();
  15:src/../h/syscall_cpp.hpp **** 
  16:src/../h/syscall_cpp.hpp **** class Thread {
  17:src/../h/syscall_cpp.hpp **** public:
  18:src/../h/syscall_cpp.hpp ****     Thread(void (*body)(void *), void *arg);
  19:src/../h/syscall_cpp.hpp **** 
  20:src/../h/syscall_cpp.hpp ****     virtual ~Thread();
  21:src/../h/syscall_cpp.hpp **** 
  22:src/../h/syscall_cpp.hpp ****     int start();
  23:src/../h/syscall_cpp.hpp **** 
  24:src/../h/syscall_cpp.hpp ****     void join();
  25:src/../h/syscall_cpp.hpp **** 
  26:src/../h/syscall_cpp.hpp ****     static void dispatch();
  27:src/../h/syscall_cpp.hpp **** 
  28:src/../h/syscall_cpp.hpp **** 
  29:src/../h/syscall_cpp.hpp **** protected:
  30:src/../h/syscall_cpp.hpp ****     Thread();
  31:src/../h/syscall_cpp.hpp **** 
  32:src/../h/syscall_cpp.hpp ****     virtual void run() {}
  13              		.loc 1 32 18
  14              		.cfi_startproc
  15              	.LVL0:
  16 0000 130101FF 		addi	sp,sp,-16
  17              		.cfi_def_cfa_offset 16
  18 0004 23348100 		sd	s0,8(sp)
  19              		.cfi_offset 8, -8
  20 0008 13040101 		addi	s0,sp,16
  21              		.cfi_def_cfa 8, 0
  22              		.loc 1 32 25 is_stmt 0
  23 000c 03348100 		ld	s0,8(sp)
  24              		.cfi_restore 8
  25              		.cfi_def_cfa 2, 16
  26 0010 13010101 		addi	sp,sp,16
GAS LISTING /tmp/ccvcL2pK.s 			page 2


  27              		.cfi_def_cfa_offset 0
  28 0014 67800000 		jr	ra
  29              		.cfi_endproc
  30              	.LFE48:
  32              		.text
  33              		.align	2
  34              		.globl	_ZN6Thread13threadWrapperEPv
  36              	_ZN6Thread13threadWrapperEPv:
  37              	.LFB60:
  38              		.file 2 "src/syscall_cpp.cpp"
   1:src/syscall_cpp.cpp **** //
   2:src/syscall_cpp.cpp **** // Created by os on 2/2/23.
   3:src/syscall_cpp.cpp **** //
   4:src/syscall_cpp.cpp **** 
   5:src/syscall_cpp.cpp **** #include "../h/syscall_cpp.hpp"
   6:src/syscall_cpp.cpp **** 
   7:src/syscall_cpp.cpp **** void* operator new(size_t size) {
   8:src/syscall_cpp.cpp ****     return mem_alloc(size);
   9:src/syscall_cpp.cpp **** }
  10:src/syscall_cpp.cpp **** 
  11:src/syscall_cpp.cpp **** void* operator new[](size_t size) {
  12:src/syscall_cpp.cpp ****     return mem_alloc(size);
  13:src/syscall_cpp.cpp **** }
  14:src/syscall_cpp.cpp **** 
  15:src/syscall_cpp.cpp **** void operator delete(void *ptr) { mem_free(ptr); }
  16:src/syscall_cpp.cpp **** 
  17:src/syscall_cpp.cpp **** void operator delete[](void *ptr) { mem_free(ptr); }
  18:src/syscall_cpp.cpp **** 
  19:src/syscall_cpp.cpp **** void switchToUserMode(){ toUserMode();}
  20:src/syscall_cpp.cpp **** 
  21:src/syscall_cpp.cpp **** Thread::Thread(void (*body)(void*), void* arg) {
  22:src/syscall_cpp.cpp ****     thread_create(&myHandle, body, arg);
  23:src/syscall_cpp.cpp ****     //myHandle = (thread_t)Scheduler::remove();
  24:src/syscall_cpp.cpp **** }
  25:src/syscall_cpp.cpp **** 
  26:src/syscall_cpp.cpp **** Thread::Thread() {
  27:src/syscall_cpp.cpp ****     new Thread(threadWrapper, this);
  28:src/syscall_cpp.cpp **** }
  29:src/syscall_cpp.cpp **** 
  30:src/syscall_cpp.cpp **** void Thread::threadWrapper(void *t) {
  39              		.loc 2 30 37 is_stmt 1
  40              		.cfi_startproc
  41              	.LVL1:
  42 0000 130101FF 		addi	sp,sp,-16
  43              		.cfi_def_cfa_offset 16
  44 0004 23341100 		sd	ra,8(sp)
  45 0008 23308100 		sd	s0,0(sp)
  46              		.cfi_offset 1, -8
  47              		.cfi_offset 8, -16
  48 000c 13040101 		addi	s0,sp,16
  49              		.cfi_def_cfa 8, 0
  31:src/syscall_cpp.cpp ****     ((Thread*)t)->run();
  50              		.loc 2 31 5
  51              		.loc 2 31 23 is_stmt 0
  52 0010 83370500 		ld	a5,0(a0)
  53 0014 83B70701 		ld	a5,16(a5)
  54              		.loc 2 31 22
GAS LISTING /tmp/ccvcL2pK.s 			page 3


  55 0018 E7800700 		jalr	a5
  56              	.LVL2:
  32:src/syscall_cpp.cpp **** }
  57              		.loc 2 32 1
  58 001c 83308100 		ld	ra,8(sp)
  59              		.cfi_restore 1
  60 0020 03340100 		ld	s0,0(sp)
  61              		.cfi_restore 8
  62              		.cfi_def_cfa 2, 16
  63 0024 13010101 		addi	sp,sp,16
  64              		.cfi_def_cfa_offset 0
  65 0028 67800000 		jr	ra
  66              		.cfi_endproc
  67              	.LFE60:
  69              		.align	2
  70              		.globl	_Znwm
  72              	_Znwm:
  73              	.LFB49:
   7:src/syscall_cpp.cpp ****     return mem_alloc(size);
  74              		.loc 2 7 33 is_stmt 1
  75              		.cfi_startproc
  76              	.LVL3:
  77 002c 130101FF 		addi	sp,sp,-16
  78              		.cfi_def_cfa_offset 16
  79 0030 23341100 		sd	ra,8(sp)
  80 0034 23308100 		sd	s0,0(sp)
  81              		.cfi_offset 1, -8
  82              		.cfi_offset 8, -16
  83 0038 13040101 		addi	s0,sp,16
  84              		.cfi_def_cfa 8, 0
   8:src/syscall_cpp.cpp **** }
  85              		.loc 2 8 5
   8:src/syscall_cpp.cpp **** }
  86              		.loc 2 8 21 is_stmt 0
  87 003c 97000000 		call	_Z9mem_allocm@plt
  87      E7800000 
  88              	.LVL4:
   9:src/syscall_cpp.cpp **** 
  89              		.loc 2 9 1
  90 0044 83308100 		ld	ra,8(sp)
  91              		.cfi_restore 1
  92 0048 03340100 		ld	s0,0(sp)
  93              		.cfi_restore 8
  94              		.cfi_def_cfa 2, 16
  95 004c 13010101 		addi	sp,sp,16
  96              		.cfi_def_cfa_offset 0
  97 0050 67800000 		jr	ra
  98              		.cfi_endproc
  99              	.LFE49:
 101              		.align	2
 102              		.globl	_Znam
 104              	_Znam:
 105              	.LFB50:
  11:src/syscall_cpp.cpp ****     return mem_alloc(size);
 106              		.loc 2 11 35 is_stmt 1
 107              		.cfi_startproc
 108              	.LVL5:
GAS LISTING /tmp/ccvcL2pK.s 			page 4


 109 0054 130101FF 		addi	sp,sp,-16
 110              		.cfi_def_cfa_offset 16
 111 0058 23341100 		sd	ra,8(sp)
 112 005c 23308100 		sd	s0,0(sp)
 113              		.cfi_offset 1, -8
 114              		.cfi_offset 8, -16
 115 0060 13040101 		addi	s0,sp,16
 116              		.cfi_def_cfa 8, 0
  12:src/syscall_cpp.cpp **** }
 117              		.loc 2 12 5
  12:src/syscall_cpp.cpp **** }
 118              		.loc 2 12 21 is_stmt 0
 119 0064 97000000 		call	_Z9mem_allocm@plt
 119      E7800000 
 120              	.LVL6:
  13:src/syscall_cpp.cpp **** 
 121              		.loc 2 13 1
 122 006c 83308100 		ld	ra,8(sp)
 123              		.cfi_restore 1
 124 0070 03340100 		ld	s0,0(sp)
 125              		.cfi_restore 8
 126              		.cfi_def_cfa 2, 16
 127 0074 13010101 		addi	sp,sp,16
 128              		.cfi_def_cfa_offset 0
 129 0078 67800000 		jr	ra
 130              		.cfi_endproc
 131              	.LFE50:
 133              		.align	2
 134              		.globl	_ZdlPv
 136              	_ZdlPv:
 137              	.LFB51:
  15:src/syscall_cpp.cpp **** 
 138              		.loc 2 15 33 is_stmt 1
 139              		.cfi_startproc
 140              	.LVL7:
 141 007c 130101FF 		addi	sp,sp,-16
 142              		.cfi_def_cfa_offset 16
 143 0080 23341100 		sd	ra,8(sp)
 144 0084 23308100 		sd	s0,0(sp)
 145              		.cfi_offset 1, -8
 146              		.cfi_offset 8, -16
 147 0088 13040101 		addi	s0,sp,16
 148              		.cfi_def_cfa 8, 0
  15:src/syscall_cpp.cpp **** 
 149              		.loc 2 15 35
  15:src/syscall_cpp.cpp **** 
 150              		.loc 2 15 43 is_stmt 0
 151 008c 97000000 		call	_Z8mem_freePv@plt
 151      E7800000 
 152              	.LVL8:
  15:src/syscall_cpp.cpp **** 
 153              		.loc 2 15 50
 154 0094 83308100 		ld	ra,8(sp)
 155              		.cfi_restore 1
 156 0098 03340100 		ld	s0,0(sp)
 157              		.cfi_restore 8
 158              		.cfi_def_cfa 2, 16
GAS LISTING /tmp/ccvcL2pK.s 			page 5


 159 009c 13010101 		addi	sp,sp,16
 160              		.cfi_def_cfa_offset 0
 161 00a0 67800000 		jr	ra
 162              		.cfi_endproc
 163              	.LFE51:
 165              		.align	2
 166              		.globl	_ZdaPv
 168              	_ZdaPv:
 169              	.LFB52:
  17:src/syscall_cpp.cpp **** 
 170              		.loc 2 17 35 is_stmt 1
 171              		.cfi_startproc
 172              	.LVL9:
 173 00a4 130101FF 		addi	sp,sp,-16
 174              		.cfi_def_cfa_offset 16
 175 00a8 23341100 		sd	ra,8(sp)
 176 00ac 23308100 		sd	s0,0(sp)
 177              		.cfi_offset 1, -8
 178              		.cfi_offset 8, -16
 179 00b0 13040101 		addi	s0,sp,16
 180              		.cfi_def_cfa 8, 0
  17:src/syscall_cpp.cpp **** 
 181              		.loc 2 17 37
  17:src/syscall_cpp.cpp **** 
 182              		.loc 2 17 45 is_stmt 0
 183 00b4 97000000 		call	_Z8mem_freePv@plt
 183      E7800000 
 184              	.LVL10:
  17:src/syscall_cpp.cpp **** 
 185              		.loc 2 17 52
 186 00bc 83308100 		ld	ra,8(sp)
 187              		.cfi_restore 1
 188 00c0 03340100 		ld	s0,0(sp)
 189              		.cfi_restore 8
 190              		.cfi_def_cfa 2, 16
 191 00c4 13010101 		addi	sp,sp,16
 192              		.cfi_def_cfa_offset 0
 193 00c8 67800000 		jr	ra
 194              		.cfi_endproc
 195              	.LFE52:
 197              		.align	2
 198              		.globl	_ZN6ThreadD2Ev
 200              	_ZN6ThreadD2Ev:
 201              	.LFB65:
  33:src/syscall_cpp.cpp **** 
  34:src/syscall_cpp.cpp **** int Thread::start() {
  35:src/syscall_cpp.cpp ****     Scheduler::put((PCB*)myHandle);
  36:src/syscall_cpp.cpp **** 
  37:src/syscall_cpp.cpp ****     return 0;
  38:src/syscall_cpp.cpp **** }
  39:src/syscall_cpp.cpp **** 
  40:src/syscall_cpp.cpp **** void Thread::join() {
  41:src/syscall_cpp.cpp ****     thread_join(myHandle);
  42:src/syscall_cpp.cpp **** }
  43:src/syscall_cpp.cpp **** 
  44:src/syscall_cpp.cpp **** void Thread::dispatch() {
  45:src/syscall_cpp.cpp ****     thread_dispatch();
GAS LISTING /tmp/ccvcL2pK.s 			page 6


  46:src/syscall_cpp.cpp **** }
  47:src/syscall_cpp.cpp **** 
  48:src/syscall_cpp.cpp **** Thread::~Thread() {
 202              		.loc 2 48 1 is_stmt 1
 203              		.cfi_startproc
 204              		.cfi_personality 0x9b,DW.ref.__gxx_personality_v0
 205              		.cfi_lsda 0x1b,.LLSDA65
 206              	.LVL11:
 207 00cc 130101FE 		addi	sp,sp,-32
 208              		.cfi_def_cfa_offset 32
 209 00d0 233C1100 		sd	ra,24(sp)
 210 00d4 23388100 		sd	s0,16(sp)
 211 00d8 23349100 		sd	s1,8(sp)
 212              		.cfi_offset 1, -8
 213              		.cfi_offset 8, -16
 214              		.cfi_offset 9, -24
 215 00dc 13040102 		addi	s0,sp,32
 216              		.cfi_def_cfa 8, 0
 217 00e0 93040500 		mv	s1,a0
 218              	.LBB6:
 219              		.loc 2 48 17 is_stmt 0
 220 00e4 97070000 		lla	a5,_ZTV6Thread+16
 220      93870700 
 221 00ec 2330F500 		sd	a5,0(a0)
  49:src/syscall_cpp.cpp ****     thread_exit();
 222              		.loc 2 49 5 is_stmt 1
 223              		.loc 2 49 16 is_stmt 0
 224 00f0 97000000 		call	_Z11thread_exitv@plt
 224      E7800000 
 225              	.LVL12:
  50:src/syscall_cpp.cpp ****     delete (PCB*)myHandle;
 226              		.loc 2 50 5 is_stmt 1
 227              		.loc 2 50 18 is_stmt 0
 228 00f8 83B48400 		ld	s1,8(s1)
 229              	.LVL13:
 230              		.loc 2 50 26
 231 00fc 63800402 		beqz	s1,.L13
 232              	.LVL14:
 233              	.LBB7:
 234              	.LBB8:
 235              		.file 3 "src/../h/PCB.hpp"
   1:src/../h/PCB.hpp **** #ifndef PROJECT_BASE_V1_1_PCB_HPP
   2:src/../h/PCB.hpp **** #define PROJECT_BASE_V1_1_PCB_HPP
   3:src/../h/PCB.hpp **** 
   4:src/../h/PCB.hpp **** 
   5:src/../h/PCB.hpp **** #include "Scheduler.hpp"
   6:src/../h/PCB.hpp **** #include "riscv.hpp"
   7:src/../h/PCB.hpp **** #include "../h/syscall_c.hpp"
   8:src/../h/PCB.hpp **** 
   9:src/../h/PCB.hpp **** 
  10:src/../h/PCB.hpp **** class PCB {
  11:src/../h/PCB.hpp **** public:
  12:src/../h/PCB.hpp ****     struct Context {
  13:src/../h/PCB.hpp ****         uint64 ra;
  14:src/../h/PCB.hpp ****         uint64 sp;
  15:src/../h/PCB.hpp ****     };
  16:src/../h/PCB.hpp **** 
GAS LISTING /tmp/ccvcL2pK.s 			page 7


  17:src/../h/PCB.hpp ****     enum State {
  18:src/../h/PCB.hpp ****         READY,
  19:src/../h/PCB.hpp ****         RUNNING,
  20:src/../h/PCB.hpp ****         SUSPENDED,
  21:src/../h/PCB.hpp ****         FINISHED
  22:src/../h/PCB.hpp ****     };
  23:src/../h/PCB.hpp **** 
  24:src/../h/PCB.hpp ****     ~PCB() { delete[] stack; }
 236              		.loc 3 24 14 is_stmt 1
 237              		.loc 3 24 23 is_stmt 0
 238 0100 03B58400 		ld	a0,8(s1)
 239              		.loc 3 24 28
 240 0104 63060500 		beqz	a0,.L15
 241              		.loc 3 24 23
 242 0108 97000000 		call	_ZdaPv
 242      E7800000 
 243              	.LVL15:
 244              	.L15:
 245              	.LBE8:
 246              	.LBE7:
 247              		.loc 2 50 18
 248 0110 13850400 		mv	a0,s1
 249 0114 97000000 		call	_ZdlPv
 249      E7800000 
 250              	.LVL16:
 251              	.L13:
 252              	.LBE6:
  51:src/syscall_cpp.cpp **** }
 253              		.loc 2 51 1
 254 011c 83308101 		ld	ra,24(sp)
 255              		.cfi_restore 1
 256 0120 03340101 		ld	s0,16(sp)
 257              		.cfi_restore 8
 258              		.cfi_def_cfa 2, 32
 259 0124 83348100 		ld	s1,8(sp)
 260              		.cfi_restore 9
 261 0128 13010102 		addi	sp,sp,32
 262              		.cfi_def_cfa_offset 0
 263 012c 67800000 		jr	ra
 264              		.cfi_endproc
 265              	.LFE65:
 266              		.globl	__gxx_personality_v0
 267              		.section	.gcc_except_table,"a",@progbits
 268              	.LLSDA65:
 269 0000 FF       		.byte	0xff
 270 0001 FF       		.byte	0xff
 271 0002 03       		.byte	0x3
 272 0003 00       		.byte	0
 273              		.text
 275              		.globl	_ZN6ThreadD1Ev
 276              		.set	_ZN6ThreadD1Ev,_ZN6ThreadD2Ev
 277              		.align	2
 278              		.globl	_ZN6ThreadD0Ev
 280              	_ZN6ThreadD0Ev:
 281              	.LFB67:
  48:src/syscall_cpp.cpp ****     thread_exit();
 282              		.loc 2 48 1 is_stmt 1
GAS LISTING /tmp/ccvcL2pK.s 			page 8


 283              		.cfi_startproc
 284              	.LVL17:
 285 0130 130101FE 		addi	sp,sp,-32
 286              		.cfi_def_cfa_offset 32
 287 0134 233C1100 		sd	ra,24(sp)
 288 0138 23388100 		sd	s0,16(sp)
 289 013c 23349100 		sd	s1,8(sp)
 290              		.cfi_offset 1, -8
 291              		.cfi_offset 8, -16
 292              		.cfi_offset 9, -24
 293 0140 13040102 		addi	s0,sp,32
 294              		.cfi_def_cfa 8, 0
 295 0144 93040500 		mv	s1,a0
 296              		.loc 2 51 1 is_stmt 0
 297 0148 97000000 		call	_ZN6ThreadD1Ev
 297      E7800000 
 298              	.LVL18:
 299 0150 13850400 		mv	a0,s1
 300 0154 97000000 		call	_ZdlPv
 300      E7800000 
 301              	.LVL19:
 302 015c 83308101 		ld	ra,24(sp)
 303              		.cfi_restore 1
 304 0160 03340101 		ld	s0,16(sp)
 305              		.cfi_restore 8
 306              		.cfi_def_cfa 2, 32
 307 0164 83348100 		ld	s1,8(sp)
 308              		.cfi_restore 9
 309              	.LVL20:
 310 0168 13010102 		addi	sp,sp,32
 311              		.cfi_def_cfa_offset 0
 312 016c 67800000 		jr	ra
 313              		.cfi_endproc
 314              	.LFE67:
 316              		.align	2
 317              		.globl	_Z16switchToUserModev
 319              	_Z16switchToUserModev:
 320              	.LFB53:
  19:src/syscall_cpp.cpp **** 
 321              		.loc 2 19 24 is_stmt 1
 322              		.cfi_startproc
 323 0170 130101FF 		addi	sp,sp,-16
 324              		.cfi_def_cfa_offset 16
 325 0174 23341100 		sd	ra,8(sp)
 326 0178 23308100 		sd	s0,0(sp)
 327              		.cfi_offset 1, -8
 328              		.cfi_offset 8, -16
 329 017c 13040101 		addi	s0,sp,16
 330              		.cfi_def_cfa 8, 0
  19:src/syscall_cpp.cpp **** 
 331              		.loc 2 19 26
  19:src/syscall_cpp.cpp **** 
 332              		.loc 2 19 36 is_stmt 0
 333 0180 97000000 		call	_Z10toUserModev@plt
 333      E7800000 
 334              	.LVL21:
  19:src/syscall_cpp.cpp **** 
GAS LISTING /tmp/ccvcL2pK.s 			page 9


 335              		.loc 2 19 39
 336 0188 83308100 		ld	ra,8(sp)
 337              		.cfi_restore 1
 338 018c 03340100 		ld	s0,0(sp)
 339              		.cfi_restore 8
 340              		.cfi_def_cfa 2, 16
 341 0190 13010101 		addi	sp,sp,16
 342              		.cfi_def_cfa_offset 0
 343 0194 67800000 		jr	ra
 344              		.cfi_endproc
 345              	.LFE53:
 347              		.align	2
 348              		.globl	_ZN6ThreadC2EPFvPvES0_
 350              	_ZN6ThreadC2EPFvPvES0_:
 351              	.LFB55:
  21:src/syscall_cpp.cpp ****     thread_create(&myHandle, body, arg);
 352              		.loc 2 21 1 is_stmt 1
 353              		.cfi_startproc
 354              	.LVL22:
 355 0198 130101FF 		addi	sp,sp,-16
 356              		.cfi_def_cfa_offset 16
 357 019c 23341100 		sd	ra,8(sp)
 358 01a0 23308100 		sd	s0,0(sp)
 359              		.cfi_offset 1, -8
 360              		.cfi_offset 8, -16
 361 01a4 13040101 		addi	s0,sp,16
 362              		.cfi_def_cfa 8, 0
 363              	.LBB9:
  21:src/syscall_cpp.cpp ****     thread_create(&myHandle, body, arg);
 364              		.loc 2 21 46 is_stmt 0
 365 01a8 97070000 		lla	a5,_ZTV6Thread+16
 365      93870700 
 366 01b0 2330F500 		sd	a5,0(a0)
  22:src/syscall_cpp.cpp ****     //myHandle = (thread_t)Scheduler::remove();
 367              		.loc 2 22 5 is_stmt 1
  22:src/syscall_cpp.cpp ****     //myHandle = (thread_t)Scheduler::remove();
 368              		.loc 2 22 18 is_stmt 0
 369 01b4 13058500 		addi	a0,a0,8
 370              	.LVL23:
 371 01b8 97000000 		call	_Z13thread_createPP7_threadPFvPvES2_@plt
 371      E7800000 
 372              	.LVL24:
 373              	.LBE9:
  24:src/syscall_cpp.cpp **** 
 374              		.loc 2 24 1
 375 01c0 83308100 		ld	ra,8(sp)
 376              		.cfi_restore 1
 377 01c4 03340100 		ld	s0,0(sp)
 378              		.cfi_restore 8
 379              		.cfi_def_cfa 2, 16
 380 01c8 13010101 		addi	sp,sp,16
 381              		.cfi_def_cfa_offset 0
 382 01cc 67800000 		jr	ra
 383              		.cfi_endproc
 384              	.LFE55:
 386              		.globl	_ZN6ThreadC1EPFvPvES0_
 387              		.set	_ZN6ThreadC1EPFvPvES0_,_ZN6ThreadC2EPFvPvES0_
GAS LISTING /tmp/ccvcL2pK.s 			page 10


 388              		.align	2
 389              		.globl	_ZN6ThreadC2Ev
 391              	_ZN6ThreadC2Ev:
 392              	.LFB58:
  26:src/syscall_cpp.cpp ****     new Thread(threadWrapper, this);
 393              		.loc 2 26 1 is_stmt 1
 394              		.cfi_startproc
 395              		.cfi_personality 0x9b,DW.ref.__gxx_personality_v0
 396              		.cfi_lsda 0x1b,.LLSDA58
 397              	.LVL25:
 398 01d0 130101FE 		addi	sp,sp,-32
 399              		.cfi_def_cfa_offset 32
 400 01d4 233C1100 		sd	ra,24(sp)
 401 01d8 23388100 		sd	s0,16(sp)
 402 01dc 23349100 		sd	s1,8(sp)
 403 01e0 23302101 		sd	s2,0(sp)
 404              		.cfi_offset 1, -8
 405              		.cfi_offset 8, -16
 406              		.cfi_offset 9, -24
 407              		.cfi_offset 18, -32
 408 01e4 13040102 		addi	s0,sp,32
 409              		.cfi_def_cfa 8, 0
 410 01e8 93040500 		mv	s1,a0
 411              	.LBB10:
  26:src/syscall_cpp.cpp ****     new Thread(threadWrapper, this);
 412              		.loc 2 26 16 is_stmt 0
 413 01ec 97070000 		lla	a5,_ZTV6Thread+16
 413      93870700 
 414 01f4 2330F500 		sd	a5,0(a0)
  27:src/syscall_cpp.cpp **** }
 415              		.loc 2 27 5 is_stmt 1
  27:src/syscall_cpp.cpp **** }
 416              		.loc 2 27 35 is_stmt 0
 417 01f8 13050002 		li	a0,32
 418              	.LVL26:
 419              	.LEHB0:
 420 01fc 97000000 		call	_Znwm
 420      E7800000 
 421              	.LVL27:
 422              	.LEHE0:
 423 0204 13090500 		mv	s2,a0
 424 0208 13860400 		mv	a2,s1
 425 020c 97050000 		lla	a1,_ZN6Thread13threadWrapperEPv
 425      93850500 
 426              	.LEHB1:
 427 0214 97000000 		call	_ZN6ThreadC1EPFvPvES0_
 427      E7800000 
 428              	.LVL28:
 429              	.LEHE1:
 430 021c 6F000002 		j	.L28
 431              	.L25:
 432 0220 93040500 		mv	s1,a0
 433              	.LVL29:
 434 0224 13050900 		mv	a0,s2
 435 0228 97000000 		call	_ZdlPv
 435      E7800000 
 436              	.LVL30:
GAS LISTING /tmp/ccvcL2pK.s 			page 11


 437 0230 13850400 		mv	a0,s1
 438              	.LEHB2:
 439 0234 97000000 		call	_Unwind_Resume@plt
 439      E7800000 
 440              	.LVL31:
 441              	.LEHE2:
 442              	.L28:
 443              	.LBE10:
  28:src/syscall_cpp.cpp **** 
 444              		.loc 2 28 1
 445 023c 83308101 		ld	ra,24(sp)
 446              		.cfi_restore 1
 447 0240 03340101 		ld	s0,16(sp)
 448              		.cfi_restore 8
 449              		.cfi_def_cfa 2, 32
 450 0244 83348100 		ld	s1,8(sp)
 451              		.cfi_restore 9
 452              	.LVL32:
 453 0248 03390100 		ld	s2,0(sp)
 454              		.cfi_restore 18
 455 024c 13010102 		addi	sp,sp,32
 456              		.cfi_def_cfa_offset 0
 457 0250 67800000 		jr	ra
 458              		.cfi_endproc
 459              	.LFE58:
 460              		.section	.gcc_except_table
 461              	.LLSDA58:
 462 0004 FF       		.byte	0xff
 463 0005 FF       		.byte	0xff
 464 0006 03       		.byte	0x3
 465 0007 27       		.byte	0x27
 466 0008 00000000 		.4byte	.LEHB0-.LFB58
 467 000c 00000000 		.4byte	.LEHE0-.LEHB0
 468 0010 00000000 		.4byte	0
 469 0014 00       		.byte	0
 470 0015 00000000 		.4byte	.LEHB1-.LFB58
 471 0019 00000000 		.4byte	.LEHE1-.LEHB1
 472 001d 00000000 		.4byte	.L25-.LFB58
 473 0021 00       		.byte	0
 474 0022 00000000 		.4byte	.LEHB2-.LFB58
 475 0026 00000000 		.4byte	.LEHE2-.LEHB2
 476 002a 00000000 		.4byte	0
 477 002e 00       		.byte	0
 478              		.text
 480              		.globl	_ZN6ThreadC1Ev
 481              		.set	_ZN6ThreadC1Ev,_ZN6ThreadC2Ev
 482              		.align	2
 483              		.globl	_ZN6Thread5startEv
 485              	_ZN6Thread5startEv:
 486              	.LFB61:
  34:src/syscall_cpp.cpp ****     Scheduler::put((PCB*)myHandle);
 487              		.loc 2 34 21 is_stmt 1
 488              		.cfi_startproc
 489              	.LVL33:
 490 0254 130101FF 		addi	sp,sp,-16
 491              		.cfi_def_cfa_offset 16
 492 0258 23341100 		sd	ra,8(sp)
GAS LISTING /tmp/ccvcL2pK.s 			page 12


 493 025c 23308100 		sd	s0,0(sp)
 494              		.cfi_offset 1, -8
 495              		.cfi_offset 8, -16
 496 0260 13040101 		addi	s0,sp,16
 497              		.cfi_def_cfa 8, 0
  35:src/syscall_cpp.cpp **** 
 498              		.loc 2 35 5
  35:src/syscall_cpp.cpp **** 
 499              		.loc 2 35 19 is_stmt 0
 500 0264 03358500 		ld	a0,8(a0)
 501              	.LVL34:
 502 0268 97000000 		call	_ZN9Scheduler3putEP3PCB@plt
 502      E7800000 
 503              	.LVL35:
  37:src/syscall_cpp.cpp **** }
 504              		.loc 2 37 5 is_stmt 1
  38:src/syscall_cpp.cpp **** 
 505              		.loc 2 38 1 is_stmt 0
 506 0270 13050000 		li	a0,0
 507 0274 83308100 		ld	ra,8(sp)
 508              		.cfi_restore 1
 509 0278 03340100 		ld	s0,0(sp)
 510              		.cfi_restore 8
 511              		.cfi_def_cfa 2, 16
 512 027c 13010101 		addi	sp,sp,16
 513              		.cfi_def_cfa_offset 0
 514 0280 67800000 		jr	ra
 515              		.cfi_endproc
 516              	.LFE61:
 518              		.align	2
 519              		.globl	_ZN6Thread4joinEv
 521              	_ZN6Thread4joinEv:
 522              	.LFB62:
  40:src/syscall_cpp.cpp ****     thread_join(myHandle);
 523              		.loc 2 40 21 is_stmt 1
 524              		.cfi_startproc
 525              	.LVL36:
 526 0284 130101FF 		addi	sp,sp,-16
 527              		.cfi_def_cfa_offset 16
 528 0288 23341100 		sd	ra,8(sp)
 529 028c 23308100 		sd	s0,0(sp)
 530              		.cfi_offset 1, -8
 531              		.cfi_offset 8, -16
 532 0290 13040101 		addi	s0,sp,16
 533              		.cfi_def_cfa 8, 0
  41:src/syscall_cpp.cpp **** }
 534              		.loc 2 41 5
  41:src/syscall_cpp.cpp **** }
 535              		.loc 2 41 16 is_stmt 0
 536 0294 03358500 		ld	a0,8(a0)
 537              	.LVL37:
 538 0298 97000000 		call	_Z11thread_joinP7_thread@plt
 538      E7800000 
 539              	.LVL38:
  42:src/syscall_cpp.cpp **** 
 540              		.loc 2 42 1
 541 02a0 83308100 		ld	ra,8(sp)
GAS LISTING /tmp/ccvcL2pK.s 			page 13


 542              		.cfi_restore 1
 543 02a4 03340100 		ld	s0,0(sp)
 544              		.cfi_restore 8
 545              		.cfi_def_cfa 2, 16
 546 02a8 13010101 		addi	sp,sp,16
 547              		.cfi_def_cfa_offset 0
 548 02ac 67800000 		jr	ra
 549              		.cfi_endproc
 550              	.LFE62:
 552              		.align	2
 553              		.globl	_ZN6Thread8dispatchEv
 555              	_ZN6Thread8dispatchEv:
 556              	.LFB63:
  44:src/syscall_cpp.cpp ****     thread_dispatch();
 557              		.loc 2 44 25 is_stmt 1
 558              		.cfi_startproc
 559 02b0 130101FF 		addi	sp,sp,-16
 560              		.cfi_def_cfa_offset 16
 561 02b4 23341100 		sd	ra,8(sp)
 562 02b8 23308100 		sd	s0,0(sp)
 563              		.cfi_offset 1, -8
 564              		.cfi_offset 8, -16
 565 02bc 13040101 		addi	s0,sp,16
 566              		.cfi_def_cfa 8, 0
  45:src/syscall_cpp.cpp **** }
 567              		.loc 2 45 5
  45:src/syscall_cpp.cpp **** }
 568              		.loc 2 45 20 is_stmt 0
 569 02c0 97000000 		call	_Z15thread_dispatchv@plt
 569      E7800000 
 570              	.LVL39:
  46:src/syscall_cpp.cpp **** 
 571              		.loc 2 46 1
 572 02c8 83308100 		ld	ra,8(sp)
 573              		.cfi_restore 1
 574 02cc 03340100 		ld	s0,0(sp)
 575              		.cfi_restore 8
 576              		.cfi_def_cfa 2, 16
 577 02d0 13010101 		addi	sp,sp,16
 578              		.cfi_def_cfa_offset 0
 579 02d4 67800000 		jr	ra
 580              		.cfi_endproc
 581              	.LFE63:
 583              		.weak	_ZTV6Thread
 584              		.section	.data.rel.ro.local._ZTV6Thread,"awG",@progbits,_ZTV6Thread,comdat
 585              		.align	3
 588              	_ZTV6Thread:
 589 0000 00000000 		.dword	0
 589      00000000 
 590 0008 00000000 		.dword	0
 590      00000000 
 591 0010 00000000 		.dword	_ZN6ThreadD1Ev
 591      00000000 
 592 0018 00000000 		.dword	_ZN6ThreadD0Ev
 592      00000000 
 593 0020 00000000 		.dword	_ZN6Thread3runEv
 593      00000000 
GAS LISTING /tmp/ccvcL2pK.s 			page 14


 594              		.text
 595              	.Letext0:
 596              		.file 4 "src/../h/../h/../lib/hw.h"
 597              		.file 5 "src/../h/Scheduler.hpp"
 598              		.file 6 "src/../h/syscall_c.hpp"
 3306              		.align	3
 3309              	DW.ref.__gxx_personality_v0:
 3310 0000 00000000 		.dword	__gxx_personality_v0
 3310      00000000 
 3311              		.ident	"GCC: (Ubuntu 9.4.0-1ubuntu1~20.04) 9.4.0"
 3312              		.section	.note.GNU-stack,"",@progbits
GAS LISTING /tmp/ccvcL2pK.s 			page 15


DEFINED SYMBOLS
                            *ABS*:0000000000000000 syscall_cpp.cpp
     /tmp/ccvcL2pK.s:10     .text._ZN6Thread3runEv:0000000000000000 _ZN6Thread3runEv
     /tmp/ccvcL2pK.s:14     .text._ZN6Thread3runEv:0000000000000000 .L0 
     /tmp/ccvcL2pK.s:16     .text._ZN6Thread3runEv:0000000000000000 .L0 
     /tmp/ccvcL2pK.s:17     .text._ZN6Thread3runEv:0000000000000004 .L0 
     /tmp/ccvcL2pK.s:19     .text._ZN6Thread3runEv:0000000000000008 .L0 
     /tmp/ccvcL2pK.s:21     .text._ZN6Thread3runEv:000000000000000c .L0 
     /tmp/ccvcL2pK.s:23     .text._ZN6Thread3runEv:000000000000000c .L0 
     /tmp/ccvcL2pK.s:24     .text._ZN6Thread3runEv:0000000000000010 .L0 
     /tmp/ccvcL2pK.s:25     .text._ZN6Thread3runEv:0000000000000010 .L0 
     /tmp/ccvcL2pK.s:27     .text._ZN6Thread3runEv:0000000000000014 .L0 
     /tmp/ccvcL2pK.s:29     .text._ZN6Thread3runEv:0000000000000018 .L0 
     /tmp/ccvcL2pK.s:36     .text:0000000000000000 _ZN6Thread13threadWrapperEPv
     /tmp/ccvcL2pK.s:40     .text:0000000000000000 .L0 
     /tmp/ccvcL2pK.s:42     .text:0000000000000000 .L0 
     /tmp/ccvcL2pK.s:43     .text:0000000000000004 .L0 
     /tmp/ccvcL2pK.s:46     .text:000000000000000c .L0 
     /tmp/ccvcL2pK.s:47     .text:000000000000000c .L0 
     /tmp/ccvcL2pK.s:49     .text:0000000000000010 .L0 
     /tmp/ccvcL2pK.s:51     .text:0000000000000010 .L0 
     /tmp/ccvcL2pK.s:52     .text:0000000000000010 .L0 
     /tmp/ccvcL2pK.s:55     .text:0000000000000018 .L0 
     /tmp/ccvcL2pK.s:58     .text:000000000000001c .L0 
     /tmp/ccvcL2pK.s:59     .text:0000000000000020 .L0 
     /tmp/ccvcL2pK.s:61     .text:0000000000000024 .L0 
     /tmp/ccvcL2pK.s:62     .text:0000000000000024 .L0 
     /tmp/ccvcL2pK.s:64     .text:0000000000000028 .L0 
     /tmp/ccvcL2pK.s:66     .text:000000000000002c .L0 
     /tmp/ccvcL2pK.s:72     .text:000000000000002c _Znwm
     /tmp/ccvcL2pK.s:75     .text:000000000000002c .L0 
     /tmp/ccvcL2pK.s:77     .text:000000000000002c .L0 
     /tmp/ccvcL2pK.s:78     .text:0000000000000030 .L0 
     /tmp/ccvcL2pK.s:81     .text:0000000000000038 .L0 
     /tmp/ccvcL2pK.s:82     .text:0000000000000038 .L0 
     /tmp/ccvcL2pK.s:84     .text:000000000000003c .L0 
     /tmp/ccvcL2pK.s:86     .text:000000000000003c .L0 
     /tmp/ccvcL2pK.s:87     .text:000000000000003c .L0 
     /tmp/ccvcL2pK.s:90     .text:0000000000000044 .L0 
     /tmp/ccvcL2pK.s:91     .text:0000000000000048 .L0 
     /tmp/ccvcL2pK.s:93     .text:000000000000004c .L0 
     /tmp/ccvcL2pK.s:94     .text:000000000000004c .L0 
     /tmp/ccvcL2pK.s:96     .text:0000000000000050 .L0 
     /tmp/ccvcL2pK.s:98     .text:0000000000000054 .L0 
     /tmp/ccvcL2pK.s:104    .text:0000000000000054 _Znam
     /tmp/ccvcL2pK.s:107    .text:0000000000000054 .L0 
     /tmp/ccvcL2pK.s:109    .text:0000000000000054 .L0 
     /tmp/ccvcL2pK.s:110    .text:0000000000000058 .L0 
     /tmp/ccvcL2pK.s:113    .text:0000000000000060 .L0 
     /tmp/ccvcL2pK.s:114    .text:0000000000000060 .L0 
     /tmp/ccvcL2pK.s:116    .text:0000000000000064 .L0 
     /tmp/ccvcL2pK.s:118    .text:0000000000000064 .L0 
     /tmp/ccvcL2pK.s:119    .text:0000000000000064 .L0 
     /tmp/ccvcL2pK.s:122    .text:000000000000006c .L0 
     /tmp/ccvcL2pK.s:123    .text:0000000000000070 .L0 
     /tmp/ccvcL2pK.s:125    .text:0000000000000074 .L0 
     /tmp/ccvcL2pK.s:126    .text:0000000000000074 .L0 
GAS LISTING /tmp/ccvcL2pK.s 			page 16


     /tmp/ccvcL2pK.s:128    .text:0000000000000078 .L0 
     /tmp/ccvcL2pK.s:130    .text:000000000000007c .L0 
     /tmp/ccvcL2pK.s:136    .text:000000000000007c _ZdlPv
     /tmp/ccvcL2pK.s:139    .text:000000000000007c .L0 
     /tmp/ccvcL2pK.s:141    .text:000000000000007c .L0 
     /tmp/ccvcL2pK.s:142    .text:0000000000000080 .L0 
     /tmp/ccvcL2pK.s:145    .text:0000000000000088 .L0 
     /tmp/ccvcL2pK.s:146    .text:0000000000000088 .L0 
     /tmp/ccvcL2pK.s:148    .text:000000000000008c .L0 
     /tmp/ccvcL2pK.s:150    .text:000000000000008c .L0 
     /tmp/ccvcL2pK.s:151    .text:000000000000008c .L0 
     /tmp/ccvcL2pK.s:154    .text:0000000000000094 .L0 
     /tmp/ccvcL2pK.s:155    .text:0000000000000098 .L0 
     /tmp/ccvcL2pK.s:157    .text:000000000000009c .L0 
     /tmp/ccvcL2pK.s:158    .text:000000000000009c .L0 
     /tmp/ccvcL2pK.s:160    .text:00000000000000a0 .L0 
     /tmp/ccvcL2pK.s:162    .text:00000000000000a4 .L0 
     /tmp/ccvcL2pK.s:168    .text:00000000000000a4 _ZdaPv
     /tmp/ccvcL2pK.s:171    .text:00000000000000a4 .L0 
     /tmp/ccvcL2pK.s:173    .text:00000000000000a4 .L0 
     /tmp/ccvcL2pK.s:174    .text:00000000000000a8 .L0 
     /tmp/ccvcL2pK.s:177    .text:00000000000000b0 .L0 
     /tmp/ccvcL2pK.s:178    .text:00000000000000b0 .L0 
     /tmp/ccvcL2pK.s:180    .text:00000000000000b4 .L0 
     /tmp/ccvcL2pK.s:182    .text:00000000000000b4 .L0 
     /tmp/ccvcL2pK.s:183    .text:00000000000000b4 .L0 
     /tmp/ccvcL2pK.s:186    .text:00000000000000bc .L0 
     /tmp/ccvcL2pK.s:187    .text:00000000000000c0 .L0 
     /tmp/ccvcL2pK.s:189    .text:00000000000000c4 .L0 
     /tmp/ccvcL2pK.s:190    .text:00000000000000c4 .L0 
     /tmp/ccvcL2pK.s:192    .text:00000000000000c8 .L0 
     /tmp/ccvcL2pK.s:194    .text:00000000000000cc .L0 
     /tmp/ccvcL2pK.s:200    .text:00000000000000cc _ZN6ThreadD2Ev
     /tmp/ccvcL2pK.s:203    .text:00000000000000cc .L0 
     /tmp/ccvcL2pK.s:3309   .data.rel.local.DW.ref.__gxx_personality_v0:0000000000000000 DW.ref.__gxx_personality_v0
     /tmp/ccvcL2pK.s:207    .text:00000000000000cc .L0 
     /tmp/ccvcL2pK.s:208    .text:00000000000000d0 .L0 
     /tmp/ccvcL2pK.s:212    .text:00000000000000dc .L0 
     /tmp/ccvcL2pK.s:213    .text:00000000000000dc .L0 
     /tmp/ccvcL2pK.s:214    .text:00000000000000dc .L0 
     /tmp/ccvcL2pK.s:216    .text:00000000000000e0 .L0 
     /tmp/ccvcL2pK.s:588    .data.rel.ro.local._ZTV6Thread:0000000000000000 _ZTV6Thread
     /tmp/ccvcL2pK.s:220    .text:00000000000000e4 .L0 
     /tmp/ccvcL2pK.s:223    .text:00000000000000f0 .L0 
     /tmp/ccvcL2pK.s:224    .text:00000000000000f0 .L0 
     /tmp/ccvcL2pK.s:227    .text:00000000000000f8 .L0 
     /tmp/ccvcL2pK.s:228    .text:00000000000000f8 .L0 
     /tmp/ccvcL2pK.s:231    .text:00000000000000fc .L0 
     /tmp/ccvcL2pK.s:237    .text:0000000000000100 .L0 
     /tmp/ccvcL2pK.s:238    .text:0000000000000100 .L0 
     /tmp/ccvcL2pK.s:240    .text:0000000000000104 .L0 
     /tmp/ccvcL2pK.s:242    .text:0000000000000108 .L0 
     /tmp/ccvcL2pK.s:248    .text:0000000000000110 .L0 
     /tmp/ccvcL2pK.s:254    .text:000000000000011c .L0 
     /tmp/ccvcL2pK.s:255    .text:0000000000000120 .L0 
     /tmp/ccvcL2pK.s:257    .text:0000000000000124 .L0 
     /tmp/ccvcL2pK.s:258    .text:0000000000000124 .L0 
GAS LISTING /tmp/ccvcL2pK.s 			page 17


     /tmp/ccvcL2pK.s:260    .text:0000000000000128 .L0 
     /tmp/ccvcL2pK.s:262    .text:000000000000012c .L0 
     /tmp/ccvcL2pK.s:264    .text:0000000000000130 .L0 
     /tmp/ccvcL2pK.s:200    .text:00000000000000cc _ZN6ThreadD1Ev
     /tmp/ccvcL2pK.s:280    .text:0000000000000130 _ZN6ThreadD0Ev
     /tmp/ccvcL2pK.s:283    .text:0000000000000130 .L0 
     /tmp/ccvcL2pK.s:285    .text:0000000000000130 .L0 
     /tmp/ccvcL2pK.s:286    .text:0000000000000134 .L0 
     /tmp/ccvcL2pK.s:290    .text:0000000000000140 .L0 
     /tmp/ccvcL2pK.s:291    .text:0000000000000140 .L0 
     /tmp/ccvcL2pK.s:292    .text:0000000000000140 .L0 
     /tmp/ccvcL2pK.s:294    .text:0000000000000144 .L0 
     /tmp/ccvcL2pK.s:297    .text:0000000000000148 .L0 
     /tmp/ccvcL2pK.s:303    .text:0000000000000160 .L0 
     /tmp/ccvcL2pK.s:305    .text:0000000000000164 .L0 
     /tmp/ccvcL2pK.s:306    .text:0000000000000164 .L0 
     /tmp/ccvcL2pK.s:308    .text:0000000000000168 .L0 
     /tmp/ccvcL2pK.s:311    .text:000000000000016c .L0 
     /tmp/ccvcL2pK.s:313    .text:0000000000000170 .L0 
     /tmp/ccvcL2pK.s:319    .text:0000000000000170 _Z16switchToUserModev
     /tmp/ccvcL2pK.s:322    .text:0000000000000170 .L0 
     /tmp/ccvcL2pK.s:323    .text:0000000000000170 .L0 
     /tmp/ccvcL2pK.s:324    .text:0000000000000174 .L0 
     /tmp/ccvcL2pK.s:327    .text:000000000000017c .L0 
     /tmp/ccvcL2pK.s:328    .text:000000000000017c .L0 
     /tmp/ccvcL2pK.s:330    .text:0000000000000180 .L0 
     /tmp/ccvcL2pK.s:332    .text:0000000000000180 .L0 
     /tmp/ccvcL2pK.s:333    .text:0000000000000180 .L0 
     /tmp/ccvcL2pK.s:336    .text:0000000000000188 .L0 
     /tmp/ccvcL2pK.s:337    .text:000000000000018c .L0 
     /tmp/ccvcL2pK.s:339    .text:0000000000000190 .L0 
     /tmp/ccvcL2pK.s:340    .text:0000000000000190 .L0 
     /tmp/ccvcL2pK.s:342    .text:0000000000000194 .L0 
     /tmp/ccvcL2pK.s:344    .text:0000000000000198 .L0 
     /tmp/ccvcL2pK.s:350    .text:0000000000000198 _ZN6ThreadC2EPFvPvES0_
     /tmp/ccvcL2pK.s:353    .text:0000000000000198 .L0 
     /tmp/ccvcL2pK.s:355    .text:0000000000000198 .L0 
     /tmp/ccvcL2pK.s:356    .text:000000000000019c .L0 
     /tmp/ccvcL2pK.s:359    .text:00000000000001a4 .L0 
     /tmp/ccvcL2pK.s:360    .text:00000000000001a4 .L0 
     /tmp/ccvcL2pK.s:362    .text:00000000000001a8 .L0 
     /tmp/ccvcL2pK.s:365    .text:00000000000001a8 .L0 
     /tmp/ccvcL2pK.s:368    .text:00000000000001b4 .L0 
     /tmp/ccvcL2pK.s:369    .text:00000000000001b4 .L0 
     /tmp/ccvcL2pK.s:375    .text:00000000000001c0 .L0 
     /tmp/ccvcL2pK.s:376    .text:00000000000001c4 .L0 
     /tmp/ccvcL2pK.s:378    .text:00000000000001c8 .L0 
     /tmp/ccvcL2pK.s:379    .text:00000000000001c8 .L0 
     /tmp/ccvcL2pK.s:381    .text:00000000000001cc .L0 
     /tmp/ccvcL2pK.s:383    .text:00000000000001d0 .L0 
     /tmp/ccvcL2pK.s:350    .text:0000000000000198 _ZN6ThreadC1EPFvPvES0_
     /tmp/ccvcL2pK.s:391    .text:00000000000001d0 _ZN6ThreadC2Ev
     /tmp/ccvcL2pK.s:394    .text:00000000000001d0 .L0 
     /tmp/ccvcL2pK.s:398    .text:00000000000001d0 .L0 
     /tmp/ccvcL2pK.s:399    .text:00000000000001d4 .L0 
     /tmp/ccvcL2pK.s:404    .text:00000000000001e4 .L0 
     /tmp/ccvcL2pK.s:405    .text:00000000000001e4 .L0 
GAS LISTING /tmp/ccvcL2pK.s 			page 18


     /tmp/ccvcL2pK.s:406    .text:00000000000001e4 .L0 
     /tmp/ccvcL2pK.s:407    .text:00000000000001e4 .L0 
     /tmp/ccvcL2pK.s:409    .text:00000000000001e8 .L0 
     /tmp/ccvcL2pK.s:413    .text:00000000000001ec .L0 
     /tmp/ccvcL2pK.s:416    .text:00000000000001f8 .L0 
     /tmp/ccvcL2pK.s:417    .text:00000000000001f8 .L0 
     /tmp/ccvcL2pK.s:445    .text:000000000000023c .L0 
     /tmp/ccvcL2pK.s:446    .text:0000000000000240 .L0 
     /tmp/ccvcL2pK.s:448    .text:0000000000000244 .L0 
     /tmp/ccvcL2pK.s:449    .text:0000000000000244 .L0 
     /tmp/ccvcL2pK.s:451    .text:0000000000000248 .L0 
     /tmp/ccvcL2pK.s:454    .text:000000000000024c .L0 
     /tmp/ccvcL2pK.s:456    .text:0000000000000250 .L0 
     /tmp/ccvcL2pK.s:458    .text:0000000000000254 .L0 
     /tmp/ccvcL2pK.s:391    .text:00000000000001d0 _ZN6ThreadC1Ev
     /tmp/ccvcL2pK.s:485    .text:0000000000000254 _ZN6Thread5startEv
     /tmp/ccvcL2pK.s:488    .text:0000000000000254 .L0 
     /tmp/ccvcL2pK.s:490    .text:0000000000000254 .L0 
     /tmp/ccvcL2pK.s:491    .text:0000000000000258 .L0 
     /tmp/ccvcL2pK.s:494    .text:0000000000000260 .L0 
     /tmp/ccvcL2pK.s:495    .text:0000000000000260 .L0 
     /tmp/ccvcL2pK.s:497    .text:0000000000000264 .L0 
     /tmp/ccvcL2pK.s:499    .text:0000000000000264 .L0 
     /tmp/ccvcL2pK.s:500    .text:0000000000000264 .L0 
     /tmp/ccvcL2pK.s:505    .text:0000000000000270 .L0 
     /tmp/ccvcL2pK.s:506    .text:0000000000000270 .L0 
     /tmp/ccvcL2pK.s:508    .text:0000000000000278 .L0 
     /tmp/ccvcL2pK.s:510    .text:000000000000027c .L0 
     /tmp/ccvcL2pK.s:511    .text:000000000000027c .L0 
     /tmp/ccvcL2pK.s:513    .text:0000000000000280 .L0 
     /tmp/ccvcL2pK.s:515    .text:0000000000000284 .L0 
     /tmp/ccvcL2pK.s:521    .text:0000000000000284 _ZN6Thread4joinEv
     /tmp/ccvcL2pK.s:524    .text:0000000000000284 .L0 
     /tmp/ccvcL2pK.s:526    .text:0000000000000284 .L0 
     /tmp/ccvcL2pK.s:527    .text:0000000000000288 .L0 
     /tmp/ccvcL2pK.s:530    .text:0000000000000290 .L0 
     /tmp/ccvcL2pK.s:531    .text:0000000000000290 .L0 
     /tmp/ccvcL2pK.s:533    .text:0000000000000294 .L0 
     /tmp/ccvcL2pK.s:535    .text:0000000000000294 .L0 
     /tmp/ccvcL2pK.s:536    .text:0000000000000294 .L0 
     /tmp/ccvcL2pK.s:541    .text:00000000000002a0 .L0 
     /tmp/ccvcL2pK.s:542    .text:00000000000002a4 .L0 
     /tmp/ccvcL2pK.s:544    .text:00000000000002a8 .L0 
     /tmp/ccvcL2pK.s:545    .text:00000000000002a8 .L0 
     /tmp/ccvcL2pK.s:547    .text:00000000000002ac .L0 
     /tmp/ccvcL2pK.s:549    .text:00000000000002b0 .L0 
     /tmp/ccvcL2pK.s:555    .text:00000000000002b0 _ZN6Thread8dispatchEv
     /tmp/ccvcL2pK.s:558    .text:00000000000002b0 .L0 
     /tmp/ccvcL2pK.s:559    .text:00000000000002b0 .L0 
     /tmp/ccvcL2pK.s:560    .text:00000000000002b4 .L0 
     /tmp/ccvcL2pK.s:563    .text:00000000000002bc .L0 
     /tmp/ccvcL2pK.s:564    .text:00000000000002bc .L0 
     /tmp/ccvcL2pK.s:566    .text:00000000000002c0 .L0 
     /tmp/ccvcL2pK.s:568    .text:00000000000002c0 .L0 
     /tmp/ccvcL2pK.s:569    .text:00000000000002c0 .L0 
     /tmp/ccvcL2pK.s:572    .text:00000000000002c8 .L0 
     /tmp/ccvcL2pK.s:573    .text:00000000000002cc .L0 
GAS LISTING /tmp/ccvcL2pK.s 			page 19


     /tmp/ccvcL2pK.s:575    .text:00000000000002d0 .L0 
     /tmp/ccvcL2pK.s:576    .text:00000000000002d0 .L0 
     /tmp/ccvcL2pK.s:578    .text:00000000000002d4 .L0 
     /tmp/ccvcL2pK.s:580    .text:00000000000002d8 .L0 
     /tmp/ccvcL2pK.s:32     .text._ZN6Thread3runEv:0000000000000018 .L0 
     /tmp/ccvcL2pK.s:599    .text:00000000000002d8 .L0 
     /tmp/ccvcL2pK.s:220    .text:00000000000000e4 .L0 
     /tmp/ccvcL2pK.s:365    .text:00000000000001a8 .L0 
     /tmp/ccvcL2pK.s:413    .text:00000000000001ec .L0 
     /tmp/ccvcL2pK.s:425    .text:000000000000020c .L0 
     /tmp/ccvcL2pK.s:251    .text:000000000000011c .L13
     /tmp/ccvcL2pK.s:244    .text:0000000000000110 .L15
     /tmp/ccvcL2pK.s:442    .text:000000000000023c .L28
     /tmp/ccvcL2pK.s:419    .text:00000000000001fc .LEHB0
     /tmp/ccvcL2pK.s:392    .text:00000000000001d0 .LFB58
     /tmp/ccvcL2pK.s:422    .text:0000000000000204 .LEHE0
     /tmp/ccvcL2pK.s:426    .text:0000000000000214 .LEHB1
     /tmp/ccvcL2pK.s:429    .text:000000000000021c .LEHE1
     /tmp/ccvcL2pK.s:431    .text:0000000000000220 .L25
     /tmp/ccvcL2pK.s:438    .text:0000000000000234 .LEHB2
     /tmp/ccvcL2pK.s:441    .text:000000000000023c .LEHE2
     /tmp/ccvcL2pK.s:1711   .debug_abbrev:0000000000000000 .Ldebug_abbrev0
     /tmp/ccvcL2pK.s:3267   .debug_str:00000000000004f6 .LASF88
     /tmp/ccvcL2pK.s:3175   .debug_str:0000000000000267 .LASF89
     /tmp/ccvcL2pK.s:3273   .debug_str:00000000000005e1 .LASF90
     /tmp/ccvcL2pK.s:3071   .debug_ranges:0000000000000000 .Ldebug_ranges0
     /tmp/ccvcL2pK.s:3079   .debug_line:0000000000000000 .Ldebug_line0
     /tmp/ccvcL2pK.s:3169   .debug_str:0000000000000246 .LASF0
     /tmp/ccvcL2pK.s:3183   .debug_str:00000000000002a5 .LASF1
     /tmp/ccvcL2pK.s:3223   .debug_str:00000000000003d1 .LASF2
     /tmp/ccvcL2pK.s:3231   .debug_str:0000000000000406 .LASF4
     /tmp/ccvcL2pK.s:3177   .debug_str:000000000000027b .LASF3
     /tmp/ccvcL2pK.s:3089   .debug_str:0000000000000034 .LASF5
     /tmp/ccvcL2pK.s:3209   .debug_str:000000000000035c .LASF6
     /tmp/ccvcL2pK.s:3179   .debug_str:000000000000028d .LASF7
     /tmp/ccvcL2pK.s:3155   .debug_str:00000000000001e2 .LASF8
     /tmp/ccvcL2pK.s:3159   .debug_str:000000000000020a .LASF9
     /tmp/ccvcL2pK.s:3111   .debug_str:00000000000000dd .LASF10
     /tmp/ccvcL2pK.s:3149   .debug_str:00000000000001c4 .LASF11
     /tmp/ccvcL2pK.s:3119   .debug_str:0000000000000113 .LASF12
     /tmp/ccvcL2pK.s:3109   .debug_str:00000000000000cd .LASF13
     /tmp/ccvcL2pK.s:3253   .debug_str:00000000000004b1 .LASF14
     /tmp/ccvcL2pK.s:3139   .debug_str:0000000000000180 .LASF15
     /tmp/ccvcL2pK.s:3245   .debug_str:0000000000000460 .LASF16
     /tmp/ccvcL2pK.s:3153   .debug_str:00000000000001d8 .LASF18
     /tmp/ccvcL2pK.s:3117   .debug_str:0000000000000108 .LASF30
     /tmp/ccvcL2pK.s:3295   .debug_str:000000000000068d .LASF91
     /tmp/ccvcL2pK.s:3091   .debug_str:000000000000003b .LASF92
     /tmp/ccvcL2pK.s:3081   .debug_str:0000000000000000 .LASF17
     /tmp/ccvcL2pK.s:3235   .debug_str:0000000000000423 .LASF28
     /tmp/ccvcL2pK.s:3107   .debug_str:00000000000000c3 .LASF40
     /tmp/ccvcL2pK.s:3257   .debug_str:00000000000004cf .LASF93
     /tmp/ccvcL2pK.s:3263   .debug_str:00000000000004e8 .LASF94
     /tmp/ccvcL2pK.s:3105   .debug_str:00000000000000bd .LASF19
     /tmp/ccvcL2pK.s:3237   .debug_str:000000000000043a .LASF20
     /tmp/ccvcL2pK.s:3113   .debug_str:00000000000000ec .LASF21
     /tmp/ccvcL2pK.s:3099   .debug_str:0000000000000096 .LASF22
GAS LISTING /tmp/ccvcL2pK.s 			page 20


     /tmp/ccvcL2pK.s:3181   .debug_str:00000000000002a0 .LASF23
     /tmp/ccvcL2pK.s:3297   .debug_str:00000000000006a1 .LASF25
     /tmp/ccvcL2pK.s:3259   .debug_str:00000000000004d7 .LASF45
     /tmp/ccvcL2pK.s:3285   .debug_str:0000000000000633 .LASF46
     /tmp/ccvcL2pK.s:3229   .debug_str:00000000000003fd .LASF24
     /tmp/ccvcL2pK.s:3249   .debug_str:0000000000000487 .LASF26
     /tmp/ccvcL2pK.s:3129   .debug_str:0000000000000147 .LASF50
     /tmp/ccvcL2pK.s:3093   .debug_str:0000000000000053 .LASF51
     /tmp/ccvcL2pK.s:3241   .debug_str:0000000000000448 .LASF27
     /tmp/ccvcL2pK.s:3227   .debug_str:00000000000003ee .LASF29
     /tmp/ccvcL2pK.s:3265   .debug_str:00000000000004ee .LASF95
     /tmp/ccvcL2pK.s:3123   .debug_str:0000000000000128 .LASF42
     /tmp/ccvcL2pK.s:3095   .debug_str:0000000000000066 .LASF96
     /tmp/ccvcL2pK.s:3279   .debug_str:0000000000000611 .LASF97
     /tmp/ccvcL2pK.s:3255   .debug_str:00000000000004bd .LASF98
     /tmp/ccvcL2pK.s:3233   .debug_str:000000000000040d .LASF99
     /tmp/ccvcL2pK.s:3203   .debug_str:0000000000000336 .LASF100
     /tmp/ccvcL2pK.s:3127   .debug_str:0000000000000142 .LASF31
     /tmp/ccvcL2pK.s:3239   .debug_str:0000000000000442 .LASF32
     /tmp/ccvcL2pK.s:3277   .debug_str:000000000000060c .LASF33
     /tmp/ccvcL2pK.s:3275   .debug_str:0000000000000604 .LASF34
     /tmp/ccvcL2pK.s:3133   .debug_str:0000000000000169 .LASF35
     /tmp/ccvcL2pK.s:3293   .debug_str:0000000000000687 .LASF36
     /tmp/ccvcL2pK.s:3269   .debug_str:00000000000005ba .LASF101
     /tmp/ccvcL2pK.s:3189   .debug_str:00000000000002ec .LASF37
     /tmp/ccvcL2pK.s:3135   .debug_str:000000000000016f .LASF38
     /tmp/ccvcL2pK.s:3281   .debug_str:0000000000000619 .LASF39
     /tmp/ccvcL2pK.s:3097   .debug_str:000000000000008e .LASF41
     /tmp/ccvcL2pK.s:3163   .debug_str:0000000000000226 .LASF43
     /tmp/ccvcL2pK.s:3115   .debug_str:00000000000000f6 .LASF102
     /tmp/ccvcL2pK.s:3221   .debug_str:00000000000003c4 .LASF103
     /tmp/ccvcL2pK.s:3301   .debug_str:00000000000006ba .LASF44
     /tmp/ccvcL2pK.s:3137   .debug_str:0000000000000178 .LASF67
     /tmp/ccvcL2pK.s:3145   .debug_str:00000000000001af .LASF69
     /tmp/ccvcL2pK.s:3085   .debug_str:0000000000000017 .LASF47
     /tmp/ccvcL2pK.s:3171   .debug_str:0000000000000253 .LASF48
     /tmp/ccvcL2pK.s:3211   .debug_str:000000000000036f .LASF49
     /tmp/ccvcL2pK.s:3205   .debug_str:000000000000033b .LASF52
     /tmp/ccvcL2pK.s:3173   .debug_str:0000000000000258 .LASF53
     /tmp/ccvcL2pK.s:3289   .debug_str:0000000000000667 .LASF104
     /tmp/ccvcL2pK.s:3141   .debug_str:0000000000000196 .LASF54
     /tmp/ccvcL2pK.s:3101   .debug_str:000000000000009f .LASF105
     /tmp/ccvcL2pK.s:3287   .debug_str:000000000000064a .LASF106
     /tmp/ccvcL2pK.s:3167   .debug_str:0000000000000236 .LASF107
     /tmp/ccvcL2pK.s:3151   .debug_str:00000000000001d3 .LASF55
     /tmp/ccvcL2pK.s:3087   .debug_str:000000000000002a .LASF56
     /tmp/ccvcL2pK.s:3185   .debug_str:00000000000002b8 .LASF57
     /tmp/ccvcL2pK.s:281    .text:0000000000000130 .LFB67
     /tmp/ccvcL2pK.s:314    .text:0000000000000170 .LFE67
     /tmp/ccvcL2pK.s:2838   .debug_loc:0000000000000000 .LLST7
     /tmp/ccvcL2pK.s:298    .text:0000000000000150 .LVL18
     /tmp/ccvcL2pK.s:301    .text:000000000000015c .LVL19
     /tmp/ccvcL2pK.s:3213   .debug_str:0000000000000381 .LASF58
     /tmp/ccvcL2pK.s:201    .text:00000000000000cc .LFB65
     /tmp/ccvcL2pK.s:265    .text:0000000000000130 .LFE65
     /tmp/ccvcL2pK.s:2856   .debug_loc:000000000000004c .LLST5
     /tmp/ccvcL2pK.s:233    .text:0000000000000100 .LBB7
GAS LISTING /tmp/ccvcL2pK.s 			page 21


     /tmp/ccvcL2pK.s:246    .text:0000000000000110 .LBE7
     /tmp/ccvcL2pK.s:2874   .debug_loc:0000000000000098 .LLST6
     /tmp/ccvcL2pK.s:243    .text:0000000000000110 .LVL15
     /tmp/ccvcL2pK.s:225    .text:00000000000000f8 .LVL12
     /tmp/ccvcL2pK.s:250    .text:000000000000011c .LVL16
     /tmp/ccvcL2pK.s:556    .text:00000000000002b0 .LFB63
     /tmp/ccvcL2pK.s:581    .text:00000000000002d8 .LFE63
     /tmp/ccvcL2pK.s:570    .text:00000000000002c8 .LVL39
     /tmp/ccvcL2pK.s:522    .text:0000000000000284 .LFB62
     /tmp/ccvcL2pK.s:550    .text:00000000000002b0 .LFE62
     /tmp/ccvcL2pK.s:2881   .debug_loc:00000000000000bb .LLST13
     /tmp/ccvcL2pK.s:539    .text:00000000000002a0 .LVL38
     /tmp/ccvcL2pK.s:486    .text:0000000000000254 .LFB61
     /tmp/ccvcL2pK.s:516    .text:0000000000000284 .LFE61
     /tmp/ccvcL2pK.s:2895   .debug_loc:00000000000000f4 .LLST12
     /tmp/ccvcL2pK.s:503    .text:0000000000000270 .LVL35
     /tmp/ccvcL2pK.s:37     .text:0000000000000000 .LFB60
     /tmp/ccvcL2pK.s:67     .text:000000000000002c .LFE60
     /tmp/ccvcL2pK.s:2909   .debug_loc:000000000000012d .LLST0
     /tmp/ccvcL2pK.s:56     .text:000000000000001c .LVL2
     /tmp/ccvcL2pK.s:3225   .debug_str:00000000000003df .LASF59
     /tmp/ccvcL2pK.s:459    .text:0000000000000254 .LFE58
     /tmp/ccvcL2pK.s:2923   .debug_loc:0000000000000166 .LLST11
     /tmp/ccvcL2pK.s:421    .text:0000000000000204 .LVL27
     /tmp/ccvcL2pK.s:428    .text:000000000000021c .LVL28
     /tmp/ccvcL2pK.s:436    .text:0000000000000230 .LVL30
     /tmp/ccvcL2pK.s:440    .text:000000000000023c .LVL31
     /tmp/ccvcL2pK.s:3271   .debug_str:00000000000005ca .LASF60
     /tmp/ccvcL2pK.s:351    .text:0000000000000198 .LFB55
     /tmp/ccvcL2pK.s:384    .text:00000000000001d0 .LFE55
     /tmp/ccvcL2pK.s:2952   .debug_loc:00000000000001db .LLST8
     /tmp/ccvcL2pK.s:2972   .debug_loc:0000000000000229 .LLST9
     /tmp/ccvcL2pK.s:2986   .debug_loc:0000000000000262 .LLST10
     /tmp/ccvcL2pK.s:372    .text:00000000000001c0 .LVL24
     /tmp/ccvcL2pK.s:3283   .debug_str:0000000000000622 .LASF61
     /tmp/ccvcL2pK.s:3215   .debug_str:0000000000000390 .LASF62
     /tmp/ccvcL2pK.s:320    .text:0000000000000170 .LFB53
     /tmp/ccvcL2pK.s:345    .text:0000000000000198 .LFE53
     /tmp/ccvcL2pK.s:334    .text:0000000000000188 .LVL21
     /tmp/ccvcL2pK.s:3243   .debug_str:000000000000044d .LASF63
     /tmp/ccvcL2pK.s:3199   .debug_str:0000000000000328 .LASF64
     /tmp/ccvcL2pK.s:169    .text:00000000000000a4 .LFB52
     /tmp/ccvcL2pK.s:195    .text:00000000000000cc .LFE52
     /tmp/ccvcL2pK.s:3000   .debug_loc:000000000000029b .LLST4
     /tmp/ccvcL2pK.s:184    .text:00000000000000bc .LVL10
     /tmp/ccvcL2pK.s:3083   .debug_str:0000000000000007 .LASF65
     /tmp/ccvcL2pK.s:3201   .debug_str:000000000000032f .LASF66
     /tmp/ccvcL2pK.s:137    .text:000000000000007c .LFB51
     /tmp/ccvcL2pK.s:163    .text:00000000000000a4 .LFE51
     /tmp/ccvcL2pK.s:3014   .debug_loc:00000000000002d4 .LLST3
     /tmp/ccvcL2pK.s:152    .text:0000000000000094 .LVL8
     /tmp/ccvcL2pK.s:3103   .debug_str:00000000000000ad .LASF68
     /tmp/ccvcL2pK.s:3261   .debug_str:00000000000004e2 .LASF70
     /tmp/ccvcL2pK.s:105    .text:0000000000000054 .LFB50
     /tmp/ccvcL2pK.s:131    .text:000000000000007c .LFE50
     /tmp/ccvcL2pK.s:3121   .debug_str:0000000000000123 .LASF71
     /tmp/ccvcL2pK.s:3028   .debug_loc:000000000000030d .LLST2
GAS LISTING /tmp/ccvcL2pK.s 			page 22


     /tmp/ccvcL2pK.s:120    .text:000000000000006c .LVL6
     /tmp/ccvcL2pK.s:3299   .debug_str:00000000000006ad .LASF72
     /tmp/ccvcL2pK.s:3147   .debug_str:00000000000001be .LASF73
     /tmp/ccvcL2pK.s:73     .text:000000000000002c .LFB49
     /tmp/ccvcL2pK.s:99     .text:0000000000000054 .LFE49
     /tmp/ccvcL2pK.s:3042   .debug_loc:0000000000000346 .LLST1
     /tmp/ccvcL2pK.s:88     .text:0000000000000044 .LVL4
     /tmp/ccvcL2pK.s:11     .text._ZN6Thread3runEv:0000000000000000 .LFB48
     /tmp/ccvcL2pK.s:30     .text._ZN6Thread3runEv:0000000000000018 .LFE48
     /tmp/ccvcL2pK.s:3125   .debug_str:0000000000000136 .LASF108
     /tmp/ccvcL2pK.s:3247   .debug_str:0000000000000476 .LASF74
     /tmp/ccvcL2pK.s:3191   .debug_str:00000000000002f1 .LASF76
     /tmp/ccvcL2pK.s:3195   .debug_str:0000000000000307 .LASF75
     /tmp/ccvcL2pK.s:3217   .debug_str:00000000000003a6 .LASF77
     /tmp/ccvcL2pK.s:3131   .debug_str:0000000000000150 .LASF78
     /tmp/ccvcL2pK.s:3197   .debug_str:000000000000031c .LASF79
     /tmp/ccvcL2pK.s:3291   .debug_str:0000000000000678 .LASF109
     /tmp/ccvcL2pK.s:3157   .debug_str:00000000000001f2 .LASF110
     /tmp/ccvcL2pK.s:3187   .debug_str:00000000000002c7 .LASF80
     /tmp/ccvcL2pK.s:3251   .debug_str:00000000000004a3 .LASF81
     /tmp/ccvcL2pK.s:3143   .debug_str:000000000000019f .LASF82
     /tmp/ccvcL2pK.s:3207   .debug_str:0000000000000351 .LASF83
     /tmp/ccvcL2pK.s:3219   .debug_str:00000000000003b6 .LASF84
     /tmp/ccvcL2pK.s:3165   .debug_str:000000000000022d .LASF85
     /tmp/ccvcL2pK.s:3161   .debug_str:0000000000000218 .LASF86
     /tmp/ccvcL2pK.s:3193   .debug_str:00000000000002fd .LASF87
     /tmp/ccvcL2pK.s:284    .text:0000000000000130 .LVL17
     /tmp/ccvcL2pK.s:309    .text:0000000000000168 .LVL20
     /tmp/ccvcL2pK.s:206    .text:00000000000000cc .LVL11
     /tmp/ccvcL2pK.s:229    .text:00000000000000fc .LVL13
     /tmp/ccvcL2pK.s:232    .text:0000000000000100 .LVL14
     /tmp/ccvcL2pK.s:525    .text:0000000000000284 .LVL36
     /tmp/ccvcL2pK.s:537    .text:0000000000000298 .LVL37
     /tmp/ccvcL2pK.s:489    .text:0000000000000254 .LVL33
     /tmp/ccvcL2pK.s:501    .text:0000000000000268 .LVL34
     /tmp/ccvcL2pK.s:41     .text:0000000000000000 .LVL1
     /tmp/ccvcL2pK.s:397    .text:00000000000001d0 .LVL25
     /tmp/ccvcL2pK.s:418    .text:00000000000001fc .LVL26
     /tmp/ccvcL2pK.s:433    .text:0000000000000224 .LVL29
     /tmp/ccvcL2pK.s:452    .text:0000000000000248 .LVL32
     /tmp/ccvcL2pK.s:354    .text:0000000000000198 .LVL22
     /tmp/ccvcL2pK.s:370    .text:00000000000001b8 .LVL23
     /tmp/ccvcL2pK.s:172    .text:00000000000000a4 .LVL9
     /tmp/ccvcL2pK.s:140    .text:000000000000007c .LVL7
     /tmp/ccvcL2pK.s:108    .text:0000000000000054 .LVL5
     /tmp/ccvcL2pK.s:76     .text:000000000000002c .LVL3
     /tmp/ccvcL2pK.s:600    .debug_info:0000000000000000 .Ldebug_info0
     /tmp/ccvcL2pK.s:5      .text:0000000000000000 .Ltext0
     /tmp/ccvcL2pK.s:595    .text:00000000000002d8 .Letext0
     /tmp/ccvcL2pK.s:268    .gcc_except_table:0000000000000000 .LLSDA65
     /tmp/ccvcL2pK.s:461    .gcc_except_table:0000000000000004 .LLSDA58

UNDEFINED SYMBOLS
_Z9mem_allocm
_Z8mem_freePv
_Z11thread_exitv
__gxx_personality_v0
GAS LISTING /tmp/ccvcL2pK.s 			page 23


_Z10toUserModev
_Z13thread_createPP7_threadPFvPvES2_
_Unwind_Resume
_ZN9Scheduler3putEP3PCB
_Z11thread_joinP7_thread
_Z15thread_dispatchv
