GAS LISTING /tmp/cc9gbuft.s 			page 1


   1              		.file	"syscall_cpp.cpp"
   2              		.option pic
   3              		.option norelax
   4              		.text
   5              	.Ltext0:
   6              		.section	.text._ZN6Thread3runEv,"axG",@progbits,_ZN6Thread3runEv,comdat
   7              		.align	2
   8              		.weak	_ZN6Thread3runEv
  10              	_ZN6Thread3runEv:
  11              	.LFB48:
  12              		.file 1 "src/../h/syscall_cpp.hpp"
   1:src/../h/syscall_cpp.hpp **** #ifndef PROJECT_BASE_V1_1_SYSCALL_CPP_HPP
   2:src/../h/syscall_cpp.hpp **** #define PROJECT_BASE_V1_1_SYSCALL_CPP_HPP
   3:src/../h/syscall_cpp.hpp **** 
   4:src/../h/syscall_cpp.hpp **** #include "syscall_c.hpp"
   5:src/../h/syscall_cpp.hpp **** 
   6:src/../h/syscall_cpp.hpp **** void *operator new(size_t size);
   7:src/../h/syscall_cpp.hpp **** 
   8:src/../h/syscall_cpp.hpp **** void *operator new[](size_t size);
   9:src/../h/syscall_cpp.hpp **** 
  10:src/../h/syscall_cpp.hpp **** void operator delete(void *ptr);
  11:src/../h/syscall_cpp.hpp **** 
  12:src/../h/syscall_cpp.hpp **** void operator delete[](void *ptr);
  13:src/../h/syscall_cpp.hpp **** 
  14:src/../h/syscall_cpp.hpp **** void switchToUserMode();
  15:src/../h/syscall_cpp.hpp **** 
  16:src/../h/syscall_cpp.hpp **** class Thread {
  17:src/../h/syscall_cpp.hpp **** public:
  18:src/../h/syscall_cpp.hpp ****     Thread(void (*body)(void *), void *arg);
  19:src/../h/syscall_cpp.hpp **** 
  20:src/../h/syscall_cpp.hpp ****     virtual ~Thread();
  21:src/../h/syscall_cpp.hpp **** 
  22:src/../h/syscall_cpp.hpp ****     int start();
  23:src/../h/syscall_cpp.hpp **** 
  24:src/../h/syscall_cpp.hpp ****     void join();
  25:src/../h/syscall_cpp.hpp **** 
  26:src/../h/syscall_cpp.hpp ****     static void dispatch();
  27:src/../h/syscall_cpp.hpp **** 
  28:src/../h/syscall_cpp.hpp **** 
  29:src/../h/syscall_cpp.hpp **** protected:
  30:src/../h/syscall_cpp.hpp ****     Thread();
  31:src/../h/syscall_cpp.hpp **** 
  32:src/../h/syscall_cpp.hpp ****     virtual void run() {}
  13              		.loc 1 32 18
  14              		.cfi_startproc
  15              	.LVL0:
  16 0000 130101FF 		addi	sp,sp,-16
  17              		.cfi_def_cfa_offset 16
  18 0004 23348100 		sd	s0,8(sp)
  19              		.cfi_offset 8, -8
  20 0008 13040101 		addi	s0,sp,16
  21              		.cfi_def_cfa 8, 0
  22              		.loc 1 32 25 is_stmt 0
  23 000c 03348100 		ld	s0,8(sp)
  24              		.cfi_restore 8
  25              		.cfi_def_cfa 2, 16
  26 0010 13010101 		addi	sp,sp,16
GAS LISTING /tmp/cc9gbuft.s 			page 2


  27              		.cfi_def_cfa_offset 0
  28 0014 67800000 		jr	ra
  29              		.cfi_endproc
  30              	.LFE48:
  32              		.text
  33              		.align	2
  34              		.globl	_ZN6Thread13threadWrapperEPv
  36              	_ZN6Thread13threadWrapperEPv:
  37              	.LFB60:
  38              		.file 2 "src/syscall_cpp.cpp"
   1:src/syscall_cpp.cpp **** //
   2:src/syscall_cpp.cpp **** // Created by os on 2/2/23.
   3:src/syscall_cpp.cpp **** //
   4:src/syscall_cpp.cpp **** 
   5:src/syscall_cpp.cpp **** #include "../h/syscall_cpp.hpp"
   6:src/syscall_cpp.cpp **** 
   7:src/syscall_cpp.cpp **** void *operator new(size_t size) {
   8:src/syscall_cpp.cpp ****     return mem_alloc(size);
   9:src/syscall_cpp.cpp **** }
  10:src/syscall_cpp.cpp **** 
  11:src/syscall_cpp.cpp **** void *operator new[](size_t size) {
  12:src/syscall_cpp.cpp ****     return mem_alloc(size);
  13:src/syscall_cpp.cpp **** }
  14:src/syscall_cpp.cpp **** 
  15:src/syscall_cpp.cpp **** void operator delete(void *ptr) { mem_free(ptr); }
  16:src/syscall_cpp.cpp **** 
  17:src/syscall_cpp.cpp **** void operator delete[](void *ptr) { mem_free(ptr); }
  18:src/syscall_cpp.cpp **** 
  19:src/syscall_cpp.cpp **** void switchToUserMode() { toUserMode(); }
  20:src/syscall_cpp.cpp **** 
  21:src/syscall_cpp.cpp **** Thread::Thread(void (*body)(void *), void *arg) {
  22:src/syscall_cpp.cpp ****     thread_create(&myHandle, body, arg);
  23:src/syscall_cpp.cpp ****     Scheduler::remove();
  24:src/syscall_cpp.cpp **** }
  25:src/syscall_cpp.cpp **** 
  26:src/syscall_cpp.cpp **** Thread::Thread() : Thread(threadWrapper, this) {}
  27:src/syscall_cpp.cpp **** 
  28:src/syscall_cpp.cpp **** void Thread::threadWrapper(void *t) {
  39              		.loc 2 28 37 is_stmt 1
  40              		.cfi_startproc
  41              	.LVL1:
  42 0000 130101FF 		addi	sp,sp,-16
  43              		.cfi_def_cfa_offset 16
  44 0004 23341100 		sd	ra,8(sp)
  45 0008 23308100 		sd	s0,0(sp)
  46              		.cfi_offset 1, -8
  47              		.cfi_offset 8, -16
  48 000c 13040101 		addi	s0,sp,16
  49              		.cfi_def_cfa 8, 0
  29:src/syscall_cpp.cpp ****     ((Thread *) t)->run();
  50              		.loc 2 29 5
  51              		.loc 2 29 25 is_stmt 0
  52 0010 83370500 		ld	a5,0(a0)
  53 0014 83B70701 		ld	a5,16(a5)
  54              		.loc 2 29 24
  55 0018 E7800700 		jalr	a5
  56              	.LVL2:
GAS LISTING /tmp/cc9gbuft.s 			page 3


  30:src/syscall_cpp.cpp **** }
  57              		.loc 2 30 1
  58 001c 83308100 		ld	ra,8(sp)
  59              		.cfi_restore 1
  60 0020 03340100 		ld	s0,0(sp)
  61              		.cfi_restore 8
  62              		.cfi_def_cfa 2, 16
  63 0024 13010101 		addi	sp,sp,16
  64              		.cfi_def_cfa_offset 0
  65 0028 67800000 		jr	ra
  66              		.cfi_endproc
  67              	.LFE60:
  69              		.align	2
  70              		.globl	_Znwm
  72              	_Znwm:
  73              	.LFB49:
   7:src/syscall_cpp.cpp ****     return mem_alloc(size);
  74              		.loc 2 7 33 is_stmt 1
  75              		.cfi_startproc
  76              	.LVL3:
  77 002c 130101FF 		addi	sp,sp,-16
  78              		.cfi_def_cfa_offset 16
  79 0030 23341100 		sd	ra,8(sp)
  80 0034 23308100 		sd	s0,0(sp)
  81              		.cfi_offset 1, -8
  82              		.cfi_offset 8, -16
  83 0038 13040101 		addi	s0,sp,16
  84              		.cfi_def_cfa 8, 0
   8:src/syscall_cpp.cpp **** }
  85              		.loc 2 8 5
   8:src/syscall_cpp.cpp **** }
  86              		.loc 2 8 21 is_stmt 0
  87 003c 97000000 		call	_Z9mem_allocm@plt
  87      E7800000 
  88              	.LVL4:
   9:src/syscall_cpp.cpp **** 
  89              		.loc 2 9 1
  90 0044 83308100 		ld	ra,8(sp)
  91              		.cfi_restore 1
  92 0048 03340100 		ld	s0,0(sp)
  93              		.cfi_restore 8
  94              		.cfi_def_cfa 2, 16
  95 004c 13010101 		addi	sp,sp,16
  96              		.cfi_def_cfa_offset 0
  97 0050 67800000 		jr	ra
  98              		.cfi_endproc
  99              	.LFE49:
 101              		.align	2
 102              		.globl	_Znam
 104              	_Znam:
 105              	.LFB50:
  11:src/syscall_cpp.cpp ****     return mem_alloc(size);
 106              		.loc 2 11 35 is_stmt 1
 107              		.cfi_startproc
 108              	.LVL5:
 109 0054 130101FF 		addi	sp,sp,-16
 110              		.cfi_def_cfa_offset 16
GAS LISTING /tmp/cc9gbuft.s 			page 4


 111 0058 23341100 		sd	ra,8(sp)
 112 005c 23308100 		sd	s0,0(sp)
 113              		.cfi_offset 1, -8
 114              		.cfi_offset 8, -16
 115 0060 13040101 		addi	s0,sp,16
 116              		.cfi_def_cfa 8, 0
  12:src/syscall_cpp.cpp **** }
 117              		.loc 2 12 5
  12:src/syscall_cpp.cpp **** }
 118              		.loc 2 12 21 is_stmt 0
 119 0064 97000000 		call	_Z9mem_allocm@plt
 119      E7800000 
 120              	.LVL6:
  13:src/syscall_cpp.cpp **** 
 121              		.loc 2 13 1
 122 006c 83308100 		ld	ra,8(sp)
 123              		.cfi_restore 1
 124 0070 03340100 		ld	s0,0(sp)
 125              		.cfi_restore 8
 126              		.cfi_def_cfa 2, 16
 127 0074 13010101 		addi	sp,sp,16
 128              		.cfi_def_cfa_offset 0
 129 0078 67800000 		jr	ra
 130              		.cfi_endproc
 131              	.LFE50:
 133              		.align	2
 134              		.globl	_ZdlPv
 136              	_ZdlPv:
 137              	.LFB51:
  15:src/syscall_cpp.cpp **** 
 138              		.loc 2 15 33 is_stmt 1
 139              		.cfi_startproc
 140              	.LVL7:
 141 007c 130101FF 		addi	sp,sp,-16
 142              		.cfi_def_cfa_offset 16
 143 0080 23341100 		sd	ra,8(sp)
 144 0084 23308100 		sd	s0,0(sp)
 145              		.cfi_offset 1, -8
 146              		.cfi_offset 8, -16
 147 0088 13040101 		addi	s0,sp,16
 148              		.cfi_def_cfa 8, 0
  15:src/syscall_cpp.cpp **** 
 149              		.loc 2 15 35
  15:src/syscall_cpp.cpp **** 
 150              		.loc 2 15 43 is_stmt 0
 151 008c 97000000 		call	_Z8mem_freePv@plt
 151      E7800000 
 152              	.LVL8:
  15:src/syscall_cpp.cpp **** 
 153              		.loc 2 15 50
 154 0094 83308100 		ld	ra,8(sp)
 155              		.cfi_restore 1
 156 0098 03340100 		ld	s0,0(sp)
 157              		.cfi_restore 8
 158              		.cfi_def_cfa 2, 16
 159 009c 13010101 		addi	sp,sp,16
 160              		.cfi_def_cfa_offset 0
GAS LISTING /tmp/cc9gbuft.s 			page 5


 161 00a0 67800000 		jr	ra
 162              		.cfi_endproc
 163              	.LFE51:
 165              		.align	2
 166              		.globl	_ZN6ThreadD2Ev
 168              	_ZN6ThreadD2Ev:
 169              	.LFB65:
  31:src/syscall_cpp.cpp **** 
  32:src/syscall_cpp.cpp **** int Thread::start() {
  33:src/syscall_cpp.cpp ****     Scheduler::put((_thread *) myHandle);
  34:src/syscall_cpp.cpp **** 
  35:src/syscall_cpp.cpp ****     return 0;
  36:src/syscall_cpp.cpp **** }
  37:src/syscall_cpp.cpp **** 
  38:src/syscall_cpp.cpp **** void Thread::join() {
  39:src/syscall_cpp.cpp ****     thread_join(myHandle);
  40:src/syscall_cpp.cpp **** }
  41:src/syscall_cpp.cpp **** 
  42:src/syscall_cpp.cpp **** void Thread::dispatch() {
  43:src/syscall_cpp.cpp ****     thread_dispatch();
  44:src/syscall_cpp.cpp **** }
  45:src/syscall_cpp.cpp **** 
  46:src/syscall_cpp.cpp **** Thread::~Thread() {
 170              		.loc 2 46 1 is_stmt 1
 171              		.cfi_startproc
 172              		.cfi_personality 0x9b,DW.ref.__gxx_personality_v0
 173              		.cfi_lsda 0x1b,.LLSDA65
 174              	.LVL9:
 175 00a4 130101FE 		addi	sp,sp,-32
 176              		.cfi_def_cfa_offset 32
 177 00a8 233C1100 		sd	ra,24(sp)
 178 00ac 23388100 		sd	s0,16(sp)
 179 00b0 23349100 		sd	s1,8(sp)
 180              		.cfi_offset 1, -8
 181              		.cfi_offset 8, -16
 182              		.cfi_offset 9, -24
 183 00b4 13040102 		addi	s0,sp,32
 184              		.cfi_def_cfa 8, 0
 185 00b8 93040500 		mv	s1,a0
 186              	.LBB2:
 187              		.loc 2 46 17 is_stmt 0
 188 00bc 97070000 		lla	a5,_ZTV6Thread+16
 188      93870700 
 189 00c4 2330F500 		sd	a5,0(a0)
  47:src/syscall_cpp.cpp **** 
  48:src/syscall_cpp.cpp ****     thread_exit();
 190              		.loc 2 48 5 is_stmt 1
 191              		.loc 2 48 16 is_stmt 0
 192 00c8 97000000 		call	_Z11thread_exitv@plt
 192      E7800000 
 193              	.LVL10:
  49:src/syscall_cpp.cpp ****     delete (_thread *) myHandle;
 194              		.loc 2 49 5 is_stmt 1
 195              		.loc 2 49 24 is_stmt 0
 196 00d0 83B48400 		ld	s1,8(s1)
 197              	.LVL11:
 198              		.loc 2 49 32
GAS LISTING /tmp/cc9gbuft.s 			page 6


 199 00d4 638E0400 		beqz	s1,.L11
 200              		.loc 2 49 24 discriminator 1
 201 00d8 13850400 		mv	a0,s1
 202 00dc 97000000 		call	_ZN7_threadD1Ev@plt
 202      E7800000 
 203              	.LVL12:
 204 00e4 13850400 		mv	a0,s1
 205 00e8 97000000 		call	_ZdlPv
 205      E7800000 
 206              	.LVL13:
 207              	.L11:
 208              	.LBE2:
  50:src/syscall_cpp.cpp **** 
  51:src/syscall_cpp.cpp **** 
  52:src/syscall_cpp.cpp **** }
 209              		.loc 2 52 1
 210 00f0 83308101 		ld	ra,24(sp)
 211              		.cfi_restore 1
 212 00f4 03340101 		ld	s0,16(sp)
 213              		.cfi_restore 8
 214              		.cfi_def_cfa 2, 32
 215 00f8 83348100 		ld	s1,8(sp)
 216              		.cfi_restore 9
 217 00fc 13010102 		addi	sp,sp,32
 218              		.cfi_def_cfa_offset 0
 219 0100 67800000 		jr	ra
 220              		.cfi_endproc
 221              	.LFE65:
 222              		.globl	__gxx_personality_v0
 223              		.section	.gcc_except_table,"a",@progbits
 224              	.LLSDA65:
 225 0000 FF       		.byte	0xff
 226 0001 FF       		.byte	0xff
 227 0002 03       		.byte	0x3
 228 0003 00       		.byte	0
 229              		.text
 231              		.globl	_ZN6ThreadD1Ev
 232              		.set	_ZN6ThreadD1Ev,_ZN6ThreadD2Ev
 233              		.align	2
 234              		.globl	_ZN6ThreadD0Ev
 236              	_ZN6ThreadD0Ev:
 237              	.LFB67:
  46:src/syscall_cpp.cpp **** 
 238              		.loc 2 46 1 is_stmt 1
 239              		.cfi_startproc
 240              	.LVL14:
 241 0104 130101FE 		addi	sp,sp,-32
 242              		.cfi_def_cfa_offset 32
 243 0108 233C1100 		sd	ra,24(sp)
 244 010c 23388100 		sd	s0,16(sp)
 245 0110 23349100 		sd	s1,8(sp)
 246              		.cfi_offset 1, -8
 247              		.cfi_offset 8, -16
 248              		.cfi_offset 9, -24
 249 0114 13040102 		addi	s0,sp,32
 250              		.cfi_def_cfa 8, 0
 251 0118 93040500 		mv	s1,a0
GAS LISTING /tmp/cc9gbuft.s 			page 7


 252              		.loc 2 52 1 is_stmt 0
 253 011c 97000000 		call	_ZN6ThreadD1Ev
 253      E7800000 
 254              	.LVL15:
 255 0124 13850400 		mv	a0,s1
 256 0128 97000000 		call	_ZdlPv
 256      E7800000 
 257              	.LVL16:
 258 0130 83308101 		ld	ra,24(sp)
 259              		.cfi_restore 1
 260 0134 03340101 		ld	s0,16(sp)
 261              		.cfi_restore 8
 262              		.cfi_def_cfa 2, 32
 263 0138 83348100 		ld	s1,8(sp)
 264              		.cfi_restore 9
 265              	.LVL17:
 266 013c 13010102 		addi	sp,sp,32
 267              		.cfi_def_cfa_offset 0
 268 0140 67800000 		jr	ra
 269              		.cfi_endproc
 270              	.LFE67:
 272              		.align	2
 273              		.globl	_ZN9SemaphoreD2Ev
 275              	_ZN9SemaphoreD2Ev:
 276              	.LFB72:
  53:src/syscall_cpp.cpp **** 
  54:src/syscall_cpp.cpp **** Semaphore::Semaphore(unsigned int init) {
  55:src/syscall_cpp.cpp ****     sem_open(&myHandle, init);
  56:src/syscall_cpp.cpp **** }
  57:src/syscall_cpp.cpp **** 
  58:src/syscall_cpp.cpp **** Semaphore::~Semaphore() {
 277              		.loc 2 58 1 is_stmt 1
 278              		.cfi_startproc
 279              		.cfi_personality 0x9b,DW.ref.__gxx_personality_v0
 280              		.cfi_lsda 0x1b,.LLSDA72
 281              	.LVL18:
 282 0144 130101FE 		addi	sp,sp,-32
 283              		.cfi_def_cfa_offset 32
 284 0148 233C1100 		sd	ra,24(sp)
 285 014c 23388100 		sd	s0,16(sp)
 286 0150 23349100 		sd	s1,8(sp)
 287              		.cfi_offset 1, -8
 288              		.cfi_offset 8, -16
 289              		.cfi_offset 9, -24
 290 0154 13040102 		addi	s0,sp,32
 291              		.cfi_def_cfa 8, 0
 292 0158 93040500 		mv	s1,a0
 293              	.LBB3:
 294              		.loc 2 58 23 is_stmt 0
 295 015c 97070000 		lla	a5,_ZTV9Semaphore+16
 295      93870700 
 296 0164 2330F500 		sd	a5,0(a0)
  59:src/syscall_cpp.cpp ****     sem_close(myHandle);
 297              		.loc 2 59 5 is_stmt 1
 298              		.loc 2 59 14 is_stmt 0
 299 0168 03358500 		ld	a0,8(a0)
 300              	.LVL19:
GAS LISTING /tmp/cc9gbuft.s 			page 8


 301 016c 97000000 		call	_Z9sem_closeP4_sem@plt
 301      E7800000 
 302              	.LVL20:
  60:src/syscall_cpp.cpp ****     delete (_sem *) myHandle;
 303              		.loc 2 60 5 is_stmt 1
 304              		.loc 2 60 21 is_stmt 0
 305 0174 83B48400 		ld	s1,8(s1)
 306              	.LVL21:
 307              		.loc 2 60 29
 308 0178 638E0400 		beqz	s1,.L16
 309              		.loc 2 60 21 discriminator 1
 310 017c 13850400 		mv	a0,s1
 311 0180 97000000 		call	_ZN4_semD1Ev@plt
 311      E7800000 
 312              	.LVL22:
 313 0188 13850400 		mv	a0,s1
 314 018c 97000000 		call	_ZdlPv
 314      E7800000 
 315              	.LVL23:
 316              	.L16:
 317              	.LBE3:
  61:src/syscall_cpp.cpp **** }
 318              		.loc 2 61 1
 319 0194 83308101 		ld	ra,24(sp)
 320              		.cfi_restore 1
 321 0198 03340101 		ld	s0,16(sp)
 322              		.cfi_restore 8
 323              		.cfi_def_cfa 2, 32
 324 019c 83348100 		ld	s1,8(sp)
 325              		.cfi_restore 9
 326 01a0 13010102 		addi	sp,sp,32
 327              		.cfi_def_cfa_offset 0
 328 01a4 67800000 		jr	ra
 329              		.cfi_endproc
 330              	.LFE72:
 331              		.section	.gcc_except_table
 332              	.LLSDA72:
 333 0004 FF       		.byte	0xff
 334 0005 FF       		.byte	0xff
 335 0006 03       		.byte	0x3
 336 0007 00       		.byte	0
 337              		.text
 339              		.globl	_ZN9SemaphoreD1Ev
 340              		.set	_ZN9SemaphoreD1Ev,_ZN9SemaphoreD2Ev
 341              		.align	2
 342              		.globl	_ZN9SemaphoreD0Ev
 344              	_ZN9SemaphoreD0Ev:
 345              	.LFB74:
  58:src/syscall_cpp.cpp ****     sem_close(myHandle);
 346              		.loc 2 58 1 is_stmt 1
 347              		.cfi_startproc
 348              	.LVL24:
 349 01a8 130101FE 		addi	sp,sp,-32
 350              		.cfi_def_cfa_offset 32
 351 01ac 233C1100 		sd	ra,24(sp)
 352 01b0 23388100 		sd	s0,16(sp)
 353 01b4 23349100 		sd	s1,8(sp)
GAS LISTING /tmp/cc9gbuft.s 			page 9


 354              		.cfi_offset 1, -8
 355              		.cfi_offset 8, -16
 356              		.cfi_offset 9, -24
 357 01b8 13040102 		addi	s0,sp,32
 358              		.cfi_def_cfa 8, 0
 359 01bc 93040500 		mv	s1,a0
 360              		.loc 2 61 1 is_stmt 0
 361 01c0 97000000 		call	_ZN9SemaphoreD1Ev
 361      E7800000 
 362              	.LVL25:
 363 01c8 13850400 		mv	a0,s1
 364 01cc 97000000 		call	_ZdlPv
 364      E7800000 
 365              	.LVL26:
 366 01d4 83308101 		ld	ra,24(sp)
 367              		.cfi_restore 1
 368 01d8 03340101 		ld	s0,16(sp)
 369              		.cfi_restore 8
 370              		.cfi_def_cfa 2, 32
 371 01dc 83348100 		ld	s1,8(sp)
 372              		.cfi_restore 9
 373              	.LVL27:
 374 01e0 13010102 		addi	sp,sp,32
 375              		.cfi_def_cfa_offset 0
 376 01e4 67800000 		jr	ra
 377              		.cfi_endproc
 378              	.LFE74:
 380              		.align	2
 381              		.globl	_ZdaPv
 383              	_ZdaPv:
 384              	.LFB52:
  17:src/syscall_cpp.cpp **** 
 385              		.loc 2 17 35 is_stmt 1
 386              		.cfi_startproc
 387              	.LVL28:
 388 01e8 130101FF 		addi	sp,sp,-16
 389              		.cfi_def_cfa_offset 16
 390 01ec 23341100 		sd	ra,8(sp)
 391 01f0 23308100 		sd	s0,0(sp)
 392              		.cfi_offset 1, -8
 393              		.cfi_offset 8, -16
 394 01f4 13040101 		addi	s0,sp,16
 395              		.cfi_def_cfa 8, 0
  17:src/syscall_cpp.cpp **** 
 396              		.loc 2 17 37
  17:src/syscall_cpp.cpp **** 
 397              		.loc 2 17 45 is_stmt 0
 398 01f8 97000000 		call	_Z8mem_freePv@plt
 398      E7800000 
 399              	.LVL29:
  17:src/syscall_cpp.cpp **** 
 400              		.loc 2 17 52
 401 0200 83308100 		ld	ra,8(sp)
 402              		.cfi_restore 1
 403 0204 03340100 		ld	s0,0(sp)
 404              		.cfi_restore 8
 405              		.cfi_def_cfa 2, 16
GAS LISTING /tmp/cc9gbuft.s 			page 10


 406 0208 13010101 		addi	sp,sp,16
 407              		.cfi_def_cfa_offset 0
 408 020c 67800000 		jr	ra
 409              		.cfi_endproc
 410              	.LFE52:
 412              		.align	2
 413              		.globl	_Z16switchToUserModev
 415              	_Z16switchToUserModev:
 416              	.LFB53:
  19:src/syscall_cpp.cpp **** 
 417              		.loc 2 19 25 is_stmt 1
 418              		.cfi_startproc
 419 0210 130101FF 		addi	sp,sp,-16
 420              		.cfi_def_cfa_offset 16
 421 0214 23341100 		sd	ra,8(sp)
 422 0218 23308100 		sd	s0,0(sp)
 423              		.cfi_offset 1, -8
 424              		.cfi_offset 8, -16
 425 021c 13040101 		addi	s0,sp,16
 426              		.cfi_def_cfa 8, 0
  19:src/syscall_cpp.cpp **** 
 427              		.loc 2 19 27
  19:src/syscall_cpp.cpp **** 
 428              		.loc 2 19 37 is_stmt 0
 429 0220 97000000 		call	_Z10toUserModev@plt
 429      E7800000 
 430              	.LVL30:
  19:src/syscall_cpp.cpp **** 
 431              		.loc 2 19 41
 432 0228 83308100 		ld	ra,8(sp)
 433              		.cfi_restore 1
 434 022c 03340100 		ld	s0,0(sp)
 435              		.cfi_restore 8
 436              		.cfi_def_cfa 2, 16
 437 0230 13010101 		addi	sp,sp,16
 438              		.cfi_def_cfa_offset 0
 439 0234 67800000 		jr	ra
 440              		.cfi_endproc
 441              	.LFE53:
 443              		.align	2
 444              		.globl	_ZN6ThreadC2EPFvPvES0_
 446              	_ZN6ThreadC2EPFvPvES0_:
 447              	.LFB55:
  21:src/syscall_cpp.cpp ****     thread_create(&myHandle, body, arg);
 448              		.loc 2 21 1 is_stmt 1
 449              		.cfi_startproc
 450              	.LVL31:
 451 0238 130101FF 		addi	sp,sp,-16
 452              		.cfi_def_cfa_offset 16
 453 023c 23341100 		sd	ra,8(sp)
 454 0240 23308100 		sd	s0,0(sp)
 455              		.cfi_offset 1, -8
 456              		.cfi_offset 8, -16
 457 0244 13040101 		addi	s0,sp,16
 458              		.cfi_def_cfa 8, 0
 459              	.LBB4:
  21:src/syscall_cpp.cpp ****     thread_create(&myHandle, body, arg);
GAS LISTING /tmp/cc9gbuft.s 			page 11


 460              		.loc 2 21 47 is_stmt 0
 461 0248 97070000 		lla	a5,_ZTV6Thread+16
 461      93870700 
 462 0250 2330F500 		sd	a5,0(a0)
  22:src/syscall_cpp.cpp ****     Scheduler::remove();
 463              		.loc 2 22 5 is_stmt 1
  22:src/syscall_cpp.cpp ****     Scheduler::remove();
 464              		.loc 2 22 18 is_stmt 0
 465 0254 13058500 		addi	a0,a0,8
 466              	.LVL32:
 467 0258 97000000 		call	_Z13thread_createPP7_threadPFvPvES2_@plt
 467      E7800000 
 468              	.LVL33:
  23:src/syscall_cpp.cpp **** }
 469              		.loc 2 23 5 is_stmt 1
  23:src/syscall_cpp.cpp **** }
 470              		.loc 2 23 22 is_stmt 0
 471 0260 97000000 		call	_ZN9Scheduler6removeEv@plt
 471      E7800000 
 472              	.LVL34:
 473              	.LBE4:
  24:src/syscall_cpp.cpp **** 
 474              		.loc 2 24 1
 475 0268 83308100 		ld	ra,8(sp)
 476              		.cfi_restore 1
 477 026c 03340100 		ld	s0,0(sp)
 478              		.cfi_restore 8
 479              		.cfi_def_cfa 2, 16
 480 0270 13010101 		addi	sp,sp,16
 481              		.cfi_def_cfa_offset 0
 482 0274 67800000 		jr	ra
 483              		.cfi_endproc
 484              	.LFE55:
 486              		.globl	_ZN6ThreadC1EPFvPvES0_
 487              		.set	_ZN6ThreadC1EPFvPvES0_,_ZN6ThreadC2EPFvPvES0_
 488              		.align	2
 489              		.globl	_ZN6ThreadC2Ev
 491              	_ZN6ThreadC2Ev:
 492              	.LFB58:
  26:src/syscall_cpp.cpp **** 
 493              		.loc 2 26 1 is_stmt 1
 494              		.cfi_startproc
 495              	.LVL35:
 496 0278 130101FF 		addi	sp,sp,-16
 497              		.cfi_def_cfa_offset 16
 498 027c 23341100 		sd	ra,8(sp)
 499 0280 23308100 		sd	s0,0(sp)
 500              		.cfi_offset 1, -8
 501              		.cfi_offset 8, -16
 502 0284 13040101 		addi	s0,sp,16
 503              		.cfi_def_cfa 8, 0
 504 0288 13060500 		mv	a2,a0
 505              	.LBB5:
  26:src/syscall_cpp.cpp **** 
 506              		.loc 2 26 46 is_stmt 0
 507 028c 97050000 		lla	a1,_ZN6Thread13threadWrapperEPv
 507      93850500 
GAS LISTING /tmp/cc9gbuft.s 			page 12


 508 0294 97000000 		call	_ZN6ThreadC1EPFvPvES0_
 508      E7800000 
 509              	.LVL36:
 510              	.LBE5:
  26:src/syscall_cpp.cpp **** 
 511              		.loc 2 26 49
 512 029c 83308100 		ld	ra,8(sp)
 513              		.cfi_restore 1
 514 02a0 03340100 		ld	s0,0(sp)
 515              		.cfi_restore 8
 516              		.cfi_def_cfa 2, 16
 517 02a4 13010101 		addi	sp,sp,16
 518              		.cfi_def_cfa_offset 0
 519 02a8 67800000 		jr	ra
 520              		.cfi_endproc
 521              	.LFE58:
 523              		.globl	_ZN6ThreadC1Ev
 524              		.set	_ZN6ThreadC1Ev,_ZN6ThreadC2Ev
 525              		.align	2
 526              		.globl	_ZN6Thread5startEv
 528              	_ZN6Thread5startEv:
 529              	.LFB61:
  32:src/syscall_cpp.cpp ****     Scheduler::put((_thread *) myHandle);
 530              		.loc 2 32 21 is_stmt 1
 531              		.cfi_startproc
 532              	.LVL37:
 533 02ac 130101FF 		addi	sp,sp,-16
 534              		.cfi_def_cfa_offset 16
 535 02b0 23341100 		sd	ra,8(sp)
 536 02b4 23308100 		sd	s0,0(sp)
 537              		.cfi_offset 1, -8
 538              		.cfi_offset 8, -16
 539 02b8 13040101 		addi	s0,sp,16
 540              		.cfi_def_cfa 8, 0
  33:src/syscall_cpp.cpp **** 
 541              		.loc 2 33 5
  33:src/syscall_cpp.cpp **** 
 542              		.loc 2 33 19 is_stmt 0
 543 02bc 03358500 		ld	a0,8(a0)
 544              	.LVL38:
 545 02c0 97000000 		call	_ZN9Scheduler3putEP7_thread@plt
 545      E7800000 
 546              	.LVL39:
  35:src/syscall_cpp.cpp **** }
 547              		.loc 2 35 5 is_stmt 1
  36:src/syscall_cpp.cpp **** 
 548              		.loc 2 36 1 is_stmt 0
 549 02c8 13050000 		li	a0,0
 550 02cc 83308100 		ld	ra,8(sp)
 551              		.cfi_restore 1
 552 02d0 03340100 		ld	s0,0(sp)
 553              		.cfi_restore 8
 554              		.cfi_def_cfa 2, 16
 555 02d4 13010101 		addi	sp,sp,16
 556              		.cfi_def_cfa_offset 0
 557 02d8 67800000 		jr	ra
 558              		.cfi_endproc
GAS LISTING /tmp/cc9gbuft.s 			page 13


 559              	.LFE61:
 561              		.align	2
 562              		.globl	_ZN6Thread4joinEv
 564              	_ZN6Thread4joinEv:
 565              	.LFB62:
  38:src/syscall_cpp.cpp ****     thread_join(myHandle);
 566              		.loc 2 38 21 is_stmt 1
 567              		.cfi_startproc
 568              	.LVL40:
 569 02dc 130101FF 		addi	sp,sp,-16
 570              		.cfi_def_cfa_offset 16
 571 02e0 23341100 		sd	ra,8(sp)
 572 02e4 23308100 		sd	s0,0(sp)
 573              		.cfi_offset 1, -8
 574              		.cfi_offset 8, -16
 575 02e8 13040101 		addi	s0,sp,16
 576              		.cfi_def_cfa 8, 0
  39:src/syscall_cpp.cpp **** }
 577              		.loc 2 39 5
  39:src/syscall_cpp.cpp **** }
 578              		.loc 2 39 16 is_stmt 0
 579 02ec 03358500 		ld	a0,8(a0)
 580              	.LVL41:
 581 02f0 97000000 		call	_Z11thread_joinP7_thread@plt
 581      E7800000 
 582              	.LVL42:
  40:src/syscall_cpp.cpp **** 
 583              		.loc 2 40 1
 584 02f8 83308100 		ld	ra,8(sp)
 585              		.cfi_restore 1
 586 02fc 03340100 		ld	s0,0(sp)
 587              		.cfi_restore 8
 588              		.cfi_def_cfa 2, 16
 589 0300 13010101 		addi	sp,sp,16
 590              		.cfi_def_cfa_offset 0
 591 0304 67800000 		jr	ra
 592              		.cfi_endproc
 593              	.LFE62:
 595              		.align	2
 596              		.globl	_ZN6Thread8dispatchEv
 598              	_ZN6Thread8dispatchEv:
 599              	.LFB63:
  42:src/syscall_cpp.cpp ****     thread_dispatch();
 600              		.loc 2 42 25 is_stmt 1
 601              		.cfi_startproc
 602 0308 130101FF 		addi	sp,sp,-16
 603              		.cfi_def_cfa_offset 16
 604 030c 23341100 		sd	ra,8(sp)
 605 0310 23308100 		sd	s0,0(sp)
 606              		.cfi_offset 1, -8
 607              		.cfi_offset 8, -16
 608 0314 13040101 		addi	s0,sp,16
 609              		.cfi_def_cfa 8, 0
  43:src/syscall_cpp.cpp **** }
 610              		.loc 2 43 5
  43:src/syscall_cpp.cpp **** }
 611              		.loc 2 43 20 is_stmt 0
GAS LISTING /tmp/cc9gbuft.s 			page 14


 612 0318 97000000 		call	_Z15thread_dispatchv@plt
 612      E7800000 
 613              	.LVL43:
  44:src/syscall_cpp.cpp **** 
 614              		.loc 2 44 1
 615 0320 83308100 		ld	ra,8(sp)
 616              		.cfi_restore 1
 617 0324 03340100 		ld	s0,0(sp)
 618              		.cfi_restore 8
 619              		.cfi_def_cfa 2, 16
 620 0328 13010101 		addi	sp,sp,16
 621              		.cfi_def_cfa_offset 0
 622 032c 67800000 		jr	ra
 623              		.cfi_endproc
 624              	.LFE63:
 626              		.align	2
 627              		.globl	_ZN9SemaphoreC2Ej
 629              	_ZN9SemaphoreC2Ej:
 630              	.LFB69:
  54:src/syscall_cpp.cpp ****     sem_open(&myHandle, init);
 631              		.loc 2 54 1 is_stmt 1
 632              		.cfi_startproc
 633              	.LVL44:
 634 0330 130101FF 		addi	sp,sp,-16
 635              		.cfi_def_cfa_offset 16
 636 0334 23341100 		sd	ra,8(sp)
 637 0338 23308100 		sd	s0,0(sp)
 638              		.cfi_offset 1, -8
 639              		.cfi_offset 8, -16
 640 033c 13040101 		addi	s0,sp,16
 641              		.cfi_def_cfa 8, 0
 642              	.LBB6:
  54:src/syscall_cpp.cpp ****     sem_open(&myHandle, init);
 643              		.loc 2 54 39 is_stmt 0
 644 0340 97070000 		lla	a5,_ZTV9Semaphore+16
 644      93870700 
 645 0348 2330F500 		sd	a5,0(a0)
  55:src/syscall_cpp.cpp **** }
 646              		.loc 2 55 5 is_stmt 1
  55:src/syscall_cpp.cpp **** }
 647              		.loc 2 55 13 is_stmt 0
 648 034c 13058500 		addi	a0,a0,8
 649              	.LVL45:
 650 0350 97000000 		call	_Z8sem_openPP4_semj@plt
 650      E7800000 
 651              	.LVL46:
 652              	.LBE6:
  56:src/syscall_cpp.cpp **** 
 653              		.loc 2 56 1
 654 0358 83308100 		ld	ra,8(sp)
 655              		.cfi_restore 1
 656 035c 03340100 		ld	s0,0(sp)
 657              		.cfi_restore 8
 658              		.cfi_def_cfa 2, 16
 659 0360 13010101 		addi	sp,sp,16
 660              		.cfi_def_cfa_offset 0
 661 0364 67800000 		jr	ra
GAS LISTING /tmp/cc9gbuft.s 			page 15


 662              		.cfi_endproc
 663              	.LFE69:
 665              		.globl	_ZN9SemaphoreC1Ej
 666              		.set	_ZN9SemaphoreC1Ej,_ZN9SemaphoreC2Ej
 667              		.align	2
 668              		.globl	_ZN9Semaphore6signalEv
 670              	_ZN9Semaphore6signalEv:
 671              	.LFB75:
  62:src/syscall_cpp.cpp **** 
  63:src/syscall_cpp.cpp **** int Semaphore::signal() {
 672              		.loc 2 63 25 is_stmt 1
 673              		.cfi_startproc
 674              	.LVL47:
 675 0368 130101FF 		addi	sp,sp,-16
 676              		.cfi_def_cfa_offset 16
 677 036c 23341100 		sd	ra,8(sp)
 678 0370 23308100 		sd	s0,0(sp)
 679              		.cfi_offset 1, -8
 680              		.cfi_offset 8, -16
 681 0374 13040101 		addi	s0,sp,16
 682              		.cfi_def_cfa 8, 0
  64:src/syscall_cpp.cpp ****     return sem_signal(myHandle);
 683              		.loc 2 64 5
 684              		.loc 2 64 22 is_stmt 0
 685 0378 03358500 		ld	a0,8(a0)
 686              	.LVL48:
 687 037c 97000000 		call	_Z10sem_signalP4_sem@plt
 687      E7800000 
 688              	.LVL49:
  65:src/syscall_cpp.cpp **** }
 689              		.loc 2 65 1
 690 0384 83308100 		ld	ra,8(sp)
 691              		.cfi_restore 1
 692 0388 03340100 		ld	s0,0(sp)
 693              		.cfi_restore 8
 694              		.cfi_def_cfa 2, 16
 695 038c 13010101 		addi	sp,sp,16
 696              		.cfi_def_cfa_offset 0
 697 0390 67800000 		jr	ra
 698              		.cfi_endproc
 699              	.LFE75:
 701              		.align	2
 702              		.globl	_ZN9Semaphore4waitEv
 704              	_ZN9Semaphore4waitEv:
 705              	.LFB76:
  66:src/syscall_cpp.cpp **** 
  67:src/syscall_cpp.cpp **** int Semaphore::wait() {
 706              		.loc 2 67 23 is_stmt 1
 707              		.cfi_startproc
 708              	.LVL50:
 709 0394 130101FF 		addi	sp,sp,-16
 710              		.cfi_def_cfa_offset 16
 711 0398 23341100 		sd	ra,8(sp)
 712 039c 23308100 		sd	s0,0(sp)
 713              		.cfi_offset 1, -8
 714              		.cfi_offset 8, -16
 715 03a0 13040101 		addi	s0,sp,16
GAS LISTING /tmp/cc9gbuft.s 			page 16


 716              		.cfi_def_cfa 8, 0
  68:src/syscall_cpp.cpp ****     return sem_wait(myHandle);
 717              		.loc 2 68 5
 718              		.loc 2 68 20 is_stmt 0
 719 03a4 03358500 		ld	a0,8(a0)
 720              	.LVL51:
 721 03a8 97000000 		call	_Z8sem_waitP4_sem@plt
 721      E7800000 
 722              	.LVL52:
  69:src/syscall_cpp.cpp **** }
 723              		.loc 2 69 1
 724 03b0 83308100 		ld	ra,8(sp)
 725              		.cfi_restore 1
 726 03b4 03340100 		ld	s0,0(sp)
 727              		.cfi_restore 8
 728              		.cfi_def_cfa 2, 16
 729 03b8 13010101 		addi	sp,sp,16
 730              		.cfi_def_cfa_offset 0
 731 03bc 67800000 		jr	ra
 732              		.cfi_endproc
 733              	.LFE76:
 735              		.weak	_ZTV6Thread
 736              		.section	.data.rel.ro.local._ZTV6Thread,"awG",@progbits,_ZTV6Thread,comdat
 737              		.align	3
 740              	_ZTV6Thread:
 741 0000 00000000 		.dword	0
 741      00000000 
 742 0008 00000000 		.dword	0
 742      00000000 
 743 0010 00000000 		.dword	_ZN6ThreadD1Ev
 743      00000000 
 744 0018 00000000 		.dword	_ZN6ThreadD0Ev
 744      00000000 
 745 0020 00000000 		.dword	_ZN6Thread3runEv
 745      00000000 
 746              		.weak	_ZTV9Semaphore
 747              		.section	.data.rel.ro.local._ZTV9Semaphore,"awG",@progbits,_ZTV9Semaphore,comdat
 748              		.align	3
 751              	_ZTV9Semaphore:
 752 0000 00000000 		.dword	0
 752      00000000 
 753 0008 00000000 		.dword	0
 753      00000000 
 754 0010 00000000 		.dword	_ZN9SemaphoreD1Ev
 754      00000000 
 755 0018 00000000 		.dword	_ZN9SemaphoreD0Ev
 755      00000000 
 756              		.text
 757              	.Letext0:
 758              		.file 3 "src/../h/../h/../lib/hw.h"
 759              		.file 4 "src/../h/Scheduler.hpp"
 760              		.file 5 "src/../h/list.hpp"
 761              		.file 6 "src/../h/_thread.hpp"
 762              		.file 7 "src/../h/_sem.hpp"
 763              		.file 8 "src/../h/syscall_c.hpp"
 4158              		.align	3
 4161              	DW.ref.__gxx_personality_v0:
GAS LISTING /tmp/cc9gbuft.s 			page 17


 4162 0000 00000000 		.dword	__gxx_personality_v0
 4162      00000000 
 4163              		.ident	"GCC: (Ubuntu 9.4.0-1ubuntu1~20.04) 9.4.0"
 4164              		.section	.note.GNU-stack,"",@progbits
GAS LISTING /tmp/cc9gbuft.s 			page 18


DEFINED SYMBOLS
                            *ABS*:0000000000000000 syscall_cpp.cpp
     /tmp/cc9gbuft.s:10     .text._ZN6Thread3runEv:0000000000000000 _ZN6Thread3runEv
     /tmp/cc9gbuft.s:14     .text._ZN6Thread3runEv:0000000000000000 .L0 
     /tmp/cc9gbuft.s:16     .text._ZN6Thread3runEv:0000000000000000 .L0 
     /tmp/cc9gbuft.s:17     .text._ZN6Thread3runEv:0000000000000004 .L0 
     /tmp/cc9gbuft.s:19     .text._ZN6Thread3runEv:0000000000000008 .L0 
     /tmp/cc9gbuft.s:21     .text._ZN6Thread3runEv:000000000000000c .L0 
     /tmp/cc9gbuft.s:23     .text._ZN6Thread3runEv:000000000000000c .L0 
     /tmp/cc9gbuft.s:24     .text._ZN6Thread3runEv:0000000000000010 .L0 
     /tmp/cc9gbuft.s:25     .text._ZN6Thread3runEv:0000000000000010 .L0 
     /tmp/cc9gbuft.s:27     .text._ZN6Thread3runEv:0000000000000014 .L0 
     /tmp/cc9gbuft.s:29     .text._ZN6Thread3runEv:0000000000000018 .L0 
     /tmp/cc9gbuft.s:36     .text:0000000000000000 _ZN6Thread13threadWrapperEPv
     /tmp/cc9gbuft.s:40     .text:0000000000000000 .L0 
     /tmp/cc9gbuft.s:42     .text:0000000000000000 .L0 
     /tmp/cc9gbuft.s:43     .text:0000000000000004 .L0 
     /tmp/cc9gbuft.s:46     .text:000000000000000c .L0 
     /tmp/cc9gbuft.s:47     .text:000000000000000c .L0 
     /tmp/cc9gbuft.s:49     .text:0000000000000010 .L0 
     /tmp/cc9gbuft.s:51     .text:0000000000000010 .L0 
     /tmp/cc9gbuft.s:52     .text:0000000000000010 .L0 
     /tmp/cc9gbuft.s:55     .text:0000000000000018 .L0 
     /tmp/cc9gbuft.s:58     .text:000000000000001c .L0 
     /tmp/cc9gbuft.s:59     .text:0000000000000020 .L0 
     /tmp/cc9gbuft.s:61     .text:0000000000000024 .L0 
     /tmp/cc9gbuft.s:62     .text:0000000000000024 .L0 
     /tmp/cc9gbuft.s:64     .text:0000000000000028 .L0 
     /tmp/cc9gbuft.s:66     .text:000000000000002c .L0 
     /tmp/cc9gbuft.s:72     .text:000000000000002c _Znwm
     /tmp/cc9gbuft.s:75     .text:000000000000002c .L0 
     /tmp/cc9gbuft.s:77     .text:000000000000002c .L0 
     /tmp/cc9gbuft.s:78     .text:0000000000000030 .L0 
     /tmp/cc9gbuft.s:81     .text:0000000000000038 .L0 
     /tmp/cc9gbuft.s:82     .text:0000000000000038 .L0 
     /tmp/cc9gbuft.s:84     .text:000000000000003c .L0 
     /tmp/cc9gbuft.s:86     .text:000000000000003c .L0 
     /tmp/cc9gbuft.s:87     .text:000000000000003c .L0 
     /tmp/cc9gbuft.s:90     .text:0000000000000044 .L0 
     /tmp/cc9gbuft.s:91     .text:0000000000000048 .L0 
     /tmp/cc9gbuft.s:93     .text:000000000000004c .L0 
     /tmp/cc9gbuft.s:94     .text:000000000000004c .L0 
     /tmp/cc9gbuft.s:96     .text:0000000000000050 .L0 
     /tmp/cc9gbuft.s:98     .text:0000000000000054 .L0 
     /tmp/cc9gbuft.s:104    .text:0000000000000054 _Znam
     /tmp/cc9gbuft.s:107    .text:0000000000000054 .L0 
     /tmp/cc9gbuft.s:109    .text:0000000000000054 .L0 
     /tmp/cc9gbuft.s:110    .text:0000000000000058 .L0 
     /tmp/cc9gbuft.s:113    .text:0000000000000060 .L0 
     /tmp/cc9gbuft.s:114    .text:0000000000000060 .L0 
     /tmp/cc9gbuft.s:116    .text:0000000000000064 .L0 
     /tmp/cc9gbuft.s:118    .text:0000000000000064 .L0 
     /tmp/cc9gbuft.s:119    .text:0000000000000064 .L0 
     /tmp/cc9gbuft.s:122    .text:000000000000006c .L0 
     /tmp/cc9gbuft.s:123    .text:0000000000000070 .L0 
     /tmp/cc9gbuft.s:125    .text:0000000000000074 .L0 
     /tmp/cc9gbuft.s:126    .text:0000000000000074 .L0 
GAS LISTING /tmp/cc9gbuft.s 			page 19


     /tmp/cc9gbuft.s:128    .text:0000000000000078 .L0 
     /tmp/cc9gbuft.s:130    .text:000000000000007c .L0 
     /tmp/cc9gbuft.s:136    .text:000000000000007c _ZdlPv
     /tmp/cc9gbuft.s:139    .text:000000000000007c .L0 
     /tmp/cc9gbuft.s:141    .text:000000000000007c .L0 
     /tmp/cc9gbuft.s:142    .text:0000000000000080 .L0 
     /tmp/cc9gbuft.s:145    .text:0000000000000088 .L0 
     /tmp/cc9gbuft.s:146    .text:0000000000000088 .L0 
     /tmp/cc9gbuft.s:148    .text:000000000000008c .L0 
     /tmp/cc9gbuft.s:150    .text:000000000000008c .L0 
     /tmp/cc9gbuft.s:151    .text:000000000000008c .L0 
     /tmp/cc9gbuft.s:154    .text:0000000000000094 .L0 
     /tmp/cc9gbuft.s:155    .text:0000000000000098 .L0 
     /tmp/cc9gbuft.s:157    .text:000000000000009c .L0 
     /tmp/cc9gbuft.s:158    .text:000000000000009c .L0 
     /tmp/cc9gbuft.s:160    .text:00000000000000a0 .L0 
     /tmp/cc9gbuft.s:162    .text:00000000000000a4 .L0 
     /tmp/cc9gbuft.s:168    .text:00000000000000a4 _ZN6ThreadD2Ev
     /tmp/cc9gbuft.s:171    .text:00000000000000a4 .L0 
     /tmp/cc9gbuft.s:4161   .data.rel.local.DW.ref.__gxx_personality_v0:0000000000000000 DW.ref.__gxx_personality_v0
     /tmp/cc9gbuft.s:175    .text:00000000000000a4 .L0 
     /tmp/cc9gbuft.s:176    .text:00000000000000a8 .L0 
     /tmp/cc9gbuft.s:180    .text:00000000000000b4 .L0 
     /tmp/cc9gbuft.s:181    .text:00000000000000b4 .L0 
     /tmp/cc9gbuft.s:182    .text:00000000000000b4 .L0 
     /tmp/cc9gbuft.s:184    .text:00000000000000b8 .L0 
     /tmp/cc9gbuft.s:740    .data.rel.ro.local._ZTV6Thread:0000000000000000 _ZTV6Thread
     /tmp/cc9gbuft.s:188    .text:00000000000000bc .L0 
     /tmp/cc9gbuft.s:191    .text:00000000000000c8 .L0 
     /tmp/cc9gbuft.s:192    .text:00000000000000c8 .L0 
     /tmp/cc9gbuft.s:195    .text:00000000000000d0 .L0 
     /tmp/cc9gbuft.s:196    .text:00000000000000d0 .L0 
     /tmp/cc9gbuft.s:199    .text:00000000000000d4 .L0 
     /tmp/cc9gbuft.s:201    .text:00000000000000d8 .L0 
     /tmp/cc9gbuft.s:210    .text:00000000000000f0 .L0 
     /tmp/cc9gbuft.s:211    .text:00000000000000f4 .L0 
     /tmp/cc9gbuft.s:213    .text:00000000000000f8 .L0 
     /tmp/cc9gbuft.s:214    .text:00000000000000f8 .L0 
     /tmp/cc9gbuft.s:216    .text:00000000000000fc .L0 
     /tmp/cc9gbuft.s:218    .text:0000000000000100 .L0 
     /tmp/cc9gbuft.s:220    .text:0000000000000104 .L0 
     /tmp/cc9gbuft.s:168    .text:00000000000000a4 _ZN6ThreadD1Ev
     /tmp/cc9gbuft.s:236    .text:0000000000000104 _ZN6ThreadD0Ev
     /tmp/cc9gbuft.s:239    .text:0000000000000104 .L0 
     /tmp/cc9gbuft.s:241    .text:0000000000000104 .L0 
     /tmp/cc9gbuft.s:242    .text:0000000000000108 .L0 
     /tmp/cc9gbuft.s:246    .text:0000000000000114 .L0 
     /tmp/cc9gbuft.s:247    .text:0000000000000114 .L0 
     /tmp/cc9gbuft.s:248    .text:0000000000000114 .L0 
     /tmp/cc9gbuft.s:250    .text:0000000000000118 .L0 
     /tmp/cc9gbuft.s:253    .text:000000000000011c .L0 
     /tmp/cc9gbuft.s:259    .text:0000000000000134 .L0 
     /tmp/cc9gbuft.s:261    .text:0000000000000138 .L0 
     /tmp/cc9gbuft.s:262    .text:0000000000000138 .L0 
     /tmp/cc9gbuft.s:264    .text:000000000000013c .L0 
     /tmp/cc9gbuft.s:267    .text:0000000000000140 .L0 
     /tmp/cc9gbuft.s:269    .text:0000000000000144 .L0 
GAS LISTING /tmp/cc9gbuft.s 			page 20


     /tmp/cc9gbuft.s:275    .text:0000000000000144 _ZN9SemaphoreD2Ev
     /tmp/cc9gbuft.s:278    .text:0000000000000144 .L0 
     /tmp/cc9gbuft.s:282    .text:0000000000000144 .L0 
     /tmp/cc9gbuft.s:283    .text:0000000000000148 .L0 
     /tmp/cc9gbuft.s:287    .text:0000000000000154 .L0 
     /tmp/cc9gbuft.s:288    .text:0000000000000154 .L0 
     /tmp/cc9gbuft.s:289    .text:0000000000000154 .L0 
     /tmp/cc9gbuft.s:291    .text:0000000000000158 .L0 
     /tmp/cc9gbuft.s:751    .data.rel.ro.local._ZTV9Semaphore:0000000000000000 _ZTV9Semaphore
     /tmp/cc9gbuft.s:295    .text:000000000000015c .L0 
     /tmp/cc9gbuft.s:298    .text:0000000000000168 .L0 
     /tmp/cc9gbuft.s:299    .text:0000000000000168 .L0 
     /tmp/cc9gbuft.s:304    .text:0000000000000174 .L0 
     /tmp/cc9gbuft.s:305    .text:0000000000000174 .L0 
     /tmp/cc9gbuft.s:308    .text:0000000000000178 .L0 
     /tmp/cc9gbuft.s:310    .text:000000000000017c .L0 
     /tmp/cc9gbuft.s:319    .text:0000000000000194 .L0 
     /tmp/cc9gbuft.s:320    .text:0000000000000198 .L0 
     /tmp/cc9gbuft.s:322    .text:000000000000019c .L0 
     /tmp/cc9gbuft.s:323    .text:000000000000019c .L0 
     /tmp/cc9gbuft.s:325    .text:00000000000001a0 .L0 
     /tmp/cc9gbuft.s:327    .text:00000000000001a4 .L0 
     /tmp/cc9gbuft.s:329    .text:00000000000001a8 .L0 
     /tmp/cc9gbuft.s:275    .text:0000000000000144 _ZN9SemaphoreD1Ev
     /tmp/cc9gbuft.s:344    .text:00000000000001a8 _ZN9SemaphoreD0Ev
     /tmp/cc9gbuft.s:347    .text:00000000000001a8 .L0 
     /tmp/cc9gbuft.s:349    .text:00000000000001a8 .L0 
     /tmp/cc9gbuft.s:350    .text:00000000000001ac .L0 
     /tmp/cc9gbuft.s:354    .text:00000000000001b8 .L0 
     /tmp/cc9gbuft.s:355    .text:00000000000001b8 .L0 
     /tmp/cc9gbuft.s:356    .text:00000000000001b8 .L0 
     /tmp/cc9gbuft.s:358    .text:00000000000001bc .L0 
     /tmp/cc9gbuft.s:361    .text:00000000000001c0 .L0 
     /tmp/cc9gbuft.s:367    .text:00000000000001d8 .L0 
     /tmp/cc9gbuft.s:369    .text:00000000000001dc .L0 
     /tmp/cc9gbuft.s:370    .text:00000000000001dc .L0 
     /tmp/cc9gbuft.s:372    .text:00000000000001e0 .L0 
     /tmp/cc9gbuft.s:375    .text:00000000000001e4 .L0 
     /tmp/cc9gbuft.s:377    .text:00000000000001e8 .L0 
     /tmp/cc9gbuft.s:383    .text:00000000000001e8 _ZdaPv
     /tmp/cc9gbuft.s:386    .text:00000000000001e8 .L0 
     /tmp/cc9gbuft.s:388    .text:00000000000001e8 .L0 
     /tmp/cc9gbuft.s:389    .text:00000000000001ec .L0 
     /tmp/cc9gbuft.s:392    .text:00000000000001f4 .L0 
     /tmp/cc9gbuft.s:393    .text:00000000000001f4 .L0 
     /tmp/cc9gbuft.s:395    .text:00000000000001f8 .L0 
     /tmp/cc9gbuft.s:397    .text:00000000000001f8 .L0 
     /tmp/cc9gbuft.s:398    .text:00000000000001f8 .L0 
     /tmp/cc9gbuft.s:401    .text:0000000000000200 .L0 
     /tmp/cc9gbuft.s:402    .text:0000000000000204 .L0 
     /tmp/cc9gbuft.s:404    .text:0000000000000208 .L0 
     /tmp/cc9gbuft.s:405    .text:0000000000000208 .L0 
     /tmp/cc9gbuft.s:407    .text:000000000000020c .L0 
     /tmp/cc9gbuft.s:409    .text:0000000000000210 .L0 
     /tmp/cc9gbuft.s:415    .text:0000000000000210 _Z16switchToUserModev
     /tmp/cc9gbuft.s:418    .text:0000000000000210 .L0 
     /tmp/cc9gbuft.s:419    .text:0000000000000210 .L0 
GAS LISTING /tmp/cc9gbuft.s 			page 21


     /tmp/cc9gbuft.s:420    .text:0000000000000214 .L0 
     /tmp/cc9gbuft.s:423    .text:000000000000021c .L0 
     /tmp/cc9gbuft.s:424    .text:000000000000021c .L0 
     /tmp/cc9gbuft.s:426    .text:0000000000000220 .L0 
     /tmp/cc9gbuft.s:428    .text:0000000000000220 .L0 
     /tmp/cc9gbuft.s:429    .text:0000000000000220 .L0 
     /tmp/cc9gbuft.s:432    .text:0000000000000228 .L0 
     /tmp/cc9gbuft.s:433    .text:000000000000022c .L0 
     /tmp/cc9gbuft.s:435    .text:0000000000000230 .L0 
     /tmp/cc9gbuft.s:436    .text:0000000000000230 .L0 
     /tmp/cc9gbuft.s:438    .text:0000000000000234 .L0 
     /tmp/cc9gbuft.s:440    .text:0000000000000238 .L0 
     /tmp/cc9gbuft.s:446    .text:0000000000000238 _ZN6ThreadC2EPFvPvES0_
     /tmp/cc9gbuft.s:449    .text:0000000000000238 .L0 
     /tmp/cc9gbuft.s:451    .text:0000000000000238 .L0 
     /tmp/cc9gbuft.s:452    .text:000000000000023c .L0 
     /tmp/cc9gbuft.s:455    .text:0000000000000244 .L0 
     /tmp/cc9gbuft.s:456    .text:0000000000000244 .L0 
     /tmp/cc9gbuft.s:458    .text:0000000000000248 .L0 
     /tmp/cc9gbuft.s:461    .text:0000000000000248 .L0 
     /tmp/cc9gbuft.s:464    .text:0000000000000254 .L0 
     /tmp/cc9gbuft.s:465    .text:0000000000000254 .L0 
     /tmp/cc9gbuft.s:470    .text:0000000000000260 .L0 
     /tmp/cc9gbuft.s:471    .text:0000000000000260 .L0 
     /tmp/cc9gbuft.s:475    .text:0000000000000268 .L0 
     /tmp/cc9gbuft.s:476    .text:000000000000026c .L0 
     /tmp/cc9gbuft.s:478    .text:0000000000000270 .L0 
     /tmp/cc9gbuft.s:479    .text:0000000000000270 .L0 
     /tmp/cc9gbuft.s:481    .text:0000000000000274 .L0 
     /tmp/cc9gbuft.s:483    .text:0000000000000278 .L0 
     /tmp/cc9gbuft.s:446    .text:0000000000000238 _ZN6ThreadC1EPFvPvES0_
     /tmp/cc9gbuft.s:491    .text:0000000000000278 _ZN6ThreadC2Ev
     /tmp/cc9gbuft.s:494    .text:0000000000000278 .L0 
     /tmp/cc9gbuft.s:496    .text:0000000000000278 .L0 
     /tmp/cc9gbuft.s:497    .text:000000000000027c .L0 
     /tmp/cc9gbuft.s:500    .text:0000000000000284 .L0 
     /tmp/cc9gbuft.s:501    .text:0000000000000284 .L0 
     /tmp/cc9gbuft.s:503    .text:0000000000000288 .L0 
     /tmp/cc9gbuft.s:507    .text:000000000000028c .L0 
     /tmp/cc9gbuft.s:512    .text:000000000000029c .L0 
     /tmp/cc9gbuft.s:513    .text:00000000000002a0 .L0 
     /tmp/cc9gbuft.s:515    .text:00000000000002a4 .L0 
     /tmp/cc9gbuft.s:516    .text:00000000000002a4 .L0 
     /tmp/cc9gbuft.s:518    .text:00000000000002a8 .L0 
     /tmp/cc9gbuft.s:520    .text:00000000000002ac .L0 
     /tmp/cc9gbuft.s:491    .text:0000000000000278 _ZN6ThreadC1Ev
     /tmp/cc9gbuft.s:528    .text:00000000000002ac _ZN6Thread5startEv
     /tmp/cc9gbuft.s:531    .text:00000000000002ac .L0 
     /tmp/cc9gbuft.s:533    .text:00000000000002ac .L0 
     /tmp/cc9gbuft.s:534    .text:00000000000002b0 .L0 
     /tmp/cc9gbuft.s:537    .text:00000000000002b8 .L0 
     /tmp/cc9gbuft.s:538    .text:00000000000002b8 .L0 
     /tmp/cc9gbuft.s:540    .text:00000000000002bc .L0 
     /tmp/cc9gbuft.s:542    .text:00000000000002bc .L0 
     /tmp/cc9gbuft.s:543    .text:00000000000002bc .L0 
     /tmp/cc9gbuft.s:548    .text:00000000000002c8 .L0 
     /tmp/cc9gbuft.s:549    .text:00000000000002c8 .L0 
GAS LISTING /tmp/cc9gbuft.s 			page 22


     /tmp/cc9gbuft.s:551    .text:00000000000002d0 .L0 
     /tmp/cc9gbuft.s:553    .text:00000000000002d4 .L0 
     /tmp/cc9gbuft.s:554    .text:00000000000002d4 .L0 
     /tmp/cc9gbuft.s:556    .text:00000000000002d8 .L0 
     /tmp/cc9gbuft.s:558    .text:00000000000002dc .L0 
     /tmp/cc9gbuft.s:564    .text:00000000000002dc _ZN6Thread4joinEv
     /tmp/cc9gbuft.s:567    .text:00000000000002dc .L0 
     /tmp/cc9gbuft.s:569    .text:00000000000002dc .L0 
     /tmp/cc9gbuft.s:570    .text:00000000000002e0 .L0 
     /tmp/cc9gbuft.s:573    .text:00000000000002e8 .L0 
     /tmp/cc9gbuft.s:574    .text:00000000000002e8 .L0 
     /tmp/cc9gbuft.s:576    .text:00000000000002ec .L0 
     /tmp/cc9gbuft.s:578    .text:00000000000002ec .L0 
     /tmp/cc9gbuft.s:579    .text:00000000000002ec .L0 
     /tmp/cc9gbuft.s:584    .text:00000000000002f8 .L0 
     /tmp/cc9gbuft.s:585    .text:00000000000002fc .L0 
     /tmp/cc9gbuft.s:587    .text:0000000000000300 .L0 
     /tmp/cc9gbuft.s:588    .text:0000000000000300 .L0 
     /tmp/cc9gbuft.s:590    .text:0000000000000304 .L0 
     /tmp/cc9gbuft.s:592    .text:0000000000000308 .L0 
     /tmp/cc9gbuft.s:598    .text:0000000000000308 _ZN6Thread8dispatchEv
     /tmp/cc9gbuft.s:601    .text:0000000000000308 .L0 
     /tmp/cc9gbuft.s:602    .text:0000000000000308 .L0 
     /tmp/cc9gbuft.s:603    .text:000000000000030c .L0 
     /tmp/cc9gbuft.s:606    .text:0000000000000314 .L0 
     /tmp/cc9gbuft.s:607    .text:0000000000000314 .L0 
     /tmp/cc9gbuft.s:609    .text:0000000000000318 .L0 
     /tmp/cc9gbuft.s:611    .text:0000000000000318 .L0 
     /tmp/cc9gbuft.s:612    .text:0000000000000318 .L0 
     /tmp/cc9gbuft.s:615    .text:0000000000000320 .L0 
     /tmp/cc9gbuft.s:616    .text:0000000000000324 .L0 
     /tmp/cc9gbuft.s:618    .text:0000000000000328 .L0 
     /tmp/cc9gbuft.s:619    .text:0000000000000328 .L0 
     /tmp/cc9gbuft.s:621    .text:000000000000032c .L0 
     /tmp/cc9gbuft.s:623    .text:0000000000000330 .L0 
     /tmp/cc9gbuft.s:629    .text:0000000000000330 _ZN9SemaphoreC2Ej
     /tmp/cc9gbuft.s:632    .text:0000000000000330 .L0 
     /tmp/cc9gbuft.s:634    .text:0000000000000330 .L0 
     /tmp/cc9gbuft.s:635    .text:0000000000000334 .L0 
     /tmp/cc9gbuft.s:638    .text:000000000000033c .L0 
     /tmp/cc9gbuft.s:639    .text:000000000000033c .L0 
     /tmp/cc9gbuft.s:641    .text:0000000000000340 .L0 
     /tmp/cc9gbuft.s:644    .text:0000000000000340 .L0 
     /tmp/cc9gbuft.s:647    .text:000000000000034c .L0 
     /tmp/cc9gbuft.s:648    .text:000000000000034c .L0 
     /tmp/cc9gbuft.s:654    .text:0000000000000358 .L0 
     /tmp/cc9gbuft.s:655    .text:000000000000035c .L0 
     /tmp/cc9gbuft.s:657    .text:0000000000000360 .L0 
     /tmp/cc9gbuft.s:658    .text:0000000000000360 .L0 
     /tmp/cc9gbuft.s:660    .text:0000000000000364 .L0 
     /tmp/cc9gbuft.s:662    .text:0000000000000368 .L0 
     /tmp/cc9gbuft.s:629    .text:0000000000000330 _ZN9SemaphoreC1Ej
     /tmp/cc9gbuft.s:670    .text:0000000000000368 _ZN9Semaphore6signalEv
     /tmp/cc9gbuft.s:673    .text:0000000000000368 .L0 
     /tmp/cc9gbuft.s:675    .text:0000000000000368 .L0 
     /tmp/cc9gbuft.s:676    .text:000000000000036c .L0 
     /tmp/cc9gbuft.s:679    .text:0000000000000374 .L0 
GAS LISTING /tmp/cc9gbuft.s 			page 23


     /tmp/cc9gbuft.s:680    .text:0000000000000374 .L0 
     /tmp/cc9gbuft.s:682    .text:0000000000000378 .L0 
     /tmp/cc9gbuft.s:684    .text:0000000000000378 .L0 
     /tmp/cc9gbuft.s:685    .text:0000000000000378 .L0 
     /tmp/cc9gbuft.s:690    .text:0000000000000384 .L0 
     /tmp/cc9gbuft.s:691    .text:0000000000000388 .L0 
     /tmp/cc9gbuft.s:693    .text:000000000000038c .L0 
     /tmp/cc9gbuft.s:694    .text:000000000000038c .L0 
     /tmp/cc9gbuft.s:696    .text:0000000000000390 .L0 
     /tmp/cc9gbuft.s:698    .text:0000000000000394 .L0 
     /tmp/cc9gbuft.s:704    .text:0000000000000394 _ZN9Semaphore4waitEv
     /tmp/cc9gbuft.s:707    .text:0000000000000394 .L0 
     /tmp/cc9gbuft.s:709    .text:0000000000000394 .L0 
     /tmp/cc9gbuft.s:710    .text:0000000000000398 .L0 
     /tmp/cc9gbuft.s:713    .text:00000000000003a0 .L0 
     /tmp/cc9gbuft.s:714    .text:00000000000003a0 .L0 
     /tmp/cc9gbuft.s:716    .text:00000000000003a4 .L0 
     /tmp/cc9gbuft.s:718    .text:00000000000003a4 .L0 
     /tmp/cc9gbuft.s:719    .text:00000000000003a4 .L0 
     /tmp/cc9gbuft.s:724    .text:00000000000003b0 .L0 
     /tmp/cc9gbuft.s:725    .text:00000000000003b4 .L0 
     /tmp/cc9gbuft.s:727    .text:00000000000003b8 .L0 
     /tmp/cc9gbuft.s:728    .text:00000000000003b8 .L0 
     /tmp/cc9gbuft.s:730    .text:00000000000003bc .L0 
     /tmp/cc9gbuft.s:732    .text:00000000000003c0 .L0 
     /tmp/cc9gbuft.s:32     .text._ZN6Thread3runEv:0000000000000018 .L0 
     /tmp/cc9gbuft.s:764    .text:00000000000003c0 .L0 
     /tmp/cc9gbuft.s:188    .text:00000000000000bc .L0 
     /tmp/cc9gbuft.s:295    .text:000000000000015c .L0 
     /tmp/cc9gbuft.s:461    .text:0000000000000248 .L0 
     /tmp/cc9gbuft.s:507    .text:000000000000028c .L0 
     /tmp/cc9gbuft.s:644    .text:0000000000000340 .L0 
     /tmp/cc9gbuft.s:207    .text:00000000000000f0 .L11
     /tmp/cc9gbuft.s:316    .text:0000000000000194 .L16
     /tmp/cc9gbuft.s:2404   .debug_abbrev:0000000000000000 .Ldebug_abbrev0
     /tmp/cc9gbuft.s:4091   .debug_str:000000000000077e .LASF149
     /tmp/cc9gbuft.s:3937   .debug_str:000000000000030e .LASF150
     /tmp/cc9gbuft.s:4099   .debug_str:0000000000000866 .LASF151
     /tmp/cc9gbuft.s:3811   .debug_ranges:0000000000000000 .Ldebug_ranges0
     /tmp/cc9gbuft.s:3819   .debug_line:0000000000000000 .Ldebug_line0
     /tmp/cc9gbuft.s:3929   .debug_str:00000000000002e4 .LASF0
     /tmp/cc9gbuft.s:3961   .debug_str:0000000000000406 .LASF1
     /tmp/cc9gbuft.s:4031   .debug_str:0000000000000600 .LASF2
     /tmp/cc9gbuft.s:4039   .debug_str:0000000000000630 .LASF4
     /tmp/cc9gbuft.s:3939   .debug_str:0000000000000322 .LASF3
     /tmp/cc9gbuft.s:3829   .debug_str:000000000000003d .LASF5
     /tmp/cc9gbuft.s:4005   .debug_str:0000000000000536 .LASF6
     /tmp/cc9gbuft.s:3949   .debug_str:00000000000003a9 .LASF7
     /tmp/cc9gbuft.s:3911   .debug_str:000000000000026c .LASF8
     /tmp/cc9gbuft.s:3913   .debug_str:000000000000027c .LASF9
     /tmp/cc9gbuft.s:3859   .debug_str:00000000000000f0 .LASF10
     /tmp/cc9gbuft.s:3903   .debug_str:000000000000022d .LASF11
     /tmp/cc9gbuft.s:3871   .debug_str:0000000000000161 .LASF12
     /tmp/cc9gbuft.s:3857   .debug_str:00000000000000e0 .LASF13
     /tmp/cc9gbuft.s:4067   .debug_str:00000000000006fb .LASF14
     /tmp/cc9gbuft.s:3895   .debug_str:00000000000001f2 .LASF15
     /tmp/cc9gbuft.s:4055   .debug_str:0000000000000694 .LASF16
GAS LISTING /tmp/cc9gbuft.s 			page 24


     /tmp/cc9gbuft.s:3909   .debug_str:0000000000000262 .LASF18
     /tmp/cc9gbuft.s:3869   .debug_str:0000000000000156 .LASF152
     /tmp/cc9gbuft.s:4137   .debug_str:00000000000009b3 .LASF153
     /tmp/cc9gbuft.s:3943   .debug_str:0000000000000360 .LASF154
     /tmp/cc9gbuft.s:3821   .debug_str:0000000000000000 .LASF17
     /tmp/cc9gbuft.s:4041   .debug_str:0000000000000637 .LASF49
     /tmp/cc9gbuft.s:4151   .debug_str:0000000000000a26 .LASF19
     /tmp/cc9gbuft.s:4105   .debug_str:0000000000000897 .LASF155
     /tmp/cc9gbuft.s:4061   .debug_str:00000000000006cd .LASF20
     /tmp/cc9gbuft.s:3987   .debug_str:00000000000004b9 .LASF21
     /tmp/cc9gbuft.s:3981   .debug_str:000000000000049a .LASF22
     /tmp/cc9gbuft.s:4111   .debug_str:00000000000008ae .LASF24
     /tmp/cc9gbuft.s:4019   .debug_str:00000000000005ac .LASF29
     /tmp/cc9gbuft.s:4035   .debug_str:000000000000061d .LASF85
     /tmp/cc9gbuft.s:3921   .debug_str:00000000000002aa .LASF87
     /tmp/cc9gbuft.s:3957   .debug_str:00000000000003f8 .LASF23
     /tmp/cc9gbuft.s:4143   .debug_str:00000000000009dd .LASF25
     /tmp/cc9gbuft.s:3971   .debug_str:000000000000046a .LASF26
     /tmp/cc9gbuft.s:4115   .debug_str:00000000000008d9 .LASF27
     /tmp/cc9gbuft.s:4003   .debug_str:000000000000052a .LASF28
     /tmp/cc9gbuft.s:3951   .debug_str:00000000000003bc .LASF30
     /tmp/cc9gbuft.s:4153   .debug_str:0000000000000a34 .LASF31
     /tmp/cc9gbuft.s:4131   .debug_str:0000000000000980 .LASF32
     /tmp/cc9gbuft.s:4045   .debug_str:0000000000000660 .LASF33
     /tmp/cc9gbuft.s:3905   .debug_str:000000000000023c .LASF34
     /tmp/cc9gbuft.s:4021   .debug_str:00000000000005c7 .LASF35
     /tmp/cc9gbuft.s:3865   .debug_str:0000000000000126 .LASF36
     /tmp/cc9gbuft.s:3841   .debug_str:000000000000008e .LASF37
     /tmp/cc9gbuft.s:4075   .debug_str:000000000000071c .LASF156
     /tmp/cc9gbuft.s:4085   .debug_str:000000000000075b .LASF157
     /tmp/cc9gbuft.s:3855   .debug_str:00000000000000da .LASF38
     /tmp/cc9gbuft.s:4047   .debug_str:000000000000066b .LASF39
     /tmp/cc9gbuft.s:4093   .debug_str:0000000000000842 .LASF40
     /tmp/cc9gbuft.s:3849   .debug_str:00000000000000b6 .LASF41
     /tmp/cc9gbuft.s:4069   .debug_str:0000000000000707 .LASF42
     /tmp/cc9gbuft.s:3953   .debug_str:00000000000003de .LASF43
     /tmp/cc9gbuft.s:4077   .debug_str:0000000000000724 .LASF44
     /tmp/cc9gbuft.s:4063   .debug_str:00000000000006d2 .LASF45
     /tmp/cc9gbuft.s:4037   .debug_str:0000000000000627 .LASF46
     /tmp/cc9gbuft.s:3995   .debug_str:00000000000004e8 .LASF47
     /tmp/cc9gbuft.s:3881   .debug_str:00000000000001ae .LASF102
     /tmp/cc9gbuft.s:3877   .debug_str:0000000000000192 .LASF103
     /tmp/cc9gbuft.s:4051   .debug_str:000000000000067c .LASF48
     /tmp/cc9gbuft.s:3827   .debug_str:000000000000002a .LASF50
     /tmp/cc9gbuft.s:3947   .debug_str:000000000000038f .LASF51
     /tmp/cc9gbuft.s:3999   .debug_str:000000000000050f .LASF158
     /tmp/cc9gbuft.s:4135   .debug_str:00000000000009ad .LASF52
     /tmp/cc9gbuft.s:4011   .debug_str:0000000000000568 .LASF53
     /tmp/cc9gbuft.s:4089   .debug_str:0000000000000776 .LASF159
     /tmp/cc9gbuft.s:3933   .debug_str:00000000000002fa .LASF54
     /tmp/cc9gbuft.s:3945   .debug_str:000000000000037c .LASF55
     /tmp/cc9gbuft.s:3875   .debug_str:0000000000000184 .LASF82
     /tmp/cc9gbuft.s:3941   .debug_str:0000000000000334 .LASF160
     /tmp/cc9gbuft.s:4109   .debug_str:00000000000008a6 .LASF161
     /tmp/cc9gbuft.s:4119   .debug_str:000000000000090a .LASF162
     /tmp/cc9gbuft.s:4029   .debug_str:00000000000005f6 .LASF56
     /tmp/cc9gbuft.s:3879   .debug_str:00000000000001a9 .LASF57
GAS LISTING /tmp/cc9gbuft.s 			page 25


     /tmp/cc9gbuft.s:4139   .debug_str:00000000000009c7 .LASF58
     /tmp/cc9gbuft.s:4073   .debug_str:0000000000000717 .LASF59
     /tmp/cc9gbuft.s:4101   .debug_str:0000000000000889 .LASF60
     /tmp/cc9gbuft.s:3887   .debug_str:00000000000001d5 .LASF61
     /tmp/cc9gbuft.s:3973   .debug_str:0000000000000472 .LASF62
     /tmp/cc9gbuft.s:4079   .debug_str:000000000000072f .LASF63
     /tmp/cc9gbuft.s:3923   .debug_str:00000000000002c5 .LASF64
     /tmp/cc9gbuft.s:3985   .debug_str:00000000000004af .LASF65
     /tmp/cc9gbuft.s:4103   .debug_str:0000000000000891 .LASF66
     /tmp/cc9gbuft.s:3853   .debug_str:00000000000000cd .LASF67
     /tmp/cc9gbuft.s:4007   .debug_str:0000000000000549 .LASF68
     /tmp/cc9gbuft.s:3893   .debug_str:00000000000001ec .LASF69
     /tmp/cc9gbuft.s:3977   .debug_str:0000000000000483 .LASF70
     /tmp/cc9gbuft.s:3883   .debug_str:00000000000001b7 .LASF71
     /tmp/cc9gbuft.s:3983   .debug_str:000000000000049f .LASF72
     /tmp/cc9gbuft.s:4071   .debug_str:0000000000000710 .LASF73
     /tmp/cc9gbuft.s:4059   .debug_str:00000000000006bb .LASF74
     /tmp/cc9gbuft.s:3837   .debug_str:0000000000000082 .LASF75
     /tmp/cc9gbuft.s:3843   .debug_str:0000000000000096 .LASF76
     /tmp/cc9gbuft.s:4095   .debug_str:000000000000084c .LASF77
     /tmp/cc9gbuft.s:4129   .debug_str:000000000000096b .LASF78
     /tmp/cc9gbuft.s:3889   .debug_str:00000000000001db .LASF79
     /tmp/cc9gbuft.s:4147   .debug_str:0000000000000a0b .LASF80
     /tmp/cc9gbuft.s:4127   .debug_str:0000000000000965 .LASF81
     /tmp/cc9gbuft.s:4107   .debug_str:000000000000089c .LASF83
     /tmp/cc9gbuft.s:4087   .debug_str:0000000000000761 .LASF93
     /tmp/cc9gbuft.s:4141   .debug_str:00000000000009cd .LASF95
     /tmp/cc9gbuft.s:4083   .debug_str:0000000000000749 .LASF84
     /tmp/cc9gbuft.s:4017   .debug_str:00000000000005a1 .LASF86
     /tmp/cc9gbuft.s:4043   .debug_str:000000000000064e .LASF88
     /tmp/cc9gbuft.s:3863   .debug_str:0000000000000111 .LASF89
     /tmp/cc9gbuft.s:3831   .debug_str:0000000000000044 .LASF90
     /tmp/cc9gbuft.s:3931   .debug_str:00000000000002f1 .LASF91
     /tmp/cc9gbuft.s:3927   .debug_str:00000000000002d4 .LASF163
     /tmp/cc9gbuft.s:3919   .debug_str:00000000000002a3 .LASF92
     /tmp/cc9gbuft.s:3867   .debug_str:0000000000000144 .LASF94
     /tmp/cc9gbuft.s:4027   .debug_str:00000000000005e9 .LASF96
     /tmp/cc9gbuft.s:4121   .debug_str:0000000000000920 .LASF97
     /tmp/cc9gbuft.s:3891   .debug_str:00000000000001e4 .LASF98
     /tmp/cc9gbuft.s:3899   .debug_str:0000000000000218 .LASF99
     /tmp/cc9gbuft.s:3825   .debug_str:0000000000000017 .LASF100
     /tmp/cc9gbuft.s:4009   .debug_str:0000000000000556 .LASF101
     /tmp/cc9gbuft.s:4001   .debug_str:0000000000000514 .LASF104
     /tmp/cc9gbuft.s:3935   .debug_str:00000000000002ff .LASF105
     /tmp/cc9gbuft.s:4125   .debug_str:0000000000000954 .LASF164
     /tmp/cc9gbuft.s:3851   .debug_str:00000000000000bf .LASF165
     /tmp/cc9gbuft.s:4123   .debug_str:0000000000000937 .LASF166
     /tmp/cc9gbuft.s:705    .text:0000000000000394 .LFB76
     /tmp/cc9gbuft.s:733    .text:00000000000003c0 .LFE76
     /tmp/cc9gbuft.s:3907   .debug_str:000000000000025d .LASF106
     /tmp/cc9gbuft.s:3502   .debug_loc:0000000000000000 .LLST18
     /tmp/cc9gbuft.s:722    .text:00000000000003b0 .LVL52
     /tmp/cc9gbuft.s:671    .text:0000000000000368 .LFB75
     /tmp/cc9gbuft.s:699    .text:0000000000000394 .LFE75
     /tmp/cc9gbuft.s:3516   .debug_loc:0000000000000039 .LLST17
     /tmp/cc9gbuft.s:688    .text:0000000000000384 .LVL49
     /tmp/cc9gbuft.s:3847   .debug_str:00000000000000ac .LASF107
GAS LISTING /tmp/cc9gbuft.s 			page 26


     /tmp/cc9gbuft.s:3963   .debug_str:0000000000000419 .LASF108
     /tmp/cc9gbuft.s:345    .text:00000000000001a8 .LFB74
     /tmp/cc9gbuft.s:378    .text:00000000000001e8 .LFE74
     /tmp/cc9gbuft.s:3530   .debug_loc:0000000000000072 .LLST7
     /tmp/cc9gbuft.s:362    .text:00000000000001c8 .LVL25
     /tmp/cc9gbuft.s:365    .text:00000000000001d4 .LVL26
     /tmp/cc9gbuft.s:3835   .debug_str:0000000000000070 .LASF109
     /tmp/cc9gbuft.s:276    .text:0000000000000144 .LFB72
     /tmp/cc9gbuft.s:330    .text:00000000000001a8 .LFE72
     /tmp/cc9gbuft.s:3548   .debug_loc:00000000000000be .LLST6
     /tmp/cc9gbuft.s:302    .text:0000000000000174 .LVL20
     /tmp/cc9gbuft.s:312    .text:0000000000000188 .LVL22
     /tmp/cc9gbuft.s:315    .text:0000000000000194 .LVL23
     /tmp/cc9gbuft.s:3845   .debug_str:00000000000000a7 .LASF114
     /tmp/cc9gbuft.s:3861   .debug_str:00000000000000ff .LASF110
     /tmp/cc9gbuft.s:630    .text:0000000000000330 .LFB69
     /tmp/cc9gbuft.s:663    .text:0000000000000368 .LFE69
     /tmp/cc9gbuft.s:3566   .debug_loc:000000000000010a .LLST15
     /tmp/cc9gbuft.s:3586   .debug_loc:0000000000000158 .LLST16
     /tmp/cc9gbuft.s:651    .text:0000000000000358 .LVL46
     /tmp/cc9gbuft.s:3965   .debug_str:000000000000042b .LASF111
     /tmp/cc9gbuft.s:237    .text:0000000000000104 .LFB67
     /tmp/cc9gbuft.s:270    .text:0000000000000144 .LFE67
     /tmp/cc9gbuft.s:3600   .debug_loc:0000000000000191 .LLST5
     /tmp/cc9gbuft.s:254    .text:0000000000000124 .LVL15
     /tmp/cc9gbuft.s:257    .text:0000000000000130 .LVL16
     /tmp/cc9gbuft.s:4013   .debug_str:000000000000057c .LASF112
     /tmp/cc9gbuft.s:169    .text:00000000000000a4 .LFB65
     /tmp/cc9gbuft.s:221    .text:0000000000000104 .LFE65
     /tmp/cc9gbuft.s:3618   .debug_loc:00000000000001dd .LLST4
     /tmp/cc9gbuft.s:193    .text:00000000000000d0 .LVL10
     /tmp/cc9gbuft.s:203    .text:00000000000000e4 .LVL12
     /tmp/cc9gbuft.s:206    .text:00000000000000f0 .LVL13
     /tmp/cc9gbuft.s:599    .text:0000000000000308 .LFB63
     /tmp/cc9gbuft.s:624    .text:0000000000000330 .LFE63
     /tmp/cc9gbuft.s:613    .text:0000000000000320 .LVL43
     /tmp/cc9gbuft.s:565    .text:00000000000002dc .LFB62
     /tmp/cc9gbuft.s:593    .text:0000000000000308 .LFE62
     /tmp/cc9gbuft.s:3636   .debug_loc:0000000000000229 .LLST14
     /tmp/cc9gbuft.s:582    .text:00000000000002f8 .LVL42
     /tmp/cc9gbuft.s:529    .text:00000000000002ac .LFB61
     /tmp/cc9gbuft.s:559    .text:00000000000002dc .LFE61
     /tmp/cc9gbuft.s:3650   .debug_loc:0000000000000262 .LLST13
     /tmp/cc9gbuft.s:546    .text:00000000000002c8 .LVL39
     /tmp/cc9gbuft.s:37     .text:0000000000000000 .LFB60
     /tmp/cc9gbuft.s:67     .text:000000000000002c .LFE60
     /tmp/cc9gbuft.s:3664   .debug_loc:000000000000029b .LLST0
     /tmp/cc9gbuft.s:56     .text:000000000000001c .LVL2
     /tmp/cc9gbuft.s:4033   .debug_str:000000000000060e .LASF113
     /tmp/cc9gbuft.s:492    .text:0000000000000278 .LFB58
     /tmp/cc9gbuft.s:521    .text:00000000000002ac .LFE58
     /tmp/cc9gbuft.s:3678   .debug_loc:00000000000002d4 .LLST12
     /tmp/cc9gbuft.s:509    .text:000000000000029c .LVL36
     /tmp/cc9gbuft.s:3989   .debug_str:00000000000004be .LASF115
     /tmp/cc9gbuft.s:447    .text:0000000000000238 .LFB55
     /tmp/cc9gbuft.s:484    .text:0000000000000278 .LFE55
     /tmp/cc9gbuft.s:3692   .debug_loc:000000000000030d .LLST9
GAS LISTING /tmp/cc9gbuft.s 			page 27


     /tmp/cc9gbuft.s:3712   .debug_loc:000000000000035b .LLST10
     /tmp/cc9gbuft.s:3726   .debug_loc:0000000000000394 .LLST11
     /tmp/cc9gbuft.s:468    .text:0000000000000260 .LVL33
     /tmp/cc9gbuft.s:472    .text:0000000000000268 .LVL34
     /tmp/cc9gbuft.s:4117   .debug_str:00000000000008f9 .LASF116
     /tmp/cc9gbuft.s:4015   .debug_str:000000000000058b .LASF117
     /tmp/cc9gbuft.s:416    .text:0000000000000210 .LFB53
     /tmp/cc9gbuft.s:441    .text:0000000000000238 .LFE53
     /tmp/cc9gbuft.s:430    .text:0000000000000228 .LVL30
     /tmp/cc9gbuft.s:4053   .debug_str:0000000000000681 .LASF118
     /tmp/cc9gbuft.s:3993   .debug_str:00000000000004e1 .LASF119
     /tmp/cc9gbuft.s:384    .text:00000000000001e8 .LFB52
     /tmp/cc9gbuft.s:410    .text:0000000000000210 .LFE52
     /tmp/cc9gbuft.s:3740   .debug_loc:00000000000003cd .LLST8
     /tmp/cc9gbuft.s:399    .text:0000000000000200 .LVL29
     /tmp/cc9gbuft.s:3823   .debug_str:0000000000000007 .LASF120
     /tmp/cc9gbuft.s:3997   .debug_str:0000000000000508 .LASF121
     /tmp/cc9gbuft.s:137    .text:000000000000007c .LFB51
     /tmp/cc9gbuft.s:163    .text:00000000000000a4 .LFE51
     /tmp/cc9gbuft.s:3754   .debug_loc:0000000000000406 .LLST3
     /tmp/cc9gbuft.s:152    .text:0000000000000094 .LVL8
     /tmp/cc9gbuft.s:4097   .debug_str:0000000000000856 .LASF122
     /tmp/cc9gbuft.s:3839   .debug_str:0000000000000088 .LASF123
     /tmp/cc9gbuft.s:105    .text:0000000000000054 .LFB50
     /tmp/cc9gbuft.s:131    .text:000000000000007c .LFE50
     /tmp/cc9gbuft.s:3959   .debug_str:0000000000000401 .LASF124
     /tmp/cc9gbuft.s:3768   .debug_loc:000000000000043f .LLST2
     /tmp/cc9gbuft.s:120    .text:000000000000006c .LVL6
     /tmp/cc9gbuft.s:4145   .debug_str:00000000000009fe .LASF125
     /tmp/cc9gbuft.s:3901   .debug_str:0000000000000227 .LASF126
     /tmp/cc9gbuft.s:73     .text:000000000000002c .LFB49
     /tmp/cc9gbuft.s:99     .text:0000000000000054 .LFE49
     /tmp/cc9gbuft.s:3782   .debug_loc:0000000000000478 .LLST1
     /tmp/cc9gbuft.s:88     .text:0000000000000044 .LVL4
     /tmp/cc9gbuft.s:11     .text._ZN6Thread3runEv:0000000000000000 .LFB48
     /tmp/cc9gbuft.s:30     .text._ZN6Thread3runEv:0000000000000018 .LFE48
     /tmp/cc9gbuft.s:4149   .debug_str:0000000000000a14 .LASF127
     /tmp/cc9gbuft.s:4049   .debug_str:0000000000000673 .LASF129
     /tmp/cc9gbuft.s:4081   .debug_str:0000000000000734 .LASF128
     /tmp/cc9gbuft.s:3917   .debug_str:0000000000000298 .LASF130
     /tmp/cc9gbuft.s:3873   .debug_str:0000000000000171 .LASF131
     /tmp/cc9gbuft.s:3955   .debug_str:00000000000003ee .LASF132
     /tmp/cc9gbuft.s:4113   .debug_str:00000000000008c5 .LASF133
     /tmp/cc9gbuft.s:4025   .debug_str:00000000000005e0 .LASF134
     /tmp/cc9gbuft.s:4057   .debug_str:00000000000006aa .LASF135
     /tmp/cc9gbuft.s:3975   .debug_str:0000000000000477 .LASF136
     /tmp/cc9gbuft.s:3833   .debug_str:000000000000005b .LASF137
     /tmp/cc9gbuft.s:4023   .debug_str:00000000000005d0 .LASF138
     /tmp/cc9gbuft.s:3885   .debug_str:00000000000001bc .LASF139
     /tmp/cc9gbuft.s:3991   .debug_str:00000000000004d5 .LASF140
     /tmp/cc9gbuft.s:3967   .debug_str:000000000000043a .LASF141
     /tmp/cc9gbuft.s:4065   .debug_str:00000000000006ed .LASF142
     /tmp/cc9gbuft.s:3897   .debug_str:0000000000000208 .LASF143
     /tmp/cc9gbuft.s:3969   .debug_str:000000000000045f .LASF144
     /tmp/cc9gbuft.s:4133   .debug_str:000000000000099f .LASF145
     /tmp/cc9gbuft.s:3925   .debug_str:00000000000002cb .LASF146
     /tmp/cc9gbuft.s:3915   .debug_str:000000000000028a .LASF147
GAS LISTING /tmp/cc9gbuft.s 			page 28


     /tmp/cc9gbuft.s:3979   .debug_str:0000000000000490 .LASF148
     /tmp/cc9gbuft.s:708    .text:0000000000000394 .LVL50
     /tmp/cc9gbuft.s:720    .text:00000000000003a8 .LVL51
     /tmp/cc9gbuft.s:674    .text:0000000000000368 .LVL47
     /tmp/cc9gbuft.s:686    .text:000000000000037c .LVL48
     /tmp/cc9gbuft.s:348    .text:00000000000001a8 .LVL24
     /tmp/cc9gbuft.s:373    .text:00000000000001e0 .LVL27
     /tmp/cc9gbuft.s:281    .text:0000000000000144 .LVL18
     /tmp/cc9gbuft.s:300    .text:000000000000016c .LVL19
     /tmp/cc9gbuft.s:306    .text:0000000000000178 .LVL21
     /tmp/cc9gbuft.s:633    .text:0000000000000330 .LVL44
     /tmp/cc9gbuft.s:649    .text:0000000000000350 .LVL45
     /tmp/cc9gbuft.s:240    .text:0000000000000104 .LVL14
     /tmp/cc9gbuft.s:265    .text:000000000000013c .LVL17
     /tmp/cc9gbuft.s:174    .text:00000000000000a4 .LVL9
     /tmp/cc9gbuft.s:197    .text:00000000000000d4 .LVL11
     /tmp/cc9gbuft.s:568    .text:00000000000002dc .LVL40
     /tmp/cc9gbuft.s:580    .text:00000000000002f0 .LVL41
     /tmp/cc9gbuft.s:532    .text:00000000000002ac .LVL37
     /tmp/cc9gbuft.s:544    .text:00000000000002c0 .LVL38
     /tmp/cc9gbuft.s:41     .text:0000000000000000 .LVL1
     /tmp/cc9gbuft.s:495    .text:0000000000000278 .LVL35
     /tmp/cc9gbuft.s:450    .text:0000000000000238 .LVL31
     /tmp/cc9gbuft.s:466    .text:0000000000000258 .LVL32
     /tmp/cc9gbuft.s:387    .text:00000000000001e8 .LVL28
     /tmp/cc9gbuft.s:140    .text:000000000000007c .LVL7
     /tmp/cc9gbuft.s:108    .text:0000000000000054 .LVL5
     /tmp/cc9gbuft.s:76     .text:000000000000002c .LVL3
     /tmp/cc9gbuft.s:765    .debug_info:0000000000000000 .Ldebug_info0
     /tmp/cc9gbuft.s:5      .text:0000000000000000 .Ltext0
     /tmp/cc9gbuft.s:757    .text:00000000000003c0 .Letext0
     /tmp/cc9gbuft.s:224    .gcc_except_table:0000000000000000 .LLSDA65
     /tmp/cc9gbuft.s:332    .gcc_except_table:0000000000000004 .LLSDA72

UNDEFINED SYMBOLS
_Z9mem_allocm
_Z8mem_freePv
_Z11thread_exitv
_ZN7_threadD1Ev
__gxx_personality_v0
_Z9sem_closeP4_sem
_ZN4_semD1Ev
_Z10toUserModev
_Z13thread_createPP7_threadPFvPvES2_
_ZN9Scheduler6removeEv
_ZN9Scheduler3putEP7_thread
_Z11thread_joinP7_thread
_Z15thread_dispatchv
_Z8sem_openPP4_semj
_Z10sem_signalP4_sem
_Z8sem_waitP4_sem
