GAS LISTING /tmp/ccerCNDo.s 			page 1


   1              		.file	"syscall_c.cpp"
   2              		.option pic
   3              		.option norelax
   4              		.text
   5              	.Ltext0:
   6              		.align	2
   7              		.globl	_Z9mem_allocm
   9              	_Z9mem_allocm:
  10              	.LFB48:
  11              		.file 1 "src/syscall_c.cpp"
   1:src/syscall_c.cpp **** #include "../h/syscall_c.hpp"
   2:src/syscall_c.cpp **** 
   3:src/syscall_c.cpp **** 
   4:src/syscall_c.cpp **** void *mem_alloc(size_t size) {
  12              		.loc 1 4 30
  13              		.cfi_startproc
  14              	.LVL0:
  15 0000 130101FE 		addi	sp,sp,-32
  16              		.cfi_def_cfa_offset 32
  17 0004 233C8100 		sd	s0,24(sp)
  18              		.cfi_offset 8, -8
  19 0008 13040102 		addi	s0,sp,32
  20              		.cfi_def_cfa 8, 0
   5:src/syscall_c.cpp ****     size_t sizeInBlocks = ((size + 16 + MEM_BLOCK_SIZE - 1) / MEM_BLOCK_SIZE);
  21              		.loc 1 5 5
  22              		.loc 1 5 56 is_stmt 0
  23 000c 1305F504 		addi	a0,a0,79
  24              	.LVL1:
  25              		.loc 1 5 12
  26 0010 13556500 		srli	a0,a0,6
  27              	.LVL2:
   6:src/syscall_c.cpp ****     Riscv::w_a0(0x01);
  28              		.loc 1 6 5 is_stmt 1
  29              	.LBB28:
  30              	.LBB29:
  31              		.file 2 "src/../h/riscv.hpp"
   1:src/../h/riscv.hpp **** #ifndef PROJECT_BASE_V1_1_RISCV_HPP
   2:src/../h/riscv.hpp **** #define PROJECT_BASE_V1_1_RISCV_HPP
   3:src/../h/riscv.hpp **** 
   4:src/../h/riscv.hpp **** 
   5:src/../h/riscv.hpp **** #include "../h/MemoryAllocator.hpp"
   6:src/../h/riscv.hpp **** #include "PCB.hpp"
   7:src/../h/riscv.hpp **** 
   8:src/../h/riscv.hpp **** 
   9:src/../h/riscv.hpp **** #define readUsrReg(reg, dst) __asm__ volatile("mv %0,"#reg : "=r" (dst));
  10:src/../h/riscv.hpp **** #define writeUsrReg(reg, src) __asm__ volatile("mv "#reg", %0" : : "r" (src));
  11:src/../h/riscv.hpp **** 
  12:src/../h/riscv.hpp **** 
  13:src/../h/riscv.hpp **** class Riscv
  14:src/../h/riscv.hpp **** {
  15:src/../h/riscv.hpp **** public:
  16:src/../h/riscv.hpp **** 
  17:src/../h/riscv.hpp **** 
  18:src/../h/riscv.hpp **** 
  19:src/../h/riscv.hpp ****     // pop sstatus.spp and sstatus.spie bits (has to be a non inline function)
  20:src/../h/riscv.hpp ****     static void popSppSpie();
  21:src/../h/riscv.hpp **** 
GAS LISTING /tmp/ccerCNDo.s 			page 2


  22:src/../h/riscv.hpp ****     // push x3..x31 registers onto stack
  23:src/../h/riscv.hpp ****     static void pushRegisters();
  24:src/../h/riscv.hpp **** 
  25:src/../h/riscv.hpp ****     // pop x3..x31 registers onto stack
  26:src/../h/riscv.hpp ****     static void popRegisters();
  27:src/../h/riscv.hpp **** 
  28:src/../h/riscv.hpp ****     // read register scause
  29:src/../h/riscv.hpp ****     static uint64 r_scause();
  30:src/../h/riscv.hpp **** 
  31:src/../h/riscv.hpp ****     // write register scause
  32:src/../h/riscv.hpp ****     static void w_scause(uint64 scause);
  33:src/../h/riscv.hpp **** 
  34:src/../h/riscv.hpp ****     // read register sepc
  35:src/../h/riscv.hpp ****     static uint64 r_sepc();
  36:src/../h/riscv.hpp **** 
  37:src/../h/riscv.hpp ****     // write register sepc
  38:src/../h/riscv.hpp ****     static void w_sepc(uint64 sepc);
  39:src/../h/riscv.hpp **** 
  40:src/../h/riscv.hpp ****     // read register stvec
  41:src/../h/riscv.hpp ****     static uint64 r_stvec();
  42:src/../h/riscv.hpp **** 
  43:src/../h/riscv.hpp ****     // write register stvec
  44:src/../h/riscv.hpp ****     static void w_stvec(uint64 stvec);
  45:src/../h/riscv.hpp **** 
  46:src/../h/riscv.hpp ****     // read register stval
  47:src/../h/riscv.hpp ****     static uint64 r_stval();
  48:src/../h/riscv.hpp **** 
  49:src/../h/riscv.hpp ****     // write register stval
  50:src/../h/riscv.hpp ****     static void w_stval(uint64 stval);
  51:src/../h/riscv.hpp **** 
  52:src/../h/riscv.hpp ****     enum BitMaskSip
  53:src/../h/riscv.hpp ****     {
  54:src/../h/riscv.hpp **** //        SIP_SSIE = (1 << 1),
  55:src/../h/riscv.hpp **** //        SIP_STIE = (1 << 5),
  56:src/../h/riscv.hpp **** //        SIP_SEIE = (1 << 9),
  57:src/../h/riscv.hpp ****         SIP_SSIP = (1<<1),
  58:src/../h/riscv.hpp ****         SIP_SEIP = (1<<9)
  59:src/../h/riscv.hpp ****     };
  60:src/../h/riscv.hpp **** 
  61:src/../h/riscv.hpp ****     // mask set register sip
  62:src/../h/riscv.hpp ****     static void ms_sip(uint64 mask);
  63:src/../h/riscv.hpp **** 
  64:src/../h/riscv.hpp ****     // mask clear register sip
  65:src/../h/riscv.hpp ****     static void mc_sip(uint64 mask);
  66:src/../h/riscv.hpp **** 
  67:src/../h/riscv.hpp ****     // read register sip
  68:src/../h/riscv.hpp ****     static uint64 r_sip();
  69:src/../h/riscv.hpp **** 
  70:src/../h/riscv.hpp ****     // write register sip
  71:src/../h/riscv.hpp ****     static void w_sip(uint64 sip);
  72:src/../h/riscv.hpp **** 
  73:src/../h/riscv.hpp ****     enum BitMaskSstatus
  74:src/../h/riscv.hpp ****     {
  75:src/../h/riscv.hpp ****         SSTATUS_SIE = (1 << 1),
  76:src/../h/riscv.hpp ****         SSTATUS_SPIE = (1 << 5),
  77:src/../h/riscv.hpp ****         SSTATUS_SPP = (1 << 8),
  78:src/../h/riscv.hpp ****     };
GAS LISTING /tmp/ccerCNDo.s 			page 3


  79:src/../h/riscv.hpp **** 
  80:src/../h/riscv.hpp ****     // mask set register sstatus
  81:src/../h/riscv.hpp ****     static void ms_sstatus(uint64 mask);
  82:src/../h/riscv.hpp **** 
  83:src/../h/riscv.hpp ****     // mask clear register sstatus
  84:src/../h/riscv.hpp ****     static void mc_sstatus(uint64 mask);
  85:src/../h/riscv.hpp **** 
  86:src/../h/riscv.hpp ****     // read register sstatus
  87:src/../h/riscv.hpp ****     static uint64 r_sstatus();
  88:src/../h/riscv.hpp **** 
  89:src/../h/riscv.hpp ****     // write register sstatus
  90:src/../h/riscv.hpp ****     static void w_sstatus(uint64 sstatus);
  91:src/../h/riscv.hpp **** 
  92:src/../h/riscv.hpp ****     // mask set register sie
  93:src/../h/riscv.hpp ****     static void ms_sie(uint64 mask);
  94:src/../h/riscv.hpp **** 
  95:src/../h/riscv.hpp ****     // mask clear register sie
  96:src/../h/riscv.hpp ****     static void mc_sie(uint64 mask);
  97:src/../h/riscv.hpp **** 
  98:src/../h/riscv.hpp ****     static void supervisorTrap();
  99:src/../h/riscv.hpp **** 
 100:src/../h/riscv.hpp ****     static long r_a0();
 101:src/../h/riscv.hpp **** 
 102:src/../h/riscv.hpp ****     static void w_a0(long a0);
 103:src/../h/riscv.hpp **** 
 104:src/../h/riscv.hpp ****     static uint64 r_a1();
 105:src/../h/riscv.hpp **** 
 106:src/../h/riscv.hpp ****     static void w_a1(uint64 a1);
 107:src/../h/riscv.hpp **** 
 108:src/../h/riscv.hpp ****     static uint64 r_a2();
 109:src/../h/riscv.hpp **** 
 110:src/../h/riscv.hpp ****     static void w_a2(uint64 a1);
 111:src/../h/riscv.hpp **** 
 112:src/../h/riscv.hpp ****     static uint64 r_a3();
 113:src/../h/riscv.hpp **** 
 114:src/../h/riscv.hpp ****     static void w_a3(uint64 a1);
 115:src/../h/riscv.hpp **** 
 116:src/../h/riscv.hpp ****     static void push_a0(long a0);
 117:src/../h/riscv.hpp **** 
 118:src/../h/riscv.hpp **** private:
 119:src/../h/riscv.hpp ****     static void trapHandler();
 120:src/../h/riscv.hpp **** 
 121:src/../h/riscv.hpp **** 
 122:src/../h/riscv.hpp **** };
 123:src/../h/riscv.hpp **** 
 124:src/../h/riscv.hpp **** inline uint64 Riscv::r_scause()
 125:src/../h/riscv.hpp **** {
 126:src/../h/riscv.hpp ****     uint64 volatile scause;
 127:src/../h/riscv.hpp ****     __asm__ volatile ("csrr %[scause], scause" : [scause] "=r"(scause));
 128:src/../h/riscv.hpp ****     return scause;
 129:src/../h/riscv.hpp **** }
 130:src/../h/riscv.hpp **** 
 131:src/../h/riscv.hpp **** inline void Riscv::w_scause(uint64 scause)
 132:src/../h/riscv.hpp **** {
 133:src/../h/riscv.hpp ****     __asm__ volatile ("csrw scause, %[scause]" : : [scause] "r"(scause));
 134:src/../h/riscv.hpp **** }
 135:src/../h/riscv.hpp **** 
GAS LISTING /tmp/ccerCNDo.s 			page 4


 136:src/../h/riscv.hpp **** inline uint64 Riscv::r_sepc()
 137:src/../h/riscv.hpp **** {
 138:src/../h/riscv.hpp ****     uint64 volatile sepc;
 139:src/../h/riscv.hpp ****     __asm__ volatile ("csrr %[sepc], sepc" : [sepc] "=r"(sepc));
 140:src/../h/riscv.hpp ****     return sepc;
 141:src/../h/riscv.hpp **** }
 142:src/../h/riscv.hpp **** 
 143:src/../h/riscv.hpp **** inline void Riscv::w_sepc(uint64 sepc)
 144:src/../h/riscv.hpp **** {
 145:src/../h/riscv.hpp ****     __asm__ volatile ("csrw sepc, %[sepc]" : : [sepc] "r"(sepc));
 146:src/../h/riscv.hpp **** }
 147:src/../h/riscv.hpp **** 
 148:src/../h/riscv.hpp **** inline uint64 Riscv::r_stvec()
 149:src/../h/riscv.hpp **** {
 150:src/../h/riscv.hpp ****     uint64 volatile stvec;
 151:src/../h/riscv.hpp ****     __asm__ volatile ("csrr %[stvec], stvec" : [stvec] "=r"(stvec));
 152:src/../h/riscv.hpp ****     return stvec;
 153:src/../h/riscv.hpp **** }
 154:src/../h/riscv.hpp **** 
 155:src/../h/riscv.hpp **** inline void Riscv::w_stvec(uint64 stvec)
 156:src/../h/riscv.hpp **** {
 157:src/../h/riscv.hpp ****     __asm__ volatile ("csrw stvec, %[stvec]" : : [stvec] "r"(stvec));
 158:src/../h/riscv.hpp **** }
 159:src/../h/riscv.hpp **** 
 160:src/../h/riscv.hpp **** inline uint64 Riscv::r_stval()
 161:src/../h/riscv.hpp **** {
 162:src/../h/riscv.hpp ****     uint64 volatile stval;
 163:src/../h/riscv.hpp ****     __asm__ volatile ("csrr %[stval], stval" : [stval] "=r"(stval));
 164:src/../h/riscv.hpp ****     return stval;
 165:src/../h/riscv.hpp **** }
 166:src/../h/riscv.hpp **** 
 167:src/../h/riscv.hpp **** inline void Riscv::w_stval(uint64 stval)
 168:src/../h/riscv.hpp **** {
 169:src/../h/riscv.hpp ****     __asm__ volatile ("csrw stval, %[stval]" : : [stval] "r"(stval));
 170:src/../h/riscv.hpp **** }
 171:src/../h/riscv.hpp **** 
 172:src/../h/riscv.hpp **** inline void Riscv::ms_sip(uint64 mask)
 173:src/../h/riscv.hpp **** {
 174:src/../h/riscv.hpp ****     __asm__ volatile ("csrs sip, %[mask]" : : [mask] "r"(mask));
 175:src/../h/riscv.hpp **** }
 176:src/../h/riscv.hpp **** 
 177:src/../h/riscv.hpp **** inline void Riscv::mc_sip(uint64 mask)
 178:src/../h/riscv.hpp **** {
 179:src/../h/riscv.hpp ****     __asm__ volatile ("csrc sip, %[mask]" : : [mask] "r"(mask));
 180:src/../h/riscv.hpp **** }
 181:src/../h/riscv.hpp **** 
 182:src/../h/riscv.hpp **** inline uint64 Riscv::r_sip()
 183:src/../h/riscv.hpp **** {
 184:src/../h/riscv.hpp ****     uint64 volatile sip;
 185:src/../h/riscv.hpp ****     __asm__ volatile ("csrr %[sip], sip" : [sip] "=r"(sip));
 186:src/../h/riscv.hpp ****     return sip;
 187:src/../h/riscv.hpp **** }
 188:src/../h/riscv.hpp **** 
 189:src/../h/riscv.hpp **** inline void Riscv::w_sip(uint64 sip)
 190:src/../h/riscv.hpp **** {
 191:src/../h/riscv.hpp ****     __asm__ volatile ("csrw sip, %[sip]" : : [sip] "r"(sip));
 192:src/../h/riscv.hpp **** }
GAS LISTING /tmp/ccerCNDo.s 			page 5


 193:src/../h/riscv.hpp **** 
 194:src/../h/riscv.hpp **** inline void Riscv::ms_sstatus(uint64 mask)
 195:src/../h/riscv.hpp **** {
 196:src/../h/riscv.hpp ****     __asm__ volatile ("csrs sstatus, %[mask]" : : [mask] "r"(mask));
 197:src/../h/riscv.hpp **** }
 198:src/../h/riscv.hpp **** 
 199:src/../h/riscv.hpp **** inline void Riscv::mc_sstatus(uint64 mask)
 200:src/../h/riscv.hpp **** {
 201:src/../h/riscv.hpp ****     __asm__ volatile ("csrc sstatus, %[mask]" : : [mask] "r"(mask));
 202:src/../h/riscv.hpp **** }
 203:src/../h/riscv.hpp **** 
 204:src/../h/riscv.hpp **** inline uint64 Riscv::r_sstatus()
 205:src/../h/riscv.hpp **** {
 206:src/../h/riscv.hpp ****     uint64 volatile sstatus;
 207:src/../h/riscv.hpp ****     __asm__ volatile ("csrr %[sstatus], sstatus" : [sstatus] "=r"(sstatus));
 208:src/../h/riscv.hpp ****     return sstatus;
 209:src/../h/riscv.hpp **** }
 210:src/../h/riscv.hpp **** 
 211:src/../h/riscv.hpp **** inline void Riscv::w_sstatus(uint64 sstatus)
 212:src/../h/riscv.hpp **** {
 213:src/../h/riscv.hpp ****     __asm__ volatile ("csrw sstatus, %[sstatus]" : : [sstatus] "r"(sstatus));
 214:src/../h/riscv.hpp **** }
 215:src/../h/riscv.hpp **** 
 216:src/../h/riscv.hpp **** inline void Riscv::ms_sie(uint64 mask)
 217:src/../h/riscv.hpp **** {
 218:src/../h/riscv.hpp ****     __asm__ volatile ("csrs sie, %[mask]" : : [mask] "r"(mask));
 219:src/../h/riscv.hpp **** }
 220:src/../h/riscv.hpp **** 
 221:src/../h/riscv.hpp **** inline void Riscv::mc_sie(uint64 mask)
 222:src/../h/riscv.hpp **** {
 223:src/../h/riscv.hpp ****     __asm__ volatile ("csrc sie, %[mask]" : : [mask] "r"(mask));
 224:src/../h/riscv.hpp **** }
 225:src/../h/riscv.hpp **** 
 226:src/../h/riscv.hpp **** inline long Riscv::r_a0() {
 227:src/../h/riscv.hpp ****     long volatile a0;
 228:src/../h/riscv.hpp ****     __asm__ volatile ("ld %0, 10*8(fp)" : "=r"(a0));
 229:src/../h/riscv.hpp ****     return a0;
 230:src/../h/riscv.hpp **** }
 231:src/../h/riscv.hpp **** 
 232:src/../h/riscv.hpp **** inline void Riscv::w_a0(long a0) {
 233:src/../h/riscv.hpp ****     __asm__ volatile ("mv a0, %0" : : "r"(a0));
  32              		.loc 2 233 5
  33              		.loc 2 233 47 is_stmt 0
  34 0014 93071000 		li	a5,1
  35              	#APP
  36              	# 233 "src/../h/riscv.hpp" 1
 234              	}
  37              		mv a0, a5
  38              	# 0 "" 2
  39              	.LVL3:
  40              	#NO_APP
  41              	.LBE29:
  42              	.LBE28:
   7:src/syscall_c.cpp ****     Riscv::w_a1((uint64) sizeInBlocks);
  43              		.loc 1 7 5 is_stmt 1
  44              	.LBB30:
  45              	.LBB31:
GAS LISTING /tmp/ccerCNDo.s 			page 6


 235:src/../h/riscv.hpp **** 
 236:src/../h/riscv.hpp **** inline uint64 Riscv::r_a1() {
 237:src/../h/riscv.hpp ****     uint64 volatile a1;
 238:src/../h/riscv.hpp ****     __asm__ volatile ("ld %0, 11*8(fp)" : "=r"(a1));
 239:src/../h/riscv.hpp ****     return a1;
 240:src/../h/riscv.hpp **** }
 241:src/../h/riscv.hpp **** 
 242:src/../h/riscv.hpp **** inline void Riscv::w_a1(uint64 a1) {
 243:src/../h/riscv.hpp ****     __asm__ volatile ("mv a1, %0" : : "r"(a1));
  46              		.loc 2 243 5
  47              		.loc 2 243 47 is_stmt 0
  48              	#APP
  49              	# 243 "src/../h/riscv.hpp" 1
 244              	}
  50              		mv a1, a0
  51              	# 0 "" 2
  52              	.LVL4:
  53              	#NO_APP
  54              	.LBE31:
  55              	.LBE30:
   8:src/syscall_c.cpp **** 
   9:src/syscall_c.cpp ****     __asm__ volatile ("ecall");
  56              		.loc 1 9 5 is_stmt 1
  57              		.loc 1 9 31 is_stmt 0
  58              	#APP
  59              	# 9 "src/syscall_c.cpp" 1
  10              	
  11:src/syscall_c.cpp ****     volatile long a0;
  60              		ecall
  61              	# 0 "" 2
  62              		.loc 1 11 5 is_stmt 1
  12:src/syscall_c.cpp ****     __asm__ volatile ("mv %0, a0" : "=r"(a0));
  63              		.loc 1 12 5
  64              		.loc 1 12 46 is_stmt 0
  65              	# 12 "src/syscall_c.cpp" 1
  13              	    return (void *) a0;
  66              		mv a5, a0
  67              	# 0 "" 2
  68              	#NO_APP
  69 0028 2334F4FE 		sd	a5,-24(s0)
  70              		.loc 1 13 5 is_stmt 1
  71              		.loc 1 13 21 is_stmt 0
  72 002c 033584FE 		ld	a0,-24(s0)
  73              	.LVL5:
  14:src/syscall_c.cpp **** }
  74              		.loc 1 14 1
  75 0030 03348101 		ld	s0,24(sp)
  76              		.cfi_restore 8
  77              		.cfi_def_cfa 2, 32
  78 0034 13010102 		addi	sp,sp,32
  79              		.cfi_def_cfa_offset 0
  80 0038 67800000 		jr	ra
  81              		.cfi_endproc
  82              	.LFE48:
  84              		.align	2
  85              		.globl	_Z8mem_freePv
  87              	_Z8mem_freePv:
GAS LISTING /tmp/ccerCNDo.s 			page 7


  88              	.LFB49:
  15:src/syscall_c.cpp **** 
  16:src/syscall_c.cpp **** int mem_free(void *ptr) {
  89              		.loc 1 16 25 is_stmt 1
  90              		.cfi_startproc
  91              	.LVL6:
  92 003c 130101FE 		addi	sp,sp,-32
  93              		.cfi_def_cfa_offset 32
  94 0040 233C8100 		sd	s0,24(sp)
  95              		.cfi_offset 8, -8
  96 0044 13040102 		addi	s0,sp,32
  97              		.cfi_def_cfa 8, 0
  17:src/syscall_c.cpp ****     Riscv::w_a0(0x02);
  98              		.loc 1 17 5
  99              	.LVL7:
 100              	.LBB32:
 101              	.LBB33:
 233:src/../h/riscv.hpp **** }
 102              		.loc 2 233 5
 233:src/../h/riscv.hpp **** }
 103              		.loc 2 233 47 is_stmt 0
 104 0048 93072000 		li	a5,2
 105              	#APP
 106              	# 233 "src/../h/riscv.hpp" 1
 107              		mv a0, a5
 108              	# 0 "" 2
 109              	.LVL8:
 110              	#NO_APP
 111              	.LBE33:
 112              	.LBE32:
  18:src/syscall_c.cpp ****     Riscv::w_a1((uint64) ptr);
 113              		.loc 1 18 5 is_stmt 1
 114              	.LBB34:
 115              	.LBB35:
 243:src/../h/riscv.hpp **** }
 116              		.loc 2 243 5
 243:src/../h/riscv.hpp **** }
 117              		.loc 2 243 47 is_stmt 0
 118              	#APP
 119              	# 243 "src/../h/riscv.hpp" 1
 120              		mv a1, a0
 121              	# 0 "" 2
 122              	.LVL9:
 123              	#NO_APP
 124              	.LBE35:
 125              	.LBE34:
  19:src/syscall_c.cpp **** 
  20:src/syscall_c.cpp ****     __asm__ volatile ("ecall");
 126              		.loc 1 20 5 is_stmt 1
 127              		.loc 1 20 31 is_stmt 0
 128              	#APP
 129              	# 20 "src/syscall_c.cpp" 1
  21              	
  22:src/syscall_c.cpp ****     volatile long a0;
 130              		ecall
 131              	# 0 "" 2
 132              		.loc 1 22 5 is_stmt 1
GAS LISTING /tmp/ccerCNDo.s 			page 8


  23:src/syscall_c.cpp ****     __asm__ volatile ("mv %0, a0" : "=r"(a0));
 133              		.loc 1 23 5
 134              		.loc 1 23 46 is_stmt 0
 135              	# 23 "src/syscall_c.cpp" 1
  24              	    return a0;
 136              		mv a5, a0
 137              	# 0 "" 2
 138              	#NO_APP
 139 005c 2334F4FE 		sd	a5,-24(s0)
 140              		.loc 1 24 5 is_stmt 1
 141              		.loc 1 24 12 is_stmt 0
 142 0060 033584FE 		ld	a0,-24(s0)
 143              	.LVL10:
  25:src/syscall_c.cpp **** }
 144              		.loc 1 25 1
 145 0064 1B050500 		sext.w	a0,a0
 146 0068 03348101 		ld	s0,24(sp)
 147              		.cfi_restore 8
 148              		.cfi_def_cfa 2, 32
 149 006c 13010102 		addi	sp,sp,32
 150              		.cfi_def_cfa_offset 0
 151 0070 67800000 		jr	ra
 152              		.cfi_endproc
 153              	.LFE49:
 155              		.align	2
 156              		.globl	_Z10toUserModev
 158              	_Z10toUserModev:
 159              	.LFB50:
  26:src/syscall_c.cpp **** 
  27:src/syscall_c.cpp **** void toUserMode(){
 160              		.loc 1 27 18 is_stmt 1
 161              		.cfi_startproc
 162 0074 130101FF 		addi	sp,sp,-16
 163              		.cfi_def_cfa_offset 16
 164 0078 23348100 		sd	s0,8(sp)
 165              		.cfi_offset 8, -8
 166 007c 13040101 		addi	s0,sp,16
 167              		.cfi_def_cfa 8, 0
  28:src/syscall_c.cpp ****     Riscv::w_a0(0x51);
 168              		.loc 1 28 5
 169              	.LVL11:
 170              	.LBB36:
 171              	.LBB37:
 233:src/../h/riscv.hpp **** }
 172              		.loc 2 233 5
 233:src/../h/riscv.hpp **** }
 173              		.loc 2 233 47 is_stmt 0
 174 0080 93071005 		li	a5,81
 175              	#APP
 176              	# 233 "src/../h/riscv.hpp" 1
 177              		mv a0, a5
 178              	# 0 "" 2
 179              	.LVL12:
 180              	#NO_APP
 181              	.LBE37:
 182              	.LBE36:
  29:src/syscall_c.cpp ****     __asm__ volatile ("ecall");
GAS LISTING /tmp/ccerCNDo.s 			page 9


 183              		.loc 1 29 5 is_stmt 1
 184              		.loc 1 29 31 is_stmt 0
 185              	#APP
 186              	# 29 "src/syscall_c.cpp" 1
  30              	}
 187              		ecall
 188              	# 0 "" 2
 189              		.loc 1 30 1
 190              	#NO_APP
 191 008c 03348100 		ld	s0,8(sp)
 192              		.cfi_restore 8
 193              		.cfi_def_cfa 2, 16
 194 0090 13010101 		addi	sp,sp,16
 195              		.cfi_def_cfa_offset 0
 196 0094 67800000 		jr	ra
 197              		.cfi_endproc
 198              	.LFE50:
 200              		.align	2
 201              		.globl	_Z13thread_createPP7_threadPFvPvES2_
 203              	_Z13thread_createPP7_threadPFvPvES2_:
 204              	.LFB51:
  31:src/syscall_c.cpp **** 
  32:src/syscall_c.cpp **** int thread_create(thread_t *handle, void(*start_routine)(void *), void *arg) {
 205              		.loc 1 32 78 is_stmt 1
 206              		.cfi_startproc
 207              	.LVL13:
 208 0098 130101FE 		addi	sp,sp,-32
 209              		.cfi_def_cfa_offset 32
 210 009c 233C8100 		sd	s0,24(sp)
 211              		.cfi_offset 8, -8
 212 00a0 13040102 		addi	s0,sp,32
 213              		.cfi_def_cfa 8, 0
 214 00a4 2334A4FE 		sd	a0,-24(s0)
  33:src/syscall_c.cpp **** 
  34:src/syscall_c.cpp **** 
  35:src/syscall_c.cpp ****     Riscv::w_a0(0x11);
 215              		.loc 1 35 5
 216              	.LVL14:
 217              	.LBB38:
 218              	.LBB39:
 233:src/../h/riscv.hpp **** }
 219              		.loc 2 233 5
 233:src/../h/riscv.hpp **** }
 220              		.loc 2 233 47 is_stmt 0
 221 00a8 93071001 		li	a5,17
 222              	#APP
 223              	# 233 "src/../h/riscv.hpp" 1
 224              		mv a0, a5
 225              	# 0 "" 2
 226              	.LVL15:
 227              	#NO_APP
 228              	.LBE39:
 229              	.LBE38:
  36:src/syscall_c.cpp ****     Riscv::w_a1((uint64) start_routine);
 230              		.loc 1 36 5 is_stmt 1
 231              	.LBB40:
 232              	.LBB41:
GAS LISTING /tmp/ccerCNDo.s 			page 10


 243:src/../h/riscv.hpp **** }
 233              		.loc 2 243 5
 243:src/../h/riscv.hpp **** }
 234              		.loc 2 243 47 is_stmt 0
 235              	#APP
 236              	# 243 "src/../h/riscv.hpp" 1
 237              		mv a1, a1
 238              	# 0 "" 2
 239              	.LVL16:
 240              	#NO_APP
 241              	.LBE41:
 242              	.LBE40:
  37:src/syscall_c.cpp ****     Riscv::w_a2((uint64) arg);
 243              		.loc 1 37 5 is_stmt 1
 244              	.LBB42:
 245              	.LBB43:
 245:src/../h/riscv.hpp **** 
 246:src/../h/riscv.hpp **** inline uint64 Riscv::r_a2() {
 247:src/../h/riscv.hpp ****     uint64 volatile a2;
 248:src/../h/riscv.hpp ****     __asm__ volatile ("ld %0, 12*8(fp)" : "=r"(a2));
 249:src/../h/riscv.hpp ****     return a2;
 250:src/../h/riscv.hpp **** }
 251:src/../h/riscv.hpp **** 
 252:src/../h/riscv.hpp **** inline void Riscv::w_a2(uint64 a2) {
 253:src/../h/riscv.hpp ****     __asm__ volatile ("mv a2, %0" : : "r"(a2));
 246              		.loc 2 253 5
 247              		.loc 2 253 47 is_stmt 0
 248              	#APP
 249              	# 253 "src/../h/riscv.hpp" 1
 254              	}
 250              		mv a2, a2
 251              	# 0 "" 2
 252              	.LVL17:
 253              	#NO_APP
 254              	.LBE43:
 255              	.LBE42:
  38:src/syscall_c.cpp ****     Riscv::w_a3((uint64) &handle);
 256              		.loc 1 38 5 is_stmt 1
 257              		.loc 1 38 16 is_stmt 0
 258 00b8 930784FE 		addi	a5,s0,-24
 259              	.LVL18:
 260              	.LBB44:
 261              	.LBB45:
 255:src/../h/riscv.hpp **** 
 256:src/../h/riscv.hpp **** inline uint64 Riscv::r_a3() {
 257:src/../h/riscv.hpp ****     uint64 volatile a3;
 258:src/../h/riscv.hpp ****     __asm__ volatile ("ld %0, 13*8(fp)" : "=r"(a3));
 259:src/../h/riscv.hpp ****     return a3;
 260:src/../h/riscv.hpp **** }
 261:src/../h/riscv.hpp **** 
 262:src/../h/riscv.hpp **** inline void Riscv::w_a3(uint64 a3) {
 263:src/../h/riscv.hpp ****     __asm__ volatile ("mv a3, %0" : : "r"(a3));
 262              		.loc 2 263 5 is_stmt 1
 263              		.loc 2 263 47 is_stmt 0
 264              	#APP
 265              	# 263 "src/../h/riscv.hpp" 1
 264              	}
GAS LISTING /tmp/ccerCNDo.s 			page 11


 266              		mv a3, a5
 267              	# 0 "" 2
 268              	.LVL19:
 269              	#NO_APP
 270              	.LBE45:
 271              	.LBE44:
  39:src/syscall_c.cpp **** 
  40:src/syscall_c.cpp ****     __asm__ volatile ("ecall");
 272              		.loc 1 40 5 is_stmt 1
 273              		.loc 1 40 31 is_stmt 0
 274              	#APP
 275              	# 40 "src/syscall_c.cpp" 1
  41              	
  42:src/syscall_c.cpp ****     return 0;
 276              		ecall
 277              	# 0 "" 2
 278              		.loc 1 42 5 is_stmt 1
  43:src/syscall_c.cpp **** 
  44:src/syscall_c.cpp **** }
 279              		.loc 1 44 1 is_stmt 0
 280              	#NO_APP
 281 00c4 13050000 		li	a0,0
 282              	.LVL20:
 283 00c8 03348101 		ld	s0,24(sp)
 284              		.cfi_restore 8
 285              		.cfi_def_cfa 2, 32
 286 00cc 13010102 		addi	sp,sp,32
 287              		.cfi_def_cfa_offset 0
 288 00d0 67800000 		jr	ra
 289              		.cfi_endproc
 290              	.LFE51:
 292              		.align	2
 293              		.globl	_Z11thread_exitv
 295              	_Z11thread_exitv:
 296              	.LFB52:
  45:src/syscall_c.cpp **** 
  46:src/syscall_c.cpp **** int thread_exit(){
 297              		.loc 1 46 18 is_stmt 1
 298              		.cfi_startproc
 299 00d4 130101FE 		addi	sp,sp,-32
 300              		.cfi_def_cfa_offset 32
 301 00d8 233C8100 		sd	s0,24(sp)
 302              		.cfi_offset 8, -8
 303 00dc 13040102 		addi	s0,sp,32
 304              		.cfi_def_cfa 8, 0
  47:src/syscall_c.cpp ****     Riscv::w_a0(0x12);
 305              		.loc 1 47 5
 306              	.LVL21:
 307              	.LBB46:
 308              	.LBB47:
 233:src/../h/riscv.hpp **** }
 309              		.loc 2 233 5
 233:src/../h/riscv.hpp **** }
 310              		.loc 2 233 47 is_stmt 0
 311 00e0 93072001 		li	a5,18
 312              	#APP
 313              	# 233 "src/../h/riscv.hpp" 1
GAS LISTING /tmp/ccerCNDo.s 			page 12


 314              		mv a0, a5
 315              	# 0 "" 2
 316              	.LVL22:
 317              	#NO_APP
 318              	.LBE47:
 319              	.LBE46:
  48:src/syscall_c.cpp ****     __asm__ volatile ("ecall");
 320              		.loc 1 48 5 is_stmt 1
 321              		.loc 1 48 31 is_stmt 0
 322              	#APP
 323              	# 48 "src/syscall_c.cpp" 1
  49              	    volatile uint64 a0 = Riscv::r_a0();
 324              		ecall
 325              	# 0 "" 2
 326              		.loc 1 49 5 is_stmt 1
 327              	#NO_APP
 328              	.LBB48:
 329              	.LBB49:
 227:src/../h/riscv.hpp ****     __asm__ volatile ("ld %0, 10*8(fp)" : "=r"(a0));
 330              		.loc 2 227 5
 228:src/../h/riscv.hpp ****     return a0;
 331              		.loc 2 228 5
 228:src/../h/riscv.hpp ****     return a0;
 332              		.loc 2 228 52 is_stmt 0
 333              	#APP
 334              	# 228 "src/../h/riscv.hpp" 1
 335              		ld a5, 10*8(fp)
 336              	# 0 "" 2
 337              	#NO_APP
 338 00f0 2330F4FE 		sd	a5,-32(s0)
 229:src/../h/riscv.hpp **** }
 339              		.loc 2 229 5 is_stmt 1
 229:src/../h/riscv.hpp **** }
 340              		.loc 2 229 12 is_stmt 0
 341 00f4 833704FE 		ld	a5,-32(s0)
 342              	.LBE49:
 343              	.LBE48:
 344              		.loc 1 49 38
 345 00f8 2334F4FE 		sd	a5,-24(s0)
  50:src/syscall_c.cpp ****     return a0;
 346              		.loc 1 50 5 is_stmt 1
 347              		.loc 1 50 12 is_stmt 0
 348 00fc 033584FE 		ld	a0,-24(s0)
  51:src/syscall_c.cpp **** }
 349              		.loc 1 51 1
 350 0100 1B050500 		sext.w	a0,a0
 351 0104 03348101 		ld	s0,24(sp)
 352              		.cfi_restore 8
 353              		.cfi_def_cfa 2, 32
 354 0108 13010102 		addi	sp,sp,32
 355              		.cfi_def_cfa_offset 0
 356 010c 67800000 		jr	ra
 357              		.cfi_endproc
 358              	.LFE52:
 360              		.align	2
 361              		.globl	_Z15thread_dispatchv
 363              	_Z15thread_dispatchv:
GAS LISTING /tmp/ccerCNDo.s 			page 13


 364              	.LFB53:
  52:src/syscall_c.cpp **** 
  53:src/syscall_c.cpp **** void thread_dispatch(){
 365              		.loc 1 53 23 is_stmt 1
 366              		.cfi_startproc
 367 0110 130101FF 		addi	sp,sp,-16
 368              		.cfi_def_cfa_offset 16
 369 0114 23348100 		sd	s0,8(sp)
 370              		.cfi_offset 8, -8
 371 0118 13040101 		addi	s0,sp,16
 372              		.cfi_def_cfa 8, 0
  54:src/syscall_c.cpp ****     Riscv::w_a0(0x13);
 373              		.loc 1 54 5
 374              	.LVL23:
 375              	.LBB50:
 376              	.LBB51:
 233:src/../h/riscv.hpp **** }
 377              		.loc 2 233 5
 233:src/../h/riscv.hpp **** }
 378              		.loc 2 233 47 is_stmt 0
 379 011c 93073001 		li	a5,19
 380              	#APP
 381              	# 233 "src/../h/riscv.hpp" 1
 382              		mv a0, a5
 383              	# 0 "" 2
 384              	.LVL24:
 385              	#NO_APP
 386              	.LBE51:
 387              	.LBE50:
  55:src/syscall_c.cpp ****     __asm__ volatile ("ecall");
 388              		.loc 1 55 5 is_stmt 1
 389              		.loc 1 55 31 is_stmt 0
 390              	#APP
 391              	# 55 "src/syscall_c.cpp" 1
  56              	}
 392              		ecall
 393              	# 0 "" 2
 394              		.loc 1 56 1
 395              	#NO_APP
 396 0128 03348100 		ld	s0,8(sp)
 397              		.cfi_restore 8
 398              		.cfi_def_cfa 2, 16
 399 012c 13010101 		addi	sp,sp,16
 400              		.cfi_def_cfa_offset 0
 401 0130 67800000 		jr	ra
 402              		.cfi_endproc
 403              	.LFE53:
 405              		.align	2
 406              		.globl	_Z11thread_joinP7_thread
 408              	_Z11thread_joinP7_thread:
 409              	.LFB54:
  57:src/syscall_c.cpp **** 
  58:src/syscall_c.cpp **** void thread_join(thread_t handle){
 410              		.loc 1 58 34 is_stmt 1
 411              		.cfi_startproc
 412              	.LVL25:
 413 0134 130101FF 		addi	sp,sp,-16
GAS LISTING /tmp/ccerCNDo.s 			page 14


 414              		.cfi_def_cfa_offset 16
 415 0138 23348100 		sd	s0,8(sp)
 416              		.cfi_offset 8, -8
 417 013c 13040101 		addi	s0,sp,16
 418              		.cfi_def_cfa 8, 0
  59:src/syscall_c.cpp ****     Riscv::w_a0(0x14);
 419              		.loc 1 59 5
 420              	.LVL26:
 421              	.LBB52:
 422              	.LBB53:
 233:src/../h/riscv.hpp **** }
 423              		.loc 2 233 5
 233:src/../h/riscv.hpp **** }
 424              		.loc 2 233 47 is_stmt 0
 425 0140 93074001 		li	a5,20
 426              	#APP
 427              	# 233 "src/../h/riscv.hpp" 1
 428              		mv a0, a5
 429              	# 0 "" 2
 430              	.LVL27:
 431              	#NO_APP
 432              	.LBE53:
 433              	.LBE52:
  60:src/syscall_c.cpp **** 
  61:src/syscall_c.cpp **** }...
 434              		.loc 1 61 1
 435 0148 03348100 		ld	s0,8(sp)
 436              		.cfi_restore 8
 437              		.cfi_def_cfa 2, 16
 438 014c 13010101 		addi	sp,sp,16
 439              		.cfi_def_cfa_offset 0
 440 0150 67800000 		jr	ra
 441              		.cfi_endproc
 442              	.LFE54:
 444              	.Letext0:
 445              		.file 3 "src/../h/../h/../lib/hw.h"
 446              		.file 4 "src/../h/syscall_c.hpp"
GAS LISTING /tmp/ccerCNDo.s 			page 15


DEFINED SYMBOLS
                            *ABS*:0000000000000000 syscall_c.cpp
     /tmp/ccerCNDo.s:9      .text:0000000000000000 _Z9mem_allocm
     /tmp/ccerCNDo.s:13     .text:0000000000000000 .L0 
     /tmp/ccerCNDo.s:15     .text:0000000000000000 .L0 
     /tmp/ccerCNDo.s:16     .text:0000000000000004 .L0 
     /tmp/ccerCNDo.s:18     .text:0000000000000008 .L0 
     /tmp/ccerCNDo.s:20     .text:000000000000000c .L0 
     /tmp/ccerCNDo.s:22     .text:000000000000000c .L0 
     /tmp/ccerCNDo.s:23     .text:000000000000000c .L0 
     /tmp/ccerCNDo.s:26     .text:0000000000000010 .L0 
     /tmp/ccerCNDo.s:32     .text:0000000000000014 .L0 
     /tmp/ccerCNDo.s:33     .text:0000000000000014 .L0 
     /tmp/ccerCNDo.s:34     .text:0000000000000014 .L0 
     /tmp/ccerCNDo.s:46     .text:000000000000001c .L0 
     /tmp/ccerCNDo.s:47     .text:000000000000001c .L0 
  src/../h/riscv.hpp:243    .text:000000000000001c .L0 
     /tmp/ccerCNDo.s:57     .text:0000000000000020 .L0 
   src/syscall_c.cpp:9      .text:0000000000000020 .L0 
     /tmp/ccerCNDo.s:63     .text:0000000000000024 .L0 
     /tmp/ccerCNDo.s:64     .text:0000000000000024 .L0 
   src/syscall_c.cpp:12     .text:0000000000000024 .L0 
     /tmp/ccerCNDo.s:71     .text:000000000000002c .L0 
     /tmp/ccerCNDo.s:72     .text:000000000000002c .L0 
     /tmp/ccerCNDo.s:75     .text:0000000000000030 .L0 
     /tmp/ccerCNDo.s:76     .text:0000000000000034 .L0 
     /tmp/ccerCNDo.s:77     .text:0000000000000034 .L0 
     /tmp/ccerCNDo.s:79     .text:0000000000000038 .L0 
     /tmp/ccerCNDo.s:81     .text:000000000000003c .L0 
     /tmp/ccerCNDo.s:87     .text:000000000000003c _Z8mem_freePv
     /tmp/ccerCNDo.s:90     .text:000000000000003c .L0 
     /tmp/ccerCNDo.s:92     .text:000000000000003c .L0 
     /tmp/ccerCNDo.s:93     .text:0000000000000040 .L0 
     /tmp/ccerCNDo.s:95     .text:0000000000000044 .L0 
     /tmp/ccerCNDo.s:97     .text:0000000000000048 .L0 
     /tmp/ccerCNDo.s:102    .text:0000000000000048 .L0 
     /tmp/ccerCNDo.s:103    .text:0000000000000048 .L0 
     /tmp/ccerCNDo.s:104    .text:0000000000000048 .L0 
     /tmp/ccerCNDo.s:116    .text:0000000000000050 .L0 
     /tmp/ccerCNDo.s:117    .text:0000000000000050 .L0 
  src/../h/riscv.hpp:243    .text:0000000000000050 .L0 
     /tmp/ccerCNDo.s:127    .text:0000000000000054 .L0 
   src/syscall_c.cpp:20     .text:0000000000000054 .L0 
     /tmp/ccerCNDo.s:133    .text:0000000000000058 .L0 
     /tmp/ccerCNDo.s:134    .text:0000000000000058 .L0 
   src/syscall_c.cpp:23     .text:0000000000000058 .L0 
     /tmp/ccerCNDo.s:141    .text:0000000000000060 .L0 
     /tmp/ccerCNDo.s:142    .text:0000000000000060 .L0 
     /tmp/ccerCNDo.s:145    .text:0000000000000064 .L0 
     /tmp/ccerCNDo.s:147    .text:000000000000006c .L0 
     /tmp/ccerCNDo.s:148    .text:000000000000006c .L0 
     /tmp/ccerCNDo.s:150    .text:0000000000000070 .L0 
     /tmp/ccerCNDo.s:152    .text:0000000000000074 .L0 
     /tmp/ccerCNDo.s:158    .text:0000000000000074 _Z10toUserModev
     /tmp/ccerCNDo.s:161    .text:0000000000000074 .L0 
     /tmp/ccerCNDo.s:162    .text:0000000000000074 .L0 
     /tmp/ccerCNDo.s:163    .text:0000000000000078 .L0 
GAS LISTING /tmp/ccerCNDo.s 			page 16


     /tmp/ccerCNDo.s:165    .text:000000000000007c .L0 
     /tmp/ccerCNDo.s:167    .text:0000000000000080 .L0 
     /tmp/ccerCNDo.s:172    .text:0000000000000080 .L0 
     /tmp/ccerCNDo.s:173    .text:0000000000000080 .L0 
     /tmp/ccerCNDo.s:174    .text:0000000000000080 .L0 
     /tmp/ccerCNDo.s:184    .text:0000000000000088 .L0 
   src/syscall_c.cpp:29     .text:0000000000000088 .L0 
     /tmp/ccerCNDo.s:191    .text:000000000000008c .L0 
     /tmp/ccerCNDo.s:192    .text:0000000000000090 .L0 
     /tmp/ccerCNDo.s:193    .text:0000000000000090 .L0 
     /tmp/ccerCNDo.s:195    .text:0000000000000094 .L0 
     /tmp/ccerCNDo.s:197    .text:0000000000000098 .L0 
     /tmp/ccerCNDo.s:203    .text:0000000000000098 _Z13thread_createPP7_threadPFvPvES2_
     /tmp/ccerCNDo.s:206    .text:0000000000000098 .L0 
     /tmp/ccerCNDo.s:208    .text:0000000000000098 .L0 
     /tmp/ccerCNDo.s:209    .text:000000000000009c .L0 
     /tmp/ccerCNDo.s:211    .text:00000000000000a0 .L0 
     /tmp/ccerCNDo.s:213    .text:00000000000000a4 .L0 
     /tmp/ccerCNDo.s:219    .text:00000000000000a8 .L0 
     /tmp/ccerCNDo.s:220    .text:00000000000000a8 .L0 
     /tmp/ccerCNDo.s:221    .text:00000000000000a8 .L0 
     /tmp/ccerCNDo.s:233    .text:00000000000000b0 .L0 
     /tmp/ccerCNDo.s:234    .text:00000000000000b0 .L0 
  src/../h/riscv.hpp:243    .text:00000000000000b0 .L0 
     /tmp/ccerCNDo.s:246    .text:00000000000000b4 .L0 
     /tmp/ccerCNDo.s:247    .text:00000000000000b4 .L0 
  src/../h/riscv.hpp:253    .text:00000000000000b4 .L0 
     /tmp/ccerCNDo.s:257    .text:00000000000000b8 .L0 
     /tmp/ccerCNDo.s:258    .text:00000000000000b8 .L0 
     /tmp/ccerCNDo.s:263    .text:00000000000000bc .L0 
  src/../h/riscv.hpp:263    .text:00000000000000bc .L0 
     /tmp/ccerCNDo.s:273    .text:00000000000000c0 .L0 
   src/syscall_c.cpp:40     .text:00000000000000c0 .L0 
     /tmp/ccerCNDo.s:279    .text:00000000000000c4 .L0 
     /tmp/ccerCNDo.s:281    .text:00000000000000c4 .L0 
     /tmp/ccerCNDo.s:284    .text:00000000000000cc .L0 
     /tmp/ccerCNDo.s:285    .text:00000000000000cc .L0 
     /tmp/ccerCNDo.s:287    .text:00000000000000d0 .L0 
     /tmp/ccerCNDo.s:289    .text:00000000000000d4 .L0 
     /tmp/ccerCNDo.s:295    .text:00000000000000d4 _Z11thread_exitv
     /tmp/ccerCNDo.s:298    .text:00000000000000d4 .L0 
     /tmp/ccerCNDo.s:299    .text:00000000000000d4 .L0 
     /tmp/ccerCNDo.s:300    .text:00000000000000d8 .L0 
     /tmp/ccerCNDo.s:302    .text:00000000000000dc .L0 
     /tmp/ccerCNDo.s:304    .text:00000000000000e0 .L0 
     /tmp/ccerCNDo.s:309    .text:00000000000000e0 .L0 
     /tmp/ccerCNDo.s:310    .text:00000000000000e0 .L0 
     /tmp/ccerCNDo.s:311    .text:00000000000000e0 .L0 
     /tmp/ccerCNDo.s:321    .text:00000000000000e8 .L0 
   src/syscall_c.cpp:48     .text:00000000000000e8 .L0 
     /tmp/ccerCNDo.s:330    .text:00000000000000ec .L0 
     /tmp/ccerCNDo.s:331    .text:00000000000000ec .L0 
     /tmp/ccerCNDo.s:332    .text:00000000000000ec .L0 
  src/../h/riscv.hpp:228    .text:00000000000000ec .L0 
     /tmp/ccerCNDo.s:340    .text:00000000000000f4 .L0 
     /tmp/ccerCNDo.s:341    .text:00000000000000f4 .L0 
     /tmp/ccerCNDo.s:345    .text:00000000000000f8 .L0 
GAS LISTING /tmp/ccerCNDo.s 			page 17


     /tmp/ccerCNDo.s:347    .text:00000000000000fc .L0 
     /tmp/ccerCNDo.s:348    .text:00000000000000fc .L0 
     /tmp/ccerCNDo.s:350    .text:0000000000000100 .L0 
     /tmp/ccerCNDo.s:352    .text:0000000000000108 .L0 
     /tmp/ccerCNDo.s:353    .text:0000000000000108 .L0 
     /tmp/ccerCNDo.s:355    .text:000000000000010c .L0 
     /tmp/ccerCNDo.s:357    .text:0000000000000110 .L0 
     /tmp/ccerCNDo.s:363    .text:0000000000000110 _Z15thread_dispatchv
     /tmp/ccerCNDo.s:366    .text:0000000000000110 .L0 
     /tmp/ccerCNDo.s:367    .text:0000000000000110 .L0 
     /tmp/ccerCNDo.s:368    .text:0000000000000114 .L0 
     /tmp/ccerCNDo.s:370    .text:0000000000000118 .L0 
     /tmp/ccerCNDo.s:372    .text:000000000000011c .L0 
     /tmp/ccerCNDo.s:377    .text:000000000000011c .L0 
     /tmp/ccerCNDo.s:378    .text:000000000000011c .L0 
     /tmp/ccerCNDo.s:379    .text:000000000000011c .L0 
     /tmp/ccerCNDo.s:389    .text:0000000000000124 .L0 
   src/syscall_c.cpp:55     .text:0000000000000124 .L0 
     /tmp/ccerCNDo.s:396    .text:0000000000000128 .L0 
     /tmp/ccerCNDo.s:397    .text:000000000000012c .L0 
     /tmp/ccerCNDo.s:398    .text:000000000000012c .L0 
     /tmp/ccerCNDo.s:400    .text:0000000000000130 .L0 
     /tmp/ccerCNDo.s:402    .text:0000000000000134 .L0 
     /tmp/ccerCNDo.s:408    .text:0000000000000134 _Z11thread_joinP7_thread
     /tmp/ccerCNDo.s:411    .text:0000000000000134 .L0 
     /tmp/ccerCNDo.s:413    .text:0000000000000134 .L0 
     /tmp/ccerCNDo.s:414    .text:0000000000000138 .L0 
     /tmp/ccerCNDo.s:416    .text:000000000000013c .L0 
     /tmp/ccerCNDo.s:418    .text:0000000000000140 .L0 
     /tmp/ccerCNDo.s:423    .text:0000000000000140 .L0 
     /tmp/ccerCNDo.s:424    .text:0000000000000140 .L0 
     /tmp/ccerCNDo.s:425    .text:0000000000000140 .L0 
     /tmp/ccerCNDo.s:435    .text:0000000000000148 .L0 
     /tmp/ccerCNDo.s:436    .text:000000000000014c .L0 
     /tmp/ccerCNDo.s:437    .text:000000000000014c .L0 
     /tmp/ccerCNDo.s:439    .text:0000000000000150 .L0 
     /tmp/ccerCNDo.s:441    .text:0000000000000154 .L0 
     /tmp/ccerCNDo.s:447    .text:0000000000000154 .L0 
     /tmp/ccerCNDo.s:1302   .debug_abbrev:0000000000000000 .Ldebug_abbrev0
     /tmp/ccerCNDo.s:2237   .debug_str:0000000000000556 .LASF100
     /tmp/ccerCNDo.s:2145   .debug_str:00000000000002cd .LASF101
     /tmp/ccerCNDo.s:2095   .debug_str:0000000000000137 .LASF102
     /tmp/ccerCNDo.s:5      .text:0000000000000000 .Ltext0
     /tmp/ccerCNDo.s:444    .text:0000000000000154 .Letext0
     /tmp/ccerCNDo.s:2045   .debug_line:0000000000000000 .Ldebug_line0
     /tmp/ccerCNDo.s:2175   .debug_str:00000000000003b3 .LASF0
     /tmp/ccerCNDo.s:2185   .debug_str:00000000000003f7 .LASF1
     /tmp/ccerCNDo.s:2161   .debug_str:0000000000000344 .LASF2
     /tmp/ccerCNDo.s:2143   .debug_str:00000000000002c6 .LASF4
     /tmp/ccerCNDo.s:2217   .debug_str:00000000000004d4 .LASF3
     /tmp/ccerCNDo.s:2069   .debug_str:000000000000008b .LASF5
     /tmp/ccerCNDo.s:2189   .debug_str:000000000000041b .LASF6
     /tmp/ccerCNDo.s:2173   .debug_str:00000000000003a0 .LASF7
     /tmp/ccerCNDo.s:2243   .debug_str:000000000000063a .LASF8
     /tmp/ccerCNDo.s:2133   .debug_str:0000000000000270 .LASF9
     /tmp/ccerCNDo.s:2199   .debug_str:000000000000044d .LASF10
     /tmp/ccerCNDo.s:2239   .debug_str:000000000000061a .LASF11
GAS LISTING /tmp/ccerCNDo.s 			page 18


     /tmp/ccerCNDo.s:2075   .debug_str:000000000000009c .LASF12
     /tmp/ccerCNDo.s:2053   .debug_str:000000000000002b .LASF13
     /tmp/ccerCNDo.s:2087   .debug_str:00000000000000fc .LASF14
     /tmp/ccerCNDo.s:2209   .debug_str:0000000000000488 .LASF15
     /tmp/ccerCNDo.s:2097   .debug_str:000000000000015a .LASF16
     /tmp/ccerCNDo.s:2121   .debug_str:0000000000000227 .LASF17
     /tmp/ccerCNDo.s:2183   .debug_str:00000000000003f1 .LASF103
     /tmp/ccerCNDo.s:2207   .debug_str:000000000000047d .LASF18
     /tmp/ccerCNDo.s:2251   .debug_str:0000000000000670 .LASF20
     /tmp/ccerCNDo.s:2067   .debug_str:000000000000007d .LASF19
     /tmp/ccerCNDo.s:2113   .debug_str:00000000000001df .LASF21
     /tmp/ccerCNDo.s:2225   .debug_str:0000000000000511 .LASF22
     /tmp/ccerCNDo.s:2051   .debug_str:0000000000000011 .LASF23
     /tmp/ccerCNDo.s:2055   .debug_str:000000000000003b .LASF24
     /tmp/ccerCNDo.s:2223   .debug_str:00000000000004fc .LASF26
     /tmp/ccerCNDo.s:2109   .debug_str:00000000000001ca .LASF28
     /tmp/ccerCNDo.s:2107   .debug_str:00000000000001b5 .LASF30
     /tmp/ccerCNDo.s:2219   .debug_str:00000000000004e6 .LASF25
     /tmp/ccerCNDo.s:2203   .debug_str:0000000000000465 .LASF27
     /tmp/ccerCNDo.s:2235   .debug_str:000000000000054f .LASF29
     /tmp/ccerCNDo.s:2229   .debug_str:0000000000000525 .LASF31
     /tmp/ccerCNDo.s:2127   .debug_str:0000000000000254 .LASF32
     /tmp/ccerCNDo.s:2099   .debug_str:0000000000000170 .LASF33
     /tmp/ccerCNDo.s:2049   .debug_str:0000000000000009 .LASF34
     /tmp/ccerCNDo.s:2137   .debug_str:0000000000000294 .LASF35
     /tmp/ccerCNDo.s:2117   .debug_str:000000000000020b .LASF36
     /tmp/ccerCNDo.s:2081   .debug_str:00000000000000c2 .LASF37
     /tmp/ccerCNDo.s:2257   .debug_str:00000000000006a4 .LASF38
     /tmp/ccerCNDo.s:2119   .debug_str:0000000000000213 .LASF39
     /tmp/ccerCNDo.s:2177   .debug_str:00000000000003c0 .LASF40
     /tmp/ccerCNDo.s:2249   .debug_str:000000000000065d .LASF41
     /tmp/ccerCNDo.s:2065   .debug_str:0000000000000076 .LASF42
     /tmp/ccerCNDo.s:2125   .debug_str:0000000000000241 .LASF43
     /tmp/ccerCNDo.s:2131   .debug_str:000000000000026a .LASF44
     /tmp/ccerCNDo.s:2233   .debug_str:000000000000053d .LASF45
     /tmp/ccerCNDo.s:2063   .debug_str:0000000000000070 .LASF46
     /tmp/ccerCNDo.s:2259   .debug_str:00000000000006ac .LASF47
     /tmp/ccerCNDo.s:2255   .debug_str:0000000000000699 .LASF48
     /tmp/ccerCNDo.s:2215   .debug_str:00000000000004bc .LASF49
     /tmp/ccerCNDo.s:2149   .debug_str:00000000000002f0 .LASF50
     /tmp/ccerCNDo.s:2159   .debug_str:000000000000032c .LASF51
     /tmp/ccerCNDo.s:2085   .debug_str:00000000000000f2 .LASF52
     /tmp/ccerCNDo.s:2139   .debug_str:00000000000002a8 .LASF53
     /tmp/ccerCNDo.s:2165   .debug_str:0000000000000365 .LASF54
     /tmp/ccerCNDo.s:2135   .debug_str:000000000000027e .LASF55
     /tmp/ccerCNDo.s:2195   .debug_str:0000000000000438 .LASF56
     /tmp/ccerCNDo.s:2101   .debug_str:0000000000000184 .LASF57
     /tmp/ccerCNDo.s:2057   .debug_str:0000000000000044 .LASF58
     /tmp/ccerCNDo.s:2163   .debug_str:0000000000000352 .LASF59
     /tmp/ccerCNDo.s:2221   .debug_str:00000000000004ed .LASF60
     /tmp/ccerCNDo.s:2083   .debug_str:00000000000000d6 .LASF61
     /tmp/ccerCNDo.s:2231   .debug_str:0000000000000538 .LASF62
     /tmp/ccerCNDo.s:2115   .debug_str:00000000000001fa .LASF63
     /tmp/ccerCNDo.s:2071   .debug_str:0000000000000092 .LASF64
     /tmp/ccerCNDo.s:2167   .debug_str:000000000000036f .LASF65
     /tmp/ccerCNDo.s:2157   .debug_str:0000000000000327 .LASF66
     /tmp/ccerCNDo.s:2253   .debug_str:0000000000000688 .LASF67
GAS LISTING /tmp/ccerCNDo.s 			page 19


     /tmp/ccerCNDo.s:2073   .debug_str:0000000000000097 .LASF68
     /tmp/ccerCNDo.s:2147   .debug_str:00000000000002df .LASF69
     /tmp/ccerCNDo.s:2191   .debug_str:000000000000042e .LASF70
     /tmp/ccerCNDo.s:2241   .debug_str:0000000000000629 .LASF71
     /tmp/ccerCNDo.s:2181   .debug_str:00000000000003ec .LASF72
     /tmp/ccerCNDo.s:2079   .debug_str:00000000000000b1 .LASF73
     /tmp/ccerCNDo.s:2193   .debug_str:0000000000000433 .LASF74
     /tmp/ccerCNDo.s:2211   .debug_str:000000000000049e .LASF75
     /tmp/ccerCNDo.s:2077   .debug_str:00000000000000ac .LASF76
     /tmp/ccerCNDo.s:2089   .debug_str:0000000000000108 .LASF77
     /tmp/ccerCNDo.s:2153   .debug_str:0000000000000306 .LASF78
     /tmp/ccerCNDo.s:2171   .debug_str:000000000000038c .LASF79
     /tmp/ccerCNDo.s:2169   .debug_str:0000000000000380 .LASF104
     /tmp/ccerCNDo.s:2155   .debug_str:000000000000030e .LASF105
     /tmp/ccerCNDo.s:2247   .debug_str:0000000000000654 .LASF80
     /tmp/ccerCNDo.s:2047   .debug_str:0000000000000000 .LASF81
     /tmp/ccerCNDo.s:2141   .debug_str:00000000000002be .LASF106
     /tmp/ccerCNDo.s:2111   .debug_str:00000000000001d3 .LASF82
     /tmp/ccerCNDo.s:2059   .debug_str:000000000000004b .LASF84
     /tmp/ccerCNDo.s:409    .text:0000000000000134 .LFB54
     /tmp/ccerCNDo.s:442    .text:0000000000000154 .LFE54
     /tmp/ccerCNDo.s:2227   .debug_str:000000000000051e .LASF90
     /tmp/ccerCNDo.s:421    .text:0000000000000140 .LBB52
     /tmp/ccerCNDo.s:433    .text:0000000000000148 .LBE52
     /tmp/ccerCNDo.s:1876   .debug_loc:0000000000000000 .LLST15
     /tmp/ccerCNDo.s:2091   .debug_str:0000000000000119 .LASF83
     /tmp/ccerCNDo.s:2123   .debug_str:000000000000022c .LASF85
     /tmp/ccerCNDo.s:364    .text:0000000000000110 .LFB53
     /tmp/ccerCNDo.s:403    .text:0000000000000134 .LFE53
     /tmp/ccerCNDo.s:375    .text:000000000000011c .LBB50
     /tmp/ccerCNDo.s:387    .text:0000000000000124 .LBE50
     /tmp/ccerCNDo.s:1884   .debug_loc:0000000000000024 .LLST14
     /tmp/ccerCNDo.s:2061   .debug_str:0000000000000064 .LASF86
     /tmp/ccerCNDo.s:2187   .debug_str:000000000000040a .LASF88
     /tmp/ccerCNDo.s:296    .text:00000000000000d4 .LFB52
     /tmp/ccerCNDo.s:358    .text:0000000000000110 .LFE52
     /tmp/ccerCNDo.s:307    .text:00000000000000e0 .LBB46
     /tmp/ccerCNDo.s:319    .text:00000000000000e8 .LBE46
     /tmp/ccerCNDo.s:1892   .debug_loc:0000000000000048 .LLST13
     /tmp/ccerCNDo.s:328    .text:00000000000000ec .LBB48
     /tmp/ccerCNDo.s:343    .text:00000000000000f8 .LBE48
     /tmp/ccerCNDo.s:2103   .debug_str:0000000000000197 .LASF87
     /tmp/ccerCNDo.s:2179   .debug_str:00000000000003c7 .LASF89
     /tmp/ccerCNDo.s:204    .text:0000000000000098 .LFB51
     /tmp/ccerCNDo.s:290    .text:00000000000000d4 .LFE51
     /tmp/ccerCNDo.s:1900   .debug_loc:000000000000006c .LLST8
     /tmp/ccerCNDo.s:2129   .debug_str:000000000000025c .LASF91
     /tmp/ccerCNDo.s:217    .text:00000000000000a8 .LBB38
     /tmp/ccerCNDo.s:229    .text:00000000000000b0 .LBE38
     /tmp/ccerCNDo.s:1912   .debug_loc:00000000000000a3 .LLST9
     /tmp/ccerCNDo.s:231    .text:00000000000000b0 .LBB40
     /tmp/ccerCNDo.s:242    .text:00000000000000b4 .LBE40
     /tmp/ccerCNDo.s:1920   .debug_loc:00000000000000c7 .LLST10
     /tmp/ccerCNDo.s:244    .text:00000000000000b4 .LBB42
     /tmp/ccerCNDo.s:255    .text:00000000000000b8 .LBE42
     /tmp/ccerCNDo.s:1927   .debug_loc:00000000000000ea .LLST11
     /tmp/ccerCNDo.s:260    .text:00000000000000bc .LBB44
GAS LISTING /tmp/ccerCNDo.s 			page 20


     /tmp/ccerCNDo.s:271    .text:00000000000000c0 .LBE44
     /tmp/ccerCNDo.s:1934   .debug_loc:000000000000010d .LLST12
     /tmp/ccerCNDo.s:2151   .debug_str:00000000000002fb .LASF92
     /tmp/ccerCNDo.s:2105   .debug_str:00000000000001a5 .LASF93
     /tmp/ccerCNDo.s:159    .text:0000000000000074 .LFB50
     /tmp/ccerCNDo.s:198    .text:0000000000000098 .LFE50
     /tmp/ccerCNDo.s:170    .text:0000000000000080 .LBB36
     /tmp/ccerCNDo.s:182    .text:0000000000000088 .LBE36
     /tmp/ccerCNDo.s:1941   .debug_loc:0000000000000130 .LLST7
     /tmp/ccerCNDo.s:2201   .debug_str:000000000000045c .LASF94
     /tmp/ccerCNDo.s:2197   .debug_str:000000000000043f .LASF95
     /tmp/ccerCNDo.s:88     .text:000000000000003c .LFB49
     /tmp/ccerCNDo.s:153    .text:0000000000000074 .LFE49
     /tmp/ccerCNDo.s:1950   .debug_loc:0000000000000155 .LLST4
     /tmp/ccerCNDo.s:100    .text:0000000000000048 .LBB32
     /tmp/ccerCNDo.s:112    .text:0000000000000050 .LBE32
     /tmp/ccerCNDo.s:1964   .debug_loc:000000000000018e .LLST5
     /tmp/ccerCNDo.s:114    .text:0000000000000050 .LBB34
     /tmp/ccerCNDo.s:125    .text:0000000000000054 .LBE34
     /tmp/ccerCNDo.s:1972   .debug_loc:00000000000001b2 .LLST6
     /tmp/ccerCNDo.s:2245   .debug_str:000000000000064a .LASF96
     /tmp/ccerCNDo.s:2093   .debug_str:0000000000000129 .LASF97
     /tmp/ccerCNDo.s:10     .text:0000000000000000 .LFB48
     /tmp/ccerCNDo.s:82     .text:000000000000003c .LFE48
     /tmp/ccerCNDo.s:2205   .debug_str:0000000000000478 .LASF98
     /tmp/ccerCNDo.s:1979   .debug_loc:00000000000001d5 .LLST0
     /tmp/ccerCNDo.s:2213   .debug_str:00000000000004af .LASF99
     /tmp/ccerCNDo.s:1999   .debug_loc:0000000000000224 .LLST1
     /tmp/ccerCNDo.s:29     .text:0000000000000014 .LBB28
     /tmp/ccerCNDo.s:42     .text:000000000000001c .LBE28
     /tmp/ccerCNDo.s:2017   .debug_loc:0000000000000261 .LLST2
     /tmp/ccerCNDo.s:44     .text:000000000000001c .LBB30
     /tmp/ccerCNDo.s:55     .text:0000000000000020 .LBE30
     /tmp/ccerCNDo.s:2025   .debug_loc:0000000000000285 .LLST3
     /tmp/ccerCNDo.s:420    .text:0000000000000140 .LVL26
     /tmp/ccerCNDo.s:430    .text:0000000000000148 .LVL27
     /tmp/ccerCNDo.s:374    .text:000000000000011c .LVL23
     /tmp/ccerCNDo.s:384    .text:0000000000000124 .LVL24
     /tmp/ccerCNDo.s:306    .text:00000000000000e0 .LVL21
     /tmp/ccerCNDo.s:316    .text:00000000000000e8 .LVL22
     /tmp/ccerCNDo.s:207    .text:0000000000000098 .LVL13
     /tmp/ccerCNDo.s:282    .text:00000000000000c8 .LVL20
     /tmp/ccerCNDo.s:216    .text:00000000000000a8 .LVL14
     /tmp/ccerCNDo.s:226    .text:00000000000000b0 .LVL15
     /tmp/ccerCNDo.s:239    .text:00000000000000b4 .LVL16
     /tmp/ccerCNDo.s:252    .text:00000000000000b8 .LVL17
     /tmp/ccerCNDo.s:259    .text:00000000000000bc .LVL18
     /tmp/ccerCNDo.s:268    .text:00000000000000c0 .LVL19
     /tmp/ccerCNDo.s:169    .text:0000000000000080 .LVL11
     /tmp/ccerCNDo.s:179    .text:0000000000000088 .LVL12
     /tmp/ccerCNDo.s:91     .text:000000000000003c .LVL6
     /tmp/ccerCNDo.s:143    .text:0000000000000064 .LVL10
     /tmp/ccerCNDo.s:99     .text:0000000000000048 .LVL7
     /tmp/ccerCNDo.s:109    .text:0000000000000050 .LVL8
     /tmp/ccerCNDo.s:122    .text:0000000000000054 .LVL9
     /tmp/ccerCNDo.s:14     .text:0000000000000000 .LVL0
     /tmp/ccerCNDo.s:24     .text:0000000000000010 .LVL1
GAS LISTING /tmp/ccerCNDo.s 			page 21


     /tmp/ccerCNDo.s:27     .text:0000000000000014 .LVL2
     /tmp/ccerCNDo.s:73     .text:0000000000000030 .LVL5
     /tmp/ccerCNDo.s:39     .text:000000000000001c .LVL3
     /tmp/ccerCNDo.s:52     .text:0000000000000020 .LVL4
     /tmp/ccerCNDo.s:448    .debug_info:0000000000000000 .Ldebug_info0

NO UNDEFINED SYMBOLS
