GAS LISTING /tmp/ccxFGJii.s 			page 1


   1              		.file	"buffer_CPP_API.cpp"
   2              		.option pic
   3              		.option norelax
   4              		.text
   5              	.Ltext0:
   6              		.align	2
   7              		.globl	_ZN9BufferCPPC2Ei
   9              	_ZN9BufferCPPC2Ei:
  10              	.LFB53:
  11              		.file 1 "test/buffer_CPP_API.cpp"
   1:test/buffer_CPP_API.cpp **** #include "buffer_CPP_API.hpp"
   2:test/buffer_CPP_API.cpp **** 
   3:test/buffer_CPP_API.cpp **** BufferCPP::BufferCPP(int _cap) : cap(_cap + 1), head(0), tail(0) {
  12              		.loc 1 3 1
  13              		.cfi_startproc
  14              		.cfi_personality 0x9b,DW.ref.__gxx_personality_v0
  15              		.cfi_lsda 0x1b,.LLSDA53
  16              	.LVL0:
  17 0000 130101FD 		addi	sp,sp,-48
  18              		.cfi_def_cfa_offset 48
  19 0004 23341102 		sd	ra,40(sp)
  20 0008 23308102 		sd	s0,32(sp)
  21 000c 233C9100 		sd	s1,24(sp)
  22 0010 23382101 		sd	s2,16(sp)
  23 0014 23343101 		sd	s3,8(sp)
  24              		.cfi_offset 1, -8
  25              		.cfi_offset 8, -16
  26              		.cfi_offset 9, -24
  27              		.cfi_offset 18, -32
  28              		.cfi_offset 19, -40
  29 0018 13040103 		addi	s0,sp,48
  30              		.cfi_def_cfa 8, 0
  31 001c 93040500 		mv	s1,a0
  32 0020 13890500 		mv	s2,a1
  33              	.LBB2:
  34              		.loc 1 3 43 is_stmt 0
  35 0024 9B871500 		addiw	a5,a1,1
  36 0028 1B850700 		sext.w	a0,a5
  37              	.LVL1:
  38              		.loc 1 3 64
  39 002c 23A0F400 		sw	a5,0(s1)
  40 0030 23A80400 		sw	zero,16(s1)
  41 0034 23AA0400 		sw	zero,20(s1)
   4:test/buffer_CPP_API.cpp ****     buffer = (int *)mem_alloc(sizeof(int) * cap);
  42              		.loc 1 4 5 is_stmt 1
  43              		.loc 1 4 30 is_stmt 0
  44 0038 13152500 		slli	a0,a0,2
  45              	.LEHB0:
  46 003c 97000000 		call	_Z9mem_allocm@plt
  46      E7800000 
  47              	.LVL2:
  48              		.loc 1 4 12
  49 0044 23B4A400 		sd	a0,8(s1)
   5:test/buffer_CPP_API.cpp ****     itemAvailable = new Semaphore(0);
  50              		.loc 1 5 5 is_stmt 1
  51              		.loc 1 5 36 is_stmt 0
  52 0048 13050001 		li	a0,16
GAS LISTING /tmp/ccxFGJii.s 			page 2


  53 004c 97000000 		call	_Znwm@plt
  53      E7800000 
  54              	.LVL3:
  55              	.LEHE0:
  56 0054 93090500 		mv	s3,a0
  57 0058 93050000 		li	a1,0
  58              	.LEHB1:
  59 005c 97000000 		call	_ZN9SemaphoreC1Ej@plt
  59      E7800000 
  60              	.LVL4:
  61              	.LEHE1:
  62              		.loc 1 5 19 discriminator 2
  63 0064 23B03403 		sd	s3,32(s1)
   6:test/buffer_CPP_API.cpp ****     spaceAvailable = new Semaphore(_cap);
  64              		.loc 1 6 5 is_stmt 1 discriminator 2
  65              		.loc 1 6 40 is_stmt 0 discriminator 2
  66 0068 13050001 		li	a0,16
  67              	.LEHB2:
  68 006c 97000000 		call	_Znwm@plt
  68      E7800000 
  69              	.LVL5:
  70              	.LEHE2:
  71 0074 93090500 		mv	s3,a0
  72 0078 93050900 		mv	a1,s2
  73              	.LEHB3:
  74 007c 97000000 		call	_ZN9SemaphoreC1Ej@plt
  74      E7800000 
  75              	.LVL6:
  76              	.LEHE3:
  77              		.loc 1 6 20 discriminator 2
  78 0084 23BC3401 		sd	s3,24(s1)
   7:test/buffer_CPP_API.cpp ****     mutexHead = new Semaphore(1);
  79              		.loc 1 7 5 is_stmt 1 discriminator 2
  80              		.loc 1 7 32 is_stmt 0 discriminator 2
  81 0088 13050001 		li	a0,16
  82              	.LEHB4:
  83 008c 97000000 		call	_Znwm@plt
  83      E7800000 
  84              	.LVL7:
  85              	.LEHE4:
  86 0094 13090500 		mv	s2,a0
  87 0098 93051000 		li	a1,1
  88              	.LEHB5:
  89 009c 97000000 		call	_ZN9SemaphoreC1Ej@plt
  89      E7800000 
  90              	.LVL8:
  91              	.LEHE5:
  92              		.loc 1 7 15 discriminator 2
  93 00a4 23B42403 		sd	s2,40(s1)
   8:test/buffer_CPP_API.cpp ****     mutexTail = new Semaphore(1);
  94              		.loc 1 8 5 is_stmt 1 discriminator 2
  95              		.loc 1 8 32 is_stmt 0 discriminator 2
  96 00a8 13050001 		li	a0,16
  97              	.LEHB6:
  98 00ac 97000000 		call	_Znwm@plt
  98      E7800000 
  99              	.LVL9:
GAS LISTING /tmp/ccxFGJii.s 			page 3


 100              	.LEHE6:
 101 00b4 13090500 		mv	s2,a0
 102 00b8 93051000 		li	a1,1
 103              	.LEHB7:
 104 00bc 97000000 		call	_ZN9SemaphoreC1Ej@plt
 104      E7800000 
 105              	.LVL10:
 106              	.LEHE7:
 107              		.loc 1 8 15 discriminator 2
 108 00c4 23B82403 		sd	s2,48(s1)
 109              	.LBE2:
   9:test/buffer_CPP_API.cpp **** }
 110              		.loc 1 9 1 discriminator 2
 111 00c8 83308102 		ld	ra,40(sp)
 112              		.cfi_remember_state
 113              		.cfi_restore 1
 114 00cc 03340102 		ld	s0,32(sp)
 115              		.cfi_restore 8
 116              		.cfi_def_cfa 2, 48
 117 00d0 83348101 		ld	s1,24(sp)
 118              		.cfi_restore 9
 119              	.LVL11:
 120 00d4 03390101 		ld	s2,16(sp)
 121              		.cfi_restore 18
 122 00d8 83398100 		ld	s3,8(sp)
 123              		.cfi_restore 19
 124 00dc 13010103 		addi	sp,sp,48
 125              		.cfi_def_cfa_offset 0
 126 00e0 67800000 		jr	ra
 127              	.LVL12:
 128              	.L6:
 129              		.cfi_restore_state
 130 00e4 93040500 		mv	s1,a0
 131              	.LVL13:
 132              	.LBB3:
   5:test/buffer_CPP_API.cpp ****     spaceAvailable = new Semaphore(_cap);
 133              		.loc 1 5 36
 134 00e8 13850900 		mv	a0,s3
 135 00ec 97000000 		call	_ZdlPv@plt
 135      E7800000 
 136              	.LVL14:
 137 00f4 13850400 		mv	a0,s1
 138              	.LEHB8:
 139 00f8 97000000 		call	_Unwind_Resume@plt
 139      E7800000 
 140              	.LVL15:
 141              	.LEHE8:
 142              	.L7:
 143 0100 93040500 		mv	s1,a0
 144              	.LVL16:
   6:test/buffer_CPP_API.cpp ****     mutexHead = new Semaphore(1);
 145              		.loc 1 6 40
 146 0104 13850900 		mv	a0,s3
 147 0108 97000000 		call	_ZdlPv@plt
 147      E7800000 
 148              	.LVL17:
 149 0110 13850400 		mv	a0,s1
GAS LISTING /tmp/ccxFGJii.s 			page 4


 150              	.LEHB9:
 151 0114 97000000 		call	_Unwind_Resume@plt
 151      E7800000 
 152              	.LVL18:
 153              	.LEHE9:
 154              	.L8:
 155 011c 93040500 		mv	s1,a0
 156              	.LVL19:
   7:test/buffer_CPP_API.cpp ****     mutexTail = new Semaphore(1);
 157              		.loc 1 7 32
 158 0120 13050900 		mv	a0,s2
 159 0124 97000000 		call	_ZdlPv@plt
 159      E7800000 
 160              	.LVL20:
 161 012c 13850400 		mv	a0,s1
 162              	.LEHB10:
 163 0130 97000000 		call	_Unwind_Resume@plt
 163      E7800000 
 164              	.LVL21:
 165              	.LEHE10:
 166              	.L9:
 167 0138 93040500 		mv	s1,a0
 168              	.LVL22:
   8:test/buffer_CPP_API.cpp **** }
 169              		.loc 1 8 32
 170 013c 13050900 		mv	a0,s2
 171 0140 97000000 		call	_ZdlPv@plt
 171      E7800000 
 172              	.LVL23:
 173 0148 13850400 		mv	a0,s1
 174              	.LEHB11:
 175 014c 97000000 		call	_Unwind_Resume@plt
 175      E7800000 
 176              	.LVL24:
 177              	.LEHE11:
 178              	.LBE3:
 179              		.cfi_endproc
 180              	.LFE53:
 181              		.globl	__gxx_personality_v0
 182              		.section	.gcc_except_table,"a",@progbits
 183              	.LLSDA53:
 184 0000 FF       		.byte	0xff
 185 0001 FF       		.byte	0xff
 186 0002 03       		.byte	0x3
 187 0003 9C01     		.byte	0x9c,0x1
 188 0005 00000000 		.4byte	.LEHB0-.LFB53
 189 0009 00000000 		.4byte	.LEHE0-.LEHB0
 190 000d 00000000 		.4byte	0
 191 0011 00       		.byte	0
 192 0012 00000000 		.4byte	.LEHB1-.LFB53
 193 0016 00000000 		.4byte	.LEHE1-.LEHB1
 194 001a 00000000 		.4byte	.L6-.LFB53
 195 001e 00       		.byte	0
 196 001f 00000000 		.4byte	.LEHB2-.LFB53
 197 0023 00000000 		.4byte	.LEHE2-.LEHB2
 198 0027 00000000 		.4byte	0
 199 002b 00       		.byte	0
GAS LISTING /tmp/ccxFGJii.s 			page 5


 200 002c 00000000 		.4byte	.LEHB3-.LFB53
 201 0030 00000000 		.4byte	.LEHE3-.LEHB3
 202 0034 00000000 		.4byte	.L7-.LFB53
 203 0038 00       		.byte	0
 204 0039 00000000 		.4byte	.LEHB4-.LFB53
 205 003d 00000000 		.4byte	.LEHE4-.LEHB4
 206 0041 00000000 		.4byte	0
 207 0045 00       		.byte	0
 208 0046 00000000 		.4byte	.LEHB5-.LFB53
 209 004a 00000000 		.4byte	.LEHE5-.LEHB5
 210 004e 00000000 		.4byte	.L8-.LFB53
 211 0052 00       		.byte	0
 212 0053 00000000 		.4byte	.LEHB6-.LFB53
 213 0057 00000000 		.4byte	.LEHE6-.LEHB6
 214 005b 00000000 		.4byte	0
 215 005f 00       		.byte	0
 216 0060 00000000 		.4byte	.LEHB7-.LFB53
 217 0064 00000000 		.4byte	.LEHE7-.LEHB7
 218 0068 00000000 		.4byte	.L9-.LFB53
 219 006c 00       		.byte	0
 220 006d 00000000 		.4byte	.LEHB8-.LFB53
 221 0071 00000000 		.4byte	.LEHE8-.LEHB8
 222 0075 00000000 		.4byte	0
 223 0079 00       		.byte	0
 224 007a 00000000 		.4byte	.LEHB9-.LFB53
 225 007e 00000000 		.4byte	.LEHE9-.LEHB9
 226 0082 00000000 		.4byte	0
 227 0086 00       		.byte	0
 228 0087 00000000 		.4byte	.LEHB10-.LFB53
 229 008b 00000000 		.4byte	.LEHE10-.LEHB10
 230 008f 00000000 		.4byte	0
 231 0093 00       		.byte	0
 232 0094 00000000 		.4byte	.LEHB11-.LFB53
 233 0098 00000000 		.4byte	.LEHE11-.LEHB11
 234 009c 00000000 		.4byte	0
 235 00a0 00       		.byte	0
 236              		.text
 238              		.globl	_ZN9BufferCPPC1Ei
 239              		.set	_ZN9BufferCPPC1Ei,_ZN9BufferCPPC2Ei
 240              		.align	2
 241              		.globl	_ZN9BufferCPP3putEi
 243              	_ZN9BufferCPP3putEi:
 244              	.LFB58:
  10:test/buffer_CPP_API.cpp **** 
  11:test/buffer_CPP_API.cpp **** BufferCPP::~BufferCPP() {
  12:test/buffer_CPP_API.cpp ****     printString("\n");
  13:test/buffer_CPP_API.cpp ****     printString("Buffer deleted!\n");
  14:test/buffer_CPP_API.cpp ****     while (getCnt()) {
  15:test/buffer_CPP_API.cpp ****         char ch = buffer[head];
  16:test/buffer_CPP_API.cpp ****         printString(""+ch);
  17:test/buffer_CPP_API.cpp ****         head = (head + 1) % cap;
  18:test/buffer_CPP_API.cpp ****     }
  19:test/buffer_CPP_API.cpp ****     printString("!");
  20:test/buffer_CPP_API.cpp ****     printString("\n");
  21:test/buffer_CPP_API.cpp **** 
  22:test/buffer_CPP_API.cpp ****     mem_free(buffer);
  23:test/buffer_CPP_API.cpp ****     delete itemAvailable;
GAS LISTING /tmp/ccxFGJii.s 			page 6


  24:test/buffer_CPP_API.cpp ****     delete spaceAvailable;
  25:test/buffer_CPP_API.cpp ****     delete mutexTail;
  26:test/buffer_CPP_API.cpp ****     delete mutexHead;
  27:test/buffer_CPP_API.cpp **** 
  28:test/buffer_CPP_API.cpp **** }
  29:test/buffer_CPP_API.cpp **** 
  30:test/buffer_CPP_API.cpp **** void BufferCPP::put(int val) {
 245              		.loc 1 30 30 is_stmt 1
 246              		.cfi_startproc
 247              	.LVL25:
 248 0154 130101FE 		addi	sp,sp,-32
 249              		.cfi_def_cfa_offset 32
 250 0158 233C1100 		sd	ra,24(sp)
 251 015c 23388100 		sd	s0,16(sp)
 252 0160 23349100 		sd	s1,8(sp)
 253 0164 23302101 		sd	s2,0(sp)
 254              		.cfi_offset 1, -8
 255              		.cfi_offset 8, -16
 256              		.cfi_offset 9, -24
 257              		.cfi_offset 18, -32
 258 0168 13040102 		addi	s0,sp,32
 259              		.cfi_def_cfa 8, 0
 260 016c 93040500 		mv	s1,a0
 261 0170 13890500 		mv	s2,a1
  31:test/buffer_CPP_API.cpp ****     spaceAvailable->wait();
 262              		.loc 1 31 5
 263              		.loc 1 31 25 is_stmt 0
 264 0174 03358501 		ld	a0,24(a0)
 265              	.LVL26:
 266 0178 97000000 		call	_ZN9Semaphore4waitEv@plt
 266      E7800000 
 267              	.LVL27:
  32:test/buffer_CPP_API.cpp **** 
  33:test/buffer_CPP_API.cpp ****     mutexTail->wait();
 268              		.loc 1 33 5 is_stmt 1
 269              		.loc 1 33 20 is_stmt 0
 270 0180 03B50403 		ld	a0,48(s1)
 271 0184 97000000 		call	_ZN9Semaphore4waitEv@plt
 271      E7800000 
 272              	.LVL28:
  34:test/buffer_CPP_API.cpp ****     buffer[tail] = val;
 273              		.loc 1 34 5 is_stmt 1
 274 018c 83B78400 		ld	a5,8(s1)
 275              		.loc 1 34 12 is_stmt 0
 276 0190 03A74401 		lw	a4,20(s1)
 277              		.loc 1 34 16
 278 0194 13172700 		slli	a4,a4,2
 279 0198 B387E700 		add	a5,a5,a4
 280              		.loc 1 34 18
 281 019c 23A02701 		sw	s2,0(a5)
  35:test/buffer_CPP_API.cpp ****     tail = (tail + 1) % cap;
 282              		.loc 1 35 5 is_stmt 1
 283              		.loc 1 35 13 is_stmt 0
 284 01a0 83A74401 		lw	a5,20(s1)
 285              		.loc 1 35 18
 286 01a4 9B871700 		addiw	a5,a5,1
 287              		.loc 1 35 25
GAS LISTING /tmp/ccxFGJii.s 			page 7


 288 01a8 03A70400 		lw	a4,0(s1)
 289              		.loc 1 35 23
 290 01ac BBE7E702 		remw	a5,a5,a4
 291              		.loc 1 35 10
 292 01b0 23AAF400 		sw	a5,20(s1)
  36:test/buffer_CPP_API.cpp ****     mutexTail->signal();
 293              		.loc 1 36 5 is_stmt 1
 294              		.loc 1 36 22 is_stmt 0
 295 01b4 03B50403 		ld	a0,48(s1)
 296 01b8 97000000 		call	_ZN9Semaphore6signalEv@plt
 296      E7800000 
 297              	.LVL29:
  37:test/buffer_CPP_API.cpp **** 
  38:test/buffer_CPP_API.cpp ****     itemAvailable->signal();
 298              		.loc 1 38 5 is_stmt 1
 299              		.loc 1 38 26 is_stmt 0
 300 01c0 03B50402 		ld	a0,32(s1)
 301 01c4 97000000 		call	_ZN9Semaphore6signalEv@plt
 301      E7800000 
 302              	.LVL30:
  39:test/buffer_CPP_API.cpp **** 
  40:test/buffer_CPP_API.cpp **** }
 303              		.loc 1 40 1
 304 01cc 83308101 		ld	ra,24(sp)
 305              		.cfi_restore 1
 306 01d0 03340101 		ld	s0,16(sp)
 307              		.cfi_restore 8
 308              		.cfi_def_cfa 2, 32
 309 01d4 83348100 		ld	s1,8(sp)
 310              		.cfi_restore 9
 311              	.LVL31:
 312 01d8 03390100 		ld	s2,0(sp)
 313              		.cfi_restore 18
 314 01dc 13010102 		addi	sp,sp,32
 315              		.cfi_def_cfa_offset 0
 316 01e0 67800000 		jr	ra
 317              		.cfi_endproc
 318              	.LFE58:
 320              		.align	2
 321              		.globl	_ZN9BufferCPP3getEv
 323              	_ZN9BufferCPP3getEv:
 324              	.LFB59:
  41:test/buffer_CPP_API.cpp **** 
  42:test/buffer_CPP_API.cpp **** int BufferCPP::get() {
 325              		.loc 1 42 22 is_stmt 1
 326              		.cfi_startproc
 327              	.LVL32:
 328 01e4 130101FE 		addi	sp,sp,-32
 329              		.cfi_def_cfa_offset 32
 330 01e8 233C1100 		sd	ra,24(sp)
 331 01ec 23388100 		sd	s0,16(sp)
 332 01f0 23349100 		sd	s1,8(sp)
 333 01f4 23302101 		sd	s2,0(sp)
 334              		.cfi_offset 1, -8
 335              		.cfi_offset 8, -16
 336              		.cfi_offset 9, -24
 337              		.cfi_offset 18, -32
GAS LISTING /tmp/ccxFGJii.s 			page 8


 338 01f8 13040102 		addi	s0,sp,32
 339              		.cfi_def_cfa 8, 0
 340 01fc 93040500 		mv	s1,a0
  43:test/buffer_CPP_API.cpp ****     itemAvailable->wait();
 341              		.loc 1 43 5
 342              		.loc 1 43 24 is_stmt 0
 343 0200 03350502 		ld	a0,32(a0)
 344              	.LVL33:
 345 0204 97000000 		call	_ZN9Semaphore4waitEv@plt
 345      E7800000 
 346              	.LVL34:
  44:test/buffer_CPP_API.cpp **** 
  45:test/buffer_CPP_API.cpp ****     mutexHead->wait();
 347              		.loc 1 45 5 is_stmt 1
 348              		.loc 1 45 20 is_stmt 0
 349 020c 03B58402 		ld	a0,40(s1)
 350 0210 97000000 		call	_ZN9Semaphore4waitEv@plt
 350      E7800000 
 351              	.LVL35:
  46:test/buffer_CPP_API.cpp **** 
  47:test/buffer_CPP_API.cpp ****     int ret = buffer[head];
 352              		.loc 1 47 5 is_stmt 1
 353              		.loc 1 47 15 is_stmt 0
 354 0218 03B78400 		ld	a4,8(s1)
 355              		.loc 1 47 22
 356 021c 83A70401 		lw	a5,16(s1)
 357              		.loc 1 47 26
 358 0220 93962700 		slli	a3,a5,2
 359 0224 3307D700 		add	a4,a4,a3
 360              		.loc 1 47 9
 361 0228 03290700 		lw	s2,0(a4)
 362              	.LVL36:
  48:test/buffer_CPP_API.cpp ****     head = (head + 1) % cap;
 363              		.loc 1 48 5 is_stmt 1
 364              		.loc 1 48 18 is_stmt 0
 365 022c 9B871700 		addiw	a5,a5,1
 366              		.loc 1 48 25
 367 0230 03A70400 		lw	a4,0(s1)
 368              		.loc 1 48 23
 369 0234 BBE7E702 		remw	a5,a5,a4
 370              		.loc 1 48 10
 371 0238 23A8F400 		sw	a5,16(s1)
  49:test/buffer_CPP_API.cpp ****     mutexHead->signal();
 372              		.loc 1 49 5 is_stmt 1
 373              		.loc 1 49 22 is_stmt 0
 374 023c 03B58402 		ld	a0,40(s1)
 375 0240 97000000 		call	_ZN9Semaphore6signalEv@plt
 375      E7800000 
 376              	.LVL37:
  50:test/buffer_CPP_API.cpp **** 
  51:test/buffer_CPP_API.cpp ****     spaceAvailable->signal();
 377              		.loc 1 51 5 is_stmt 1
 378              		.loc 1 51 27 is_stmt 0
 379 0248 03B58401 		ld	a0,24(s1)
 380 024c 97000000 		call	_ZN9Semaphore6signalEv@plt
 380      E7800000 
 381              	.LVL38:
GAS LISTING /tmp/ccxFGJii.s 			page 9


  52:test/buffer_CPP_API.cpp **** 
  53:test/buffer_CPP_API.cpp ****     return ret;
 382              		.loc 1 53 5 is_stmt 1
  54:test/buffer_CPP_API.cpp **** }
 383              		.loc 1 54 1 is_stmt 0
 384 0254 13050900 		mv	a0,s2
 385 0258 83308101 		ld	ra,24(sp)
 386              		.cfi_restore 1
 387 025c 03340101 		ld	s0,16(sp)
 388              		.cfi_restore 8
 389              		.cfi_def_cfa 2, 32
 390 0260 83348100 		ld	s1,8(sp)
 391              		.cfi_restore 9
 392              	.LVL39:
 393 0264 03390100 		ld	s2,0(sp)
 394              		.cfi_restore 18
 395              	.LVL40:
 396 0268 13010102 		addi	sp,sp,32
 397              		.cfi_def_cfa_offset 0
 398 026c 67800000 		jr	ra
 399              		.cfi_endproc
 400              	.LFE59:
 402              		.align	2
 403              		.globl	_ZN9BufferCPP6getCntEv
 405              	_ZN9BufferCPP6getCntEv:
 406              	.LFB60:
  55:test/buffer_CPP_API.cpp **** 
  56:test/buffer_CPP_API.cpp **** int BufferCPP::getCnt() {
 407              		.loc 1 56 25 is_stmt 1
 408              		.cfi_startproc
 409              	.LVL41:
 410 0270 130101FE 		addi	sp,sp,-32
 411              		.cfi_def_cfa_offset 32
 412 0274 233C1100 		sd	ra,24(sp)
 413 0278 23388100 		sd	s0,16(sp)
 414 027c 23349100 		sd	s1,8(sp)
 415 0280 23302101 		sd	s2,0(sp)
 416              		.cfi_offset 1, -8
 417              		.cfi_offset 8, -16
 418              		.cfi_offset 9, -24
 419              		.cfi_offset 18, -32
 420 0284 13040102 		addi	s0,sp,32
 421              		.cfi_def_cfa 8, 0
 422 0288 93040500 		mv	s1,a0
  57:test/buffer_CPP_API.cpp ****     int ret;
 423              		.loc 1 57 5
  58:test/buffer_CPP_API.cpp **** 
  59:test/buffer_CPP_API.cpp ****     mutexHead->wait();
 424              		.loc 1 59 5
 425              		.loc 1 59 20 is_stmt 0
 426 028c 03358502 		ld	a0,40(a0)
 427              	.LVL42:
 428 0290 97000000 		call	_ZN9Semaphore4waitEv@plt
 428      E7800000 
 429              	.LVL43:
  60:test/buffer_CPP_API.cpp ****     mutexTail->wait();
 430              		.loc 1 60 5 is_stmt 1
GAS LISTING /tmp/ccxFGJii.s 			page 10


 431              		.loc 1 60 20 is_stmt 0
 432 0298 03B50403 		ld	a0,48(s1)
 433 029c 97000000 		call	_ZN9Semaphore4waitEv@plt
 433      E7800000 
 434              	.LVL44:
  61:test/buffer_CPP_API.cpp **** 
  62:test/buffer_CPP_API.cpp ****     if (tail >= head) {
 435              		.loc 1 62 5 is_stmt 1
 436              		.loc 1 62 9 is_stmt 0
 437 02a4 83A74401 		lw	a5,20(s1)
 438              		.loc 1 62 17
 439 02a8 03A90401 		lw	s2,16(s1)
 440              		.loc 1 62 5
 441 02ac 63CE2703 		blt	a5,s2,.L17
  63:test/buffer_CPP_API.cpp ****         ret = tail - head;
 442              		.loc 1 63 9 is_stmt 1
 443              		.loc 1 63 13 is_stmt 0
 444 02b0 3B892741 		subw	s2,a5,s2
 445              	.LVL45:
 446              	.L18:
  64:test/buffer_CPP_API.cpp ****     } else {
  65:test/buffer_CPP_API.cpp ****         ret = cap - head + tail;
  66:test/buffer_CPP_API.cpp ****     }
  67:test/buffer_CPP_API.cpp **** 
  68:test/buffer_CPP_API.cpp ****     mutexTail->signal();
 447              		.loc 1 68 5 is_stmt 1
 448              		.loc 1 68 22 is_stmt 0
 449 02b4 03B50403 		ld	a0,48(s1)
 450 02b8 97000000 		call	_ZN9Semaphore6signalEv@plt
 450      E7800000 
 451              	.LVL46:
  69:test/buffer_CPP_API.cpp ****     mutexHead->signal();
 452              		.loc 1 69 5 is_stmt 1
 453              		.loc 1 69 22 is_stmt 0
 454 02c0 03B58402 		ld	a0,40(s1)
 455 02c4 97000000 		call	_ZN9Semaphore6signalEv@plt
 455      E7800000 
 456              	.LVL47:
  70:test/buffer_CPP_API.cpp **** 
  71:test/buffer_CPP_API.cpp ****     return ret;
 457              		.loc 1 71 5 is_stmt 1
  72:test/buffer_CPP_API.cpp **** }
 458              		.loc 1 72 1 is_stmt 0
 459 02cc 13050900 		mv	a0,s2
 460 02d0 83308101 		ld	ra,24(sp)
 461              		.cfi_remember_state
 462              		.cfi_restore 1
 463 02d4 03340101 		ld	s0,16(sp)
 464              		.cfi_restore 8
 465              		.cfi_def_cfa 2, 32
 466 02d8 83348100 		ld	s1,8(sp)
 467              		.cfi_restore 9
 468              	.LVL48:
 469 02dc 03390100 		ld	s2,0(sp)
 470              		.cfi_restore 18
 471              	.LVL49:
 472 02e0 13010102 		addi	sp,sp,32
GAS LISTING /tmp/ccxFGJii.s 			page 11


 473              		.cfi_def_cfa_offset 0
 474 02e4 67800000 		jr	ra
 475              	.LVL50:
 476              	.L17:
 477              		.cfi_restore_state
  65:test/buffer_CPP_API.cpp ****     }
 478              		.loc 1 65 9 is_stmt 1
  65:test/buffer_CPP_API.cpp ****     }
 479              		.loc 1 65 15 is_stmt 0
 480 02e8 03A70400 		lw	a4,0(s1)
  65:test/buffer_CPP_API.cpp ****     }
 481              		.loc 1 65 19
 482 02ec 3B092741 		subw	s2,a4,s2
  65:test/buffer_CPP_API.cpp ****     }
 483              		.loc 1 65 13
 484 02f0 3B09F900 		addw	s2,s2,a5
 485 02f4 6FF01FFC 		j	.L18
 486              		.cfi_endproc
 487              	.LFE60:
 489              		.section	.rodata.str1.8,"aMS",@progbits,1
 490              		.align	3
 491              	.LC0:
 492 0000 0A00     		.string	"\n"
 493 0002 00000000 		.align	3
 493      0000
 494              	.LC1:
 495 0008 42756666 		.string	"Buffer deleted!\n"
 495      65722064 
 495      656C6574 
 495      6564210A 
 495      00
 496 0019 00000000 		.align	3
 496      000000
 497              	.LC2:
 498 0020 00       		.string	""
 499 0021 00000000 		.align	3
 499      000000
 500              	.LC3:
 501 0028 2100     		.string	"!"
 502              		.text
 503              		.align	2
 504              		.globl	_ZN9BufferCPPD2Ev
 506              	_ZN9BufferCPPD2Ev:
 507              	.LFB56:
  11:test/buffer_CPP_API.cpp ****     printString("\n");
 508              		.loc 1 11 1 is_stmt 1
 509              		.cfi_startproc
 510              		.cfi_personality 0x9b,DW.ref.__gxx_personality_v0
 511              		.cfi_lsda 0x1b,.LLSDA56
 512              	.LVL51:
 513 02f8 130101FE 		addi	sp,sp,-32
 514              		.cfi_def_cfa_offset 32
 515 02fc 233C1100 		sd	ra,24(sp)
 516 0300 23388100 		sd	s0,16(sp)
 517 0304 23349100 		sd	s1,8(sp)
 518              		.cfi_offset 1, -8
 519              		.cfi_offset 8, -16
GAS LISTING /tmp/ccxFGJii.s 			page 12


 520              		.cfi_offset 9, -24
 521 0308 13040102 		addi	s0,sp,32
 522              		.cfi_def_cfa 8, 0
 523 030c 93040500 		mv	s1,a0
 524              	.LBB4:
  12:test/buffer_CPP_API.cpp ****     printString("Buffer deleted!\n");
 525              		.loc 1 12 5
  12:test/buffer_CPP_API.cpp ****     printString("Buffer deleted!\n");
 526              		.loc 1 12 16 is_stmt 0
 527 0310 17050000 		lla	a0,.LC0
 527      13050500 
 528              	.LVL52:
 529 0318 97000000 		call	_Z11printStringPKc@plt
 529      E7800000 
 530              	.LVL53:
  13:test/buffer_CPP_API.cpp ****     while (getCnt()) {
 531              		.loc 1 13 5 is_stmt 1
  13:test/buffer_CPP_API.cpp ****     while (getCnt()) {
 532              		.loc 1 13 16 is_stmt 0
 533 0320 17050000 		lla	a0,.LC1
 533      13050500 
 534 0328 97000000 		call	_Z11printStringPKc@plt
 534      E7800000 
 535              	.LVL54:
 536              	.L22:
  14:test/buffer_CPP_API.cpp ****         char ch = buffer[head];
 537              		.loc 1 14 5 is_stmt 1
  14:test/buffer_CPP_API.cpp ****         char ch = buffer[head];
 538              		.loc 1 14 19
  14:test/buffer_CPP_API.cpp ****         char ch = buffer[head];
 539              		.loc 1 14 18 is_stmt 0
 540 0330 13850400 		mv	a0,s1
 541 0334 97000000 		call	_ZN9BufferCPP6getCntEv
 541      E7800000 
 542              	.LVL55:
  14:test/buffer_CPP_API.cpp ****         char ch = buffer[head];
 543              		.loc 1 14 19
 544 033c 63020504 		beqz	a0,.L21
 545              	.LBB5:
  15:test/buffer_CPP_API.cpp ****         printString(""+ch);
 546              		.loc 1 15 9 is_stmt 1
  15:test/buffer_CPP_API.cpp ****         printString(""+ch);
 547              		.loc 1 15 19 is_stmt 0
 548 0340 83B78400 		ld	a5,8(s1)
  15:test/buffer_CPP_API.cpp ****         printString(""+ch);
 549              		.loc 1 15 26
 550 0344 03A70401 		lw	a4,16(s1)
  15:test/buffer_CPP_API.cpp ****         printString(""+ch);
 551              		.loc 1 15 30
 552 0348 13172700 		slli	a4,a4,2
 553 034c B387E700 		add	a5,a5,a4
  15:test/buffer_CPP_API.cpp ****         printString(""+ch);
 554              		.loc 1 15 14
 555 0350 83C70700 		lbu	a5,0(a5)
 556              	.LVL56:
  16:test/buffer_CPP_API.cpp ****         head = (head + 1) % cap;
 557              		.loc 1 16 9 is_stmt 1
GAS LISTING /tmp/ccxFGJii.s 			page 13


  16:test/buffer_CPP_API.cpp ****         head = (head + 1) % cap;
 558              		.loc 1 16 20 is_stmt 0
 559 0354 17050000 		lla	a0,.LC2
 559      13050500 
 560 035c 3305F500 		add	a0,a0,a5
 561 0360 97000000 		call	_Z11printStringPKc@plt
 561      E7800000 
 562              	.LVL57:
  17:test/buffer_CPP_API.cpp ****     }
 563              		.loc 1 17 9 is_stmt 1
  17:test/buffer_CPP_API.cpp ****     }
 564              		.loc 1 17 17 is_stmt 0
 565 0368 83A70401 		lw	a5,16(s1)
  17:test/buffer_CPP_API.cpp ****     }
 566              		.loc 1 17 22
 567 036c 9B871700 		addiw	a5,a5,1
  17:test/buffer_CPP_API.cpp ****     }
 568              		.loc 1 17 29
 569 0370 03A70400 		lw	a4,0(s1)
  17:test/buffer_CPP_API.cpp ****     }
 570              		.loc 1 17 27
 571 0374 BBE7E702 		remw	a5,a5,a4
  17:test/buffer_CPP_API.cpp ****     }
 572              		.loc 1 17 14
 573 0378 23A8F400 		sw	a5,16(s1)
 574              	.LBE5:
  14:test/buffer_CPP_API.cpp ****         char ch = buffer[head];
 575              		.loc 1 14 5
 576 037c 6FF05FFB 		j	.L22
 577              	.L21:
  19:test/buffer_CPP_API.cpp ****     printString("\n");
 578              		.loc 1 19 5 is_stmt 1
  19:test/buffer_CPP_API.cpp ****     printString("\n");
 579              		.loc 1 19 16 is_stmt 0
 580 0380 17050000 		lla	a0,.LC3
 580      13050500 
 581 0388 97000000 		call	_Z11printStringPKc@plt
 581      E7800000 
 582              	.LVL58:
  20:test/buffer_CPP_API.cpp **** 
 583              		.loc 1 20 5 is_stmt 1
  20:test/buffer_CPP_API.cpp **** 
 584              		.loc 1 20 16 is_stmt 0
 585 0390 17050000 		lla	a0,.LC0
 585      13050500 
 586 0398 97000000 		call	_Z11printStringPKc@plt
 586      E7800000 
 587              	.LVL59:
  22:test/buffer_CPP_API.cpp ****     delete itemAvailable;
 588              		.loc 1 22 5 is_stmt 1
  22:test/buffer_CPP_API.cpp ****     delete itemAvailable;
 589              		.loc 1 22 13 is_stmt 0
 590 03a0 03B58400 		ld	a0,8(s1)
 591 03a4 97000000 		call	_Z8mem_freePv@plt
 591      E7800000 
 592              	.LVL60:
  23:test/buffer_CPP_API.cpp ****     delete spaceAvailable;
GAS LISTING /tmp/ccxFGJii.s 			page 14


 593              		.loc 1 23 5 is_stmt 1
  23:test/buffer_CPP_API.cpp ****     delete spaceAvailable;
 594              		.loc 1 23 12 is_stmt 0
 595 03ac 03B50402 		ld	a0,32(s1)
  23:test/buffer_CPP_API.cpp ****     delete spaceAvailable;
 596              		.loc 1 23 25
 597 03b0 63080500 		beqz	a0,.L23
  23:test/buffer_CPP_API.cpp ****     delete spaceAvailable;
 598              		.loc 1 23 12 discriminator 1
 599 03b4 83370500 		ld	a5,0(a0)
 600 03b8 83B78700 		ld	a5,8(a5)
 601 03bc E7800700 		jalr	a5
 602              	.LVL61:
 603              	.L23:
  24:test/buffer_CPP_API.cpp ****     delete mutexTail;
 604              		.loc 1 24 5 is_stmt 1
  24:test/buffer_CPP_API.cpp ****     delete mutexTail;
 605              		.loc 1 24 12 is_stmt 0
 606 03c0 03B58401 		ld	a0,24(s1)
  24:test/buffer_CPP_API.cpp ****     delete mutexTail;
 607              		.loc 1 24 26
 608 03c4 63080500 		beqz	a0,.L24
  24:test/buffer_CPP_API.cpp ****     delete mutexTail;
 609              		.loc 1 24 12 discriminator 1
 610 03c8 83370500 		ld	a5,0(a0)
 611 03cc 83B78700 		ld	a5,8(a5)
 612 03d0 E7800700 		jalr	a5
 613              	.LVL62:
 614              	.L24:
  25:test/buffer_CPP_API.cpp ****     delete mutexHead;
 615              		.loc 1 25 5 is_stmt 1
  25:test/buffer_CPP_API.cpp ****     delete mutexHead;
 616              		.loc 1 25 12 is_stmt 0
 617 03d4 03B50403 		ld	a0,48(s1)
  25:test/buffer_CPP_API.cpp ****     delete mutexHead;
 618              		.loc 1 25 21
 619 03d8 63080500 		beqz	a0,.L25
  25:test/buffer_CPP_API.cpp ****     delete mutexHead;
 620              		.loc 1 25 12 discriminator 1
 621 03dc 83370500 		ld	a5,0(a0)
 622 03e0 83B78700 		ld	a5,8(a5)
 623 03e4 E7800700 		jalr	a5
 624              	.LVL63:
 625              	.L25:
  26:test/buffer_CPP_API.cpp **** 
 626              		.loc 1 26 5 is_stmt 1
  26:test/buffer_CPP_API.cpp **** 
 627              		.loc 1 26 12 is_stmt 0
 628 03e8 03B58402 		ld	a0,40(s1)
  26:test/buffer_CPP_API.cpp **** 
 629              		.loc 1 26 21
 630 03ec 63080500 		beqz	a0,.L20
  26:test/buffer_CPP_API.cpp **** 
 631              		.loc 1 26 12 discriminator 1
 632 03f0 83370500 		ld	a5,0(a0)
 633 03f4 83B78700 		ld	a5,8(a5)
 634 03f8 E7800700 		jalr	a5
GAS LISTING /tmp/ccxFGJii.s 			page 15


 635              	.LVL64:
 636              	.L20:
 637              	.LBE4:
  28:test/buffer_CPP_API.cpp **** 
 638              		.loc 1 28 1
 639 03fc 83308101 		ld	ra,24(sp)
 640              		.cfi_restore 1
 641 0400 03340101 		ld	s0,16(sp)
 642              		.cfi_restore 8
 643              		.cfi_def_cfa 2, 32
 644 0404 83348100 		ld	s1,8(sp)
 645              		.cfi_restore 9
 646              	.LVL65:
 647 0408 13010102 		addi	sp,sp,32
 648              		.cfi_def_cfa_offset 0
 649 040c 67800000 		jr	ra
 650              		.cfi_endproc
 651              	.LFE56:
 652              		.section	.gcc_except_table
 653              	.LLSDA56:
 654 00a1 FF       		.byte	0xff
 655 00a2 FF       		.byte	0xff
 656 00a3 03       		.byte	0x3
 657 00a4 00       		.byte	0
 658              		.text
 660              		.globl	_ZN9BufferCPPD1Ev
 661              		.set	_ZN9BufferCPPD1Ev,_ZN9BufferCPPD2Ev
 662              	.Letext0:
 663              		.file 2 "test/../h/../h/../lib/hw.h"
 664              		.file 3 "test/buffer_CPP_API.hpp"
 665              		.file 4 "test/../h/syscall_cpp.hpp"
 666              		.file 5 "test/printing.hpp"
 667              		.file 6 "test/../h/syscall_c.hpp"
 2410              		.align	3
 2413              	DW.ref.__gxx_personality_v0:
 2414 0000 00000000 		.dword	__gxx_personality_v0
 2414      00000000 
 2415              		.ident	"GCC: (Ubuntu 9.4.0-1ubuntu1~20.04) 9.4.0"
 2416              		.section	.note.GNU-stack,"",@progbits
GAS LISTING /tmp/ccxFGJii.s 			page 16


DEFINED SYMBOLS
                            *ABS*:0000000000000000 buffer_CPP_API.cpp
     /tmp/ccxFGJii.s:9      .text:0000000000000000 _ZN9BufferCPPC2Ei
     /tmp/ccxFGJii.s:13     .text:0000000000000000 .L0 
     /tmp/ccxFGJii.s:2413   .data.rel.local.DW.ref.__gxx_personality_v0:0000000000000000 DW.ref.__gxx_personality_v0
     /tmp/ccxFGJii.s:17     .text:0000000000000000 .L0 
     /tmp/ccxFGJii.s:18     .text:0000000000000004 .L0 
     /tmp/ccxFGJii.s:24     .text:0000000000000018 .L0 
     /tmp/ccxFGJii.s:25     .text:0000000000000018 .L0 
     /tmp/ccxFGJii.s:26     .text:0000000000000018 .L0 
     /tmp/ccxFGJii.s:27     .text:0000000000000018 .L0 
     /tmp/ccxFGJii.s:28     .text:0000000000000018 .L0 
     /tmp/ccxFGJii.s:30     .text:000000000000001c .L0 
     /tmp/ccxFGJii.s:35     .text:0000000000000024 .L0 
     /tmp/ccxFGJii.s:39     .text:000000000000002c .L0 
     /tmp/ccxFGJii.s:43     .text:0000000000000038 .L0 
     /tmp/ccxFGJii.s:44     .text:0000000000000038 .L0 
     /tmp/ccxFGJii.s:49     .text:0000000000000044 .L0 
     /tmp/ccxFGJii.s:51     .text:0000000000000048 .L0 
     /tmp/ccxFGJii.s:52     .text:0000000000000048 .L0 
     /tmp/ccxFGJii.s:63     .text:0000000000000064 .L0 
     /tmp/ccxFGJii.s:65     .text:0000000000000068 .L0 
     /tmp/ccxFGJii.s:66     .text:0000000000000068 .L0 
     /tmp/ccxFGJii.s:78     .text:0000000000000084 .L0 
     /tmp/ccxFGJii.s:80     .text:0000000000000088 .L0 
     /tmp/ccxFGJii.s:81     .text:0000000000000088 .L0 
     /tmp/ccxFGJii.s:93     .text:00000000000000a4 .L0 
     /tmp/ccxFGJii.s:95     .text:00000000000000a8 .L0 
     /tmp/ccxFGJii.s:96     .text:00000000000000a8 .L0 
     /tmp/ccxFGJii.s:108    .text:00000000000000c4 .L0 
     /tmp/ccxFGJii.s:111    .text:00000000000000c8 .L0 
     /tmp/ccxFGJii.s:112    .text:00000000000000cc .L0 
     /tmp/ccxFGJii.s:113    .text:00000000000000cc .L0 
     /tmp/ccxFGJii.s:115    .text:00000000000000d0 .L0 
     /tmp/ccxFGJii.s:116    .text:00000000000000d0 .L0 
     /tmp/ccxFGJii.s:118    .text:00000000000000d4 .L0 
     /tmp/ccxFGJii.s:121    .text:00000000000000d8 .L0 
     /tmp/ccxFGJii.s:123    .text:00000000000000dc .L0 
     /tmp/ccxFGJii.s:125    .text:00000000000000e0 .L0 
     /tmp/ccxFGJii.s:129    .text:00000000000000e4 .L0 
     /tmp/ccxFGJii.s:134    .text:00000000000000e8 .L0 
     /tmp/ccxFGJii.s:146    .text:0000000000000104 .L0 
     /tmp/ccxFGJii.s:158    .text:0000000000000120 .L0 
     /tmp/ccxFGJii.s:170    .text:000000000000013c .L0 
     /tmp/ccxFGJii.s:179    .text:0000000000000154 .L0 
     /tmp/ccxFGJii.s:9      .text:0000000000000000 _ZN9BufferCPPC1Ei
     /tmp/ccxFGJii.s:243    .text:0000000000000154 _ZN9BufferCPP3putEi
     /tmp/ccxFGJii.s:246    .text:0000000000000154 .L0 
     /tmp/ccxFGJii.s:248    .text:0000000000000154 .L0 
     /tmp/ccxFGJii.s:249    .text:0000000000000158 .L0 
     /tmp/ccxFGJii.s:254    .text:0000000000000168 .L0 
     /tmp/ccxFGJii.s:255    .text:0000000000000168 .L0 
     /tmp/ccxFGJii.s:256    .text:0000000000000168 .L0 
     /tmp/ccxFGJii.s:257    .text:0000000000000168 .L0 
     /tmp/ccxFGJii.s:259    .text:000000000000016c .L0 
     /tmp/ccxFGJii.s:263    .text:0000000000000174 .L0 
     /tmp/ccxFGJii.s:264    .text:0000000000000174 .L0 
GAS LISTING /tmp/ccxFGJii.s 			page 17


     /tmp/ccxFGJii.s:269    .text:0000000000000180 .L0 
     /tmp/ccxFGJii.s:270    .text:0000000000000180 .L0 
     /tmp/ccxFGJii.s:274    .text:000000000000018c .L0 
     /tmp/ccxFGJii.s:276    .text:0000000000000190 .L0 
     /tmp/ccxFGJii.s:278    .text:0000000000000194 .L0 
     /tmp/ccxFGJii.s:281    .text:000000000000019c .L0 
     /tmp/ccxFGJii.s:283    .text:00000000000001a0 .L0 
     /tmp/ccxFGJii.s:284    .text:00000000000001a0 .L0 
     /tmp/ccxFGJii.s:286    .text:00000000000001a4 .L0 
     /tmp/ccxFGJii.s:288    .text:00000000000001a8 .L0 
     /tmp/ccxFGJii.s:290    .text:00000000000001ac .L0 
     /tmp/ccxFGJii.s:292    .text:00000000000001b0 .L0 
     /tmp/ccxFGJii.s:294    .text:00000000000001b4 .L0 
     /tmp/ccxFGJii.s:295    .text:00000000000001b4 .L0 
     /tmp/ccxFGJii.s:299    .text:00000000000001c0 .L0 
     /tmp/ccxFGJii.s:300    .text:00000000000001c0 .L0 
     /tmp/ccxFGJii.s:304    .text:00000000000001cc .L0 
     /tmp/ccxFGJii.s:305    .text:00000000000001d0 .L0 
     /tmp/ccxFGJii.s:307    .text:00000000000001d4 .L0 
     /tmp/ccxFGJii.s:308    .text:00000000000001d4 .L0 
     /tmp/ccxFGJii.s:310    .text:00000000000001d8 .L0 
     /tmp/ccxFGJii.s:313    .text:00000000000001dc .L0 
     /tmp/ccxFGJii.s:315    .text:00000000000001e0 .L0 
     /tmp/ccxFGJii.s:317    .text:00000000000001e4 .L0 
     /tmp/ccxFGJii.s:323    .text:00000000000001e4 _ZN9BufferCPP3getEv
     /tmp/ccxFGJii.s:326    .text:00000000000001e4 .L0 
     /tmp/ccxFGJii.s:328    .text:00000000000001e4 .L0 
     /tmp/ccxFGJii.s:329    .text:00000000000001e8 .L0 
     /tmp/ccxFGJii.s:334    .text:00000000000001f8 .L0 
     /tmp/ccxFGJii.s:335    .text:00000000000001f8 .L0 
     /tmp/ccxFGJii.s:336    .text:00000000000001f8 .L0 
     /tmp/ccxFGJii.s:337    .text:00000000000001f8 .L0 
     /tmp/ccxFGJii.s:339    .text:00000000000001fc .L0 
     /tmp/ccxFGJii.s:342    .text:0000000000000200 .L0 
     /tmp/ccxFGJii.s:343    .text:0000000000000200 .L0 
     /tmp/ccxFGJii.s:348    .text:000000000000020c .L0 
     /tmp/ccxFGJii.s:349    .text:000000000000020c .L0 
     /tmp/ccxFGJii.s:353    .text:0000000000000218 .L0 
     /tmp/ccxFGJii.s:354    .text:0000000000000218 .L0 
     /tmp/ccxFGJii.s:356    .text:000000000000021c .L0 
     /tmp/ccxFGJii.s:358    .text:0000000000000220 .L0 
     /tmp/ccxFGJii.s:361    .text:0000000000000228 .L0 
     /tmp/ccxFGJii.s:364    .text:000000000000022c .L0 
     /tmp/ccxFGJii.s:365    .text:000000000000022c .L0 
     /tmp/ccxFGJii.s:367    .text:0000000000000230 .L0 
     /tmp/ccxFGJii.s:369    .text:0000000000000234 .L0 
     /tmp/ccxFGJii.s:371    .text:0000000000000238 .L0 
     /tmp/ccxFGJii.s:373    .text:000000000000023c .L0 
     /tmp/ccxFGJii.s:374    .text:000000000000023c .L0 
     /tmp/ccxFGJii.s:378    .text:0000000000000248 .L0 
     /tmp/ccxFGJii.s:379    .text:0000000000000248 .L0 
     /tmp/ccxFGJii.s:383    .text:0000000000000254 .L0 
     /tmp/ccxFGJii.s:384    .text:0000000000000254 .L0 
     /tmp/ccxFGJii.s:386    .text:000000000000025c .L0 
     /tmp/ccxFGJii.s:388    .text:0000000000000260 .L0 
     /tmp/ccxFGJii.s:389    .text:0000000000000260 .L0 
     /tmp/ccxFGJii.s:391    .text:0000000000000264 .L0 
GAS LISTING /tmp/ccxFGJii.s 			page 18


     /tmp/ccxFGJii.s:394    .text:0000000000000268 .L0 
     /tmp/ccxFGJii.s:397    .text:000000000000026c .L0 
     /tmp/ccxFGJii.s:399    .text:0000000000000270 .L0 
     /tmp/ccxFGJii.s:405    .text:0000000000000270 _ZN9BufferCPP6getCntEv
     /tmp/ccxFGJii.s:408    .text:0000000000000270 .L0 
     /tmp/ccxFGJii.s:410    .text:0000000000000270 .L0 
     /tmp/ccxFGJii.s:411    .text:0000000000000274 .L0 
     /tmp/ccxFGJii.s:416    .text:0000000000000284 .L0 
     /tmp/ccxFGJii.s:417    .text:0000000000000284 .L0 
     /tmp/ccxFGJii.s:418    .text:0000000000000284 .L0 
     /tmp/ccxFGJii.s:419    .text:0000000000000284 .L0 
     /tmp/ccxFGJii.s:421    .text:0000000000000288 .L0 
     /tmp/ccxFGJii.s:424    .text:000000000000028c .L0 
     /tmp/ccxFGJii.s:425    .text:000000000000028c .L0 
     /tmp/ccxFGJii.s:426    .text:000000000000028c .L0 
     /tmp/ccxFGJii.s:431    .text:0000000000000298 .L0 
     /tmp/ccxFGJii.s:432    .text:0000000000000298 .L0 
     /tmp/ccxFGJii.s:436    .text:00000000000002a4 .L0 
     /tmp/ccxFGJii.s:437    .text:00000000000002a4 .L0 
     /tmp/ccxFGJii.s:439    .text:00000000000002a8 .L0 
     /tmp/ccxFGJii.s:441    .text:00000000000002ac .L0 
     /tmp/ccxFGJii.s:443    .text:00000000000002b0 .L0 
     /tmp/ccxFGJii.s:444    .text:00000000000002b0 .L0 
     /tmp/ccxFGJii.s:448    .text:00000000000002b4 .L0 
     /tmp/ccxFGJii.s:449    .text:00000000000002b4 .L0 
     /tmp/ccxFGJii.s:453    .text:00000000000002c0 .L0 
     /tmp/ccxFGJii.s:454    .text:00000000000002c0 .L0 
     /tmp/ccxFGJii.s:458    .text:00000000000002cc .L0 
     /tmp/ccxFGJii.s:459    .text:00000000000002cc .L0 
     /tmp/ccxFGJii.s:461    .text:00000000000002d4 .L0 
     /tmp/ccxFGJii.s:462    .text:00000000000002d4 .L0 
     /tmp/ccxFGJii.s:464    .text:00000000000002d8 .L0 
     /tmp/ccxFGJii.s:465    .text:00000000000002d8 .L0 
     /tmp/ccxFGJii.s:467    .text:00000000000002dc .L0 
     /tmp/ccxFGJii.s:470    .text:00000000000002e0 .L0 
     /tmp/ccxFGJii.s:473    .text:00000000000002e4 .L0 
     /tmp/ccxFGJii.s:477    .text:00000000000002e8 .L0 
     /tmp/ccxFGJii.s:479    .text:00000000000002e8 .L0 
     /tmp/ccxFGJii.s:480    .text:00000000000002e8 .L0 
     /tmp/ccxFGJii.s:482    .text:00000000000002ec .L0 
     /tmp/ccxFGJii.s:484    .text:00000000000002f0 .L0 
     /tmp/ccxFGJii.s:486    .text:00000000000002f8 .L0 
     /tmp/ccxFGJii.s:506    .text:00000000000002f8 _ZN9BufferCPPD2Ev
     /tmp/ccxFGJii.s:509    .text:00000000000002f8 .L0 
     /tmp/ccxFGJii.s:513    .text:00000000000002f8 .L0 
     /tmp/ccxFGJii.s:514    .text:00000000000002fc .L0 
     /tmp/ccxFGJii.s:518    .text:0000000000000308 .L0 
     /tmp/ccxFGJii.s:519    .text:0000000000000308 .L0 
     /tmp/ccxFGJii.s:520    .text:0000000000000308 .L0 
     /tmp/ccxFGJii.s:522    .text:000000000000030c .L0 
     /tmp/ccxFGJii.s:526    .text:0000000000000310 .L0 
     /tmp/ccxFGJii.s:527    .text:0000000000000310 .L0 
     /tmp/ccxFGJii.s:532    .text:0000000000000320 .L0 
     /tmp/ccxFGJii.s:533    .text:0000000000000320 .L0 
     /tmp/ccxFGJii.s:538    .text:0000000000000330 .L0 
     /tmp/ccxFGJii.s:539    .text:0000000000000330 .L0 
     /tmp/ccxFGJii.s:540    .text:0000000000000330 .L0 
GAS LISTING /tmp/ccxFGJii.s 			page 19


     /tmp/ccxFGJii.s:544    .text:000000000000033c .L0 
     /tmp/ccxFGJii.s:547    .text:0000000000000340 .L0 
     /tmp/ccxFGJii.s:548    .text:0000000000000340 .L0 
     /tmp/ccxFGJii.s:550    .text:0000000000000344 .L0 
     /tmp/ccxFGJii.s:552    .text:0000000000000348 .L0 
     /tmp/ccxFGJii.s:555    .text:0000000000000350 .L0 
     /tmp/ccxFGJii.s:558    .text:0000000000000354 .L0 
     /tmp/ccxFGJii.s:559    .text:0000000000000354 .L0 
     /tmp/ccxFGJii.s:564    .text:0000000000000368 .L0 
     /tmp/ccxFGJii.s:565    .text:0000000000000368 .L0 
     /tmp/ccxFGJii.s:567    .text:000000000000036c .L0 
     /tmp/ccxFGJii.s:569    .text:0000000000000370 .L0 
     /tmp/ccxFGJii.s:571    .text:0000000000000374 .L0 
     /tmp/ccxFGJii.s:573    .text:0000000000000378 .L0 
     /tmp/ccxFGJii.s:576    .text:000000000000037c .L0 
     /tmp/ccxFGJii.s:579    .text:0000000000000380 .L0 
     /tmp/ccxFGJii.s:580    .text:0000000000000380 .L0 
     /tmp/ccxFGJii.s:584    .text:0000000000000390 .L0 
     /tmp/ccxFGJii.s:585    .text:0000000000000390 .L0 
     /tmp/ccxFGJii.s:589    .text:00000000000003a0 .L0 
     /tmp/ccxFGJii.s:590    .text:00000000000003a0 .L0 
     /tmp/ccxFGJii.s:594    .text:00000000000003ac .L0 
     /tmp/ccxFGJii.s:595    .text:00000000000003ac .L0 
     /tmp/ccxFGJii.s:597    .text:00000000000003b0 .L0 
     /tmp/ccxFGJii.s:599    .text:00000000000003b4 .L0 
     /tmp/ccxFGJii.s:605    .text:00000000000003c0 .L0 
     /tmp/ccxFGJii.s:606    .text:00000000000003c0 .L0 
     /tmp/ccxFGJii.s:608    .text:00000000000003c4 .L0 
     /tmp/ccxFGJii.s:610    .text:00000000000003c8 .L0 
     /tmp/ccxFGJii.s:616    .text:00000000000003d4 .L0 
     /tmp/ccxFGJii.s:617    .text:00000000000003d4 .L0 
     /tmp/ccxFGJii.s:619    .text:00000000000003d8 .L0 
     /tmp/ccxFGJii.s:621    .text:00000000000003dc .L0 
     /tmp/ccxFGJii.s:627    .text:00000000000003e8 .L0 
     /tmp/ccxFGJii.s:628    .text:00000000000003e8 .L0 
     /tmp/ccxFGJii.s:630    .text:00000000000003ec .L0 
     /tmp/ccxFGJii.s:632    .text:00000000000003f0 .L0 
     /tmp/ccxFGJii.s:639    .text:00000000000003fc .L0 
     /tmp/ccxFGJii.s:640    .text:0000000000000400 .L0 
     /tmp/ccxFGJii.s:642    .text:0000000000000404 .L0 
     /tmp/ccxFGJii.s:643    .text:0000000000000404 .L0 
     /tmp/ccxFGJii.s:645    .text:0000000000000408 .L0 
     /tmp/ccxFGJii.s:648    .text:000000000000040c .L0 
     /tmp/ccxFGJii.s:650    .text:0000000000000410 .L0 
     /tmp/ccxFGJii.s:506    .text:00000000000002f8 _ZN9BufferCPPD1Ev
     /tmp/ccxFGJii.s:668    .text:0000000000000410 .L0 
     /tmp/ccxFGJii.s:491    .rodata.str1.8:0000000000000000 .LC0
     /tmp/ccxFGJii.s:527    .text:0000000000000310 .L0 
     /tmp/ccxFGJii.s:494    .rodata.str1.8:0000000000000008 .LC1
     /tmp/ccxFGJii.s:533    .text:0000000000000320 .L0 
     /tmp/ccxFGJii.s:497    .rodata.str1.8:0000000000000020 .LC2
     /tmp/ccxFGJii.s:559    .text:0000000000000354 .L0 
     /tmp/ccxFGJii.s:500    .rodata.str1.8:0000000000000028 .LC3
     /tmp/ccxFGJii.s:580    .text:0000000000000380 .L0 
     /tmp/ccxFGJii.s:585    .text:0000000000000390 .L0 
     /tmp/ccxFGJii.s:476    .text:00000000000002e8 .L17
     /tmp/ccxFGJii.s:446    .text:00000000000002b4 .L18
GAS LISTING /tmp/ccxFGJii.s 			page 20


     /tmp/ccxFGJii.s:577    .text:0000000000000380 .L21
     /tmp/ccxFGJii.s:536    .text:0000000000000330 .L22
     /tmp/ccxFGJii.s:603    .text:00000000000003c0 .L23
     /tmp/ccxFGJii.s:614    .text:00000000000003d4 .L24
     /tmp/ccxFGJii.s:625    .text:00000000000003e8 .L25
     /tmp/ccxFGJii.s:636    .text:00000000000003fc .L20
     /tmp/ccxFGJii.s:45     .text:000000000000003c .LEHB0
     /tmp/ccxFGJii.s:10     .text:0000000000000000 .LFB53
     /tmp/ccxFGJii.s:55     .text:0000000000000054 .LEHE0
     /tmp/ccxFGJii.s:58     .text:000000000000005c .LEHB1
     /tmp/ccxFGJii.s:61     .text:0000000000000064 .LEHE1
     /tmp/ccxFGJii.s:128    .text:00000000000000e4 .L6
     /tmp/ccxFGJii.s:67     .text:000000000000006c .LEHB2
     /tmp/ccxFGJii.s:70     .text:0000000000000074 .LEHE2
     /tmp/ccxFGJii.s:73     .text:000000000000007c .LEHB3
     /tmp/ccxFGJii.s:76     .text:0000000000000084 .LEHE3
     /tmp/ccxFGJii.s:142    .text:0000000000000100 .L7
     /tmp/ccxFGJii.s:82     .text:000000000000008c .LEHB4
     /tmp/ccxFGJii.s:85     .text:0000000000000094 .LEHE4
     /tmp/ccxFGJii.s:88     .text:000000000000009c .LEHB5
     /tmp/ccxFGJii.s:91     .text:00000000000000a4 .LEHE5
     /tmp/ccxFGJii.s:154    .text:000000000000011c .L8
     /tmp/ccxFGJii.s:97     .text:00000000000000ac .LEHB6
     /tmp/ccxFGJii.s:100    .text:00000000000000b4 .LEHE6
     /tmp/ccxFGJii.s:103    .text:00000000000000bc .LEHB7
     /tmp/ccxFGJii.s:106    .text:00000000000000c4 .LEHE7
     /tmp/ccxFGJii.s:166    .text:0000000000000138 .L9
     /tmp/ccxFGJii.s:138    .text:00000000000000f8 .LEHB8
     /tmp/ccxFGJii.s:141    .text:0000000000000100 .LEHE8
     /tmp/ccxFGJii.s:150    .text:0000000000000114 .LEHB9
     /tmp/ccxFGJii.s:153    .text:000000000000011c .LEHE9
     /tmp/ccxFGJii.s:162    .text:0000000000000130 .LEHB10
     /tmp/ccxFGJii.s:165    .text:0000000000000138 .LEHE10
     /tmp/ccxFGJii.s:174    .text:000000000000014c .LEHB11
     /tmp/ccxFGJii.s:177    .text:0000000000000154 .LEHE11
     /tmp/ccxFGJii.s:1462   .debug_abbrev:0000000000000000 .Ldebug_abbrev0
     /tmp/ccxFGJii.s:2387   .debug_str:00000000000002a9 .LASF51
     /tmp/ccxFGJii.s:2343   .debug_str:0000000000000190 .LASF52
     /tmp/ccxFGJii.s:2391   .debug_str:0000000000000374 .LASF53
     /tmp/ccxFGJii.s:5      .text:0000000000000000 .Ltext0
     /tmp/ccxFGJii.s:662    .text:0000000000000410 .Letext0
     /tmp/ccxFGJii.s:2285   .debug_line:0000000000000000 .Ldebug_line0
     /tmp/ccxFGJii.s:2331   .debug_str:0000000000000134 .LASF0
     /tmp/ccxFGJii.s:2339   .debug_str:0000000000000178 .LASF1
     /tmp/ccxFGJii.s:2367   .debug_str:0000000000000232 .LASF2
     /tmp/ccxFGJii.s:2369   .debug_str:0000000000000240 .LASF4
     /tmp/ccxFGJii.s:2333   .debug_str:0000000000000141 .LASF3
     /tmp/ccxFGJii.s:2293   .debug_str:0000000000000024 .LASF5
     /tmp/ccxFGJii.s:2355   .debug_str:00000000000001d6 .LASF6
     /tmp/ccxFGJii.s:2337   .debug_str:0000000000000165 .LASF7
     /tmp/ccxFGJii.s:2323   .debug_str:00000000000000f0 .LASF8
     /tmp/ccxFGJii.s:2327   .debug_str:0000000000000118 .LASF9
     /tmp/ccxFGJii.s:2301   .debug_str:0000000000000057 .LASF10
     /tmp/ccxFGJii.s:2317   .debug_str:00000000000000c8 .LASF11
     /tmp/ccxFGJii.s:2307   .debug_str:000000000000008e .LASF12
     /tmp/ccxFGJii.s:2299   .debug_str:0000000000000047 .LASF13
     /tmp/ccxFGJii.s:2379   .debug_str:0000000000000288 .LASF14
GAS LISTING /tmp/ccxFGJii.s 			page 21


     /tmp/ccxFGJii.s:2313   .debug_str:00000000000000ac .LASF15
     /tmp/ccxFGJii.s:2371   .debug_str:0000000000000247 .LASF16
     /tmp/ccxFGJii.s:2341   .debug_str:000000000000018b .LASF17
     /tmp/ccxFGJii.s:2311   .debug_str:00000000000000a3 .LASF18
     /tmp/ccxFGJii.s:2393   .debug_str:0000000000000397 .LASF26
     /tmp/ccxFGJii.s:2389   .debug_str:000000000000036d .LASF19
     /tmp/ccxFGJii.s:2373   .debug_str:000000000000025d .LASF20
     /tmp/ccxFGJii.s:2351   .debug_str:00000000000001ca .LASF21
     /tmp/ccxFGJii.s:2395   .debug_str:00000000000003a1 .LASF22
     /tmp/ccxFGJii.s:2345   .debug_str:00000000000001a8 .LASF23
     /tmp/ccxFGJii.s:2287   .debug_str:0000000000000000 .LASF24
     /tmp/ccxFGJii.s:2349   .debug_str:00000000000001c0 .LASF25
     /tmp/ccxFGJii.s:2335   .debug_str:0000000000000153 .LASF28
     /tmp/ccxFGJii.s:2357   .debug_str:00000000000001e9 .LASF27
     /tmp/ccxFGJii.s:2403   .debug_str:00000000000003d5 .LASF29
     /tmp/ccxFGJii.s:2377   .debug_str:0000000000000274 .LASF54
     /tmp/ccxFGJii.s:2321   .debug_str:00000000000000dc .LASF55
     /tmp/ccxFGJii.s:2359   .debug_str:00000000000001f4 .LASF30
     /tmp/ccxFGJii.s:2363   .debug_str:0000000000000209 .LASF31
     /tmp/ccxFGJii.s:2397   .debug_str:00000000000003b0 .LASF56
     /tmp/ccxFGJii.s:2303   .debug_str:0000000000000066 .LASF32
     /tmp/ccxFGJii.s:2309   .debug_str:000000000000009e .LASF34
     /tmp/ccxFGJii.s:2295   .debug_str:000000000000002b .LASF33
     /tmp/ccxFGJii.s:2381   .debug_str:0000000000000294 .LASF35
     /tmp/ccxFGJii.s:406    .text:0000000000000270 .LFB60
     /tmp/ccxFGJii.s:487    .text:00000000000002f8 .LFE60
     /tmp/ccxFGJii.s:2319   .debug_str:00000000000000d7 .LASF36
     /tmp/ccxFGJii.s:2081   .debug_loc:0000000000000000 .LLST6
     /tmp/ccxFGJii.s:2103   .debug_loc:000000000000005f .LLST7
     /tmp/ccxFGJii.s:429    .text:0000000000000298 .LVL43
     /tmp/ccxFGJii.s:434    .text:00000000000002a4 .LVL44
     /tmp/ccxFGJii.s:451    .text:00000000000002c0 .LVL46
     /tmp/ccxFGJii.s:456    .text:00000000000002cc .LVL47
     /tmp/ccxFGJii.s:324    .text:00000000000001e4 .LFB59
     /tmp/ccxFGJii.s:400    .text:0000000000000270 .LFE59
     /tmp/ccxFGJii.s:2110   .debug_loc:0000000000000082 .LLST4
     /tmp/ccxFGJii.s:2128   .debug_loc:00000000000000ce .LLST5
     /tmp/ccxFGJii.s:346    .text:000000000000020c .LVL34
     /tmp/ccxFGJii.s:351    .text:0000000000000218 .LVL35
     /tmp/ccxFGJii.s:376    .text:0000000000000248 .LVL37
     /tmp/ccxFGJii.s:381    .text:0000000000000254 .LVL38
     /tmp/ccxFGJii.s:244    .text:0000000000000154 .LFB58
     /tmp/ccxFGJii.s:318    .text:00000000000001e4 .LFE58
     /tmp/ccxFGJii.s:2139   .debug_loc:0000000000000104 .LLST2
     /tmp/ccxFGJii.s:2157   .debug_loc:0000000000000150 .LLST3
     /tmp/ccxFGJii.s:267    .text:0000000000000180 .LVL27
     /tmp/ccxFGJii.s:272    .text:000000000000018c .LVL28
     /tmp/ccxFGJii.s:297    .text:00000000000001c0 .LVL29
     /tmp/ccxFGJii.s:302    .text:00000000000001cc .LVL30
     /tmp/ccxFGJii.s:2291   .debug_str:000000000000001a .LASF37
     /tmp/ccxFGJii.s:2385   .debug_str:00000000000002a4 .LASF38
     /tmp/ccxFGJii.s:2365   .debug_str:0000000000000220 .LASF39
     /tmp/ccxFGJii.s:507    .text:00000000000002f8 .LFB56
     /tmp/ccxFGJii.s:651    .text:0000000000000410 .LFE56
     /tmp/ccxFGJii.s:2171   .debug_loc:0000000000000189 .LLST8
     /tmp/ccxFGJii.s:562    .text:0000000000000368 .LVL57
     /tmp/ccxFGJii.s:545    .text:0000000000000340 .LBB5
GAS LISTING /tmp/ccxFGJii.s 			page 22


     /tmp/ccxFGJii.s:574    .text:000000000000037c .LBE5
     /tmp/ccxFGJii.s:2189   .debug_loc:00000000000001d5 .LLST9
     /tmp/ccxFGJii.s:530    .text:0000000000000320 .LVL53
     /tmp/ccxFGJii.s:535    .text:0000000000000330 .LVL54
     /tmp/ccxFGJii.s:542    .text:000000000000033c .LVL55
     /tmp/ccxFGJii.s:582    .text:0000000000000390 .LVL58
     /tmp/ccxFGJii.s:587    .text:00000000000003a0 .LVL59
     /tmp/ccxFGJii.s:592    .text:00000000000003ac .LVL60
     /tmp/ccxFGJii.s:2297   .debug_str:0000000000000042 .LASF57
     /tmp/ccxFGJii.s:2375   .debug_str:0000000000000262 .LASF40
     /tmp/ccxFGJii.s:180    .text:0000000000000154 .LFE53
     /tmp/ccxFGJii.s:2196   .debug_loc:00000000000001f8 .LLST0
     /tmp/ccxFGJii.s:2258   .debug_loc:00000000000002e8 .LLST1
     /tmp/ccxFGJii.s:47     .text:0000000000000044 .LVL2
     /tmp/ccxFGJii.s:54     .text:0000000000000054 .LVL3
     /tmp/ccxFGJii.s:60     .text:0000000000000064 .LVL4
     /tmp/ccxFGJii.s:69     .text:0000000000000074 .LVL5
     /tmp/ccxFGJii.s:75     .text:0000000000000084 .LVL6
     /tmp/ccxFGJii.s:84     .text:0000000000000094 .LVL7
     /tmp/ccxFGJii.s:90     .text:00000000000000a4 .LVL8
     /tmp/ccxFGJii.s:99     .text:00000000000000b4 .LVL9
     /tmp/ccxFGJii.s:105    .text:00000000000000c4 .LVL10
     /tmp/ccxFGJii.s:136    .text:00000000000000f4 .LVL14
     /tmp/ccxFGJii.s:140    .text:0000000000000100 .LVL15
     /tmp/ccxFGJii.s:148    .text:0000000000000110 .LVL17
     /tmp/ccxFGJii.s:152    .text:000000000000011c .LVL18
     /tmp/ccxFGJii.s:160    .text:000000000000012c .LVL20
     /tmp/ccxFGJii.s:164    .text:0000000000000138 .LVL21
     /tmp/ccxFGJii.s:172    .text:0000000000000148 .LVL23
     /tmp/ccxFGJii.s:176    .text:0000000000000154 .LVL24
     /tmp/ccxFGJii.s:2305   .debug_str:000000000000007b .LASF41
     /tmp/ccxFGJii.s:2399   .debug_str:00000000000003ba .LASF42
     /tmp/ccxFGJii.s:2361   .debug_str:00000000000001fb .LASF43
     /tmp/ccxFGJii.s:2383   .debug_str:000000000000029b .LASF44
     /tmp/ccxFGJii.s:2329   .debug_str:0000000000000126 .LASF45
     /tmp/ccxFGJii.s:2347   .debug_str:00000000000001b6 .LASF46
     /tmp/ccxFGJii.s:2315   .debug_str:00000000000000c2 .LASF47
     /tmp/ccxFGJii.s:2405   .debug_str:00000000000003e7 .LASF48
     /tmp/ccxFGJii.s:2353   .debug_str:00000000000001cf .LASF49
     /tmp/ccxFGJii.s:2289   .debug_str:000000000000000a .LASF50
     /tmp/ccxFGJii.s:2401   .debug_str:00000000000003c6 .LASF58
     /tmp/ccxFGJii.s:2325   .debug_str:0000000000000100 .LASF59
     /tmp/ccxFGJii.s:409    .text:0000000000000270 .LVL41
     /tmp/ccxFGJii.s:427    .text:0000000000000290 .LVL42
     /tmp/ccxFGJii.s:468    .text:00000000000002dc .LVL48
     /tmp/ccxFGJii.s:475    .text:00000000000002e8 .LVL50
     /tmp/ccxFGJii.s:445    .text:00000000000002b4 .LVL45
     /tmp/ccxFGJii.s:471    .text:00000000000002e0 .LVL49
     /tmp/ccxFGJii.s:327    .text:00000000000001e4 .LVL32
     /tmp/ccxFGJii.s:344    .text:0000000000000204 .LVL33
     /tmp/ccxFGJii.s:392    .text:0000000000000264 .LVL39
     /tmp/ccxFGJii.s:362    .text:000000000000022c .LVL36
     /tmp/ccxFGJii.s:395    .text:0000000000000268 .LVL40
     /tmp/ccxFGJii.s:247    .text:0000000000000154 .LVL25
     /tmp/ccxFGJii.s:265    .text:0000000000000178 .LVL26
     /tmp/ccxFGJii.s:311    .text:00000000000001d8 .LVL31
     /tmp/ccxFGJii.s:512    .text:00000000000002f8 .LVL51
GAS LISTING /tmp/ccxFGJii.s 			page 23


     /tmp/ccxFGJii.s:528    .text:0000000000000318 .LVL52
     /tmp/ccxFGJii.s:646    .text:0000000000000408 .LVL65
     /tmp/ccxFGJii.s:556    .text:0000000000000354 .LVL56
     /tmp/ccxFGJii.s:16     .text:0000000000000000 .LVL0
     /tmp/ccxFGJii.s:37     .text:000000000000002c .LVL1
     /tmp/ccxFGJii.s:119    .text:00000000000000d4 .LVL11
     /tmp/ccxFGJii.s:127    .text:00000000000000e4 .LVL12
     /tmp/ccxFGJii.s:131    .text:00000000000000e8 .LVL13
     /tmp/ccxFGJii.s:144    .text:0000000000000104 .LVL16
     /tmp/ccxFGJii.s:156    .text:0000000000000120 .LVL19
     /tmp/ccxFGJii.s:168    .text:000000000000013c .LVL22
     /tmp/ccxFGJii.s:669    .debug_info:0000000000000000 .Ldebug_info0
     /tmp/ccxFGJii.s:183    .gcc_except_table:0000000000000000 .LLSDA53
     /tmp/ccxFGJii.s:653    .gcc_except_table:00000000000000a1 .LLSDA56

UNDEFINED SYMBOLS
_Z9mem_allocm
_Znwm
_ZN9SemaphoreC1Ej
_ZdlPv
_Unwind_Resume
__gxx_personality_v0
_ZN9Semaphore4waitEv
_ZN9Semaphore6signalEv
_Z11printStringPKc
_Z8mem_freePv
